

Microchip MPLAB XC8 Assembler V2.32 build 20210201212658 
                                                                                               Wed Sep 21 16:23:12 2022

Microchip MPLAB XC8 C Compiler v2.32 (Free license) build 20210201212658 Og1 
     1                           	processor	16F1827
     2                           	pagewidth 120
     3                           	opt	flic
     4                           	psect	eeprom_data,global,class=EEDATA,space=3,delta=2,noexec
     5                           	psect	idataBANK1,global,class=CODE,delta=2,noexec
     6                           	psect	stringtext1,global,class=STRCODE,delta=2,noexec
     7                           	psect	nvBANK1,global,class=BANK1,space=1,delta=1,noexec
     8                           	psect	nvBANK2,global,class=BANK2,space=1,delta=1,noexec
     9                           	psect	cinit,global,class=CODE,merge=1,delta=2
    10                           	psect	bssBANK0,global,class=BANK0,space=1,delta=1,noexec
    11                           	psect	bssBANK1,global,class=BANK1,space=1,delta=1,noexec
    12                           	psect	dataBANK1,global,class=BANK1,space=1,delta=1,noexec
    13                           	psect	bssBANK2,global,class=BANK2,space=1,delta=1,noexec
    14                           	psect	clrtext,global,class=CODE,delta=2
    15                           	psect	cstackBANK2,global,class=BANK2,space=1,delta=1,noexec
    16                           	psect	cstackBANK1,global,class=BANK1,space=1,delta=1,noexec
    17                           	psect	cstackCOMMON,global,class=COMMON,space=1,delta=1,noexec
    18                           	psect	cstackBANK0,global,class=BANK0,space=1,delta=1,noexec
    19                           	psect	maintext,global,class=CODE,merge=1,split=1,delta=2
    20                           	psect	text1,local,class=CODE,merge=1,delta=2
    21                           	psect	text2,local,class=CODE,merge=1,delta=2
    22                           	psect	text3,local,class=CODE,merge=1,delta=2
    23                           	psect	text4,local,class=CODE,merge=1,delta=2
    24                           	psect	text5,local,class=CODE,merge=1,delta=2
    25                           	psect	text6,local,class=CODE,merge=1,delta=2
    26                           	psect	text7,local,class=CODE,merge=1,delta=2
    27                           	psect	text8,local,class=CODE,merge=1,delta=2
    28                           	psect	text9,local,class=CODE,merge=1,delta=2,group=1
    29                           	psect	text10,local,class=CODE,merge=1,delta=2,group=1
    30                           	psect	text11,local,class=CODE,merge=1,delta=2,group=1
    31                           	psect	text12,local,class=CODE,merge=1,delta=2,group=1
    32                           	psect	text13,local,class=CODE,merge=1,delta=2,group=1
    33                           	psect	text14,local,class=CODE,merge=1,delta=2
    34                           	psect	text15,local,class=CODE,merge=1,delta=2
    35                           	psect	text16,local,class=CODE,merge=1,delta=2
    36                           	psect	text17,local,class=CODE,merge=1,delta=2
    37                           	psect	text18,local,class=CODE,merge=1,delta=2
    38                           	psect	text19,local,class=CODE,merge=1,delta=2
    39                           	psect	text20,local,class=CODE,merge=1,delta=2
    40                           	psect	text21,local,class=CODE,merge=1,delta=2
    41                           	psect	text22,local,class=CODE,merge=1,delta=2
    42                           	psect	text23,local,class=CODE,merge=1,delta=2
    43                           	psect	text24,local,class=CODE,merge=1,delta=2
    44                           	psect	text25,local,class=CODE,merge=1,delta=2
    45                           	psect	text26,local,class=CODE,merge=1,delta=2
    46                           	psect	text27,local,class=CODE,merge=1,delta=2
    47                           	psect	text28,local,class=CODE,merge=1,delta=2
    48                           	psect	text29,local,class=CODE,merge=1,delta=2
    49                           	psect	text30,local,class=CODE,merge=1,delta=2
    50                           	psect	text31,local,class=CODE,merge=1,delta=2
    51                           	psect	text32,local,class=CODE,merge=1,delta=2
    52                           	psect	text33,local,class=CODE,merge=1,delta=2
    53                           	psect	text34,local,class=CODE,merge=1,delta=2
    54                           	psect	text35,local,class=CODE,merge=1,delta=2
    55                           	psect	text36,local,class=CODE,merge=1,delta=2
    56                           	psect	text37,local,class=CODE,merge=1,delta=2
    57                           	psect	text38,local,class=CODE,merge=1,delta=2
    58                           	psect	text39,local,class=CODE,merge=1,delta=2
    59                           	psect	text40,local,class=CODE,merge=1,delta=2
    60                           	psect	text41,local,class=CODE,merge=1,delta=2
    61                           	psect	text42,local,class=CODE,merge=1,delta=2
    62                           	psect	text43,local,class=CODE,merge=1,delta=2
    63                           	psect	intentry,global,class=CODE,delta=2
    64                           	psect	text45,local,class=CODE,merge=1,delta=2
    65                           	psect	text46,local,class=CODE,merge=1,delta=2
    66                           	psect	text47,local,class=CODE,merge=1,delta=2
    67                           	psect	text48,local,class=CODE,merge=1,delta=2
    68                           	psect	text49,local,class=CODE,merge=1,delta=2
    69                           	psect	text50,local,class=CODE,merge=1,delta=2
    70                           	psect	text51,local,class=CODE,merge=1,delta=2
    71                           	psect	text52,local,class=CODE,merge=1,delta=2
    72                           	psect	text53,local,class=CODE,merge=1,delta=2
    73                           	psect	text54,local,class=CODE,merge=1,delta=2
    74                           	psect	text55,local,class=CODE,merge=1,delta=2
    75                           	psect	text56,local,class=CODE,merge=1,delta=2
    76                           	psect	text57,local,class=CODE,merge=1,delta=2
    77                           	psect	text58,local,class=CODE,merge=1,delta=2
    78                           	psect	text59,local,class=CODE,merge=1,delta=2
    79                           	psect	text60,local,class=CODE,merge=1,delta=2
    80                           	psect	text61,local,class=CODE,merge=1,delta=2
    81                           	psect	text62,local,class=CODE,merge=1,delta=2
    82                           	psect	text63,local,class=CODE,merge=1,delta=2
    83                           	psect	text64,local,class=CODE,merge=1,delta=2
    84                           	psect	text65,local,class=CODE,merge=1,delta=2
    85                           	psect	text66,local,class=CODE,merge=1,delta=2
    86                           	psect	text67,local,class=CODE,merge=1,delta=2
    87                           	psect	text68,local,class=CODE,merge=1,delta=2
    88                           	psect	text69,local,class=CODE,merge=1,delta=2
    89                           	psect	text70,local,class=CODE,merge=1,delta=2
    90                           	psect	text71,local,class=CODE,merge=1,delta=2
    91                           	psect	text72,local,class=CODE,merge=1,delta=2
    92                           	psect	text73,local,class=CODE,merge=1,delta=2
    93                           	psect	text74,local,class=CODE,merge=1,delta=2
    94                           	psect	text75,local,class=CODE,merge=1,delta=2
    95                           	psect	text76,local,class=CODE,merge=1,delta=2
    96                           	psect	text77,local,class=CODE,merge=1,delta=2
    97                           	psect	idloc,global,abs,ovrld,class=IDLOC,space=5,delta=2,noexec
    98                           	psect	config,global,abs,ovrld,class=CONFIG,space=4,delta=2,noexec
    99                           	dabs	1,0x7E,2
   100  0000                     
   101                           ; Version 2.40
   102                           ; Generated 17/11/2021 GMT
   103                           ; 
   104                           ; Copyright © 2021, Microchip Technology Inc. and its subsidiaries ("Microchip")
   105                           ; All rights reserved.
   106                           ; 
   107                           ; This software is developed by Microchip Technology Inc. and its subsidiaries ("Microch
      +                          ip").
   108                           ; 
   109                           ; Redistribution and use in source and binary forms, with or without modification, are
   110                           ; permitted provided that the following conditions are met:
   111                           ; 
   112                           ;     1. Redistributions of source code must retain the above copyright notice, this lis
      +                          t of
   113                           ;        conditions and the following disclaimer.
   114                           ; 
   115                           ;     2. Redistributions in binary form must reproduce the above copyright notice, this 
      +                          list
   116                           ;        of conditions and the following disclaimer in the documentation and/or other
   117                           ;        materials provided with the distribution. Publication is not required when
   118                           ;        this file is used in an embedded application.
   119                           ; 
   120                           ;     3. Microchip's name may not be used to endorse or promote products derived from th
      +                          is
   121                           ;        software without specific prior written permission.
   122                           ; 
   123                           ; THIS SOFTWARE IS PROVIDED BY MICROCHIP "AS IS" AND ANY EXPRESS OR IMPLIED WARRANTIES,
   124                           ; INCLUDING, BUT NOT LIMITED TO, THE IMPLIED WARRANTIES OF MERCHANTABILITY AND FITNESS F
      +                          OR
   125                           ; PURPOSE ARE DISCLAIMED.  IN NO EVENT SHALL MICROCHIP BE LIABLE FOR ANY DIRECT, INDIREC
      +                          T,
   126                           ; INCIDENTAL, SPECIAL, EXEMPLARY, OR CONSEQUENTIAL DAMAGES (INCLUDING BUT NOT LIMITED TO
   127                           ; PROCUREMENT OF SUBSTITUTE GOODS OR SERVICES; LOSS OF USE, DATA OR PROFITS; OR BUSINESS
   128                           ; INTERRUPTION) HOWSOEVER CAUSED AND ON ANY THEORY OF LIABILITY, WHETHER IN CONTRACT, ST
      +                          RICT
   129                           ; LIABILITY, OR TORT (INCLUDING NEGLIGENCE OR OTHERWISE) ARISING IN ANY WAY OUT OF THE U
      +                          SE OF
   130                           ; THIS SOFTWARE, EVEN IF ADVISED OF THE POSSIBILITY OF SUCH DAMAGE.
   131                           ; 
   132                           ; 
   133                           ; Code-generator required, PIC16F1827 Definitions
   134                           ; 
   135                           ; SFR Addresses
   136  0000                     	;# 
   137  0001                     	;# 
   138  0002                     	;# 
   139  0003                     	;# 
   140  0004                     	;# 
   141  0005                     	;# 
   142  0006                     	;# 
   143  0007                     	;# 
   144  0008                     	;# 
   145  0009                     	;# 
   146  000A                     	;# 
   147  000B                     	;# 
   148  000C                     	;# 
   149  000D                     	;# 
   150  0011                     	;# 
   151  0012                     	;# 
   152  0013                     	;# 
   153  0014                     	;# 
   154  0015                     	;# 
   155  0016                     	;# 
   156  0016                     	;# 
   157  0017                     	;# 
   158  0018                     	;# 
   159  0019                     	;# 
   160  001A                     	;# 
   161  001B                     	;# 
   162  001C                     	;# 
   163  001E                     	;# 
   164  001F                     	;# 
   165  008C                     	;# 
   166  008D                     	;# 
   167  0091                     	;# 
   168  0092                     	;# 
   169  0093                     	;# 
   170  0094                     	;# 
   171  0095                     	;# 
   172  0096                     	;# 
   173  0097                     	;# 
   174  0098                     	;# 
   175  0099                     	;# 
   176  009A                     	;# 
   177  009B                     	;# 
   178  009B                     	;# 
   179  009C                     	;# 
   180  009D                     	;# 
   181  009E                     	;# 
   182  010C                     	;# 
   183  010D                     	;# 
   184  0111                     	;# 
   185  0112                     	;# 
   186  0113                     	;# 
   187  0114                     	;# 
   188  0115                     	;# 
   189  0116                     	;# 
   190  0117                     	;# 
   191  0118                     	;# 
   192  0119                     	;# 
   193  011A                     	;# 
   194  011B                     	;# 
   195  011D                     	;# 
   196  011E                     	;# 
   197  018C                     	;# 
   198  018D                     	;# 
   199  0191                     	;# 
   200  0191                     	;# 
   201  0192                     	;# 
   202  0193                     	;# 
   203  0193                     	;# 
   204  0193                     	;# 
   205  0194                     	;# 
   206  0195                     	;# 
   207  0196                     	;# 
   208  0199                     	;# 
   209  019A                     	;# 
   210  019B                     	;# 
   211  019B                     	;# 
   212  019B                     	;# 
   213  019B                     	;# 
   214  019C                     	;# 
   215  019C                     	;# 
   216  019D                     	;# 
   217  019E                     	;# 
   218  019F                     	;# 
   219  020C                     	;# 
   220  020D                     	;# 
   221  0211                     	;# 
   222  0211                     	;# 
   223  0212                     	;# 
   224  0212                     	;# 
   225  0213                     	;# 
   226  0213                     	;# 
   227  0214                     	;# 
   228  0214                     	;# 
   229  0215                     	;# 
   230  0215                     	;# 
   231  0215                     	;# 
   232  0216                     	;# 
   233  0216                     	;# 
   234  0217                     	;# 
   235  0217                     	;# 
   236  0219                     	;# 
   237  021A                     	;# 
   238  021B                     	;# 
   239  021C                     	;# 
   240  021D                     	;# 
   241  021E                     	;# 
   242  021F                     	;# 
   243  0291                     	;# 
   244  0291                     	;# 
   245  0292                     	;# 
   246  0293                     	;# 
   247  0294                     	;# 
   248  0295                     	;# 
   249  0295                     	;# 
   250  0296                     	;# 
   251  0298                     	;# 
   252  0298                     	;# 
   253  0299                     	;# 
   254  029A                     	;# 
   255  029B                     	;# 
   256  029C                     	;# 
   257  029C                     	;# 
   258  029D                     	;# 
   259  029E                     	;# 
   260  029E                     	;# 
   261  0311                     	;# 
   262  0311                     	;# 
   263  0312                     	;# 
   264  0313                     	;# 
   265  0318                     	;# 
   266  0318                     	;# 
   267  0319                     	;# 
   268  031A                     	;# 
   269  0394                     	;# 
   270  0395                     	;# 
   271  0396                     	;# 
   272  039A                     	;# 
   273  039C                     	;# 
   274  039D                     	;# 
   275  039E                     	;# 
   276  039F                     	;# 
   277  0415                     	;# 
   278  0416                     	;# 
   279  0417                     	;# 
   280  041C                     	;# 
   281  041D                     	;# 
   282  041E                     	;# 
   283  0FE4                     	;# 
   284  0FE5                     	;# 
   285  0FE6                     	;# 
   286  0FE7                     	;# 
   287  0FE8                     	;# 
   288  0FE9                     	;# 
   289  0FEA                     	;# 
   290  0FEB                     	;# 
   291  0FED                     	;# 
   292  0FEE                     	;# 
   293  0FEF                     	;# 
   294  0000                     	;# 
   295  0001                     	;# 
   296  0002                     	;# 
   297  0003                     	;# 
   298  0004                     	;# 
   299  0005                     	;# 
   300  0006                     	;# 
   301  0007                     	;# 
   302  0008                     	;# 
   303  0009                     	;# 
   304  000A                     	;# 
   305  000B                     	;# 
   306  000C                     	;# 
   307  000D                     	;# 
   308  0011                     	;# 
   309  0012                     	;# 
   310  0013                     	;# 
   311  0014                     	;# 
   312  0015                     	;# 
   313  0016                     	;# 
   314  0016                     	;# 
   315  0017                     	;# 
   316  0018                     	;# 
   317  0019                     	;# 
   318  001A                     	;# 
   319  001B                     	;# 
   320  001C                     	;# 
   321  001E                     	;# 
   322  001F                     	;# 
   323  008C                     	;# 
   324  008D                     	;# 
   325  0091                     	;# 
   326  0092                     	;# 
   327  0093                     	;# 
   328  0094                     	;# 
   329  0095                     	;# 
   330  0096                     	;# 
   331  0097                     	;# 
   332  0098                     	;# 
   333  0099                     	;# 
   334  009A                     	;# 
   335  009B                     	;# 
   336  009B                     	;# 
   337  009C                     	;# 
   338  009D                     	;# 
   339  009E                     	;# 
   340  010C                     	;# 
   341  010D                     	;# 
   342  0111                     	;# 
   343  0112                     	;# 
   344  0113                     	;# 
   345  0114                     	;# 
   346  0115                     	;# 
   347  0116                     	;# 
   348  0117                     	;# 
   349  0118                     	;# 
   350  0119                     	;# 
   351  011A                     	;# 
   352  011B                     	;# 
   353  011D                     	;# 
   354  011E                     	;# 
   355  018C                     	;# 
   356  018D                     	;# 
   357  0191                     	;# 
   358  0191                     	;# 
   359  0192                     	;# 
   360  0193                     	;# 
   361  0193                     	;# 
   362  0193                     	;# 
   363  0194                     	;# 
   364  0195                     	;# 
   365  0196                     	;# 
   366  0199                     	;# 
   367  019A                     	;# 
   368  019B                     	;# 
   369  019B                     	;# 
   370  019B                     	;# 
   371  019B                     	;# 
   372  019C                     	;# 
   373  019C                     	;# 
   374  019D                     	;# 
   375  019E                     	;# 
   376  019F                     	;# 
   377  020C                     	;# 
   378  020D                     	;# 
   379  0211                     	;# 
   380  0211                     	;# 
   381  0212                     	;# 
   382  0212                     	;# 
   383  0213                     	;# 
   384  0213                     	;# 
   385  0214                     	;# 
   386  0214                     	;# 
   387  0215                     	;# 
   388  0215                     	;# 
   389  0215                     	;# 
   390  0216                     	;# 
   391  0216                     	;# 
   392  0217                     	;# 
   393  0217                     	;# 
   394  0219                     	;# 
   395  021A                     	;# 
   396  021B                     	;# 
   397  021C                     	;# 
   398  021D                     	;# 
   399  021E                     	;# 
   400  021F                     	;# 
   401  0291                     	;# 
   402  0291                     	;# 
   403  0292                     	;# 
   404  0293                     	;# 
   405  0294                     	;# 
   406  0295                     	;# 
   407  0295                     	;# 
   408  0296                     	;# 
   409  0298                     	;# 
   410  0298                     	;# 
   411  0299                     	;# 
   412  029A                     	;# 
   413  029B                     	;# 
   414  029C                     	;# 
   415  029C                     	;# 
   416  029D                     	;# 
   417  029E                     	;# 
   418  029E                     	;# 
   419  0311                     	;# 
   420  0311                     	;# 
   421  0312                     	;# 
   422  0313                     	;# 
   423  0318                     	;# 
   424  0318                     	;# 
   425  0319                     	;# 
   426  031A                     	;# 
   427  0394                     	;# 
   428  0395                     	;# 
   429  0396                     	;# 
   430  039A                     	;# 
   431  039C                     	;# 
   432  039D                     	;# 
   433  039E                     	;# 
   434  039F                     	;# 
   435  0415                     	;# 
   436  0416                     	;# 
   437  0417                     	;# 
   438  041C                     	;# 
   439  041D                     	;# 
   440  041E                     	;# 
   441  0FE4                     	;# 
   442  0FE5                     	;# 
   443  0FE6                     	;# 
   444  0FE7                     	;# 
   445  0FE8                     	;# 
   446  0FE9                     	;# 
   447  0FEA                     	;# 
   448  0FEB                     	;# 
   449  0FED                     	;# 
   450  0FEE                     	;# 
   451  0FEF                     	;# 
   452  0000                     	;# 
   453  0001                     	;# 
   454  0002                     	;# 
   455  0003                     	;# 
   456  0004                     	;# 
   457  0005                     	;# 
   458  0006                     	;# 
   459  0007                     	;# 
   460  0008                     	;# 
   461  0009                     	;# 
   462  000A                     	;# 
   463  000B                     	;# 
   464  000C                     	;# 
   465  000D                     	;# 
   466  0011                     	;# 
   467  0012                     	;# 
   468  0013                     	;# 
   469  0014                     	;# 
   470  0015                     	;# 
   471  0016                     	;# 
   472  0016                     	;# 
   473  0017                     	;# 
   474  0018                     	;# 
   475  0019                     	;# 
   476  001A                     	;# 
   477  001B                     	;# 
   478  001C                     	;# 
   479  001E                     	;# 
   480  001F                     	;# 
   481  008C                     	;# 
   482  008D                     	;# 
   483  0091                     	;# 
   484  0092                     	;# 
   485  0093                     	;# 
   486  0094                     	;# 
   487  0095                     	;# 
   488  0096                     	;# 
   489  0097                     	;# 
   490  0098                     	;# 
   491  0099                     	;# 
   492  009A                     	;# 
   493  009B                     	;# 
   494  009B                     	;# 
   495  009C                     	;# 
   496  009D                     	;# 
   497  009E                     	;# 
   498  010C                     	;# 
   499  010D                     	;# 
   500  0111                     	;# 
   501  0112                     	;# 
   502  0113                     	;# 
   503  0114                     	;# 
   504  0115                     	;# 
   505  0116                     	;# 
   506  0117                     	;# 
   507  0118                     	;# 
   508  0119                     	;# 
   509  011A                     	;# 
   510  011B                     	;# 
   511  011D                     	;# 
   512  011E                     	;# 
   513  018C                     	;# 
   514  018D                     	;# 
   515  0191                     	;# 
   516  0191                     	;# 
   517  0192                     	;# 
   518  0193                     	;# 
   519  0193                     	;# 
   520  0193                     	;# 
   521  0194                     	;# 
   522  0195                     	;# 
   523  0196                     	;# 
   524  0199                     	;# 
   525  019A                     	;# 
   526  019B                     	;# 
   527  019B                     	;# 
   528  019B                     	;# 
   529  019B                     	;# 
   530  019C                     	;# 
   531  019C                     	;# 
   532  019D                     	;# 
   533  019E                     	;# 
   534  019F                     	;# 
   535  020C                     	;# 
   536  020D                     	;# 
   537  0211                     	;# 
   538  0211                     	;# 
   539  0212                     	;# 
   540  0212                     	;# 
   541  0213                     	;# 
   542  0213                     	;# 
   543  0214                     	;# 
   544  0214                     	;# 
   545  0215                     	;# 
   546  0215                     	;# 
   547  0215                     	;# 
   548  0216                     	;# 
   549  0216                     	;# 
   550  0217                     	;# 
   551  0217                     	;# 
   552  0219                     	;# 
   553  021A                     	;# 
   554  021B                     	;# 
   555  021C                     	;# 
   556  021D                     	;# 
   557  021E                     	;# 
   558  021F                     	;# 
   559  0291                     	;# 
   560  0291                     	;# 
   561  0292                     	;# 
   562  0293                     	;# 
   563  0294                     	;# 
   564  0295                     	;# 
   565  0295                     	;# 
   566  0296                     	;# 
   567  0298                     	;# 
   568  0298                     	;# 
   569  0299                     	;# 
   570  029A                     	;# 
   571  029B                     	;# 
   572  029C                     	;# 
   573  029C                     	;# 
   574  029D                     	;# 
   575  029E                     	;# 
   576  029E                     	;# 
   577  0311                     	;# 
   578  0311                     	;# 
   579  0312                     	;# 
   580  0313                     	;# 
   581  0318                     	;# 
   582  0318                     	;# 
   583  0319                     	;# 
   584  031A                     	;# 
   585  0394                     	;# 
   586  0395                     	;# 
   587  0396                     	;# 
   588  039A                     	;# 
   589  039C                     	;# 
   590  039D                     	;# 
   591  039E                     	;# 
   592  039F                     	;# 
   593  0415                     	;# 
   594  0416                     	;# 
   595  0417                     	;# 
   596  041C                     	;# 
   597  041D                     	;# 
   598  041E                     	;# 
   599  0FE4                     	;# 
   600  0FE5                     	;# 
   601  0FE6                     	;# 
   602  0FE7                     	;# 
   603  0FE8                     	;# 
   604  0FE9                     	;# 
   605  0FEA                     	;# 
   606  0FEB                     	;# 
   607  0FED                     	;# 
   608  0FEE                     	;# 
   609  0FEF                     	;# 
   610  0000                     	;# 
   611  0001                     	;# 
   612  0002                     	;# 
   613  0003                     	;# 
   614  0004                     	;# 
   615  0005                     	;# 
   616  0006                     	;# 
   617  0007                     	;# 
   618  0008                     	;# 
   619  0009                     	;# 
   620  000A                     	;# 
   621  000B                     	;# 
   622  000C                     	;# 
   623  000D                     	;# 
   624  0011                     	;# 
   625  0012                     	;# 
   626  0013                     	;# 
   627  0014                     	;# 
   628  0015                     	;# 
   629  0016                     	;# 
   630  0016                     	;# 
   631  0017                     	;# 
   632  0018                     	;# 
   633  0019                     	;# 
   634  001A                     	;# 
   635  001B                     	;# 
   636  001C                     	;# 
   637  001E                     	;# 
   638  001F                     	;# 
   639  008C                     	;# 
   640  008D                     	;# 
   641  0091                     	;# 
   642  0092                     	;# 
   643  0093                     	;# 
   644  0094                     	;# 
   645  0095                     	;# 
   646  0096                     	;# 
   647  0097                     	;# 
   648  0098                     	;# 
   649  0099                     	;# 
   650  009A                     	;# 
   651  009B                     	;# 
   652  009B                     	;# 
   653  009C                     	;# 
   654  009D                     	;# 
   655  009E                     	;# 
   656  010C                     	;# 
   657  010D                     	;# 
   658  0111                     	;# 
   659  0112                     	;# 
   660  0113                     	;# 
   661  0114                     	;# 
   662  0115                     	;# 
   663  0116                     	;# 
   664  0117                     	;# 
   665  0118                     	;# 
   666  0119                     	;# 
   667  011A                     	;# 
   668  011B                     	;# 
   669  011D                     	;# 
   670  011E                     	;# 
   671  018C                     	;# 
   672  018D                     	;# 
   673  0191                     	;# 
   674  0191                     	;# 
   675  0192                     	;# 
   676  0193                     	;# 
   677  0193                     	;# 
   678  0193                     	;# 
   679  0194                     	;# 
   680  0195                     	;# 
   681  0196                     	;# 
   682  0199                     	;# 
   683  019A                     	;# 
   684  019B                     	;# 
   685  019B                     	;# 
   686  019B                     	;# 
   687  019B                     	;# 
   688  019C                     	;# 
   689  019C                     	;# 
   690  019D                     	;# 
   691  019E                     	;# 
   692  019F                     	;# 
   693  020C                     	;# 
   694  020D                     	;# 
   695  0211                     	;# 
   696  0211                     	;# 
   697  0212                     	;# 
   698  0212                     	;# 
   699  0213                     	;# 
   700  0213                     	;# 
   701  0214                     	;# 
   702  0214                     	;# 
   703  0215                     	;# 
   704  0215                     	;# 
   705  0215                     	;# 
   706  0216                     	;# 
   707  0216                     	;# 
   708  0217                     	;# 
   709  0217                     	;# 
   710  0219                     	;# 
   711  021A                     	;# 
   712  021B                     	;# 
   713  021C                     	;# 
   714  021D                     	;# 
   715  021E                     	;# 
   716  021F                     	;# 
   717  0291                     	;# 
   718  0291                     	;# 
   719  0292                     	;# 
   720  0293                     	;# 
   721  0294                     	;# 
   722  0295                     	;# 
   723  0295                     	;# 
   724  0296                     	;# 
   725  0298                     	;# 
   726  0298                     	;# 
   727  0299                     	;# 
   728  029A                     	;# 
   729  029B                     	;# 
   730  029C                     	;# 
   731  029C                     	;# 
   732  029D                     	;# 
   733  029E                     	;# 
   734  029E                     	;# 
   735  0311                     	;# 
   736  0311                     	;# 
   737  0312                     	;# 
   738  0313                     	;# 
   739  0318                     	;# 
   740  0318                     	;# 
   741  0319                     	;# 
   742  031A                     	;# 
   743  0394                     	;# 
   744  0395                     	;# 
   745  0396                     	;# 
   746  039A                     	;# 
   747  039C                     	;# 
   748  039D                     	;# 
   749  039E                     	;# 
   750  039F                     	;# 
   751  0415                     	;# 
   752  0416                     	;# 
   753  0417                     	;# 
   754  041C                     	;# 
   755  041D                     	;# 
   756  041E                     	;# 
   757  0FE4                     	;# 
   758  0FE5                     	;# 
   759  0FE6                     	;# 
   760  0FE7                     	;# 
   761  0FE8                     	;# 
   762  0FE9                     	;# 
   763  0FEA                     	;# 
   764  0FEB                     	;# 
   765  0FED                     	;# 
   766  0FEE                     	;# 
   767  0FEF                     	;# 
   768  0000                     	;# 
   769  0001                     	;# 
   770  0002                     	;# 
   771  0003                     	;# 
   772  0004                     	;# 
   773  0005                     	;# 
   774  0006                     	;# 
   775  0007                     	;# 
   776  0008                     	;# 
   777  0009                     	;# 
   778  000A                     	;# 
   779  000B                     	;# 
   780  000C                     	;# 
   781  000D                     	;# 
   782  0011                     	;# 
   783  0012                     	;# 
   784  0013                     	;# 
   785  0014                     	;# 
   786  0015                     	;# 
   787  0016                     	;# 
   788  0016                     	;# 
   789  0017                     	;# 
   790  0018                     	;# 
   791  0019                     	;# 
   792  001A                     	;# 
   793  001B                     	;# 
   794  001C                     	;# 
   795  001E                     	;# 
   796  001F                     	;# 
   797  008C                     	;# 
   798  008D                     	;# 
   799  0091                     	;# 
   800  0092                     	;# 
   801  0093                     	;# 
   802  0094                     	;# 
   803  0095                     	;# 
   804  0096                     	;# 
   805  0097                     	;# 
   806  0098                     	;# 
   807  0099                     	;# 
   808  009A                     	;# 
   809  009B                     	;# 
   810  009B                     	;# 
   811  009C                     	;# 
   812  009D                     	;# 
   813  009E                     	;# 
   814  010C                     	;# 
   815  010D                     	;# 
   816  0111                     	;# 
   817  0112                     	;# 
   818  0113                     	;# 
   819  0114                     	;# 
   820  0115                     	;# 
   821  0116                     	;# 
   822  0117                     	;# 
   823  0118                     	;# 
   824  0119                     	;# 
   825  011A                     	;# 
   826  011B                     	;# 
   827  011D                     	;# 
   828  011E                     	;# 
   829  018C                     	;# 
   830  018D                     	;# 
   831  0191                     	;# 
   832  0191                     	;# 
   833  0192                     	;# 
   834  0193                     	;# 
   835  0193                     	;# 
   836  0193                     	;# 
   837  0194                     	;# 
   838  0195                     	;# 
   839  0196                     	;# 
   840  0199                     	;# 
   841  019A                     	;# 
   842  019B                     	;# 
   843  019B                     	;# 
   844  019B                     	;# 
   845  019B                     	;# 
   846  019C                     	;# 
   847  019C                     	;# 
   848  019D                     	;# 
   849  019E                     	;# 
   850  019F                     	;# 
   851  020C                     	;# 
   852  020D                     	;# 
   853  0211                     	;# 
   854  0211                     	;# 
   855  0212                     	;# 
   856  0212                     	;# 
   857  0213                     	;# 
   858  0213                     	;# 
   859  0214                     	;# 
   860  0214                     	;# 
   861  0215                     	;# 
   862  0215                     	;# 
   863  0215                     	;# 
   864  0216                     	;# 
   865  0216                     	;# 
   866  0217                     	;# 
   867  0217                     	;# 
   868  0219                     	;# 
   869  021A                     	;# 
   870  021B                     	;# 
   871  021C                     	;# 
   872  021D                     	;# 
   873  021E                     	;# 
   874  021F                     	;# 
   875  0291                     	;# 
   876  0291                     	;# 
   877  0292                     	;# 
   878  0293                     	;# 
   879  0294                     	;# 
   880  0295                     	;# 
   881  0295                     	;# 
   882  0296                     	;# 
   883  0298                     	;# 
   884  0298                     	;# 
   885  0299                     	;# 
   886  029A                     	;# 
   887  029B                     	;# 
   888  029C                     	;# 
   889  029C                     	;# 
   890  029D                     	;# 
   891  029E                     	;# 
   892  029E                     	;# 
   893  0311                     	;# 
   894  0311                     	;# 
   895  0312                     	;# 
   896  0313                     	;# 
   897  0318                     	;# 
   898  0318                     	;# 
   899  0319                     	;# 
   900  031A                     	;# 
   901  0394                     	;# 
   902  0395                     	;# 
   903  0396                     	;# 
   904  039A                     	;# 
   905  039C                     	;# 
   906  039D                     	;# 
   907  039E                     	;# 
   908  039F                     	;# 
   909  0415                     	;# 
   910  0416                     	;# 
   911  0417                     	;# 
   912  041C                     	;# 
   913  041D                     	;# 
   914  041E                     	;# 
   915  0FE4                     	;# 
   916  0FE5                     	;# 
   917  0FE6                     	;# 
   918  0FE7                     	;# 
   919  0FE8                     	;# 
   920  0FE9                     	;# 
   921  0FEA                     	;# 
   922  0FEB                     	;# 
   923  0FED                     	;# 
   924  0FEE                     	;# 
   925  0FEF                     	;# 
   926  0000                     	;# 
   927  0001                     	;# 
   928  0002                     	;# 
   929  0003                     	;# 
   930  0004                     	;# 
   931  0005                     	;# 
   932  0006                     	;# 
   933  0007                     	;# 
   934  0008                     	;# 
   935  0009                     	;# 
   936  000A                     	;# 
   937  000B                     	;# 
   938  000C                     	;# 
   939  000D                     	;# 
   940  0011                     	;# 
   941  0012                     	;# 
   942  0013                     	;# 
   943  0014                     	;# 
   944  0015                     	;# 
   945  0016                     	;# 
   946  0016                     	;# 
   947  0017                     	;# 
   948  0018                     	;# 
   949  0019                     	;# 
   950  001A                     	;# 
   951  001B                     	;# 
   952  001C                     	;# 
   953  001E                     	;# 
   954  001F                     	;# 
   955  008C                     	;# 
   956  008D                     	;# 
   957  0091                     	;# 
   958  0092                     	;# 
   959  0093                     	;# 
   960  0094                     	;# 
   961  0095                     	;# 
   962  0096                     	;# 
   963  0097                     	;# 
   964  0098                     	;# 
   965  0099                     	;# 
   966  009A                     	;# 
   967  009B                     	;# 
   968  009B                     	;# 
   969  009C                     	;# 
   970  009D                     	;# 
   971  009E                     	;# 
   972  010C                     	;# 
   973  010D                     	;# 
   974  0111                     	;# 
   975  0112                     	;# 
   976  0113                     	;# 
   977  0114                     	;# 
   978  0115                     	;# 
   979  0116                     	;# 
   980  0117                     	;# 
   981  0118                     	;# 
   982  0119                     	;# 
   983  011A                     	;# 
   984  011B                     	;# 
   985  011D                     	;# 
   986  011E                     	;# 
   987  018C                     	;# 
   988  018D                     	;# 
   989  0191                     	;# 
   990  0191                     	;# 
   991  0192                     	;# 
   992  0193                     	;# 
   993  0193                     	;# 
   994  0193                     	;# 
   995  0194                     	;# 
   996  0195                     	;# 
   997  0196                     	;# 
   998  0199                     	;# 
   999  019A                     	;# 
  1000  019B                     	;# 
  1001  019B                     	;# 
  1002  019B                     	;# 
  1003  019B                     	;# 
  1004  019C                     	;# 
  1005  019C                     	;# 
  1006  019D                     	;# 
  1007  019E                     	;# 
  1008  019F                     	;# 
  1009  020C                     	;# 
  1010  020D                     	;# 
  1011  0211                     	;# 
  1012  0211                     	;# 
  1013  0212                     	;# 
  1014  0212                     	;# 
  1015  0213                     	;# 
  1016  0213                     	;# 
  1017  0214                     	;# 
  1018  0214                     	;# 
  1019  0215                     	;# 
  1020  0215                     	;# 
  1021  0215                     	;# 
  1022  0216                     	;# 
  1023  0216                     	;# 
  1024  0217                     	;# 
  1025  0217                     	;# 
  1026  0219                     	;# 
  1027  021A                     	;# 
  1028  021B                     	;# 
  1029  021C                     	;# 
  1030  021D                     	;# 
  1031  021E                     	;# 
  1032  021F                     	;# 
  1033  0291                     	;# 
  1034  0291                     	;# 
  1035  0292                     	;# 
  1036  0293                     	;# 
  1037  0294                     	;# 
  1038  0295                     	;# 
  1039  0295                     	;# 
  1040  0296                     	;# 
  1041  0298                     	;# 
  1042  0298                     	;# 
  1043  0299                     	;# 
  1044  029A                     	;# 
  1045  029B                     	;# 
  1046  029C                     	;# 
  1047  029C                     	;# 
  1048  029D                     	;# 
  1049  029E                     	;# 
  1050  029E                     	;# 
  1051  0311                     	;# 
  1052  0311                     	;# 
  1053  0312                     	;# 
  1054  0313                     	;# 
  1055  0318                     	;# 
  1056  0318                     	;# 
  1057  0319                     	;# 
  1058  031A                     	;# 
  1059  0394                     	;# 
  1060  0395                     	;# 
  1061  0396                     	;# 
  1062  039A                     	;# 
  1063  039C                     	;# 
  1064  039D                     	;# 
  1065  039E                     	;# 
  1066  039F                     	;# 
  1067  0415                     	;# 
  1068  0416                     	;# 
  1069  0417                     	;# 
  1070  041C                     	;# 
  1071  041D                     	;# 
  1072  041E                     	;# 
  1073  0FE4                     	;# 
  1074  0FE5                     	;# 
  1075  0FE6                     	;# 
  1076  0FE7                     	;# 
  1077  0FE8                     	;# 
  1078  0FE9                     	;# 
  1079  0FEA                     	;# 
  1080  0FEB                     	;# 
  1081  0FED                     	;# 
  1082  0FEE                     	;# 
  1083  0FEF                     	;# 
  1084  0000                     	;# 
  1085  0001                     	;# 
  1086  0002                     	;# 
  1087  0003                     	;# 
  1088  0004                     	;# 
  1089  0005                     	;# 
  1090  0006                     	;# 
  1091  0007                     	;# 
  1092  0008                     	;# 
  1093  0009                     	;# 
  1094  000A                     	;# 
  1095  000B                     	;# 
  1096  000C                     	;# 
  1097  000D                     	;# 
  1098  0011                     	;# 
  1099  0012                     	;# 
  1100  0013                     	;# 
  1101  0014                     	;# 
  1102  0015                     	;# 
  1103  0016                     	;# 
  1104  0016                     	;# 
  1105  0017                     	;# 
  1106  0018                     	;# 
  1107  0019                     	;# 
  1108  001A                     	;# 
  1109  001B                     	;# 
  1110  001C                     	;# 
  1111  001E                     	;# 
  1112  001F                     	;# 
  1113  008C                     	;# 
  1114  008D                     	;# 
  1115  0091                     	;# 
  1116  0092                     	;# 
  1117  0093                     	;# 
  1118  0094                     	;# 
  1119  0095                     	;# 
  1120  0096                     	;# 
  1121  0097                     	;# 
  1122  0098                     	;# 
  1123  0099                     	;# 
  1124  009A                     	;# 
  1125  009B                     	;# 
  1126  009B                     	;# 
  1127  009C                     	;# 
  1128  009D                     	;# 
  1129  009E                     	;# 
  1130  010C                     	;# 
  1131  010D                     	;# 
  1132  0111                     	;# 
  1133  0112                     	;# 
  1134  0113                     	;# 
  1135  0114                     	;# 
  1136  0115                     	;# 
  1137  0116                     	;# 
  1138  0117                     	;# 
  1139  0118                     	;# 
  1140  0119                     	;# 
  1141  011A                     	;# 
  1142  011B                     	;# 
  1143  011D                     	;# 
  1144  011E                     	;# 
  1145  018C                     	;# 
  1146  018D                     	;# 
  1147  0191                     	;# 
  1148  0191                     	;# 
  1149  0192                     	;# 
  1150  0193                     	;# 
  1151  0193                     	;# 
  1152  0193                     	;# 
  1153  0194                     	;# 
  1154  0195                     	;# 
  1155  0196                     	;# 
  1156  0199                     	;# 
  1157  019A                     	;# 
  1158  019B                     	;# 
  1159  019B                     	;# 
  1160  019B                     	;# 
  1161  019B                     	;# 
  1162  019C                     	;# 
  1163  019C                     	;# 
  1164  019D                     	;# 
  1165  019E                     	;# 
  1166  019F                     	;# 
  1167  020C                     	;# 
  1168  020D                     	;# 
  1169  0211                     	;# 
  1170  0211                     	;# 
  1171  0212                     	;# 
  1172  0212                     	;# 
  1173  0213                     	;# 
  1174  0213                     	;# 
  1175  0214                     	;# 
  1176  0214                     	;# 
  1177  0215                     	;# 
  1178  0215                     	;# 
  1179  0215                     	;# 
  1180  0216                     	;# 
  1181  0216                     	;# 
  1182  0217                     	;# 
  1183  0217                     	;# 
  1184  0219                     	;# 
  1185  021A                     	;# 
  1186  021B                     	;# 
  1187  021C                     	;# 
  1188  021D                     	;# 
  1189  021E                     	;# 
  1190  021F                     	;# 
  1191  0291                     	;# 
  1192  0291                     	;# 
  1193  0292                     	;# 
  1194  0293                     	;# 
  1195  0294                     	;# 
  1196  0295                     	;# 
  1197  0295                     	;# 
  1198  0296                     	;# 
  1199  0298                     	;# 
  1200  0298                     	;# 
  1201  0299                     	;# 
  1202  029A                     	;# 
  1203  029B                     	;# 
  1204  029C                     	;# 
  1205  029C                     	;# 
  1206  029D                     	;# 
  1207  029E                     	;# 
  1208  029E                     	;# 
  1209  0311                     	;# 
  1210  0311                     	;# 
  1211  0312                     	;# 
  1212  0313                     	;# 
  1213  0318                     	;# 
  1214  0318                     	;# 
  1215  0319                     	;# 
  1216  031A                     	;# 
  1217  0394                     	;# 
  1218  0395                     	;# 
  1219  0396                     	;# 
  1220  039A                     	;# 
  1221  039C                     	;# 
  1222  039D                     	;# 
  1223  039E                     	;# 
  1224  039F                     	;# 
  1225  0415                     	;# 
  1226  0416                     	;# 
  1227  0417                     	;# 
  1228  041C                     	;# 
  1229  041D                     	;# 
  1230  041E                     	;# 
  1231  0FE4                     	;# 
  1232  0FE5                     	;# 
  1233  0FE6                     	;# 
  1234  0FE7                     	;# 
  1235  0FE8                     	;# 
  1236  0FE9                     	;# 
  1237  0FEA                     	;# 
  1238  0FEB                     	;# 
  1239  0FED                     	;# 
  1240  0FEE                     	;# 
  1241  0FEF                     	;# 
  1242  0000                     	;# 
  1243  0001                     	;# 
  1244  0002                     	;# 
  1245  0003                     	;# 
  1246  0004                     	;# 
  1247  0005                     	;# 
  1248  0006                     	;# 
  1249  0007                     	;# 
  1250  0008                     	;# 
  1251  0009                     	;# 
  1252  000A                     	;# 
  1253  000B                     	;# 
  1254  000C                     	;# 
  1255  000D                     	;# 
  1256  0011                     	;# 
  1257  0012                     	;# 
  1258  0013                     	;# 
  1259  0014                     	;# 
  1260  0015                     	;# 
  1261  0016                     	;# 
  1262  0016                     	;# 
  1263  0017                     	;# 
  1264  0018                     	;# 
  1265  0019                     	;# 
  1266  001A                     	;# 
  1267  001B                     	;# 
  1268  001C                     	;# 
  1269  001E                     	;# 
  1270  001F                     	;# 
  1271  008C                     	;# 
  1272  008D                     	;# 
  1273  0091                     	;# 
  1274  0092                     	;# 
  1275  0093                     	;# 
  1276  0094                     	;# 
  1277  0095                     	;# 
  1278  0096                     	;# 
  1279  0097                     	;# 
  1280  0098                     	;# 
  1281  0099                     	;# 
  1282  009A                     	;# 
  1283  009B                     	;# 
  1284  009B                     	;# 
  1285  009C                     	;# 
  1286  009D                     	;# 
  1287  009E                     	;# 
  1288  010C                     	;# 
  1289  010D                     	;# 
  1290  0111                     	;# 
  1291  0112                     	;# 
  1292  0113                     	;# 
  1293  0114                     	;# 
  1294  0115                     	;# 
  1295  0116                     	;# 
  1296  0117                     	;# 
  1297  0118                     	;# 
  1298  0119                     	;# 
  1299  011A                     	;# 
  1300  011B                     	;# 
  1301  011D                     	;# 
  1302  011E                     	;# 
  1303  018C                     	;# 
  1304  018D                     	;# 
  1305  0191                     	;# 
  1306  0191                     	;# 
  1307  0192                     	;# 
  1308  0193                     	;# 
  1309  0193                     	;# 
  1310  0193                     	;# 
  1311  0194                     	;# 
  1312  0195                     	;# 
  1313  0196                     	;# 
  1314  0199                     	;# 
  1315  019A                     	;# 
  1316  019B                     	;# 
  1317  019B                     	;# 
  1318  019B                     	;# 
  1319  019B                     	;# 
  1320  019C                     	;# 
  1321  019C                     	;# 
  1322  019D                     	;# 
  1323  019E                     	;# 
  1324  019F                     	;# 
  1325  020C                     	;# 
  1326  020D                     	;# 
  1327  0211                     	;# 
  1328  0211                     	;# 
  1329  0212                     	;# 
  1330  0212                     	;# 
  1331  0213                     	;# 
  1332  0213                     	;# 
  1333  0214                     	;# 
  1334  0214                     	;# 
  1335  0215                     	;# 
  1336  0215                     	;# 
  1337  0215                     	;# 
  1338  0216                     	;# 
  1339  0216                     	;# 
  1340  0217                     	;# 
  1341  0217                     	;# 
  1342  0219                     	;# 
  1343  021A                     	;# 
  1344  021B                     	;# 
  1345  021C                     	;# 
  1346  021D                     	;# 
  1347  021E                     	;# 
  1348  021F                     	;# 
  1349  0291                     	;# 
  1350  0291                     	;# 
  1351  0292                     	;# 
  1352  0293                     	;# 
  1353  0294                     	;# 
  1354  0295                     	;# 
  1355  0295                     	;# 
  1356  0296                     	;# 
  1357  0298                     	;# 
  1358  0298                     	;# 
  1359  0299                     	;# 
  1360  029A                     	;# 
  1361  029B                     	;# 
  1362  029C                     	;# 
  1363  029C                     	;# 
  1364  029D                     	;# 
  1365  029E                     	;# 
  1366  029E                     	;# 
  1367  0311                     	;# 
  1368  0311                     	;# 
  1369  0312                     	;# 
  1370  0313                     	;# 
  1371  0318                     	;# 
  1372  0318                     	;# 
  1373  0319                     	;# 
  1374  031A                     	;# 
  1375  0394                     	;# 
  1376  0395                     	;# 
  1377  0396                     	;# 
  1378  039A                     	;# 
  1379  039C                     	;# 
  1380  039D                     	;# 
  1381  039E                     	;# 
  1382  039F                     	;# 
  1383  0415                     	;# 
  1384  0416                     	;# 
  1385  0417                     	;# 
  1386  041C                     	;# 
  1387  041D                     	;# 
  1388  041E                     	;# 
  1389  0FE4                     	;# 
  1390  0FE5                     	;# 
  1391  0FE6                     	;# 
  1392  0FE7                     	;# 
  1393  0FE8                     	;# 
  1394  0FE9                     	;# 
  1395  0FEA                     	;# 
  1396  0FEB                     	;# 
  1397  0FED                     	;# 
  1398  0FEE                     	;# 
  1399  0FEF                     	;# 
  1400  0000                     	;# 
  1401  0001                     	;# 
  1402  0002                     	;# 
  1403  0003                     	;# 
  1404  0004                     	;# 
  1405  0005                     	;# 
  1406  0006                     	;# 
  1407  0007                     	;# 
  1408  0008                     	;# 
  1409  0009                     	;# 
  1410  000A                     	;# 
  1411  000B                     	;# 
  1412  000C                     	;# 
  1413  000D                     	;# 
  1414  0011                     	;# 
  1415  0012                     	;# 
  1416  0013                     	;# 
  1417  0014                     	;# 
  1418  0015                     	;# 
  1419  0016                     	;# 
  1420  0016                     	;# 
  1421  0017                     	;# 
  1422  0018                     	;# 
  1423  0019                     	;# 
  1424  001A                     	;# 
  1425  001B                     	;# 
  1426  001C                     	;# 
  1427  001E                     	;# 
  1428  001F                     	;# 
  1429  008C                     	;# 
  1430  008D                     	;# 
  1431  0091                     	;# 
  1432  0092                     	;# 
  1433  0093                     	;# 
  1434  0094                     	;# 
  1435  0095                     	;# 
  1436  0096                     	;# 
  1437  0097                     	;# 
  1438  0098                     	;# 
  1439  0099                     	;# 
  1440  009A                     	;# 
  1441  009B                     	;# 
  1442  009B                     	;# 
  1443  009C                     	;# 
  1444  009D                     	;# 
  1445  009E                     	;# 
  1446  010C                     	;# 
  1447  010D                     	;# 
  1448  0111                     	;# 
  1449  0112                     	;# 
  1450  0113                     	;# 
  1451  0114                     	;# 
  1452  0115                     	;# 
  1453  0116                     	;# 
  1454  0117                     	;# 
  1455  0118                     	;# 
  1456  0119                     	;# 
  1457  011A                     	;# 
  1458  011B                     	;# 
  1459  011D                     	;# 
  1460  011E                     	;# 
  1461  018C                     	;# 
  1462  018D                     	;# 
  1463  0191                     	;# 
  1464  0191                     	;# 
  1465  0192                     	;# 
  1466  0193                     	;# 
  1467  0193                     	;# 
  1468  0193                     	;# 
  1469  0194                     	;# 
  1470  0195                     	;# 
  1471  0196                     	;# 
  1472  0199                     	;# 
  1473  019A                     	;# 
  1474  019B                     	;# 
  1475  019B                     	;# 
  1476  019B                     	;# 
  1477  019B                     	;# 
  1478  019C                     	;# 
  1479  019C                     	;# 
  1480  019D                     	;# 
  1481  019E                     	;# 
  1482  019F                     	;# 
  1483  020C                     	;# 
  1484  020D                     	;# 
  1485  0211                     	;# 
  1486  0211                     	;# 
  1487  0212                     	;# 
  1488  0212                     	;# 
  1489  0213                     	;# 
  1490  0213                     	;# 
  1491  0214                     	;# 
  1492  0214                     	;# 
  1493  0215                     	;# 
  1494  0215                     	;# 
  1495  0215                     	;# 
  1496  0216                     	;# 
  1497  0216                     	;# 
  1498  0217                     	;# 
  1499  0217                     	;# 
  1500  0219                     	;# 
  1501  021A                     	;# 
  1502  021B                     	;# 
  1503  021C                     	;# 
  1504  021D                     	;# 
  1505  021E                     	;# 
  1506  021F                     	;# 
  1507  0291                     	;# 
  1508  0291                     	;# 
  1509  0292                     	;# 
  1510  0293                     	;# 
  1511  0294                     	;# 
  1512  0295                     	;# 
  1513  0295                     	;# 
  1514  0296                     	;# 
  1515  0298                     	;# 
  1516  0298                     	;# 
  1517  0299                     	;# 
  1518  029A                     	;# 
  1519  029B                     	;# 
  1520  029C                     	;# 
  1521  029C                     	;# 
  1522  029D                     	;# 
  1523  029E                     	;# 
  1524  029E                     	;# 
  1525  0311                     	;# 
  1526  0311                     	;# 
  1527  0312                     	;# 
  1528  0313                     	;# 
  1529  0318                     	;# 
  1530  0318                     	;# 
  1531  0319                     	;# 
  1532  031A                     	;# 
  1533  0394                     	;# 
  1534  0395                     	;# 
  1535  0396                     	;# 
  1536  039A                     	;# 
  1537  039C                     	;# 
  1538  039D                     	;# 
  1539  039E                     	;# 
  1540  039F                     	;# 
  1541  0415                     	;# 
  1542  0416                     	;# 
  1543  0417                     	;# 
  1544  041C                     	;# 
  1545  041D                     	;# 
  1546  041E                     	;# 
  1547  0FE4                     	;# 
  1548  0FE5                     	;# 
  1549  0FE6                     	;# 
  1550  0FE7                     	;# 
  1551  0FE8                     	;# 
  1552  0FE9                     	;# 
  1553  0FEA                     	;# 
  1554  0FEB                     	;# 
  1555  0FED                     	;# 
  1556  0FEE                     	;# 
  1557  0FEF                     	;# 
  1558  0000                     	;# 
  1559  0001                     	;# 
  1560  0002                     	;# 
  1561  0003                     	;# 
  1562  0004                     	;# 
  1563  0005                     	;# 
  1564  0006                     	;# 
  1565  0007                     	;# 
  1566  0008                     	;# 
  1567  0009                     	;# 
  1568  000A                     	;# 
  1569  000B                     	;# 
  1570  000C                     	;# 
  1571  000D                     	;# 
  1572  0011                     	;# 
  1573  0012                     	;# 
  1574  0013                     	;# 
  1575  0014                     	;# 
  1576  0015                     	;# 
  1577  0016                     	;# 
  1578  0016                     	;# 
  1579  0017                     	;# 
  1580  0018                     	;# 
  1581  0019                     	;# 
  1582  001A                     	;# 
  1583  001B                     	;# 
  1584  001C                     	;# 
  1585  001E                     	;# 
  1586  001F                     	;# 
  1587  008C                     	;# 
  1588  008D                     	;# 
  1589  0091                     	;# 
  1590  0092                     	;# 
  1591  0093                     	;# 
  1592  0094                     	;# 
  1593  0095                     	;# 
  1594  0096                     	;# 
  1595  0097                     	;# 
  1596  0098                     	;# 
  1597  0099                     	;# 
  1598  009A                     	;# 
  1599  009B                     	;# 
  1600  009B                     	;# 
  1601  009C                     	;# 
  1602  009D                     	;# 
  1603  009E                     	;# 
  1604  010C                     	;# 
  1605  010D                     	;# 
  1606  0111                     	;# 
  1607  0112                     	;# 
  1608  0113                     	;# 
  1609  0114                     	;# 
  1610  0115                     	;# 
  1611  0116                     	;# 
  1612  0117                     	;# 
  1613  0118                     	;# 
  1614  0119                     	;# 
  1615  011A                     	;# 
  1616  011B                     	;# 
  1617  011D                     	;# 
  1618  011E                     	;# 
  1619  018C                     	;# 
  1620  018D                     	;# 
  1621  0191                     	;# 
  1622  0191                     	;# 
  1623  0192                     	;# 
  1624  0193                     	;# 
  1625  0193                     	;# 
  1626  0193                     	;# 
  1627  0194                     	;# 
  1628  0195                     	;# 
  1629  0196                     	;# 
  1630  0199                     	;# 
  1631  019A                     	;# 
  1632  019B                     	;# 
  1633  019B                     	;# 
  1634  019B                     	;# 
  1635  019B                     	;# 
  1636  019C                     	;# 
  1637  019C                     	;# 
  1638  019D                     	;# 
  1639  019E                     	;# 
  1640  019F                     	;# 
  1641  020C                     	;# 
  1642  020D                     	;# 
  1643  0211                     	;# 
  1644  0211                     	;# 
  1645  0212                     	;# 
  1646  0212                     	;# 
  1647  0213                     	;# 
  1648  0213                     	;# 
  1649  0214                     	;# 
  1650  0214                     	;# 
  1651  0215                     	;# 
  1652  0215                     	;# 
  1653  0215                     	;# 
  1654  0216                     	;# 
  1655  0216                     	;# 
  1656  0217                     	;# 
  1657  0217                     	;# 
  1658  0219                     	;# 
  1659  021A                     	;# 
  1660  021B                     	;# 
  1661  021C                     	;# 
  1662  021D                     	;# 
  1663  021E                     	;# 
  1664  021F                     	;# 
  1665  0291                     	;# 
  1666  0291                     	;# 
  1667  0292                     	;# 
  1668  0293                     	;# 
  1669  0294                     	;# 
  1670  0295                     	;# 
  1671  0295                     	;# 
  1672  0296                     	;# 
  1673  0298                     	;# 
  1674  0298                     	;# 
  1675  0299                     	;# 
  1676  029A                     	;# 
  1677  029B                     	;# 
  1678  029C                     	;# 
  1679  029C                     	;# 
  1680  029D                     	;# 
  1681  029E                     	;# 
  1682  029E                     	;# 
  1683  0311                     	;# 
  1684  0311                     	;# 
  1685  0312                     	;# 
  1686  0313                     	;# 
  1687  0318                     	;# 
  1688  0318                     	;# 
  1689  0319                     	;# 
  1690  031A                     	;# 
  1691  0394                     	;# 
  1692  0395                     	;# 
  1693  0396                     	;# 
  1694  039A                     	;# 
  1695  039C                     	;# 
  1696  039D                     	;# 
  1697  039E                     	;# 
  1698  039F                     	;# 
  1699  0415                     	;# 
  1700  0416                     	;# 
  1701  0417                     	;# 
  1702  041C                     	;# 
  1703  041D                     	;# 
  1704  041E                     	;# 
  1705  0FE4                     	;# 
  1706  0FE5                     	;# 
  1707  0FE6                     	;# 
  1708  0FE7                     	;# 
  1709  0FE8                     	;# 
  1710  0FE9                     	;# 
  1711  0FEA                     	;# 
  1712  0FEB                     	;# 
  1713  0FED                     	;# 
  1714  0FEE                     	;# 
  1715  0FEF                     	;# 
  1716  0000                     	;# 
  1717  0001                     	;# 
  1718  0002                     	;# 
  1719  0003                     	;# 
  1720  0004                     	;# 
  1721  0005                     	;# 
  1722  0006                     	;# 
  1723  0007                     	;# 
  1724  0008                     	;# 
  1725  0009                     	;# 
  1726  000A                     	;# 
  1727  000B                     	;# 
  1728  000C                     	;# 
  1729  000D                     	;# 
  1730  0011                     	;# 
  1731  0012                     	;# 
  1732  0013                     	;# 
  1733  0014                     	;# 
  1734  0015                     	;# 
  1735  0016                     	;# 
  1736  0016                     	;# 
  1737  0017                     	;# 
  1738  0018                     	;# 
  1739  0019                     	;# 
  1740  001A                     	;# 
  1741  001B                     	;# 
  1742  001C                     	;# 
  1743  001E                     	;# 
  1744  001F                     	;# 
  1745  008C                     	;# 
  1746  008D                     	;# 
  1747  0091                     	;# 
  1748  0092                     	;# 
  1749  0093                     	;# 
  1750  0094                     	;# 
  1751  0095                     	;# 
  1752  0096                     	;# 
  1753  0097                     	;# 
  1754  0098                     	;# 
  1755  0099                     	;# 
  1756  009A                     	;# 
  1757  009B                     	;# 
  1758  009B                     	;# 
  1759  009C                     	;# 
  1760  009D                     	;# 
  1761  009E                     	;# 
  1762  010C                     	;# 
  1763  010D                     	;# 
  1764  0111                     	;# 
  1765  0112                     	;# 
  1766  0113                     	;# 
  1767  0114                     	;# 
  1768  0115                     	;# 
  1769  0116                     	;# 
  1770  0117                     	;# 
  1771  0118                     	;# 
  1772  0119                     	;# 
  1773  011A                     	;# 
  1774  011B                     	;# 
  1775  011D                     	;# 
  1776  011E                     	;# 
  1777  018C                     	;# 
  1778  018D                     	;# 
  1779  0191                     	;# 
  1780  0191                     	;# 
  1781  0192                     	;# 
  1782  0193                     	;# 
  1783  0193                     	;# 
  1784  0193                     	;# 
  1785  0194                     	;# 
  1786  0195                     	;# 
  1787  0196                     	;# 
  1788  0199                     	;# 
  1789  019A                     	;# 
  1790  019B                     	;# 
  1791  019B                     	;# 
  1792  019B                     	;# 
  1793  019B                     	;# 
  1794  019C                     	;# 
  1795  019C                     	;# 
  1796  019D                     	;# 
  1797  019E                     	;# 
  1798  019F                     	;# 
  1799  020C                     	;# 
  1800  020D                     	;# 
  1801  0211                     	;# 
  1802  0211                     	;# 
  1803  0212                     	;# 
  1804  0212                     	;# 
  1805  0213                     	;# 
  1806  0213                     	;# 
  1807  0214                     	;# 
  1808  0214                     	;# 
  1809  0215                     	;# 
  1810  0215                     	;# 
  1811  0215                     	;# 
  1812  0216                     	;# 
  1813  0216                     	;# 
  1814  0217                     	;# 
  1815  0217                     	;# 
  1816  0219                     	;# 
  1817  021A                     	;# 
  1818  021B                     	;# 
  1819  021C                     	;# 
  1820  021D                     	;# 
  1821  021E                     	;# 
  1822  021F                     	;# 
  1823  0291                     	;# 
  1824  0291                     	;# 
  1825  0292                     	;# 
  1826  0293                     	;# 
  1827  0294                     	;# 
  1828  0295                     	;# 
  1829  0295                     	;# 
  1830  0296                     	;# 
  1831  0298                     	;# 
  1832  0298                     	;# 
  1833  0299                     	;# 
  1834  029A                     	;# 
  1835  029B                     	;# 
  1836  029C                     	;# 
  1837  029C                     	;# 
  1838  029D                     	;# 
  1839  029E                     	;# 
  1840  029E                     	;# 
  1841  0311                     	;# 
  1842  0311                     	;# 
  1843  0312                     	;# 
  1844  0313                     	;# 
  1845  0318                     	;# 
  1846  0318                     	;# 
  1847  0319                     	;# 
  1848  031A                     	;# 
  1849  0394                     	;# 
  1850  0395                     	;# 
  1851  0396                     	;# 
  1852  039A                     	;# 
  1853  039C                     	;# 
  1854  039D                     	;# 
  1855  039E                     	;# 
  1856  039F                     	;# 
  1857  0415                     	;# 
  1858  0416                     	;# 
  1859  0417                     	;# 
  1860  041C                     	;# 
  1861  041D                     	;# 
  1862  041E                     	;# 
  1863  0FE4                     	;# 
  1864  0FE5                     	;# 
  1865  0FE6                     	;# 
  1866  0FE7                     	;# 
  1867  0FE8                     	;# 
  1868  0FE9                     	;# 
  1869  0FEA                     	;# 
  1870  0FEB                     	;# 
  1871  0FED                     	;# 
  1872  0FEE                     	;# 
  1873  0FEF                     	;# 
  1874  0000                     	;# 
  1875  0001                     	;# 
  1876  0002                     	;# 
  1877  0003                     	;# 
  1878  0004                     	;# 
  1879  0005                     	;# 
  1880  0006                     	;# 
  1881  0007                     	;# 
  1882  0008                     	;# 
  1883  0009                     	;# 
  1884  000A                     	;# 
  1885  000B                     	;# 
  1886  000C                     	;# 
  1887  000D                     	;# 
  1888  0011                     	;# 
  1889  0012                     	;# 
  1890  0013                     	;# 
  1891  0014                     	;# 
  1892  0015                     	;# 
  1893  0016                     	;# 
  1894  0016                     	;# 
  1895  0017                     	;# 
  1896  0018                     	;# 
  1897  0019                     	;# 
  1898  001A                     	;# 
  1899  001B                     	;# 
  1900  001C                     	;# 
  1901  001E                     	;# 
  1902  001F                     	;# 
  1903  008C                     	;# 
  1904  008D                     	;# 
  1905  0091                     	;# 
  1906  0092                     	;# 
  1907  0093                     	;# 
  1908  0094                     	;# 
  1909  0095                     	;# 
  1910  0096                     	;# 
  1911  0097                     	;# 
  1912  0098                     	;# 
  1913  0099                     	;# 
  1914  009A                     	;# 
  1915  009B                     	;# 
  1916  009B                     	;# 
  1917  009C                     	;# 
  1918  009D                     	;# 
  1919  009E                     	;# 
  1920  010C                     	;# 
  1921  010D                     	;# 
  1922  0111                     	;# 
  1923  0112                     	;# 
  1924  0113                     	;# 
  1925  0114                     	;# 
  1926  0115                     	;# 
  1927  0116                     	;# 
  1928  0117                     	;# 
  1929  0118                     	;# 
  1930  0119                     	;# 
  1931  011A                     	;# 
  1932  011B                     	;# 
  1933  011D                     	;# 
  1934  011E                     	;# 
  1935  018C                     	;# 
  1936  018D                     	;# 
  1937  0191                     	;# 
  1938  0191                     	;# 
  1939  0192                     	;# 
  1940  0193                     	;# 
  1941  0193                     	;# 
  1942  0193                     	;# 
  1943  0194                     	;# 
  1944  0195                     	;# 
  1945  0196                     	;# 
  1946  0199                     	;# 
  1947  019A                     	;# 
  1948  019B                     	;# 
  1949  019B                     	;# 
  1950  019B                     	;# 
  1951  019B                     	;# 
  1952  019C                     	;# 
  1953  019C                     	;# 
  1954  019D                     	;# 
  1955  019E                     	;# 
  1956  019F                     	;# 
  1957  020C                     	;# 
  1958  020D                     	;# 
  1959  0211                     	;# 
  1960  0211                     	;# 
  1961  0212                     	;# 
  1962  0212                     	;# 
  1963  0213                     	;# 
  1964  0213                     	;# 
  1965  0214                     	;# 
  1966  0214                     	;# 
  1967  0215                     	;# 
  1968  0215                     	;# 
  1969  0215                     	;# 
  1970  0216                     	;# 
  1971  0216                     	;# 
  1972  0217                     	;# 
  1973  0217                     	;# 
  1974  0219                     	;# 
  1975  021A                     	;# 
  1976  021B                     	;# 
  1977  021C                     	;# 
  1978  021D                     	;# 
  1979  021E                     	;# 
  1980  021F                     	;# 
  1981  0291                     	;# 
  1982  0291                     	;# 
  1983  0292                     	;# 
  1984  0293                     	;# 
  1985  0294                     	;# 
  1986  0295                     	;# 
  1987  0295                     	;# 
  1988  0296                     	;# 
  1989  0298                     	;# 
  1990  0298                     	;# 
  1991  0299                     	;# 
  1992  029A                     	;# 
  1993  029B                     	;# 
  1994  029C                     	;# 
  1995  029C                     	;# 
  1996  029D                     	;# 
  1997  029E                     	;# 
  1998  029E                     	;# 
  1999  0311                     	;# 
  2000  0311                     	;# 
  2001  0312                     	;# 
  2002  0313                     	;# 
  2003  0318                     	;# 
  2004  0318                     	;# 
  2005  0319                     	;# 
  2006  031A                     	;# 
  2007  0394                     	;# 
  2008  0395                     	;# 
  2009  0396                     	;# 
  2010  039A                     	;# 
  2011  039C                     	;# 
  2012  039D                     	;# 
  2013  039E                     	;# 
  2014  039F                     	;# 
  2015  0415                     	;# 
  2016  0416                     	;# 
  2017  0417                     	;# 
  2018  041C                     	;# 
  2019  041D                     	;# 
  2020  041E                     	;# 
  2021  0FE4                     	;# 
  2022  0FE5                     	;# 
  2023  0FE6                     	;# 
  2024  0FE7                     	;# 
  2025  0FE8                     	;# 
  2026  0FE9                     	;# 
  2027  0FEA                     	;# 
  2028  0FEB                     	;# 
  2029  0FED                     	;# 
  2030  0FEE                     	;# 
  2031  0FEF                     	;# 
  2032  0000                     	;# 
  2033  0001                     	;# 
  2034  0002                     	;# 
  2035  0003                     	;# 
  2036  0004                     	;# 
  2037  0005                     	;# 
  2038  0006                     	;# 
  2039  0007                     	;# 
  2040  0008                     	;# 
  2041  0009                     	;# 
  2042  000A                     	;# 
  2043  000B                     	;# 
  2044  000C                     	;# 
  2045  000D                     	;# 
  2046  0011                     	;# 
  2047  0012                     	;# 
  2048  0013                     	;# 
  2049  0014                     	;# 
  2050  0015                     	;# 
  2051  0016                     	;# 
  2052  0016                     	;# 
  2053  0017                     	;# 
  2054  0018                     	;# 
  2055  0019                     	;# 
  2056  001A                     	;# 
  2057  001B                     	;# 
  2058  001C                     	;# 
  2059  001E                     	;# 
  2060  001F                     	;# 
  2061  008C                     	;# 
  2062  008D                     	;# 
  2063  0091                     	;# 
  2064  0092                     	;# 
  2065  0093                     	;# 
  2066  0094                     	;# 
  2067  0095                     	;# 
  2068  0096                     	;# 
  2069  0097                     	;# 
  2070  0098                     	;# 
  2071  0099                     	;# 
  2072  009A                     	;# 
  2073  009B                     	;# 
  2074  009B                     	;# 
  2075  009C                     	;# 
  2076  009D                     	;# 
  2077  009E                     	;# 
  2078  010C                     	;# 
  2079  010D                     	;# 
  2080  0111                     	;# 
  2081  0112                     	;# 
  2082  0113                     	;# 
  2083  0114                     	;# 
  2084  0115                     	;# 
  2085  0116                     	;# 
  2086  0117                     	;# 
  2087  0118                     	;# 
  2088  0119                     	;# 
  2089  011A                     	;# 
  2090  011B                     	;# 
  2091  011D                     	;# 
  2092  011E                     	;# 
  2093  018C                     	;# 
  2094  018D                     	;# 
  2095  0191                     	;# 
  2096  0191                     	;# 
  2097  0192                     	;# 
  2098  0193                     	;# 
  2099  0193                     	;# 
  2100  0193                     	;# 
  2101  0194                     	;# 
  2102  0195                     	;# 
  2103  0196                     	;# 
  2104  0199                     	;# 
  2105  019A                     	;# 
  2106  019B                     	;# 
  2107  019B                     	;# 
  2108  019B                     	;# 
  2109  019B                     	;# 
  2110  019C                     	;# 
  2111  019C                     	;# 
  2112  019D                     	;# 
  2113  019E                     	;# 
  2114  019F                     	;# 
  2115  020C                     	;# 
  2116  020D                     	;# 
  2117  0211                     	;# 
  2118  0211                     	;# 
  2119  0212                     	;# 
  2120  0212                     	;# 
  2121  0213                     	;# 
  2122  0213                     	;# 
  2123  0214                     	;# 
  2124  0214                     	;# 
  2125  0215                     	;# 
  2126  0215                     	;# 
  2127  0215                     	;# 
  2128  0216                     	;# 
  2129  0216                     	;# 
  2130  0217                     	;# 
  2131  0217                     	;# 
  2132  0219                     	;# 
  2133  021A                     	;# 
  2134  021B                     	;# 
  2135  021C                     	;# 
  2136  021D                     	;# 
  2137  021E                     	;# 
  2138  021F                     	;# 
  2139  0291                     	;# 
  2140  0291                     	;# 
  2141  0292                     	;# 
  2142  0293                     	;# 
  2143  0294                     	;# 
  2144  0295                     	;# 
  2145  0295                     	;# 
  2146  0296                     	;# 
  2147  0298                     	;# 
  2148  0298                     	;# 
  2149  0299                     	;# 
  2150  029A                     	;# 
  2151  029B                     	;# 
  2152  029C                     	;# 
  2153  029C                     	;# 
  2154  029D                     	;# 
  2155  029E                     	;# 
  2156  029E                     	;# 
  2157  0311                     	;# 
  2158  0311                     	;# 
  2159  0312                     	;# 
  2160  0313                     	;# 
  2161  0318                     	;# 
  2162  0318                     	;# 
  2163  0319                     	;# 
  2164  031A                     	;# 
  2165  0394                     	;# 
  2166  0395                     	;# 
  2167  0396                     	;# 
  2168  039A                     	;# 
  2169  039C                     	;# 
  2170  039D                     	;# 
  2171  039E                     	;# 
  2172  039F                     	;# 
  2173  0415                     	;# 
  2174  0416                     	;# 
  2175  0417                     	;# 
  2176  041C                     	;# 
  2177  041D                     	;# 
  2178  041E                     	;# 
  2179  0FE4                     	;# 
  2180  0FE5                     	;# 
  2181  0FE6                     	;# 
  2182  0FE7                     	;# 
  2183  0FE8                     	;# 
  2184  0FE9                     	;# 
  2185  0FEA                     	;# 
  2186  0FEB                     	;# 
  2187  0FED                     	;# 
  2188  0FEE                     	;# 
  2189  0FEF                     	;# 
  2190  0000                     	;# 
  2191  0001                     	;# 
  2192  0002                     	;# 
  2193  0003                     	;# 
  2194  0004                     	;# 
  2195  0005                     	;# 
  2196  0006                     	;# 
  2197  0007                     	;# 
  2198  0008                     	;# 
  2199  0009                     	;# 
  2200  000A                     	;# 
  2201  000B                     	;# 
  2202  000C                     	;# 
  2203  000D                     	;# 
  2204  0011                     	;# 
  2205  0012                     	;# 
  2206  0013                     	;# 
  2207  0014                     	;# 
  2208  0015                     	;# 
  2209  0016                     	;# 
  2210  0016                     	;# 
  2211  0017                     	;# 
  2212  0018                     	;# 
  2213  0019                     	;# 
  2214  001A                     	;# 
  2215  001B                     	;# 
  2216  001C                     	;# 
  2217  001E                     	;# 
  2218  001F                     	;# 
  2219  008C                     	;# 
  2220  008D                     	;# 
  2221  0091                     	;# 
  2222  0092                     	;# 
  2223  0093                     	;# 
  2224  0094                     	;# 
  2225  0095                     	;# 
  2226  0096                     	;# 
  2227  0097                     	;# 
  2228  0098                     	;# 
  2229  0099                     	;# 
  2230  009A                     	;# 
  2231  009B                     	;# 
  2232  009B                     	;# 
  2233  009C                     	;# 
  2234  009D                     	;# 
  2235  009E                     	;# 
  2236  010C                     	;# 
  2237  010D                     	;# 
  2238  0111                     	;# 
  2239  0112                     	;# 
  2240  0113                     	;# 
  2241  0114                     	;# 
  2242  0115                     	;# 
  2243  0116                     	;# 
  2244  0117                     	;# 
  2245  0118                     	;# 
  2246  0119                     	;# 
  2247  011A                     	;# 
  2248  011B                     	;# 
  2249  011D                     	;# 
  2250  011E                     	;# 
  2251  018C                     	;# 
  2252  018D                     	;# 
  2253  0191                     	;# 
  2254  0191                     	;# 
  2255  0192                     	;# 
  2256  0193                     	;# 
  2257  0193                     	;# 
  2258  0193                     	;# 
  2259  0194                     	;# 
  2260  0195                     	;# 
  2261  0196                     	;# 
  2262  0199                     	;# 
  2263  019A                     	;# 
  2264  019B                     	;# 
  2265  019B                     	;# 
  2266  019B                     	;# 
  2267  019B                     	;# 
  2268  019C                     	;# 
  2269  019C                     	;# 
  2270  019D                     	;# 
  2271  019E                     	;# 
  2272  019F                     	;# 
  2273  020C                     	;# 
  2274  020D                     	;# 
  2275  0211                     	;# 
  2276  0211                     	;# 
  2277  0212                     	;# 
  2278  0212                     	;# 
  2279  0213                     	;# 
  2280  0213                     	;# 
  2281  0214                     	;# 
  2282  0214                     	;# 
  2283  0215                     	;# 
  2284  0215                     	;# 
  2285  0215                     	;# 
  2286  0216                     	;# 
  2287  0216                     	;# 
  2288  0217                     	;# 
  2289  0217                     	;# 
  2290  0219                     	;# 
  2291  021A                     	;# 
  2292  021B                     	;# 
  2293  021C                     	;# 
  2294  021D                     	;# 
  2295  021E                     	;# 
  2296  021F                     	;# 
  2297  0291                     	;# 
  2298  0291                     	;# 
  2299  0292                     	;# 
  2300  0293                     	;# 
  2301  0294                     	;# 
  2302  0295                     	;# 
  2303  0295                     	;# 
  2304  0296                     	;# 
  2305  0298                     	;# 
  2306  0298                     	;# 
  2307  0299                     	;# 
  2308  029A                     	;# 
  2309  029B                     	;# 
  2310  029C                     	;# 
  2311  029C                     	;# 
  2312  029D                     	;# 
  2313  029E                     	;# 
  2314  029E                     	;# 
  2315  0311                     	;# 
  2316  0311                     	;# 
  2317  0312                     	;# 
  2318  0313                     	;# 
  2319  0318                     	;# 
  2320  0318                     	;# 
  2321  0319                     	;# 
  2322  031A                     	;# 
  2323  0394                     	;# 
  2324  0395                     	;# 
  2325  0396                     	;# 
  2326  039A                     	;# 
  2327  039C                     	;# 
  2328  039D                     	;# 
  2329  039E                     	;# 
  2330  039F                     	;# 
  2331  0415                     	;# 
  2332  0416                     	;# 
  2333  0417                     	;# 
  2334  041C                     	;# 
  2335  041D                     	;# 
  2336  041E                     	;# 
  2337  0FE4                     	;# 
  2338  0FE5                     	;# 
  2339  0FE6                     	;# 
  2340  0FE7                     	;# 
  2341  0FE8                     	;# 
  2342  0FE9                     	;# 
  2343  0FEA                     	;# 
  2344  0FEB                     	;# 
  2345  0FED                     	;# 
  2346  0FEE                     	;# 
  2347  0FEF                     	;# 
  2348  0000                     	;# 
  2349  0001                     	;# 
  2350  0002                     	;# 
  2351  0003                     	;# 
  2352  0004                     	;# 
  2353  0005                     	;# 
  2354  0006                     	;# 
  2355  0007                     	;# 
  2356  0008                     	;# 
  2357  0009                     	;# 
  2358  000A                     	;# 
  2359  000B                     	;# 
  2360  000C                     	;# 
  2361  000D                     	;# 
  2362  0011                     	;# 
  2363  0012                     	;# 
  2364  0013                     	;# 
  2365  0014                     	;# 
  2366  0015                     	;# 
  2367  0016                     	;# 
  2368  0016                     	;# 
  2369  0017                     	;# 
  2370  0018                     	;# 
  2371  0019                     	;# 
  2372  001A                     	;# 
  2373  001B                     	;# 
  2374  001C                     	;# 
  2375  001E                     	;# 
  2376  001F                     	;# 
  2377  008C                     	;# 
  2378  008D                     	;# 
  2379  0091                     	;# 
  2380  0092                     	;# 
  2381  0093                     	;# 
  2382  0094                     	;# 
  2383  0095                     	;# 
  2384  0096                     	;# 
  2385  0097                     	;# 
  2386  0098                     	;# 
  2387  0099                     	;# 
  2388  009A                     	;# 
  2389  009B                     	;# 
  2390  009B                     	;# 
  2391  009C                     	;# 
  2392  009D                     	;# 
  2393  009E                     	;# 
  2394  010C                     	;# 
  2395  010D                     	;# 
  2396  0111                     	;# 
  2397  0112                     	;# 
  2398  0113                     	;# 
  2399  0114                     	;# 
  2400  0115                     	;# 
  2401  0116                     	;# 
  2402  0117                     	;# 
  2403  0118                     	;# 
  2404  0119                     	;# 
  2405  011A                     	;# 
  2406  011B                     	;# 
  2407  011D                     	;# 
  2408  011E                     	;# 
  2409  018C                     	;# 
  2410  018D                     	;# 
  2411  0191                     	;# 
  2412  0191                     	;# 
  2413  0192                     	;# 
  2414  0193                     	;# 
  2415  0193                     	;# 
  2416  0193                     	;# 
  2417  0194                     	;# 
  2418  0195                     	;# 
  2419  0196                     	;# 
  2420  0199                     	;# 
  2421  019A                     	;# 
  2422  019B                     	;# 
  2423  019B                     	;# 
  2424  019B                     	;# 
  2425  019B                     	;# 
  2426  019C                     	;# 
  2427  019C                     	;# 
  2428  019D                     	;# 
  2429  019E                     	;# 
  2430  019F                     	;# 
  2431  020C                     	;# 
  2432  020D                     	;# 
  2433  0211                     	;# 
  2434  0211                     	;# 
  2435  0212                     	;# 
  2436  0212                     	;# 
  2437  0213                     	;# 
  2438  0213                     	;# 
  2439  0214                     	;# 
  2440  0214                     	;# 
  2441  0215                     	;# 
  2442  0215                     	;# 
  2443  0215                     	;# 
  2444  0216                     	;# 
  2445  0216                     	;# 
  2446  0217                     	;# 
  2447  0217                     	;# 
  2448  0219                     	;# 
  2449  021A                     	;# 
  2450  021B                     	;# 
  2451  021C                     	;# 
  2452  021D                     	;# 
  2453  021E                     	;# 
  2454  021F                     	;# 
  2455  0291                     	;# 
  2456  0291                     	;# 
  2457  0292                     	;# 
  2458  0293                     	;# 
  2459  0294                     	;# 
  2460  0295                     	;# 
  2461  0295                     	;# 
  2462  0296                     	;# 
  2463  0298                     	;# 
  2464  0298                     	;# 
  2465  0299                     	;# 
  2466  029A                     	;# 
  2467  029B                     	;# 
  2468  029C                     	;# 
  2469  029C                     	;# 
  2470  029D                     	;# 
  2471  029E                     	;# 
  2472  029E                     	;# 
  2473  0311                     	;# 
  2474  0311                     	;# 
  2475  0312                     	;# 
  2476  0313                     	;# 
  2477  0318                     	;# 
  2478  0318                     	;# 
  2479  0319                     	;# 
  2480  031A                     	;# 
  2481  0394                     	;# 
  2482  0395                     	;# 
  2483  0396                     	;# 
  2484  039A                     	;# 
  2485  039C                     	;# 
  2486  039D                     	;# 
  2487  039E                     	;# 
  2488  039F                     	;# 
  2489  0415                     	;# 
  2490  0416                     	;# 
  2491  0417                     	;# 
  2492  041C                     	;# 
  2493  041D                     	;# 
  2494  041E                     	;# 
  2495  0FE4                     	;# 
  2496  0FE5                     	;# 
  2497  0FE6                     	;# 
  2498  0FE7                     	;# 
  2499  0FE8                     	;# 
  2500  0FE9                     	;# 
  2501  0FEA                     	;# 
  2502  0FEB                     	;# 
  2503  0FED                     	;# 
  2504  0FEE                     	;# 
  2505  0FEF                     	;# 
  2506  0000                     	;# 
  2507  0001                     	;# 
  2508  0002                     	;# 
  2509  0003                     	;# 
  2510  0004                     	;# 
  2511  0005                     	;# 
  2512  0006                     	;# 
  2513  0007                     	;# 
  2514  0008                     	;# 
  2515  0009                     	;# 
  2516  000A                     	;# 
  2517  000B                     	;# 
  2518  000C                     	;# 
  2519  000D                     	;# 
  2520  0011                     	;# 
  2521  0012                     	;# 
  2522  0013                     	;# 
  2523  0014                     	;# 
  2524  0015                     	;# 
  2525  0016                     	;# 
  2526  0016                     	;# 
  2527  0017                     	;# 
  2528  0018                     	;# 
  2529  0019                     	;# 
  2530  001A                     	;# 
  2531  001B                     	;# 
  2532  001C                     	;# 
  2533  001E                     	;# 
  2534  001F                     	;# 
  2535  008C                     	;# 
  2536  008D                     	;# 
  2537  0091                     	;# 
  2538  0092                     	;# 
  2539  0093                     	;# 
  2540  0094                     	;# 
  2541  0095                     	;# 
  2542  0096                     	;# 
  2543  0097                     	;# 
  2544  0098                     	;# 
  2545  0099                     	;# 
  2546  009A                     	;# 
  2547  009B                     	;# 
  2548  009B                     	;# 
  2549  009C                     	;# 
  2550  009D                     	;# 
  2551  009E                     	;# 
  2552  010C                     	;# 
  2553  010D                     	;# 
  2554  0111                     	;# 
  2555  0112                     	;# 
  2556  0113                     	;# 
  2557  0114                     	;# 
  2558  0115                     	;# 
  2559  0116                     	;# 
  2560  0117                     	;# 
  2561  0118                     	;# 
  2562  0119                     	;# 
  2563  011A                     	;# 
  2564  011B                     	;# 
  2565  011D                     	;# 
  2566  011E                     	;# 
  2567  018C                     	;# 
  2568  018D                     	;# 
  2569  0191                     	;# 
  2570  0191                     	;# 
  2571  0192                     	;# 
  2572  0193                     	;# 
  2573  0193                     	;# 
  2574  0193                     	;# 
  2575  0194                     	;# 
  2576  0195                     	;# 
  2577  0196                     	;# 
  2578  0199                     	;# 
  2579  019A                     	;# 
  2580  019B                     	;# 
  2581  019B                     	;# 
  2582  019B                     	;# 
  2583  019B                     	;# 
  2584  019C                     	;# 
  2585  019C                     	;# 
  2586  019D                     	;# 
  2587  019E                     	;# 
  2588  019F                     	;# 
  2589  020C                     	;# 
  2590  020D                     	;# 
  2591  0211                     	;# 
  2592  0211                     	;# 
  2593  0212                     	;# 
  2594  0212                     	;# 
  2595  0213                     	;# 
  2596  0213                     	;# 
  2597  0214                     	;# 
  2598  0214                     	;# 
  2599  0215                     	;# 
  2600  0215                     	;# 
  2601  0215                     	;# 
  2602  0216                     	;# 
  2603  0216                     	;# 
  2604  0217                     	;# 
  2605  0217                     	;# 
  2606  0219                     	;# 
  2607  021A                     	;# 
  2608  021B                     	;# 
  2609  021C                     	;# 
  2610  021D                     	;# 
  2611  021E                     	;# 
  2612  021F                     	;# 
  2613  0291                     	;# 
  2614  0291                     	;# 
  2615  0292                     	;# 
  2616  0293                     	;# 
  2617  0294                     	;# 
  2618  0295                     	;# 
  2619  0295                     	;# 
  2620  0296                     	;# 
  2621  0298                     	;# 
  2622  0298                     	;# 
  2623  0299                     	;# 
  2624  029A                     	;# 
  2625  029B                     	;# 
  2626  029C                     	;# 
  2627  029C                     	;# 
  2628  029D                     	;# 
  2629  029E                     	;# 
  2630  029E                     	;# 
  2631  0311                     	;# 
  2632  0311                     	;# 
  2633  0312                     	;# 
  2634  0313                     	;# 
  2635  0318                     	;# 
  2636  0318                     	;# 
  2637  0319                     	;# 
  2638  031A                     	;# 
  2639  0394                     	;# 
  2640  0395                     	;# 
  2641  0396                     	;# 
  2642  039A                     	;# 
  2643  039C                     	;# 
  2644  039D                     	;# 
  2645  039E                     	;# 
  2646  039F                     	;# 
  2647  0415                     	;# 
  2648  0416                     	;# 
  2649  0417                     	;# 
  2650  041C                     	;# 
  2651  041D                     	;# 
  2652  041E                     	;# 
  2653  0FE4                     	;# 
  2654  0FE5                     	;# 
  2655  0FE6                     	;# 
  2656  0FE7                     	;# 
  2657  0FE8                     	;# 
  2658  0FE9                     	;# 
  2659  0FEA                     	;# 
  2660  0FEB                     	;# 
  2661  0FED                     	;# 
  2662  0FEE                     	;# 
  2663  0FEF                     	;# 
  2664  0000                     	;# 
  2665  0001                     	;# 
  2666  0002                     	;# 
  2667  0003                     	;# 
  2668  0004                     	;# 
  2669  0005                     	;# 
  2670  0006                     	;# 
  2671  0007                     	;# 
  2672  0008                     	;# 
  2673  0009                     	;# 
  2674  000A                     	;# 
  2675  000B                     	;# 
  2676  000C                     	;# 
  2677  000D                     	;# 
  2678  0011                     	;# 
  2679  0012                     	;# 
  2680  0013                     	;# 
  2681  0014                     	;# 
  2682  0015                     	;# 
  2683  0016                     	;# 
  2684  0016                     	;# 
  2685  0017                     	;# 
  2686  0018                     	;# 
  2687  0019                     	;# 
  2688  001A                     	;# 
  2689  001B                     	;# 
  2690  001C                     	;# 
  2691  001E                     	;# 
  2692  001F                     	;# 
  2693  008C                     	;# 
  2694  008D                     	;# 
  2695  0091                     	;# 
  2696  0092                     	;# 
  2697  0093                     	;# 
  2698  0094                     	;# 
  2699  0095                     	;# 
  2700  0096                     	;# 
  2701  0097                     	;# 
  2702  0098                     	;# 
  2703  0099                     	;# 
  2704  009A                     	;# 
  2705  009B                     	;# 
  2706  009B                     	;# 
  2707  009C                     	;# 
  2708  009D                     	;# 
  2709  009E                     	;# 
  2710  010C                     	;# 
  2711  010D                     	;# 
  2712  0111                     	;# 
  2713  0112                     	;# 
  2714  0113                     	;# 
  2715  0114                     	;# 
  2716  0115                     	;# 
  2717  0116                     	;# 
  2718  0117                     	;# 
  2719  0118                     	;# 
  2720  0119                     	;# 
  2721  011A                     	;# 
  2722  011B                     	;# 
  2723  011D                     	;# 
  2724  011E                     	;# 
  2725  018C                     	;# 
  2726  018D                     	;# 
  2727  0191                     	;# 
  2728  0191                     	;# 
  2729  0192                     	;# 
  2730  0193                     	;# 
  2731  0193                     	;# 
  2732  0193                     	;# 
  2733  0194                     	;# 
  2734  0195                     	;# 
  2735  0196                     	;# 
  2736  0199                     	;# 
  2737  019A                     	;# 
  2738  019B                     	;# 
  2739  019B                     	;# 
  2740  019B                     	;# 
  2741  019B                     	;# 
  2742  019C                     	;# 
  2743  019C                     	;# 
  2744  019D                     	;# 
  2745  019E                     	;# 
  2746  019F                     	;# 
  2747  020C                     	;# 
  2748  020D                     	;# 
  2749  0211                     	;# 
  2750  0211                     	;# 
  2751  0212                     	;# 
  2752  0212                     	;# 
  2753  0213                     	;# 
  2754  0213                     	;# 
  2755  0214                     	;# 
  2756  0214                     	;# 
  2757  0215                     	;# 
  2758  0215                     	;# 
  2759  0215                     	;# 
  2760  0216                     	;# 
  2761  0216                     	;# 
  2762  0217                     	;# 
  2763  0217                     	;# 
  2764  0219                     	;# 
  2765  021A                     	;# 
  2766  021B                     	;# 
  2767  021C                     	;# 
  2768  021D                     	;# 
  2769  021E                     	;# 
  2770  021F                     	;# 
  2771  0291                     	;# 
  2772  0291                     	;# 
  2773  0292                     	;# 
  2774  0293                     	;# 
  2775  0294                     	;# 
  2776  0295                     	;# 
  2777  0295                     	;# 
  2778  0296                     	;# 
  2779  0298                     	;# 
  2780  0298                     	;# 
  2781  0299                     	;# 
  2782  029A                     	;# 
  2783  029B                     	;# 
  2784  029C                     	;# 
  2785  029C                     	;# 
  2786  029D                     	;# 
  2787  029E                     	;# 
  2788  029E                     	;# 
  2789  0311                     	;# 
  2790  0311                     	;# 
  2791  0312                     	;# 
  2792  0313                     	;# 
  2793  0318                     	;# 
  2794  0318                     	;# 
  2795  0319                     	;# 
  2796  031A                     	;# 
  2797  0394                     	;# 
  2798  0395                     	;# 
  2799  0396                     	;# 
  2800  039A                     	;# 
  2801  039C                     	;# 
  2802  039D                     	;# 
  2803  039E                     	;# 
  2804  039F                     	;# 
  2805  0415                     	;# 
  2806  0416                     	;# 
  2807  0417                     	;# 
  2808  041C                     	;# 
  2809  041D                     	;# 
  2810  041E                     	;# 
  2811  0FE4                     	;# 
  2812  0FE5                     	;# 
  2813  0FE6                     	;# 
  2814  0FE7                     	;# 
  2815  0FE8                     	;# 
  2816  0FE9                     	;# 
  2817  0FEA                     	;# 
  2818  0FEB                     	;# 
  2819  0FED                     	;# 
  2820  0FEE                     	;# 
  2821  0FEF                     	;# 
  2822  0000                     	;# 
  2823  0001                     	;# 
  2824  0002                     	;# 
  2825  0003                     	;# 
  2826  0004                     	;# 
  2827  0005                     	;# 
  2828  0006                     	;# 
  2829  0007                     	;# 
  2830  0008                     	;# 
  2831  0009                     	;# 
  2832  000A                     	;# 
  2833  000B                     	;# 
  2834  000C                     	;# 
  2835  000D                     	;# 
  2836  0011                     	;# 
  2837  0012                     	;# 
  2838  0013                     	;# 
  2839  0014                     	;# 
  2840  0015                     	;# 
  2841  0016                     	;# 
  2842  0016                     	;# 
  2843  0017                     	;# 
  2844  0018                     	;# 
  2845  0019                     	;# 
  2846  001A                     	;# 
  2847  001B                     	;# 
  2848  001C                     	;# 
  2849  001E                     	;# 
  2850  001F                     	;# 
  2851  008C                     	;# 
  2852  008D                     	;# 
  2853  0091                     	;# 
  2854  0092                     	;# 
  2855  0093                     	;# 
  2856  0094                     	;# 
  2857  0095                     	;# 
  2858  0096                     	;# 
  2859  0097                     	;# 
  2860  0098                     	;# 
  2861  0099                     	;# 
  2862  009A                     	;# 
  2863  009B                     	;# 
  2864  009B                     	;# 
  2865  009C                     	;# 
  2866  009D                     	;# 
  2867  009E                     	;# 
  2868  010C                     	;# 
  2869  010D                     	;# 
  2870  0111                     	;# 
  2871  0112                     	;# 
  2872  0113                     	;# 
  2873  0114                     	;# 
  2874  0115                     	;# 
  2875  0116                     	;# 
  2876  0117                     	;# 
  2877  0118                     	;# 
  2878  0119                     	;# 
  2879  011A                     	;# 
  2880  011B                     	;# 
  2881  011D                     	;# 
  2882  011E                     	;# 
  2883  018C                     	;# 
  2884  018D                     	;# 
  2885  0191                     	;# 
  2886  0191                     	;# 
  2887  0192                     	;# 
  2888  0193                     	;# 
  2889  0193                     	;# 
  2890  0193                     	;# 
  2891  0194                     	;# 
  2892  0195                     	;# 
  2893  0196                     	;# 
  2894  0199                     	;# 
  2895  019A                     	;# 
  2896  019B                     	;# 
  2897  019B                     	;# 
  2898  019B                     	;# 
  2899  019B                     	;# 
  2900  019C                     	;# 
  2901  019C                     	;# 
  2902  019D                     	;# 
  2903  019E                     	;# 
  2904  019F                     	;# 
  2905  020C                     	;# 
  2906  020D                     	;# 
  2907  0211                     	;# 
  2908  0211                     	;# 
  2909  0212                     	;# 
  2910  0212                     	;# 
  2911  0213                     	;# 
  2912  0213                     	;# 
  2913  0214                     	;# 
  2914  0214                     	;# 
  2915  0215                     	;# 
  2916  0215                     	;# 
  2917  0215                     	;# 
  2918  0216                     	;# 
  2919  0216                     	;# 
  2920  0217                     	;# 
  2921  0217                     	;# 
  2922  0219                     	;# 
  2923  021A                     	;# 
  2924  021B                     	;# 
  2925  021C                     	;# 
  2926  021D                     	;# 
  2927  021E                     	;# 
  2928  021F                     	;# 
  2929  0291                     	;# 
  2930  0291                     	;# 
  2931  0292                     	;# 
  2932  0293                     	;# 
  2933  0294                     	;# 
  2934  0295                     	;# 
  2935  0295                     	;# 
  2936  0296                     	;# 
  2937  0298                     	;# 
  2938  0298                     	;# 
  2939  0299                     	;# 
  2940  029A                     	;# 
  2941  029B                     	;# 
  2942  029C                     	;# 
  2943  029C                     	;# 
  2944  029D                     	;# 
  2945  029E                     	;# 
  2946  029E                     	;# 
  2947  0311                     	;# 
  2948  0311                     	;# 
  2949  0312                     	;# 
  2950  0313                     	;# 
  2951  0318                     	;# 
  2952  0318                     	;# 
  2953  0319                     	;# 
  2954  031A                     	;# 
  2955  0394                     	;# 
  2956  0395                     	;# 
  2957  0396                     	;# 
  2958  039A                     	;# 
  2959  039C                     	;# 
  2960  039D                     	;# 
  2961  039E                     	;# 
  2962  039F                     	;# 
  2963  0415                     	;# 
  2964  0416                     	;# 
  2965  0417                     	;# 
  2966  041C                     	;# 
  2967  041D                     	;# 
  2968  041E                     	;# 
  2969  0FE4                     	;# 
  2970  0FE5                     	;# 
  2971  0FE6                     	;# 
  2972  0FE7                     	;# 
  2973  0FE8                     	;# 
  2974  0FE9                     	;# 
  2975  0FEA                     	;# 
  2976  0FEB                     	;# 
  2977  0FED                     	;# 
  2978  0FEE                     	;# 
  2979  0FEF                     	;# 
  2980                           
  2981                           	psect	eeprom_data
  2982  0000  00FF 0081 0081 00FF 0000 0000 0000 00FF 	db	255,129,129,255,0,0,0,255	;# 
  2983  0008  0043 0085 0089 0071 0042 0091 0091 006E 	db	67,133,137,113,66,145,145,110	;# 
  2984  0010  00F8 0010 0010 00FF 008F 0089 0089 0071 	db	248,16,16,255,143,137,137,113	;# 
  2985  0018  007E 0089 0089 0072 0000 0008 0008 0008 	db	126,137,137,114,0,8,8,8	;# 
  2986  0020  0000 000C 0030 000C 0000 0030 000C 0030 	db	0,12,48,12,0,48,12,48	;# 
  2987  0000                     	;# 
  2988  0001                     	;# 
  2989  0002                     	;# 
  2990  0003                     	;# 
  2991  0004                     	;# 
  2992  0005                     	;# 
  2993  0006                     	;# 
  2994  0007                     	;# 
  2995  0008                     	;# 
  2996  0009                     	;# 
  2997  000A                     	;# 
  2998  000B                     	;# 
  2999  000C                     	;# 
  3000  000D                     	;# 
  3001  0011                     	;# 
  3002  0012                     	;# 
  3003  0013                     	;# 
  3004  0014                     	;# 
  3005  0015                     	;# 
  3006  0016                     	;# 
  3007  0016                     	;# 
  3008  0017                     	;# 
  3009  0018                     	;# 
  3010  0019                     	;# 
  3011  001A                     	;# 
  3012  001B                     	;# 
  3013  001C                     	;# 
  3014  001E                     	;# 
  3015  001F                     	;# 
  3016  008C                     	;# 
  3017  008D                     	;# 
  3018  0091                     	;# 
  3019  0092                     	;# 
  3020  0093                     	;# 
  3021  0094                     	;# 
  3022  0095                     	;# 
  3023  0096                     	;# 
  3024  0097                     	;# 
  3025  0098                     	;# 
  3026  0099                     	;# 
  3027  009A                     	;# 
  3028  009B                     	;# 
  3029  009B                     	;# 
  3030  009C                     	;# 
  3031  009D                     	;# 
  3032  009E                     	;# 
  3033  010C                     	;# 
  3034  010D                     	;# 
  3035  0111                     	;# 
  3036  0112                     	;# 
  3037  0113                     	;# 
  3038  0114                     	;# 
  3039  0115                     	;# 
  3040  0116                     	;# 
  3041  0117                     	;# 
  3042  0118                     	;# 
  3043  0119                     	;# 
  3044  011A                     	;# 
  3045  011B                     	;# 
  3046  011D                     	;# 
  3047  011E                     	;# 
  3048  018C                     	;# 
  3049  018D                     	;# 
  3050  0191                     	;# 
  3051  0191                     	;# 
  3052  0192                     	;# 
  3053  0193                     	;# 
  3054  0193                     	;# 
  3055  0193                     	;# 
  3056  0194                     	;# 
  3057  0195                     	;# 
  3058  0196                     	;# 
  3059  0199                     	;# 
  3060  019A                     	;# 
  3061  019B                     	;# 
  3062  019B                     	;# 
  3063  019B                     	;# 
  3064  019B                     	;# 
  3065  019C                     	;# 
  3066  019C                     	;# 
  3067  019D                     	;# 
  3068  019E                     	;# 
  3069  019F                     	;# 
  3070  020C                     	;# 
  3071  020D                     	;# 
  3072  0211                     	;# 
  3073  0211                     	;# 
  3074  0212                     	;# 
  3075  0212                     	;# 
  3076  0213                     	;# 
  3077  0213                     	;# 
  3078  0214                     	;# 
  3079  0214                     	;# 
  3080  0215                     	;# 
  3081  0215                     	;# 
  3082  0215                     	;# 
  3083  0216                     	;# 
  3084  0216                     	;# 
  3085  0217                     	;# 
  3086  0217                     	;# 
  3087  0219                     	;# 
  3088  021A                     	;# 
  3089  021B                     	;# 
  3090  021C                     	;# 
  3091  021D                     	;# 
  3092  021E                     	;# 
  3093  021F                     	;# 
  3094  0291                     	;# 
  3095  0291                     	;# 
  3096  0292                     	;# 
  3097  0293                     	;# 
  3098  0294                     	;# 
  3099  0295                     	;# 
  3100  0295                     	;# 
  3101  0296                     	;# 
  3102  0298                     	;# 
  3103  0298                     	;# 
  3104  0299                     	;# 
  3105  029A                     	;# 
  3106  029B                     	;# 
  3107  029C                     	;# 
  3108  029C                     	;# 
  3109  029D                     	;# 
  3110  029E                     	;# 
  3111  029E                     	;# 
  3112  0311                     	;# 
  3113  0311                     	;# 
  3114  0312                     	;# 
  3115  0313                     	;# 
  3116  0318                     	;# 
  3117  0318                     	;# 
  3118  0319                     	;# 
  3119  031A                     	;# 
  3120  0394                     	;# 
  3121  0395                     	;# 
  3122  0396                     	;# 
  3123  039A                     	;# 
  3124  039C                     	;# 
  3125  039D                     	;# 
  3126  039E                     	;# 
  3127  039F                     	;# 
  3128  0415                     	;# 
  3129  0416                     	;# 
  3130  0417                     	;# 
  3131  041C                     	;# 
  3132  041D                     	;# 
  3133  041E                     	;# 
  3134  0FE4                     	;# 
  3135  0FE5                     	;# 
  3136  0FE6                     	;# 
  3137  0FE7                     	;# 
  3138  0FE8                     	;# 
  3139  0FE9                     	;# 
  3140  0FEA                     	;# 
  3141  0FEB                     	;# 
  3142  0FED                     	;# 
  3143  0FEE                     	;# 
  3144  0FEF                     	;# 
  3145                           
  3146                           	psect	idataBANK1
  3147  0002                     __pidataBANK1:
  3148                           
  3149                           ;initializer for _count
  3150  0002  340A               	retlw	10
  3151  0003  3400               	retlw	0
  3152                           
  3153                           	psect	stringtext1
  3154  07FF                     __pstringtext1:
  3155  07FF                     _spi1_configuration:
  3156  07FF  340A               	retlw	10
  3157  0800  3440               	retlw	64
  3158  0801  3404               	retlw	4
  3159  0802  3400               	retlw	0
  3160  0803                     __end_of_spi1_configuration:
  3161                           
  3162                           	psect	nvBANK1
  3163  00D6                     __pnvBANK1:
  3164  00D6                     _TMR4_InterruptHandler:
  3165  00D6                     	ds	2
  3166  00D8                     _TMR1_InterruptHandler:
  3167  00D8                     	ds	2
  3168  00DA                     _timer1ReloadVal:
  3169  00DA                     	ds	2
  3170  00DC                     _EUSART_RxDefaultInterruptHandler:
  3171  00DC                     	ds	2
  3172  00DE                     _EUSART_TxDefaultInterruptHandler:
  3173  00DE                     	ds	2
  3174  00E0                     _IOCBF3_InterruptHandler:
  3175  00E0                     	ds	2
  3176  00E2                     _IOCBF0_InterruptHandler:
  3177  00E2                     	ds	2
  3178  00E4                     _eusartTxBufferRemaining:
  3179  00E4                     	ds	1
  3180                           
  3181                           	psect	nvBANK2
  3182  0140                     __pnvBANK2:
  3183  0140                     _CCP4_CallBack:
  3184  0140                     	ds	2
  3185  0142                     _EUSART_ErrorHandler:
  3186  0142                     	ds	2
  3187  0144                     _EUSART_OverrunErrorHandler:
  3188  0144                     	ds	2
  3189  0146                     _EUSART_FramingErrorHandler:
  3190  0146                     	ds	2
  3191  000C                     _PORTAbits	set	12
  3192  0013                     _PIR3bits	set	19
  3193  0012                     _PIR2bits	set	18
  3194  001C                     _T2CONbits	set	28
  3195  001C                     _T2CON	set	28
  3196  001A                     _TMR2	set	26
  3197  001B                     _PR2	set	27
  3198  0019                     _T1GCONbits	set	25
  3199  0018                     _T1CONbits	set	24
  3200  0018                     _T1CON	set	24
  3201  0016                     _TMR1L	set	22
  3202  0017                     _TMR1H	set	23
  3203  0019                     _T1GCON	set	25
  3204  0011                     _PIR1bits	set	17
  3205  000B                     _INTCONbits	set	11
  3206  0093                     _PIE3bits	set	147
  3207  0092                     _PIE2bits	set	146
  3208  009D                     _ADCON0bits	set	157
  3209  009D                     _ADCON0	set	157
  3210  009C                     _ADRESH	set	156
  3211  009B                     _ADRESL	set	155
  3212  009E                     _ADCON1	set	158
  3213  0091                     _PIE1bits	set	145
  3214  008D                     _TRISBbits	set	141
  3215  0095                     _OPTION_REGbits	set	149
  3216  008D                     _TRISB	set	141
  3217  008C                     _TRISA	set	140
  3218  0097                     _WDTCON	set	151
  3219  0098                     _OSCTUNE	set	152
  3220  0099                     _OSCCON	set	153
  3221  010D                     _LATBbits	set	269
  3222  010C                     _LATAbits	set	268
  3223  0119                     _DACCON1	set	281
  3224  0118                     _DACCON0	set	280
  3225  0114                     _CM2CON1	set	276
  3226  0113                     _CM2CON0	set	275
  3227  0115                     _CMOUTbits	set	277
  3228  0112                     _CM1CON1	set	274
  3229  0111                     _CM1CON0	set	273
  3230  0117                     _FVRCONbits	set	279
  3231  0117                     _FVRCON	set	279
  3232  011E                     _APFCON1	set	286
  3233  011D                     _APFCON0	set	285
  3234  010D                     _LATB	set	269
  3235  010C                     _LATA	set	268
  3236  0116                     _BORCON	set	278
  3237  0199                     _RCREG	set	409
  3238  019D                     _RCSTAbits	set	413
  3239  019A                     _TXREG	set	410
  3240  019E                     _TXSTAbits	set	414
  3241  019C                     _SPBRGH	set	412
  3242  019B                     _SPBRGL	set	411
  3243  019E                     _TXSTA	set	414
  3244  019D                     _RCSTA	set	413
  3245  019F                     _BAUDCON	set	415
  3246  0196                     _EECON2	set	406
  3247  0193                     _EEDATL	set	403
  3248  0194                     _EEDATH	set	404
  3249  0195                     _EECON1bits	set	405
  3250  0192                     _EEADRH	set	402
  3251  0191                     _EEADRL	set	401
  3252  018C                     _ANSELA	set	396
  3253  018D                     _ANSELB	set	397
  3254  0211                     _SSP1BUF	set	529
  3255  0216                     _SSP1CON2	set	534
  3256  0215                     _SSP1CON1bits	set	533
  3257  0212                     _SSP1ADD	set	530
  3258  0215                     _SSP1CON1	set	533
  3259  0214                     _SSP1STAT	set	532
  3260  020C                     _WPUA	set	524
  3261  020D                     _WPUB	set	525
  3262  029E                     _CCPTMRS0bits	set	670
  3263  0319                     _CCPR4H	set	793
  3264  0318                     _CCPR4L	set	792
  3265  031A                     _CCP4CON	set	794
  3266  0312                     _CCPR3H	set	786
  3267  0311                     _CCPR3L	set	785
  3268  0313                     _CCP3CON	set	787
  3269  0394                     _IOCBPbits	set	916
  3270  0395                     _IOCBNbits	set	917
  3271  0396                     _IOCBFbits	set	918
  3272  0417                     _T4CONbits	set	1047
  3273  0417                     _T4CON	set	1047
  3274  0415                     _TMR4	set	1045
  3275  0416                     _PR4	set	1046
  3276                           
  3277                           	psect	cinit
  3278  0082                     start_initialization:	
  3279                           ; #config settings
  3280                           
  3281  0082                     __initialization:
  3282                           
  3283                           ; Initialize objects allocated to BANK1
  3284  0082  0021               	movlb	1	; select bank1
  3285  0083  3180  2002  3180   	fcall	__pidataBANK1	;fetch initializer
  3286  0086  00EC               	movwf	__pdataBANK1& (0+127)
  3287  0087  3180  2003  3180   	fcall	__pidataBANK1+1	;fetch initializer
  3288  008A  00ED               	movwf	(__pdataBANK1+1)& (0+127)
  3289                           
  3290                           ; Clear objects allocated to BANK0
  3291  008B  0020               	movlb	0	; select bank0
  3292  008C  01EC               	clrf	__pbssBANK0& (0+127)
  3293  008D  01ED               	clrf	(__pbssBANK0+1)& (0+127)
  3294                           
  3295                           ; Clear objects allocated to BANK1
  3296  008E  30A0               	movlw	low __pbssBANK1
  3297  008F  0084               	movwf	4
  3298  0090  3000               	movlw	high __pbssBANK1
  3299  0091  0085               	movwf	5
  3300  0092  3036               	movlw	54
  3301  0093  3189  21E6  3180   	fcall	clear_ram0
  3302                           
  3303                           ; Clear objects allocated to BANK2
  3304  0096  3020               	movlw	low __pbssBANK2
  3305  0097  0084               	movwf	4
  3306  0098  3001               	movlw	high __pbssBANK2
  3307  0099  0085               	movwf	5
  3308  009A  3020               	movlw	32
  3309  009B  3189  21E6  3180   	fcall	clear_ram0
  3310  009E                     end_of_initialization:	
  3311                           ;End of C runtime variable initialization code
  3312                           
  3313  009E                     __end_of__initialization:
  3314  009E  107E               	bcf	int$flags,0	;clear compiler interrupt flag (level 1)
  3315  009F  0020               	movlb	0
  3316  00A0  3184  2CAD         	ljmp	_main	;jump to C main() function
  3317                           
  3318                           	psect	bssBANK0
  3319  006C                     __pbssBANK0:
  3320  006C                     _eusartRxTail:
  3321  006C                     	ds	1
  3322  006D                     _eusartRxHead:
  3323  006D                     	ds	1
  3324                           
  3325                           	psect	bssBANK1
  3326  00A0                     __pbssBANK1:
  3327  00A0                     _eusartRxStatusBuffer:
  3328  00A0                     	ds	8
  3329  00A8                     _eusartTxBuffer:
  3330  00A8                     	ds	8
  3331  00B0                     _txByte:
  3332  00B0                     	ds	4
  3333  00B4                     _iRx:
  3334  00B4                     	ds	2
  3335  00B6                     _pwm:
  3336  00B6                     	ds	2
  3337  00B8                     _BCD:
  3338  00B8                     	ds	2
  3339  00BA                     _u:
  3340  00BA                     	ds	2
  3341  00BC                     _pos_atual:
  3342  00BC                     	ds	2
  3343  00BE                     _pos_final:
  3344  00BE                     	ds	2
  3345  00C0                     _ADC_InterruptHandler:
  3346  00C0                     	ds	2
  3347  00C2                     _enviarDados:
  3348  00C2                     	ds	1
  3349  00C3                     _rxByte:
  3350  00C3                     	ds	1
  3351  00C4                     _eusartRxLastError:
  3352  00C4                     	ds	1
  3353  00C5                     _eusartRxCount:
  3354  00C5                     	ds	1
  3355  00C6                     _eusartTxTail:
  3356  00C6                     	ds	1
  3357  00C7                     _eusartTxHead:
  3358  00C7                     	ds	1
  3359  00C8                     _position:
  3360  00C8                     	ds	4
  3361  00CC                     _colect_value:
  3362  00CC                     	ds	2
  3363  00CE                     _pulsos:
  3364  00CE                     	ds	2
  3365  00D0                     _motor:
  3366  00D0                     	ds	2
  3367  00D2                     _speed:
  3368  00D2                     	ds	2
  3369  00D4                     _temp:
  3370  00D4                     	ds	2
  3371                           
  3372                           	psect	dataBANK1
  3373  00EC                     __pdataBANK1:
  3374  00EC                     _count:
  3375  00EC                     	ds	2
  3376                           
  3377                           	psect	bssBANK2
  3378  0120                     __pbssBANK2:
  3379  0120                     _matrix:
  3380  0120                     	ds	16
  3381  0130                     _LED:
  3382  0130                     	ds	8
  3383  0138                     _eusartRxBuffer:
  3384  0138                     	ds	8
  3385                           
  3386                           	psect	clrtext
  3387  09E6                     clear_ram0:	
  3388                           ;	Called with FSR0 containing the base address, and
  3389                           ;	WREG with the size to clear
  3390                           
  3391  09E6  0064               	clrwdt	;clear the watchdog before getting into this loop
  3392  09E7                     clrloop0:
  3393  09E7  0180               	clrf	0	;clear RAM location pointed to by FSR
  3394  09E8  3101               	addfsr 0,1
  3395  09E9  0B89               	decfsz	9,f	;Have we reached the end of clearing yet?
  3396  09EA  29E7               	goto	clrloop0	;have we reached the end yet?
  3397  09EB  3400               	retlw	0	;all done for this memory range, return
  3398                           
  3399                           	psect	cstackBANK2
  3400  0148                     __pcstackBANK2:
  3401  0148                     ??_main:
  3402                           
  3403                           ; 1 bytes @ 0x0
  3404  0148                     	ds	4
  3405                           
  3406                           	psect	cstackBANK1
  3407  00E5                     __pcstackBANK1:
  3408  00E5                     ??___fltol:
  3409                           
  3410                           ; 1 bytes @ 0x0
  3411  00E5                     	ds	5
  3412  00EA                     ___fltol@sign1:
  3413                           
  3414                           ; 1 bytes @ 0x5
  3415  00EA                     	ds	1
  3416  00EB                     ___fltol@exp1:
  3417                           
  3418                           ; 1 bytes @ 0x6
  3419  00EB                     	ds	1
  3420                           
  3421                           	psect	cstackCOMMON
  3422  0070                     __pcstackCOMMON:
  3423  0070                     ?_SPI1_Initialize:
  3424  0070                     ?_PIN_MANAGER_Initialize:	
  3425                           ; 1 bytes @ 0x0
  3426                           
  3427  0070                     ?_OSCILLATOR_Initialize:	
  3428                           ; 1 bytes @ 0x0
  3429                           
  3430  0070                     ?_WDT_Initialize:	
  3431                           ; 1 bytes @ 0x0
  3432                           
  3433  0070                     ?_FVR_Initialize:	
  3434                           ; 1 bytes @ 0x0
  3435                           
  3436  0070                     ?_CMP2_Initialize:	
  3437                           ; 1 bytes @ 0x0
  3438                           
  3439  0070                     ?_DAC_Initialize:	
  3440                           ; 1 bytes @ 0x0
  3441                           
  3442  0070                     ?_TMR4_Initialize:	
  3443                           ; 1 bytes @ 0x0
  3444                           
  3445  0070                     ?_TMR2_Initialize:	
  3446                           ; 1 bytes @ 0x0
  3447                           
  3448  0070                     ?_CMP1_Initialize:	
  3449                           ; 1 bytes @ 0x0
  3450                           
  3451  0070                     ?_CCP4_Initialize:	
  3452                           ; 1 bytes @ 0x0
  3453                           
  3454  0070                     ?_ADC_Initialize:	
  3455                           ; 1 bytes @ 0x0
  3456                           
  3457  0070                     ?_PWM3_Initialize:	
  3458                           ; 1 bytes @ 0x0
  3459                           
  3460  0070                     ?_TMR1_Initialize:	
  3461                           ; 1 bytes @ 0x0
  3462                           
  3463  0070                     ?_EUSART_Initialize:	
  3464                           ; 1 bytes @ 0x0
  3465                           
  3466  0070                     ?_IOCBF0_DefaultInterruptHandler:	
  3467                           ; 1 bytes @ 0x0
  3468                           
  3469  0070                     ??_IOCBF0_DefaultInterruptHandler:	
  3470                           ; 1 bytes @ 0x0
  3471                           
  3472  0070                     ?_IOCBF3_DefaultInterruptHandler:	
  3473                           ; 1 bytes @ 0x0
  3474                           
  3475  0070                     ??_IOCBF3_DefaultInterruptHandler:	
  3476                           ; 1 bytes @ 0x0
  3477                           
  3478  0070                     ?_IOCBF0_ISR:	
  3479                           ; 1 bytes @ 0x0
  3480                           
  3481  0070                     ?_IOCBF3_ISR:	
  3482                           ; 1 bytes @ 0x0
  3483                           
  3484  0070                     ?_EUSART_Receive_ISR:	
  3485                           ; 1 bytes @ 0x0
  3486                           
  3487  0070                     ?_EUSART_Transmit_ISR:	
  3488                           ; 1 bytes @ 0x0
  3489                           
  3490  0070                     ??_EUSART_Transmit_ISR:	
  3491                           ; 1 bytes @ 0x0
  3492                           
  3493  0070                     ?_EUSART_DefaultFramingErrorHandler:	
  3494                           ; 1 bytes @ 0x0
  3495                           
  3496  0070                     ??_EUSART_DefaultFramingErrorHandler:	
  3497                           ; 1 bytes @ 0x0
  3498                           
  3499  0070                     ?_EUSART_DefaultOverrunErrorHandler:	
  3500                           ; 1 bytes @ 0x0
  3501                           
  3502  0070                     ??_EUSART_DefaultOverrunErrorHandler:	
  3503                           ; 1 bytes @ 0x0
  3504                           
  3505  0070                     ?_EUSART_DefaultErrorHandler:	
  3506                           ; 1 bytes @ 0x0
  3507                           
  3508  0070                     ?_EUSART_RxDataHandler:	
  3509                           ; 1 bytes @ 0x0
  3510                           
  3511  0070                     ??_EUSART_RxDataHandler:	
  3512                           ; 1 bytes @ 0x0
  3513                           
  3514  0070                     ?_TMR1_DefaultInterruptHandler:	
  3515                           ; 1 bytes @ 0x0
  3516                           
  3517  0070                     ??_TMR1_DefaultInterruptHandler:	
  3518                           ; 1 bytes @ 0x0
  3519                           
  3520  0070                     ?_CMP2_ISR:	
  3521                           ; 1 bytes @ 0x0
  3522                           
  3523  0070                     ?_CMP1_ISR:	
  3524                           ; 1 bytes @ 0x0
  3525                           
  3526  0070                     ?_CCP4_CaptureISR:	
  3527                           ; 1 bytes @ 0x0
  3528                           
  3529  0070                     ?_TMR4_ISR:	
  3530                           ; 1 bytes @ 0x0
  3531                           
  3532  0070                     ?_TMR4_DefaultInterruptHandler:	
  3533                           ; 1 bytes @ 0x0
  3534                           
  3535  0070                     ??_TMR4_DefaultInterruptHandler:	
  3536                           ; 1 bytes @ 0x0
  3537                           
  3538  0070                     ?_initMAX7219:	
  3539                           ; 1 bytes @ 0x0
  3540                           
  3541  0070                     ?_SYSTEM_Initialize:	
  3542                           ; 1 bytes @ 0x0
  3543                           
  3544  0070                     ?_PIN_MANAGER_IOC:	
  3545                           ; 1 bytes @ 0x0
  3546                           
  3547  0070                     ?_DATAEE_ReadByte:	
  3548                           ; 1 bytes @ 0x0
  3549                           
  3550  0070                     ?_SPI1_Open:	
  3551                           ; 1 bytes @ 0x0
  3552                           
  3553  0070                     ?_SPI1_WriteByte:	
  3554                           ; 1 bytes @ 0x0
  3555                           
  3556  0070                     ?_EUSART_is_rx_ready:	
  3557                           ; 1 bytes @ 0x0
  3558                           
  3559  0070                     ?_EUSART_Read:	
  3560                           ; 1 bytes @ 0x0
  3561                           
  3562  0070                     ?_EUSART_Write:	
  3563                           ; 1 bytes @ 0x0
  3564                           
  3565  0070                     ??_EUSART_Write:	
  3566                           ; 1 bytes @ 0x0
  3567                           
  3568  0070                     ?_TMR1_WriteTimer:	
  3569                           ; 1 bytes @ 0x0
  3570                           
  3571  0070                     ?_TMR1_ISR:	
  3572                           ; 1 bytes @ 0x0
  3573                           
  3574  0070                     ?_INTERRUPT_InterruptManager:	
  3575                           ; 1 bytes @ 0x0
  3576                           
  3577  0070                     ?_andar:	
  3578                           ; 1 bytes @ 0x0
  3579                           
  3580  0070                     ?_deslocamento:	
  3581                           ; 1 bytes @ 0x0
  3582                           
  3583  0070                     ?_controle:	
  3584                           ; 1 bytes @ 0x0
  3585                           
  3586  0070                     ?_leds:	
  3587                           ; 1 bytes @ 0x0
  3588                           
  3589  0070                     ?_comm:	
  3590                           ; 1 bytes @ 0x0
  3591                           
  3592  0070                     ?_S1:	
  3593                           ; 1 bytes @ 0x0
  3594                           
  3595  0070                     ?_S2:	
  3596                           ; 1 bytes @ 0x0
  3597                           
  3598  0070                     ?_S3:	
  3599                           ; 1 bytes @ 0x0
  3600                           
  3601  0070                     ?_S4:	
  3602                           ; 1 bytes @ 0x0
  3603                           
  3604  0070                     ?_main:	
  3605                           ; 1 bytes @ 0x0
  3606                           
  3607  0070                     ?i1_SPI1_WriteByte:	
  3608                           ; 1 bytes @ 0x0
  3609                           
  3610  0070                     ??i1_SPI1_WriteByte:	
  3611                           ; 1 bytes @ 0x0
  3612                           
  3613  0070                     ?i1_PWM3_LoadDutyValue:	
  3614                           ; 1 bytes @ 0x0
  3615                           
  3616  0070                     ?i1_deslocamento:	
  3617                           ; 1 bytes @ 0x0
  3618                           
  3619  0070                     ?i1___fltol:	
  3620                           ; 1 bytes @ 0x0
  3621                           
  3622  0070                     i1SPI1_WriteByte@byte:	
  3623                           ; 4 bytes @ 0x0
  3624                           
  3625  0070                     TMR1_WriteTimer@timerVal:	
  3626                           ; 1 bytes @ 0x0
  3627                           
  3628  0070                     i1PWM3_LoadDutyValue@dutyValue:	
  3629                           ; 2 bytes @ 0x0
  3630                           
  3631  0070                     i1___fltol@f1:	
  3632                           ; 2 bytes @ 0x0
  3633                           
  3634                           
  3635                           ; 4 bytes @ 0x0
  3636  0070                     	ds	1
  3637  0071                     ??_EUSART_Receive_ISR:
  3638  0071                     ??_EUSART_DefaultErrorHandler:	
  3639                           ; 1 bytes @ 0x1
  3640                           
  3641  0071                     ?i1_txMAX7219:	
  3642                           ; 1 bytes @ 0x1
  3643                           
  3644  0071                     EUSART_Write@txData:	
  3645                           ; 1 bytes @ 0x1
  3646                           
  3647  0071                     i1txMAX7219@dat0:	
  3648                           ; 1 bytes @ 0x1
  3649                           
  3650                           
  3651                           ; 1 bytes @ 0x1
  3652  0071                     	ds	1
  3653  0072                     ??_TMR1_WriteTimer:
  3654  0072                     ??_TMR1_ISR:	
  3655                           ; 1 bytes @ 0x2
  3656                           
  3657  0072                     ??i1_PWM3_LoadDutyValue:	
  3658                           ; 1 bytes @ 0x2
  3659                           
  3660  0072                     i1txMAX7219@addr1:	
  3661                           ; 1 bytes @ 0x2
  3662                           
  3663                           
  3664                           ; 1 bytes @ 0x2
  3665  0072                     	ds	1
  3666  0073                     i1txMAX7219@dat1:
  3667                           
  3668                           ; 1 bytes @ 0x3
  3669  0073                     	ds	1
  3670  0074                     ??_IOCBF0_ISR:
  3671  0074                     ??_CMP2_ISR:	
  3672                           ; 1 bytes @ 0x4
  3673                           
  3674  0074                     ?_CCP4_DefaultCallBack:	
  3675                           ; 1 bytes @ 0x4
  3676                           
  3677  0074                     ?_Enc:	
  3678                           ; 1 bytes @ 0x4
  3679                           
  3680  0074                     ??_S1:	
  3681                           ; 1 bytes @ 0x4
  3682                           
  3683  0074                     ??_S4:	
  3684                           ; 1 bytes @ 0x4
  3685                           
  3686  0074                     ??i1_deslocamento:	
  3687                           ; 1 bytes @ 0x4
  3688                           
  3689  0074                     ??i1_txMAX7219:	
  3690                           ; 1 bytes @ 0x4
  3691                           
  3692  0074                     ??i1___fltol:	
  3693                           ; 1 bytes @ 0x4
  3694                           
  3695  0074                     i1txMAX7219@addr0:	
  3696                           ; 1 bytes @ 0x4
  3697                           
  3698  0074                     CCP4_DefaultCallBack@capturedValue:	
  3699                           ; 1 bytes @ 0x4
  3700                           
  3701  0074                     Enc@colect_value:	
  3702                           ; 2 bytes @ 0x4
  3703                           
  3704                           
  3705                           ; 2 bytes @ 0x4
  3706  0074                     	ds	1
  3707  0075                     ??_leds:
  3708                           
  3709                           ; 1 bytes @ 0x5
  3710  0075                     	ds	1
  3711  0076                     ??_IOCBF3_ISR:
  3712  0076                     ??_CMP1_ISR:	
  3713                           ; 1 bytes @ 0x6
  3714                           
  3715  0076                     ??_PIN_MANAGER_IOC:	
  3716                           ; 1 bytes @ 0x6
  3717                           
  3718  0076                     ??_CCP4_DefaultCallBack:	
  3719                           ; 1 bytes @ 0x6
  3720                           
  3721  0076                     ??_Enc:	
  3722                           ; 1 bytes @ 0x6
  3723                           
  3724  0076                     ??_S2:	
  3725                           ; 1 bytes @ 0x6
  3726                           
  3727  0076                     ??_S3:	
  3728                           ; 1 bytes @ 0x6
  3729                           
  3730                           
  3731                           ; 1 bytes @ 0x6
  3732  0076                     	ds	1
  3733  0077                     ??_CCP4_CaptureISR:
  3734                           
  3735                           ; 1 bytes @ 0x7
  3736  0077                     	ds	1
  3737  0078                     CCP4_CaptureISR@module:
  3738  0078                     leds@i:	
  3739                           ; 2 bytes @ 0x8
  3740                           
  3741                           
  3742                           ; 2 bytes @ 0x8
  3743  0078                     	ds	1
  3744  0079                     i1___fltol@sign1:
  3745                           
  3746                           ; 1 bytes @ 0x9
  3747  0079                     	ds	1
  3748  007A                     i1___fltol@exp1:
  3749                           
  3750                           ; 1 bytes @ 0xA
  3751  007A                     	ds	1
  3752  007B                     ??_comm:
  3753                           
  3754                           ; 1 bytes @ 0xB
  3755  007B                     	ds	3
  3756  007E                     ??_TMR4_ISR:
  3757  007E                     ??_INTERRUPT_InterruptManager:	
  3758                           ; 1 bytes @ 0xE
  3759                           
  3760                           
  3761                           	psect	cstackBANK0
  3762  0020                     __pcstackBANK0:	
  3763                           ; 1 bytes @ 0xE
  3764                           
  3765  0020                     comm@i:
  3766                           
  3767                           ; 2 bytes @ 0x0
  3768  0020                     	ds	2
  3769  0022                     ??_SPI1_Initialize:
  3770  0022                     ??_OSCILLATOR_Initialize:	
  3771                           ; 1 bytes @ 0x2
  3772                           
  3773  0022                     ??_WDT_Initialize:	
  3774                           ; 1 bytes @ 0x2
  3775                           
  3776  0022                     ??_FVR_Initialize:	
  3777                           ; 1 bytes @ 0x2
  3778                           
  3779  0022                     ??_CMP2_Initialize:	
  3780                           ; 1 bytes @ 0x2
  3781                           
  3782  0022                     ??_DAC_Initialize:	
  3783                           ; 1 bytes @ 0x2
  3784                           
  3785  0022                     ??_TMR2_Initialize:	
  3786                           ; 1 bytes @ 0x2
  3787                           
  3788  0022                     ??_CMP1_Initialize:	
  3789                           ; 1 bytes @ 0x2
  3790                           
  3791  0022                     ??_ADC_Initialize:	
  3792                           ; 1 bytes @ 0x2
  3793                           
  3794  0022                     ??_PWM3_Initialize:	
  3795                           ; 1 bytes @ 0x2
  3796                           
  3797  0022                     ?_IOCBF0_SetInterruptHandler:	
  3798                           ; 1 bytes @ 0x2
  3799                           
  3800  0022                     ?_IOCBF3_SetInterruptHandler:	
  3801                           ; 1 bytes @ 0x2
  3802                           
  3803  0022                     ?_EUSART_SetRxInterruptHandler:	
  3804                           ; 1 bytes @ 0x2
  3805                           
  3806  0022                     ?_EUSART_SetTxInterruptHandler:	
  3807                           ; 1 bytes @ 0x2
  3808                           
  3809  0022                     ?_EUSART_SetFramingErrorHandler:	
  3810                           ; 1 bytes @ 0x2
  3811                           
  3812  0022                     ?_EUSART_SetOverrunErrorHandler:	
  3813                           ; 1 bytes @ 0x2
  3814                           
  3815  0022                     ?_EUSART_SetErrorHandler:	
  3816                           ; 1 bytes @ 0x2
  3817                           
  3818  0022                     ?_TMR1_SetInterruptHandler:	
  3819                           ; 1 bytes @ 0x2
  3820                           
  3821  0022                     ?_TMR4_SetInterruptHandler:	
  3822                           ; 1 bytes @ 0x2
  3823                           
  3824  0022                     ?_CCP4_SetCallBack:	
  3825                           ; 1 bytes @ 0x2
  3826                           
  3827  0022                     ??_DATAEE_ReadByte:	
  3828                           ; 1 bytes @ 0x2
  3829                           
  3830  0022                     ??_SPI1_Open:	
  3831                           ; 1 bytes @ 0x2
  3832                           
  3833  0022                     ??_SPI1_WriteByte:	
  3834                           ; 1 bytes @ 0x2
  3835                           
  3836  0022                     ??_EUSART_is_rx_ready:	
  3837                           ; 1 bytes @ 0x2
  3838                           
  3839  0022                     ??_EUSART_Read:	
  3840                           ; 1 bytes @ 0x2
  3841                           
  3842  0022                     ?_PWM3_LoadDutyValue:	
  3843                           ; 1 bytes @ 0x2
  3844                           
  3845  0022                     ?__Umul8_16:	
  3846                           ; 1 bytes @ 0x2
  3847                           
  3848  0022                     ?_ADC_GetConversion:	
  3849                           ; 2 bytes @ 0x2
  3850                           
  3851  0022                     DATAEE_ReadByte@bAdd:	
  3852                           ; 2 bytes @ 0x2
  3853                           
  3854  0022                     SPI1_WriteByte@byte:	
  3855                           ; 1 bytes @ 0x2
  3856                           
  3857  0022                     __Umul8_16@multiplicand:	
  3858                           ; 1 bytes @ 0x2
  3859                           
  3860  0022                     IOCBF0_SetInterruptHandler@InterruptHandler:	
  3861                           ; 1 bytes @ 0x2
  3862                           
  3863  0022                     IOCBF3_SetInterruptHandler@InterruptHandler:	
  3864                           ; 2 bytes @ 0x2
  3865                           
  3866  0022                     EUSART_SetFramingErrorHandler@interruptHandler:	
  3867                           ; 2 bytes @ 0x2
  3868                           
  3869  0022                     EUSART_SetOverrunErrorHandler@interruptHandler:	
  3870                           ; 2 bytes @ 0x2
  3871                           
  3872  0022                     EUSART_SetErrorHandler@interruptHandler:	
  3873                           ; 2 bytes @ 0x2
  3874                           
  3875  0022                     EUSART_SetTxInterruptHandler@interruptHandler:	
  3876                           ; 2 bytes @ 0x2
  3877                           
  3878  0022                     EUSART_SetRxInterruptHandler@interruptHandler:	
  3879                           ; 2 bytes @ 0x2
  3880                           
  3881  0022                     TMR1_SetInterruptHandler@InterruptHandler:	
  3882                           ; 2 bytes @ 0x2
  3883                           
  3884  0022                     PWM3_LoadDutyValue@dutyValue:	
  3885                           ; 2 bytes @ 0x2
  3886                           
  3887  0022                     TMR4_SetInterruptHandler@InterruptHandler:	
  3888                           ; 2 bytes @ 0x2
  3889                           
  3890  0022                     CCP4_SetCallBack@customCallBack:	
  3891                           ; 2 bytes @ 0x2
  3892                           
  3893                           
  3894                           ; 2 bytes @ 0x2
  3895  0022                     	ds	1
  3896  0023                     ?_txMAX7219:
  3897  0023                     ??_andar:	
  3898                           ; 1 bytes @ 0x3
  3899                           
  3900  0023                     EUSART_Read@readValue:	
  3901                           ; 1 bytes @ 0x3
  3902                           
  3903  0023                     txMAX7219@dat0:	
  3904                           ; 1 bytes @ 0x3
  3905                           
  3906                           
  3907                           ; 1 bytes @ 0x3
  3908  0023                     	ds	1
  3909  0024                     ??_PIN_MANAGER_Initialize:
  3910  0024                     ??_TMR4_Initialize:	
  3911                           ; 1 bytes @ 0x4
  3912                           
  3913  0024                     ??_CCP4_Initialize:	
  3914                           ; 1 bytes @ 0x4
  3915                           
  3916  0024                     ??_TMR1_Initialize:	
  3917                           ; 1 bytes @ 0x4
  3918                           
  3919  0024                     ??_EUSART_Initialize:	
  3920                           ; 1 bytes @ 0x4
  3921                           
  3922  0024                     ??_IOCBF0_SetInterruptHandler:	
  3923                           ; 1 bytes @ 0x4
  3924                           
  3925  0024                     ??_IOCBF3_SetInterruptHandler:	
  3926                           ; 1 bytes @ 0x4
  3927                           
  3928  0024                     ??_EUSART_SetRxInterruptHandler:	
  3929                           ; 1 bytes @ 0x4
  3930                           
  3931  0024                     ??_EUSART_SetTxInterruptHandler:	
  3932                           ; 1 bytes @ 0x4
  3933                           
  3934  0024                     ??_EUSART_SetFramingErrorHandler:	
  3935                           ; 1 bytes @ 0x4
  3936                           
  3937  0024                     ??_EUSART_SetOverrunErrorHandler:	
  3938                           ; 1 bytes @ 0x4
  3939                           
  3940  0024                     ??_EUSART_SetErrorHandler:	
  3941                           ; 1 bytes @ 0x4
  3942                           
  3943  0024                     ??_TMR1_SetInterruptHandler:	
  3944                           ; 1 bytes @ 0x4
  3945                           
  3946  0024                     ??_TMR4_SetInterruptHandler:	
  3947                           ; 1 bytes @ 0x4
  3948                           
  3949  0024                     ??_CCP4_SetCallBack:	
  3950                           ; 1 bytes @ 0x4
  3951                           
  3952  0024                     ??__Umul8_16:	
  3953                           ; 1 bytes @ 0x4
  3954                           
  3955  0024                     ??_PWM3_LoadDutyValue:	
  3956                           ; 1 bytes @ 0x4
  3957                           
  3958  0024                     ??_ADC_GetConversion:	
  3959                           ; 1 bytes @ 0x4
  3960                           
  3961  0024                     txMAX7219@addr1:	
  3962                           ; 1 bytes @ 0x4
  3963                           
  3964                           
  3965                           ; 1 bytes @ 0x4
  3966  0024                     	ds	1
  3967  0025                     ??_SYSTEM_Initialize:
  3968  0025                     SPI1_Open@spi1UniqueConfiguration:	
  3969                           ; 1 bytes @ 0x5
  3970                           
  3971  0025                     ADC_GetConversion@channel:	
  3972                           ; 1 bytes @ 0x5
  3973                           
  3974  0025                     txMAX7219@dat1:	
  3975                           ; 1 bytes @ 0x5
  3976                           
  3977  0025                     andar@i:	
  3978                           ; 1 bytes @ 0x5
  3979                           
  3980                           
  3981                           ; 2 bytes @ 0x5
  3982  0025                     	ds	1
  3983  0026                     ??_txMAX7219:
  3984  0026                     ??_deslocamento:	
  3985                           ; 1 bytes @ 0x6
  3986                           
  3987  0026                     ?___xxtofl:	
  3988                           ; 1 bytes @ 0x6
  3989                           
  3990  0026                     txMAX7219@addr0:	
  3991                           ; 4 bytes @ 0x6
  3992                           
  3993  0026                     __Umul8_16@product:	
  3994                           ; 1 bytes @ 0x6
  3995                           
  3996  0026                     ___xxtofl@val:	
  3997                           ; 2 bytes @ 0x6
  3998                           
  3999                           
  4000                           ; 4 bytes @ 0x6
  4001  0026                     	ds	1
  4002  0027                     ??_initMAX7219:
  4003  0027                     andar@i_1662:	
  4004                           ; 1 bytes @ 0x7
  4005                           
  4006                           
  4007                           ; 2 bytes @ 0x7
  4008  0027                     	ds	1
  4009  0028                     ??_controle:
  4010  0028                     __Umul8_16@word_mpld:	
  4011                           ; 1 bytes @ 0x8
  4012                           
  4013                           
  4014                           ; 2 bytes @ 0x8
  4015  0028                     	ds	2
  4016  002A                     ??___xxtofl:
  4017  002A                     __Umul8_16@multiplier:	
  4018                           ; 1 bytes @ 0xA
  4019                           
  4020                           
  4021                           ; 1 bytes @ 0xA
  4022  002A                     	ds	4
  4023  002E                     ___xxtofl@sign:
  4024                           
  4025                           ; 1 bytes @ 0xE
  4026  002E                     	ds	1
  4027  002F                     ___xxtofl@exp:
  4028                           
  4029                           ; 1 bytes @ 0xF
  4030  002F                     	ds	1
  4031  0030                     ___xxtofl@arg:
  4032                           
  4033                           ; 4 bytes @ 0x10
  4034  0030                     	ds	4
  4035  0034                     ?___flmul:
  4036  0034                     ___flmul@b:	
  4037                           ; 4 bytes @ 0x14
  4038                           
  4039                           
  4040                           ; 4 bytes @ 0x14
  4041  0034                     	ds	4
  4042  0038                     ___flmul@a:
  4043                           
  4044                           ; 4 bytes @ 0x18
  4045  0038                     	ds	4
  4046  003C                     ??___flmul:
  4047                           
  4048                           ; 1 bytes @ 0x1C
  4049  003C                     	ds	5
  4050  0041                     ___flmul@sign:
  4051                           
  4052                           ; 1 bytes @ 0x21
  4053  0041                     	ds	1
  4054  0042                     ___flmul@grs:
  4055                           
  4056                           ; 4 bytes @ 0x22
  4057  0042                     	ds	4
  4058  0046                     ___flmul@aexp:
  4059                           
  4060                           ; 1 bytes @ 0x26
  4061  0046                     	ds	1
  4062  0047                     ___flmul@bexp:
  4063                           
  4064                           ; 1 bytes @ 0x27
  4065  0047                     	ds	1
  4066  0048                     ___flmul@prod:
  4067                           
  4068                           ; 4 bytes @ 0x28
  4069  0048                     	ds	4
  4070  004C                     ___flmul@temp:
  4071                           
  4072                           ; 2 bytes @ 0x2C
  4073  004C                     	ds	2
  4074  004E                     ?___fldiv:
  4075  004E                     ___fldiv@a:	
  4076                           ; 4 bytes @ 0x2E
  4077                           
  4078                           
  4079                           ; 4 bytes @ 0x2E
  4080  004E                     	ds	4
  4081  0052                     ___fldiv@b:
  4082                           
  4083                           ; 4 bytes @ 0x32
  4084  0052                     	ds	4
  4085  0056                     ??___fldiv:
  4086                           
  4087                           ; 1 bytes @ 0x36
  4088  0056                     	ds	5
  4089  005B                     ___fldiv@rem:
  4090                           
  4091                           ; 4 bytes @ 0x3B
  4092  005B                     	ds	4
  4093  005F                     ___fldiv@sign:
  4094                           
  4095                           ; 1 bytes @ 0x3F
  4096  005F                     	ds	1
  4097  0060                     ___fldiv@new_exp:
  4098                           
  4099                           ; 2 bytes @ 0x40
  4100  0060                     	ds	2
  4101  0062                     ___fldiv@grs:
  4102                           
  4103                           ; 4 bytes @ 0x42
  4104  0062                     	ds	4
  4105  0066                     ___fldiv@bexp:
  4106                           
  4107                           ; 1 bytes @ 0x46
  4108  0066                     	ds	1
  4109  0067                     ___fldiv@aexp:
  4110                           
  4111                           ; 1 bytes @ 0x47
  4112  0067                     	ds	1
  4113  0068                     ?___fltol:
  4114  0068                     ___fltol@f1:	
  4115                           ; 4 bytes @ 0x48
  4116                           
  4117                           
  4118                           ; 4 bytes @ 0x48
  4119  0068                     	ds	4
  4120                           
  4121                           	psect	maintext
  4122  04AD                     __pmaintext:	
  4123 ;;
  4124 ;;Main: autosize = 0, tempsize = 4, incstack = 0, save=0
  4125 ;;
  4126 ;; *************** function _main *****************
  4127 ;; Defined at:
  4128 ;;		line 207 in file "main.c"
  4129 ;; Parameters:    Size  Location     Type
  4130 ;;		None
  4131 ;; Auto vars:     Size  Location     Type
  4132 ;;		None
  4133 ;; Return value:  Size  Location     Type
  4134 ;;                  1    wreg      void 
  4135 ;; Registers used:
  4136 ;;		wreg, fsr0l, fsr0h, fsr1l, fsr1h, status,2, status,0, pclath, cstack
  4137 ;; Tracked objects:
  4138 ;;		On entry : B1F/0
  4139 ;;		On exit  : 0/0
  4140 ;;		Unchanged: 0/0
  4141 ;; Data sizes:     COMMON   BANK0   BANK1   BANK2   BANK3   BANK4
  4142 ;;      Params:         0       0       0       0       0       0
  4143 ;;      Locals:         0       0       0       0       0       0
  4144 ;;      Temps:          0       0       0       4       0       0
  4145 ;;      Totals:         0       0       0       4       0       0
  4146 ;;Total ram usage:        4 bytes
  4147 ;; Hardware stack levels required when called: 9
  4148 ;; This function calls:
  4149 ;;		_ADC_GetConversion
  4150 ;;		_CCP4_SetCallBack
  4151 ;;		_EUSART_Read
  4152 ;;		_EUSART_is_rx_ready
  4153 ;;		_IOCBF0_SetInterruptHandler
  4154 ;;		_IOCBF3_SetInterruptHandler
  4155 ;;		_SPI1_Open
  4156 ;;		_SYSTEM_Initialize
  4157 ;;		_TMR4_SetInterruptHandler
  4158 ;;		___fldiv
  4159 ;;		___flmul
  4160 ;;		___fltol
  4161 ;;		___xxtofl
  4162 ;;		_andar
  4163 ;;		_controle
  4164 ;;		_initMAX7219
  4165 ;; This function is called by:
  4166 ;;		Startup code after reset
  4167 ;; This function uses a non-reentrant model
  4168 ;;
  4169                           
  4170                           
  4171                           ;psect for function _main
  4172  04AD                     _main:
  4173  04AD                     l3875:	
  4174                           ;incstack = 0
  4175                           ; Regs used in _main: [wreg-fsr1h+status,2+status,0+pclath+cstack]
  4176                           
  4177                           
  4178                           ;main.c: 209:     SYSTEM_Initialize();
  4179  04AD  318C  24C5  3184   	fcall	_SYSTEM_Initialize
  4180  04B0                     l3877:
  4181                           
  4182                           ;main.c: 210:     SPI1_Open(SPI1_DEFAULT);
  4183  04B0  3000               	movlw	0
  4184  04B1  318E  26DB  3184   	fcall	_SPI1_Open
  4185  04B4                     l3879:
  4186                           
  4187                           ;main.c: 211:     initMAX7219();
  4188  04B4  3187  2784  3184   	fcall	_initMAX7219
  4189  04B7                     l3881:
  4190                           
  4191                           ;main.c: 213:     (INTCONbits.GIE = 1);
  4192  04B7  178B               	bsf	11,7	;volatile
  4193  04B8                     l3883:
  4194                           
  4195                           ;main.c: 215:     (INTCONbits.PEIE = 1);
  4196  04B8  170B               	bsf	11,6	;volatile
  4197  04B9                     l3885:
  4198                           
  4199                           ;main.c: 217:     TMR4_SetInterruptHandler(comm);
  4200  04B9  3085               	movlw	low _comm
  4201  04BA  0020               	movlb	0	; select bank0
  4202  04BB  00A2               	movwf	TMR4_SetInterruptHandler@InterruptHandler
  4203  04BC  300E               	movlw	high _comm
  4204  04BD  00A3               	movwf	TMR4_SetInterruptHandler@InterruptHandler+1
  4205  04BE  3187  27F6  3184   	fcall	_TMR4_SetInterruptHandler
  4206  04C1                     l3887:
  4207                           
  4208                           ;main.c: 218:  CCP4_SetCallBack(Enc);
  4209  04C1  30FA               	movlw	low _Enc
  4210  04C2  0020               	movlb	0	; select bank0
  4211  04C3  00A2               	movwf	CCP4_SetCallBack@customCallBack
  4212  04C4  300D               	movlw	high _Enc
  4213  04C5  00A3               	movwf	CCP4_SetCallBack@customCallBack+1
  4214  04C6  318A  221E  3184   	fcall	_CCP4_SetCallBack
  4215  04C9                     l3889:
  4216                           
  4217                           ;main.c: 222:  IOCBF0_SetInterruptHandler(S1);
  4218  04C9  30A9               	movlw	low _S1
  4219  04CA  0020               	movlb	0	; select bank0
  4220  04CB  00A2               	movwf	IOCBF0_SetInterruptHandler@InterruptHandler
  4221  04CC  300A               	movlw	high _S1
  4222  04CD  00A3               	movwf	IOCBF0_SetInterruptHandler@InterruptHandler+1
  4223  04CE  318A  2254  3184   	fcall	_IOCBF0_SetInterruptHandler
  4224  04D1                     l3891:
  4225                           
  4226                           ;main.c: 223:     IOCBF3_SetInterruptHandler(S2);
  4227  04D1  300C               	movlw	low _S2
  4228  04D2  0020               	movlb	0	; select bank0
  4229  04D3  00A2               	movwf	IOCBF3_SetInterruptHandler@InterruptHandler
  4230  04D4  300A               	movlw	high _S2
  4231  04D5  00A3               	movwf	IOCBF3_SetInterruptHandler@InterruptHandler+1
  4232  04D6  318A  225D  3184   	fcall	_IOCBF3_SetInterruptHandler
  4233  04D9                     l3893:
  4234                           
  4235                           ;main.c: 226:         andar();
  4236  04D9  318F  2732  3184   	fcall	_andar
  4237  04DC                     l3895:
  4238                           
  4239                           ;main.c: 227:         temp = (int)(ADC_GetConversion(TEMP)/5.0);
  4240  04DC  3002               	movlw	2
  4241  04DD  318C  240D  3184   	fcall	_ADC_GetConversion
  4242  04E0  0020               	movlb	0	; select bank0
  4243  04E1  0822               	movf	?_ADC_GetConversion,w
  4244  04E2  0022               	movlb	2	; select bank2
  4245  04E3  00C8               	movwf	??_main^(0+256)
  4246  04E4  0020               	movlb	0	; select bank0
  4247  04E5  0823               	movf	?_ADC_GetConversion+1,w
  4248  04E6  0022               	movlb	2	; select bank2
  4249  04E7  00C9               	movwf	(??_main^(0+256)+1)
  4250  04E8  01CA               	clrf	(??_main^(0+256)+2)
  4251  04E9  01CB               	clrf	(??_main^(0+256)+3)
  4252  04EA  084B               	movf	(??_main+3)^(0+256),w
  4253  04EB  0020               	movlb	0	; select bank0
  4254  04EC  00A9               	movwf	___xxtofl@val+3
  4255  04ED  0022               	movlb	2	; select bank2
  4256  04EE  084A               	movf	(??_main+2)^(0+256),w
  4257  04EF  0020               	movlb	0	; select bank0
  4258  04F0  00A8               	movwf	___xxtofl@val+2
  4259  04F1  0022               	movlb	2	; select bank2
  4260  04F2  0849               	movf	(??_main+1)^(0+256),w
  4261  04F3  0020               	movlb	0	; select bank0
  4262  04F4  00A7               	movwf	___xxtofl@val+1
  4263  04F5  0022               	movlb	2	; select bank2
  4264  04F6  0848               	movf	??_main^(0+256),w
  4265  04F7  0020               	movlb	0	; select bank0
  4266  04F8  00A6               	movwf	___xxtofl@val
  4267  04F9  3000               	movlw	0
  4268  04FA  3185  25DD  3184   	fcall	___xxtofl
  4269  04FD  0020               	movlb	0	; select bank0
  4270  04FE  0829               	movf	?___xxtofl+3,w
  4271  04FF  00D5               	movwf	___fldiv@b+3
  4272  0500  0828               	movf	?___xxtofl+2,w
  4273  0501  00D4               	movwf	___fldiv@b+2
  4274  0502  0827               	movf	?___xxtofl+1,w
  4275  0503  00D3               	movwf	___fldiv@b+1
  4276  0504  0826               	movf	?___xxtofl,w
  4277  0505  00D2               	movwf	___fldiv@b
  4278  0506  3040               	movlw	64
  4279  0507  00D1               	movwf	___fldiv@a+3
  4280  0508  30A0               	movlw	160
  4281  0509  00D0               	movwf	___fldiv@a+2
  4282  050A  3000               	movlw	0
  4283  050B  00CF               	movwf	___fldiv@a+1
  4284  050C  3000               	movlw	0
  4285  050D  00CE               	movwf	___fldiv@a
  4286  050E  3182  22F9  3184   	fcall	___fldiv
  4287  0511  0020               	movlb	0	; select bank0
  4288  0512  0851               	movf	?___fldiv+3,w
  4289  0513  00EB               	movwf	___fltol@f1+3
  4290  0514  0850               	movf	?___fldiv+2,w
  4291  0515  00EA               	movwf	___fltol@f1+2
  4292  0516  084F               	movf	?___fldiv+1,w
  4293  0517  00E9               	movwf	___fltol@f1+1
  4294  0518  084E               	movf	?___fldiv,w
  4295  0519  00E8               	movwf	___fltol@f1
  4296  051A  3186  268A  3184   	fcall	___fltol
  4297  051D  0020               	movlb	0	; select bank0
  4298  051E  0869               	movf	?___fltol+1,w
  4299  051F  0021               	movlb	1	; select bank1
  4300  0520  00D5               	movwf	(_temp+1)^(0+128)
  4301  0521  0020               	movlb	0	; select bank0
  4302  0522  0868               	movf	?___fltol,w
  4303  0523  0021               	movlb	1	; select bank1
  4304  0524  00D4               	movwf	_temp^(0+128)
  4305  0525                     l3897:
  4306                           
  4307                           ;main.c: 228:         speed = (int)(.83/(((float)colect_value)*.000002))*4;
  4308  0525  303F               	movlw	63
  4309  0526  0020               	movlb	0	; select bank0
  4310  0527  00D5               	movwf	___fldiv@b+3
  4311  0528  3054               	movlw	84
  4312  0529  00D4               	movwf	___fldiv@b+2
  4313  052A  307A               	movlw	122
  4314  052B  00D3               	movwf	___fldiv@b+1
  4315  052C  30E1               	movlw	225
  4316  052D  00D2               	movwf	___fldiv@b
  4317  052E  0021               	movlb	1	; select bank1
  4318  052F  084C               	movf	_colect_value^(0+128),w
  4319  0530  0020               	movlb	0	; select bank0
  4320  0531  00A6               	movwf	___xxtofl@val
  4321  0532  0021               	movlb	1	; select bank1
  4322  0533  084D               	movf	(_colect_value+1)^(0+128),w
  4323  0534  0020               	movlb	0	; select bank0
  4324  0535  00A7               	movwf	___xxtofl@val+1
  4325  0536  01A8               	clrf	___xxtofl@val+2
  4326  0537  01A9               	clrf	___xxtofl@val+3
  4327  0538  3000               	movlw	0
  4328  0539  3185  25DD  3184   	fcall	___xxtofl
  4329  053C  0020               	movlb	0	; select bank0
  4330  053D  0829               	movf	?___xxtofl+3,w
  4331  053E  00BB               	movwf	___flmul@a+3
  4332  053F  0828               	movf	?___xxtofl+2,w
  4333  0540  00BA               	movwf	___flmul@a+2
  4334  0541  0827               	movf	?___xxtofl+1,w
  4335  0542  00B9               	movwf	___flmul@a+1
  4336  0543  0826               	movf	?___xxtofl,w
  4337  0544  00B8               	movwf	___flmul@a
  4338  0545  3036               	movlw	54
  4339  0546  00B7               	movwf	___flmul@b+3
  4340  0547  3006               	movlw	6
  4341  0548  00B6               	movwf	___flmul@b+2
  4342  0549  3037               	movlw	55
  4343  054A  00B5               	movwf	___flmul@b+1
  4344  054B  30BD               	movlw	189
  4345  054C  00B4               	movwf	___flmul@b
  4346  054D  3180  20A2  3184   	fcall	___flmul
  4347  0550  0020               	movlb	0	; select bank0
  4348  0551  0837               	movf	?___flmul+3,w
  4349  0552  00D1               	movwf	___fldiv@a+3
  4350  0553  0836               	movf	?___flmul+2,w
  4351  0554  00D0               	movwf	___fldiv@a+2
  4352  0555  0835               	movf	?___flmul+1,w
  4353  0556  00CF               	movwf	___fldiv@a+1
  4354  0557  0834               	movf	?___flmul,w
  4355  0558  00CE               	movwf	___fldiv@a
  4356  0559  3182  22F9  3184   	fcall	___fldiv
  4357  055C  0020               	movlb	0	; select bank0
  4358  055D  0851               	movf	?___fldiv+3,w
  4359  055E  00EB               	movwf	___fltol@f1+3
  4360  055F  0850               	movf	?___fldiv+2,w
  4361  0560  00EA               	movwf	___fltol@f1+2
  4362  0561  084F               	movf	?___fldiv+1,w
  4363  0562  00E9               	movwf	___fltol@f1+1
  4364  0563  084E               	movf	?___fldiv,w
  4365  0564  00E8               	movwf	___fltol@f1
  4366  0565  3186  268A  3184   	fcall	___fltol
  4367  0568  0020               	movlb	0	; select bank0
  4368  0569  0869               	movf	?___fltol+1,w
  4369  056A  0022               	movlb	2	; select bank2
  4370  056B  00C9               	movwf	(??_main^(0+256)+1)
  4371  056C  0020               	movlb	0	; select bank0
  4372  056D  0868               	movf	?___fltol,w
  4373  056E  0022               	movlb	2	; select bank2
  4374  056F  00C8               	movwf	??_main^(0+256)
  4375  0570  35C8               	lslf	??_main^(0+256),f
  4376  0571  0DC9               	rlf	(??_main^(0+256)+1),f
  4377  0572  35C8               	lslf	??_main^(0+256),f
  4378  0573  0DC9               	rlf	(??_main^(0+256)+1),f
  4379  0574  0848               	movf	??_main^(0+256),w
  4380  0575  0021               	movlb	1	; select bank1
  4381  0576  00D2               	movwf	_speed^(0+128)
  4382  0577  0022               	movlb	2	; select bank2
  4383  0578  0849               	movf	(??_main+1)^(0+256),w
  4384  0579  0021               	movlb	1	; select bank1
  4385  057A  00D3               	movwf	(_speed+1)^(0+128)
  4386  057B                     l3899:
  4387                           
  4388                           ;main.c: 229:         position = .83*pulsos;
  4389  057B  303F               	movlw	63
  4390  057C  0020               	movlb	0	; select bank0
  4391  057D  00B7               	movwf	___flmul@b+3
  4392  057E  3054               	movlw	84
  4393  057F  00B6               	movwf	___flmul@b+2
  4394  0580  307A               	movlw	122
  4395  0581  00B5               	movwf	___flmul@b+1
  4396  0582  30E1               	movlw	225
  4397  0583  00B4               	movwf	___flmul@b
  4398  0584  0021               	movlb	1	; select bank1
  4399  0585  084E               	movf	_pulsos^(0+128),w
  4400  0586  0020               	movlb	0	; select bank0
  4401  0587  00A6               	movwf	___xxtofl@val
  4402  0588  0021               	movlb	1	; select bank1
  4403  0589  084F               	movf	(_pulsos+1)^(0+128),w
  4404  058A  0020               	movlb	0	; select bank0
  4405  058B  00A7               	movwf	___xxtofl@val+1
  4406  058C  0D89               	rlf	9,f
  4407  058D  3B89               	subwfb	9,f
  4408  058E  0989               	comf	9,f
  4409  058F  00A8               	movwf	___xxtofl@val+2
  4410  0590  00A9               	movwf	___xxtofl@val+3
  4411  0591  3001               	movlw	1
  4412  0592  3185  25DD  3184   	fcall	___xxtofl
  4413  0595  0020               	movlb	0	; select bank0
  4414  0596  0829               	movf	?___xxtofl+3,w
  4415  0597  00BB               	movwf	___flmul@a+3
  4416  0598  0828               	movf	?___xxtofl+2,w
  4417  0599  00BA               	movwf	___flmul@a+2
  4418  059A  0827               	movf	?___xxtofl+1,w
  4419  059B  00B9               	movwf	___flmul@a+1
  4420  059C  0826               	movf	?___xxtofl,w
  4421  059D  00B8               	movwf	___flmul@a
  4422  059E  3180  20A2  3184   	fcall	___flmul
  4423  05A1  0020               	movlb	0	; select bank0
  4424  05A2  0837               	movf	?___flmul+3,w
  4425  05A3  0021               	movlb	1	; select bank1
  4426  05A4  00CB               	movwf	(_position+3)^(0+128)
  4427  05A5  0020               	movlb	0	; select bank0
  4428  05A6  0836               	movf	?___flmul+2,w
  4429  05A7  0021               	movlb	1	; select bank1
  4430  05A8  00CA               	movwf	(_position+2)^(0+128)
  4431  05A9  0020               	movlb	0	; select bank0
  4432  05AA  0835               	movf	?___flmul+1,w
  4433  05AB  0021               	movlb	1	; select bank1
  4434  05AC  00C9               	movwf	(_position+1)^(0+128)
  4435  05AD  0020               	movlb	0	; select bank0
  4436  05AE  0834               	movf	?___flmul,w
  4437  05AF  0021               	movlb	1	; select bank1
  4438  05B0  00C8               	movwf	_position^(0+128)
  4439  05B1                     l3901:
  4440                           
  4441                           ;main.c: 230:         if(pos_final != pos_atual){
  4442  05B1  083D               	movf	(_pos_atual+1)^(0+128),w
  4443  05B2  063F               	xorwf	(_pos_final+1)^(0+128),w
  4444  05B3  1D03               	skipz
  4445  05B4  2DB7               	goto	u3455
  4446  05B5  083C               	movf	_pos_atual^(0+128),w
  4447  05B6  063E               	xorwf	_pos_final^(0+128),w
  4448  05B7                     u3455:
  4449  05B7  1903               	skipnz
  4450  05B8  2DBA               	goto	u3451
  4451  05B9  2DBB               	goto	u3450
  4452  05BA                     u3451:
  4453  05BA  2DBE               	goto	l843
  4454  05BB                     u3450:
  4455  05BB                     l3903:
  4456                           
  4457                           ;main.c: 231:             controle();
  4458  05BB  318F  2790  3184   	fcall	_controle
  4459  05BE                     l843:	
  4460                           ;main.c: 232:         }
  4461                           
  4462                           
  4463                           ;main.c: 233:         if(EUSART_is_rx_ready()){
  4464  05BE  318A  2215  3184   	fcall	_EUSART_is_rx_ready
  4465  05C1  3A00               	xorlw	0
  4466  05C2  1903               	skipnz
  4467  05C3  2DC5               	goto	u3461
  4468  05C4  2DC6               	goto	u3460
  4469  05C5                     u3461:
  4470  05C5  2CD9               	goto	l3893
  4471  05C6                     u3460:
  4472  05C6                     l3905:
  4473                           
  4474                           ;main.c: 234:             rxByte = EUSART_Read();
  4475  05C6  318C  2498  3184   	fcall	_EUSART_Read
  4476  05C9  0022               	movlb	2	; select bank2
  4477  05CA  00C8               	movwf	??_main^(0+256)
  4478  05CB  0848               	movf	??_main^(0+256),w
  4479  05CC  0021               	movlb	1	; select bank1
  4480  05CD  00C3               	movwf	_rxByte^(0+128)
  4481  05CE                     l3907:
  4482                           
  4483                           ;main.c: 235:             pos_final = (int)(rxByte & 0x03);
  4484  05CE  0843               	movf	_rxByte^(0+128),w
  4485  05CF  3903               	andlw	3
  4486  05D0  0022               	movlb	2	; select bank2
  4487  05D1  00C8               	movwf	??_main^(0+256)
  4488  05D2  01C9               	clrf	(??_main^(0+256)+1)
  4489  05D3  0848               	movf	??_main^(0+256),w
  4490  05D4  0021               	movlb	1	; select bank1
  4491  05D5  00BE               	movwf	_pos_final^(0+128)
  4492  05D6  0022               	movlb	2	; select bank2
  4493  05D7  0849               	movf	(??_main+1)^(0+256),w
  4494  05D8  0021               	movlb	1	; select bank1
  4495  05D9  00BF               	movwf	(_pos_final+1)^(0+128)
  4496  05DA  2CD9               	goto	l3893
  4497  05DB  3180  2880         	ljmp	start
  4498  05DD                     __end_of_main:
  4499                           
  4500                           	psect	text1
  4501  0784                     __ptext1:	
  4502 ;; *************** function _initMAX7219 *****************
  4503 ;; Defined at:
  4504 ;;		line 74 in file "ledMatrix.c"
  4505 ;; Parameters:    Size  Location     Type
  4506 ;;		None
  4507 ;; Auto vars:     Size  Location     Type
  4508 ;;		None
  4509 ;; Return value:  Size  Location     Type
  4510 ;;                  1    wreg      void 
  4511 ;; Registers used:
  4512 ;;		wreg, status,2, status,0, pclath, cstack
  4513 ;; Tracked objects:
  4514 ;;		On entry : 0/0
  4515 ;;		On exit  : 0/0
  4516 ;;		Unchanged: 0/0
  4517 ;; Data sizes:     COMMON   BANK0   BANK1   BANK2   BANK3   BANK4
  4518 ;;      Params:         0       0       0       0       0       0
  4519 ;;      Locals:         0       0       0       0       0       0
  4520 ;;      Temps:          0       3       0       0       0       0
  4521 ;;      Totals:         0       3       0       0       0       0
  4522 ;;Total ram usage:        3 bytes
  4523 ;; Hardware stack levels used: 1
  4524 ;; Hardware stack levels required when called: 8
  4525 ;; This function calls:
  4526 ;;		_txMAX7219
  4527 ;; This function is called by:
  4528 ;;		_main
  4529 ;; This function uses a non-reentrant model
  4530 ;;
  4531                           
  4532                           
  4533                           ;psect for function _initMAX7219
  4534  0784                     _initMAX7219:
  4535  0784                     l3381:	
  4536                           ;incstack = 0
  4537                           ; Regs used in _initMAX7219: [wreg+status,2+status,0+pclath+cstack]
  4538                           
  4539                           
  4540                           ;ledMatrix.c: 76:     txMAX7219(0x09,0x00,0x09,0x00);
  4541  0784  0020               	movlb	0	; select bank0
  4542  0785  01A3               	clrf	txMAX7219@dat0
  4543  0786  3009               	movlw	9
  4544  0787  00A7               	movwf	??_initMAX7219
  4545  0788  0827               	movf	??_initMAX7219,w
  4546  0789  00A4               	movwf	txMAX7219@addr1
  4547  078A  01A5               	clrf	txMAX7219@dat1
  4548  078B  3009               	movlw	9
  4549  078C  318B  23F1  3187   	fcall	_txMAX7219
  4550                           
  4551                           ;ledMatrix.c: 78:     txMAX7219(0x0A,0x00,0x09,0x00);
  4552  078F  0020               	movlb	0	; select bank0
  4553  0790  01A3               	clrf	txMAX7219@dat0
  4554  0791  3009               	movlw	9
  4555  0792  00A7               	movwf	??_initMAX7219
  4556  0793  0827               	movf	??_initMAX7219,w
  4557  0794  00A4               	movwf	txMAX7219@addr1
  4558  0795  01A5               	clrf	txMAX7219@dat1
  4559  0796  300A               	movlw	10
  4560  0797  318B  23F1  3187   	fcall	_txMAX7219
  4561                           
  4562                           ;ledMatrix.c: 80:     txMAX7219(0x0C,0x00,0x0C,0x00);
  4563  079A  0020               	movlb	0	; select bank0
  4564  079B  01A3               	clrf	txMAX7219@dat0
  4565  079C  300C               	movlw	12
  4566  079D  00A7               	movwf	??_initMAX7219
  4567  079E  0827               	movf	??_initMAX7219,w
  4568  079F  00A4               	movwf	txMAX7219@addr1
  4569  07A0  01A5               	clrf	txMAX7219@dat1
  4570  07A1  300C               	movlw	12
  4571  07A2  318B  23F1  3187   	fcall	_txMAX7219
  4572                           
  4573                           ;ledMatrix.c: 82:     txMAX7219(0x0B,0x07,0x0B,0x07);
  4574  07A5  3007               	movlw	7
  4575  07A6  0020               	movlb	0	; select bank0
  4576  07A7  00A7               	movwf	??_initMAX7219
  4577  07A8  0827               	movf	??_initMAX7219,w
  4578  07A9  00A3               	movwf	txMAX7219@dat0
  4579  07AA  300B               	movlw	11
  4580  07AB  00A8               	movwf	??_initMAX7219+1
  4581  07AC  0828               	movf	??_initMAX7219+1,w
  4582  07AD  00A4               	movwf	txMAX7219@addr1
  4583  07AE  3007               	movlw	7
  4584  07AF  00A9               	movwf	??_initMAX7219+2
  4585  07B0  0829               	movf	??_initMAX7219+2,w
  4586  07B1  00A5               	movwf	txMAX7219@dat1
  4587  07B2  300B               	movlw	11
  4588  07B3  318B  23F1  3187   	fcall	_txMAX7219
  4589                           
  4590                           ;ledMatrix.c: 84:     txMAX7219(0x0C,0x01,0x0C,0x01);
  4591  07B6  0020               	movlb	0	; select bank0
  4592  07B7  01A3               	clrf	txMAX7219@dat0
  4593  07B8  0AA3               	incf	txMAX7219@dat0,f
  4594  07B9  300C               	movlw	12
  4595  07BA  00A7               	movwf	??_initMAX7219
  4596  07BB  0827               	movf	??_initMAX7219,w
  4597  07BC  00A4               	movwf	txMAX7219@addr1
  4598  07BD  01A5               	clrf	txMAX7219@dat1
  4599  07BE  0AA5               	incf	txMAX7219@dat1,f
  4600  07BF  300C               	movlw	12
  4601  07C0  318B  23F1  3187   	fcall	_txMAX7219
  4602                           
  4603                           ;ledMatrix.c: 86:     txMAX7219(0x0F,0x01,0x0F,0x01);
  4604  07C3  0020               	movlb	0	; select bank0
  4605  07C4  01A3               	clrf	txMAX7219@dat0
  4606  07C5  0AA3               	incf	txMAX7219@dat0,f
  4607  07C6  300F               	movlw	15
  4608  07C7  00A7               	movwf	??_initMAX7219
  4609  07C8  0827               	movf	??_initMAX7219,w
  4610  07C9  00A4               	movwf	txMAX7219@addr1
  4611  07CA  01A5               	clrf	txMAX7219@dat1
  4612  07CB  0AA5               	incf	txMAX7219@dat1,f
  4613  07CC  300F               	movlw	15
  4614  07CD  318B  23F1  3187   	fcall	_txMAX7219
  4615  07D0                     l3383:
  4616                           
  4617                           ;ledMatrix.c: 87:     _delay((unsigned long)((1000)*(2000000/4000.0)));
  4618  07D0  3003               	movlw	3
  4619  07D1  0020               	movlb	0	; select bank0
  4620  07D2  00A8               	movwf	??_initMAX7219+1
  4621  07D3  308A               	movlw	138
  4622  07D4  00A7               	movwf	??_initMAX7219
  4623  07D5  3055               	movlw	85
  4624  07D6                     u3477:
  4625  07D6  0B89               	decfsz	9,f
  4626  07D7  2FD6               	goto	u3477
  4627  07D8  0BA7               	decfsz	??_initMAX7219,f
  4628  07D9  2FD6               	goto	u3477
  4629  07DA  0BA8               	decfsz	??_initMAX7219+1,f
  4630  07DB  2FD6               	goto	u3477
  4631  07DC  3200               	nop2
  4632  07DD                     l3385:
  4633                           
  4634                           ;ledMatrix.c: 89:     txMAX7219(0x0F,0x00,0x0F,0x00);
  4635  07DD  0020               	movlb	0	; select bank0
  4636  07DE  01A3               	clrf	txMAX7219@dat0
  4637  07DF  300F               	movlw	15
  4638  07E0  00A7               	movwf	??_initMAX7219
  4639  07E1  0827               	movf	??_initMAX7219,w
  4640  07E2  00A4               	movwf	txMAX7219@addr1
  4641  07E3  01A5               	clrf	txMAX7219@dat1
  4642  07E4  300F               	movlw	15
  4643  07E5  318B  23F1  3187   	fcall	_txMAX7219
  4644  07E8                     l3387:
  4645                           
  4646                           ;ledMatrix.c: 91:     txMAX7219(0x0C,0x01,0x0C,0x01);
  4647  07E8  0020               	movlb	0	; select bank0
  4648  07E9  01A3               	clrf	txMAX7219@dat0
  4649  07EA  0AA3               	incf	txMAX7219@dat0,f
  4650  07EB  300C               	movlw	12
  4651  07EC  00A7               	movwf	??_initMAX7219
  4652  07ED  0827               	movf	??_initMAX7219,w
  4653  07EE  00A4               	movwf	txMAX7219@addr1
  4654  07EF  01A5               	clrf	txMAX7219@dat1
  4655  07F0  0AA5               	incf	txMAX7219@dat1,f
  4656  07F1  300C               	movlw	12
  4657  07F2  318B  23F1  3187   	fcall	_txMAX7219
  4658  07F5                     l875:
  4659  07F5  0008               	return
  4660  07F6                     __end_of_initMAX7219:
  4661                           
  4662                           	psect	text2
  4663  0BF1                     __ptext2:	
  4664 ;; *************** function _txMAX7219 *****************
  4665 ;; Defined at:
  4666 ;;		line 56 in file "ledMatrix.c"
  4667 ;; Parameters:    Size  Location     Type
  4668 ;;  addr0           1    wreg     unsigned char 
  4669 ;;  dat0            1    3[BANK0 ] unsigned char 
  4670 ;;  addr1           1    4[BANK0 ] unsigned char 
  4671 ;;  dat1            1    5[BANK0 ] unsigned char 
  4672 ;; Auto vars:     Size  Location     Type
  4673 ;;  addr0           1    6[BANK0 ] unsigned char 
  4674 ;; Return value:  Size  Location     Type
  4675 ;;                  1    wreg      void 
  4676 ;; Registers used:
  4677 ;;		wreg, status,2, status,0, pclath, cstack
  4678 ;; Tracked objects:
  4679 ;;		On entry : 0/0
  4680 ;;		On exit  : 0/0
  4681 ;;		Unchanged: 0/0
  4682 ;; Data sizes:     COMMON   BANK0   BANK1   BANK2   BANK3   BANK4
  4683 ;;      Params:         0       3       0       0       0       0
  4684 ;;      Locals:         0       1       0       0       0       0
  4685 ;;      Temps:          0       0       0       0       0       0
  4686 ;;      Totals:         0       4       0       0       0       0
  4687 ;;Total ram usage:        4 bytes
  4688 ;; Hardware stack levels used: 1
  4689 ;; Hardware stack levels required when called: 7
  4690 ;; This function calls:
  4691 ;;		_SPI1_WriteByte
  4692 ;; This function is called by:
  4693 ;;		_initMAX7219
  4694 ;; This function uses a non-reentrant model
  4695 ;;
  4696                           
  4697                           
  4698                           ;psect for function _txMAX7219
  4699  0BF1                     _txMAX7219:
  4700                           
  4701                           ;incstack = 0
  4702                           ; Regs used in _txMAX7219: [wreg+status,2+status,0+pclath+cstack]
  4703                           ;txMAX7219@addr0 stored from wreg
  4704  0BF1  0020               	movlb	0	; select bank0
  4705  0BF2  00A6               	movwf	txMAX7219@addr0
  4706  0BF3                     l862:	
  4707                           ;ledMatrix.c: 58:     do { LATBbits.LATB1 = 0; } while(0);
  4708                           
  4709  0BF3  0022               	movlb	2	; select bank2
  4710  0BF4  108D               	bcf	13,1	;volatile
  4711  0BF5                     l3157:
  4712                           
  4713                           ;ledMatrix.c: 59:     SPI1_WriteByte(addr0);
  4714  0BF5  0020               	movlb	0	; select bank0
  4715  0BF6  0826               	movf	txMAX7219@addr0,w
  4716  0BF7  3189  21E0  318B   	fcall	_SPI1_WriteByte
  4717  0BFA                     l864:	
  4718                           ;ledMatrix.c: 60:     while(!PIR1bits.SSP1IF);
  4719                           
  4720  0BFA  0020               	movlb	0	; select bank0
  4721  0BFB  1D91               	btfss	17,3	;volatile
  4722  0BFC  2BFE               	goto	u2041
  4723  0BFD  2BFF               	goto	u2040
  4724  0BFE                     u2041:
  4725  0BFE  2BFA               	goto	l864
  4726  0BFF                     u2040:
  4727  0BFF                     l866:
  4728                           
  4729                           ;ledMatrix.c: 61:     PIR1bits.SSP1IF = 0;
  4730  0BFF  1191               	bcf	17,3	;volatile
  4731  0C00                     l3159:
  4732                           
  4733                           ;ledMatrix.c: 62:     SPI1_WriteByte(dat0);
  4734  0C00  0823               	movf	txMAX7219@dat0,w
  4735  0C01  3189  21E0  318B   	fcall	_SPI1_WriteByte
  4736  0C04                     l867:	
  4737                           ;ledMatrix.c: 63:     while(!PIR1bits.SSP1IF);
  4738                           
  4739  0C04  0020               	movlb	0	; select bank0
  4740  0C05  1D91               	btfss	17,3	;volatile
  4741  0C06  2C08               	goto	u2051
  4742  0C07  2C09               	goto	u2050
  4743  0C08                     u2051:
  4744  0C08  2C04               	goto	l867
  4745  0C09                     u2050:
  4746  0C09                     l869:
  4747                           
  4748                           ;ledMatrix.c: 64:     PIR1bits.SSP1IF = 0;
  4749  0C09  1191               	bcf	17,3	;volatile
  4750  0C0A                     l870:	
  4751                           ;ledMatrix.c: 71:     do { LATBbits.LATB1 = 1; } while(0);
  4752                           
  4753  0C0A  0022               	movlb	2	; select bank2
  4754  0C0B  148D               	bsf	13,1	;volatile
  4755  0C0C                     l872:
  4756  0C0C  0008               	return
  4757  0C0D                     __end_of_txMAX7219:
  4758                           
  4759                           	psect	text3
  4760  09E0                     __ptext3:	
  4761 ;; *************** function _SPI1_WriteByte *****************
  4762 ;; Defined at:
  4763 ;;		line 131 in file "mcc_generated_files/spi1.c"
  4764 ;; Parameters:    Size  Location     Type
  4765 ;;  byte            1    wreg     unsigned char 
  4766 ;; Auto vars:     Size  Location     Type
  4767 ;;  byte            1    2[BANK0 ] unsigned char 
  4768 ;; Return value:  Size  Location     Type
  4769 ;;                  1    wreg      void 
  4770 ;; Registers used:
  4771 ;;		wreg
  4772 ;; Tracked objects:
  4773 ;;		On entry : 0/0
  4774 ;;		On exit  : 0/0
  4775 ;;		Unchanged: 0/0
  4776 ;; Data sizes:     COMMON   BANK0   BANK1   BANK2   BANK3   BANK4
  4777 ;;      Params:         0       0       0       0       0       0
  4778 ;;      Locals:         0       1       0       0       0       0
  4779 ;;      Temps:          0       0       0       0       0       0
  4780 ;;      Totals:         0       1       0       0       0       0
  4781 ;;Total ram usage:        1 bytes
  4782 ;; Hardware stack levels used: 1
  4783 ;; Hardware stack levels required when called: 6
  4784 ;; This function calls:
  4785 ;;		Nothing
  4786 ;; This function is called by:
  4787 ;;		_txMAX7219
  4788 ;; This function uses a non-reentrant model
  4789 ;;
  4790                           
  4791                           
  4792                           ;psect for function _SPI1_WriteByte
  4793  09E0                     _SPI1_WriteByte:
  4794                           
  4795                           ;incstack = 0
  4796                           ; Regs used in _SPI1_WriteByte: [wreg]
  4797                           ;SPI1_WriteByte@byte stored from wreg
  4798  09E0  0020               	movlb	0	; select bank0
  4799  09E1  00A2               	movwf	SPI1_WriteByte@byte
  4800  09E2                     l2821:
  4801                           
  4802                           ;mcc_generated_files/spi1.c: 131: void SPI1_WriteByte(uint8_t byte);mcc_generated_files/
      +                          spi1.c: 132: {;mcc_generated_files/spi1.c: 133:     SSP1BUF = byte;
  4803  09E2  0822               	movf	SPI1_WriteByte@byte,w
  4804  09E3  0024               	movlb	4	; select bank4
  4805  09E4  0091               	movwf	17	;volatile
  4806  09E5                     l229:
  4807  09E5  0008               	return
  4808  09E6                     __end_of_SPI1_WriteByte:
  4809                           
  4810                           	psect	text4
  4811  0F90                     __ptext4:	
  4812 ;; *************** function _controle *****************
  4813 ;; Defined at:
  4814 ;;		line 92 in file "main.c"
  4815 ;; Parameters:    Size  Location     Type
  4816 ;;		None
  4817 ;; Auto vars:     Size  Location     Type
  4818 ;;		None
  4819 ;; Return value:  Size  Location     Type
  4820 ;;                  1    wreg      void 
  4821 ;; Registers used:
  4822 ;;		wreg, status,2, status,0, pclath, cstack
  4823 ;; Tracked objects:
  4824 ;;		On entry : 0/0
  4825 ;;		On exit  : 0/0
  4826 ;;		Unchanged: 0/0
  4827 ;; Data sizes:     COMMON   BANK0   BANK1   BANK2   BANK3   BANK4
  4828 ;;      Params:         0       0       0       0       0       0
  4829 ;;      Locals:         0       0       0       0       0       0
  4830 ;;      Temps:          0       2       0       0       0       0
  4831 ;;      Totals:         0       2       0       0       0       0
  4832 ;;Total ram usage:        2 bytes
  4833 ;; Hardware stack levels used: 1
  4834 ;; Hardware stack levels required when called: 8
  4835 ;; This function calls:
  4836 ;;		_PWM3_LoadDutyValue
  4837 ;;		_deslocamento
  4838 ;; This function is called by:
  4839 ;;		_main
  4840 ;; This function uses a non-reentrant model
  4841 ;;
  4842                           
  4843                           
  4844                           ;psect for function _controle
  4845  0F90                     _controle:
  4846  0F90                     l3355:	
  4847                           ;incstack = 0
  4848                           ; Regs used in _controle: [wreg+status,2+status,0+pclath+cstack]
  4849                           
  4850                           
  4851                           ;main.c: 96:     if(pos_final>pos_atual){
  4852  0F90  0021               	movlb	1	; select bank1
  4853  0F91  083D               	movf	(_pos_atual+1)^(0+128),w
  4854  0F92  3A80               	xorlw	128
  4855  0F93  0020               	movlb	0	; select bank0
  4856  0F94  00A8               	movwf	??_controle
  4857  0F95  0021               	movlb	1	; select bank1
  4858  0F96  083F               	movf	(_pos_final+1)^(0+128),w
  4859  0F97  3A80               	xorlw	128
  4860  0F98  0020               	movlb	0	; select bank0
  4861  0F99  0228               	subwf	??_controle,w
  4862  0F9A  1D03               	skipz
  4863  0F9B  2F9F               	goto	u2315
  4864  0F9C  0021               	movlb	1	; select bank1
  4865  0F9D  083E               	movf	_pos_final^(0+128),w
  4866  0F9E  023C               	subwf	_pos_atual^(0+128),w
  4867  0F9F                     u2315:
  4868  0F9F  1803               	skipnc
  4869  0FA0  2FA2               	goto	u2311
  4870  0FA1  2FA3               	goto	u2310
  4871  0FA2                     u2311:
  4872  0FA2  2FC6               	goto	l3367
  4873  0FA3                     u2310:
  4874  0FA3                     l3357:
  4875                           
  4876                           ;main.c: 97:         if(PORTAbits.RA7==0){
  4877  0FA3  0020               	movlb	0	; select bank0
  4878  0FA4  1B8C               	btfsc	12,7	;volatile
  4879  0FA5  2FA7               	goto	u2321
  4880  0FA6  2FA8               	goto	u2320
  4881  0FA7                     u2321:
  4882  0FA7  2FBB               	goto	l3363
  4883  0FA8                     u2320:
  4884  0FA8                     l3359:
  4885                           
  4886                           ;main.c: 98:             PWM3_LoadDutyValue(0);
  4887  0FA8  3000               	movlw	0
  4888  0FA9  00A2               	movwf	PWM3_LoadDutyValue@dutyValue
  4889  0FAA  00A3               	movwf	PWM3_LoadDutyValue@dutyValue+1
  4890  0FAB  318B  23D5  318F   	fcall	_PWM3_LoadDutyValue
  4891  0FAE                     l3361:
  4892                           
  4893                           ;main.c: 99:             _delay((unsigned long)((500)*(2000000/4000.0)));
  4894  0FAE  3002               	movlw	2
  4895  0FAF  0020               	movlb	0	; select bank0
  4896  0FB0  00A9               	movwf	??_controle+1
  4897  0FB1  3045               	movlw	69
  4898  0FB2  00A8               	movwf	??_controle
  4899  0FB3  30A9               	movlw	169
  4900  0FB4                     u3487:
  4901  0FB4  0B89               	decfsz	9,f
  4902  0FB5  2FB4               	goto	u3487
  4903  0FB6  0BA8               	decfsz	??_controle,f
  4904  0FB7  2FB4               	goto	u3487
  4905  0FB8  0BA9               	decfsz	??_controle+1,f
  4906  0FB9  2FB4               	goto	u3487
  4907  0FBA  3200               	nop2
  4908  0FBB                     l3363:
  4909  0FBB  0022               	movlb	2	; select bank2
  4910  0FBC  178C               	bsf	12,7	;volatile
  4911  0FBD                     l3365:
  4912                           
  4913                           ;main.c: 103:         motor = 1;
  4914  0FBD  3001               	movlw	1
  4915  0FBE  0021               	movlb	1	; select bank1
  4916  0FBF  00D0               	movwf	_motor^(0+128)
  4917  0FC0  3000               	movlw	0
  4918  0FC1  00D1               	movwf	(_motor^(0+128)+1)
  4919                           
  4920                           ;main.c: 104:         deslocamento();
  4921  0FC2  318D  2587  318F   	fcall	_deslocamento
  4922                           
  4923                           ;main.c: 106:     } else if(pos_final<pos_atual){
  4924  0FC5  2FFF               	goto	l802
  4925  0FC6                     l3367:
  4926  0FC6  0021               	movlb	1	; select bank1
  4927  0FC7  083F               	movf	(_pos_final+1)^(0+128),w
  4928  0FC8  3A80               	xorlw	128
  4929  0FC9  0020               	movlb	0	; select bank0
  4930  0FCA  00A8               	movwf	??_controle
  4931  0FCB  0021               	movlb	1	; select bank1
  4932  0FCC  083D               	movf	(_pos_atual+1)^(0+128),w
  4933  0FCD  3A80               	xorlw	128
  4934  0FCE  0020               	movlb	0	; select bank0
  4935  0FCF  0228               	subwf	??_controle,w
  4936  0FD0  1D03               	skipz
  4937  0FD1  2FD5               	goto	u2335
  4938  0FD2  0021               	movlb	1	; select bank1
  4939  0FD3  083C               	movf	_pos_atual^(0+128),w
  4940  0FD4  023E               	subwf	_pos_final^(0+128),w
  4941  0FD5                     u2335:
  4942  0FD5  1803               	skipnc
  4943  0FD6  2FD8               	goto	u2331
  4944  0FD7  2FD9               	goto	u2330
  4945  0FD8                     u2331:
  4946  0FD8  2FFC               	goto	l3379
  4947  0FD9                     u2330:
  4948  0FD9                     l3369:
  4949                           
  4950                           ;main.c: 107:         if(PORTAbits.RA7==1){
  4951  0FD9  0020               	movlb	0	; select bank0
  4952  0FDA  1F8C               	btfss	12,7	;volatile
  4953  0FDB  2FDD               	goto	u2341
  4954  0FDC  2FDE               	goto	u2340
  4955  0FDD                     u2341:
  4956  0FDD  2FF1               	goto	l3375
  4957  0FDE                     u2340:
  4958  0FDE                     l3371:
  4959                           
  4960                           ;main.c: 108:             PWM3_LoadDutyValue(0);
  4961  0FDE  3000               	movlw	0
  4962  0FDF  00A2               	movwf	PWM3_LoadDutyValue@dutyValue
  4963  0FE0  00A3               	movwf	PWM3_LoadDutyValue@dutyValue+1
  4964  0FE1  318B  23D5  318F   	fcall	_PWM3_LoadDutyValue
  4965  0FE4                     l3373:
  4966                           
  4967                           ;main.c: 109:             _delay((unsigned long)((500)*(2000000/4000.0)));
  4968  0FE4  3002               	movlw	2
  4969  0FE5  0020               	movlb	0	; select bank0
  4970  0FE6  00A9               	movwf	??_controle+1
  4971  0FE7  3045               	movlw	69
  4972  0FE8  00A8               	movwf	??_controle
  4973  0FE9  30A9               	movlw	169
  4974  0FEA                     u3497:
  4975  0FEA  0B89               	decfsz	9,f
  4976  0FEB  2FEA               	goto	u3497
  4977  0FEC  0BA8               	decfsz	??_controle,f
  4978  0FED  2FEA               	goto	u3497
  4979  0FEE  0BA9               	decfsz	??_controle+1,f
  4980  0FEF  2FEA               	goto	u3497
  4981  0FF0  3200               	nop2
  4982  0FF1                     l3375:
  4983  0FF1  0022               	movlb	2	; select bank2
  4984  0FF2  138C               	bcf	12,7	;volatile
  4985  0FF3                     l3377:
  4986                           
  4987                           ;main.c: 113:         motor = 2;
  4988  0FF3  3002               	movlw	2
  4989  0FF4  0021               	movlb	1	; select bank1
  4990  0FF5  00D0               	movwf	_motor^(0+128)
  4991  0FF6  3000               	movlw	0
  4992  0FF7  00D1               	movwf	(_motor^(0+128)+1)
  4993                           
  4994                           ;main.c: 114:         deslocamento();
  4995  0FF8  318D  2587  318F   	fcall	_deslocamento
  4996                           
  4997                           ;main.c: 115:     } else{
  4998  0FFB  2FFF               	goto	l802
  4999  0FFC                     l3379:
  5000                           
  5001                           ;main.c: 116:         motor = 0;
  5002  0FFC  0021               	movlb	1	; select bank1
  5003  0FFD  01D0               	clrf	_motor^(0+128)
  5004  0FFE  01D1               	clrf	(_motor+1)^(0+128)
  5005  0FFF                     l802:
  5006  0FFF  0008               	return
  5007  1000                     __end_of_controle:
  5008                           
  5009                           	psect	text5
  5010  0D87                     __ptext5:	
  5011 ;; *************** function _deslocamento *****************
  5012 ;; Defined at:
  5013 ;;		line 79 in file "main.c"
  5014 ;; Parameters:    Size  Location     Type
  5015 ;;		None
  5016 ;; Auto vars:     Size  Location     Type
  5017 ;;		None
  5018 ;; Return value:  Size  Location     Type
  5019 ;;                  1    wreg      void 
  5020 ;; Registers used:
  5021 ;;		wreg, status,2, status,0, pclath, cstack
  5022 ;; Tracked objects:
  5023 ;;		On entry : 0/0
  5024 ;;		On exit  : 0/0
  5025 ;;		Unchanged: 0/0
  5026 ;; Data sizes:     COMMON   BANK0   BANK1   BANK2   BANK3   BANK4
  5027 ;;      Params:         0       0       0       0       0       0
  5028 ;;      Locals:         0       0       0       0       0       0
  5029 ;;      Temps:          0       2       0       0       0       0
  5030 ;;      Totals:         0       2       0       0       0       0
  5031 ;;Total ram usage:        2 bytes
  5032 ;; Hardware stack levels used: 1
  5033 ;; Hardware stack levels required when called: 7
  5034 ;; This function calls:
  5035 ;;		_PWM3_LoadDutyValue
  5036 ;; This function is called by:
  5037 ;;		_controle
  5038 ;; This function uses a non-reentrant model
  5039 ;;
  5040                           
  5041                           
  5042                           ;psect for function _deslocamento
  5043  0D87                     _deslocamento:
  5044  0D87                     l3123:	
  5045                           ;incstack = 0
  5046                           ; Regs used in _deslocamento: [wreg+status,2+status,0+pclath+cstack]
  5047                           
  5048                           
  5049                           ;main.c: 82:     if(pos_final==pos_atual){
  5050  0D87  0021               	movlb	1	; select bank1
  5051  0D88  083D               	movf	(_pos_atual+1)^(0+128),w
  5052  0D89  063F               	xorwf	(_pos_final+1)^(0+128),w
  5053  0D8A  1D03               	skipz
  5054  0D8B  2D8E               	goto	u1985
  5055  0D8C  083C               	movf	_pos_atual^(0+128),w
  5056  0D8D  063E               	xorwf	_pos_final^(0+128),w
  5057  0D8E                     u1985:
  5058  0D8E  1D03               	skipz
  5059  0D8F  2D91               	goto	u1981
  5060  0D90  2D92               	goto	u1980
  5061  0D91                     u1981:
  5062  0D91  2DAA               	goto	l3131
  5063  0D92                     u1980:
  5064  0D92                     l3125:
  5065                           
  5066                           ;main.c: 83:          PWM3_LoadDutyValue(0);
  5067  0D92  3000               	movlw	0
  5068  0D93  0020               	movlb	0	; select bank0
  5069  0D94  00A2               	movwf	PWM3_LoadDutyValue@dutyValue
  5070  0D95  00A3               	movwf	PWM3_LoadDutyValue@dutyValue+1
  5071  0D96  318B  23D5  318D   	fcall	_PWM3_LoadDutyValue
  5072  0D99                     l3127:
  5073                           
  5074                           ;main.c: 84:          motor = 0;
  5075  0D99  0021               	movlb	1	; select bank1
  5076  0D9A  01D0               	clrf	_motor^(0+128)
  5077  0D9B  01D1               	clrf	(_motor+1)^(0+128)
  5078  0D9C                     l3129:
  5079                           
  5080                           ;main.c: 85:          _delay((unsigned long)((2000)*(2000000/4000.0)));
  5081  0D9C  3006               	movlw	6
  5082  0D9D  0020               	movlb	0	; select bank0
  5083  0D9E  00A7               	movwf	??_deslocamento+1
  5084  0D9F  3013               	movlw	19
  5085  0DA0  00A6               	movwf	??_deslocamento
  5086  0DA1  30AD               	movlw	173
  5087  0DA2                     u3507:
  5088  0DA2  0B89               	decfsz	9,f
  5089  0DA3  2DA2               	goto	u3507
  5090  0DA4  0BA6               	decfsz	??_deslocamento,f
  5091  0DA5  2DA2               	goto	u3507
  5092  0DA6  0BA7               	decfsz	??_deslocamento+1,f
  5093  0DA7  2DA2               	goto	u3507
  5094  0DA8  3200               	nop2
  5095                           
  5096                           ;main.c: 86:     }else if (pos_final != pos_atual) {
  5097  0DA9  2DBC               	goto	l789
  5098  0DAA                     l3131:
  5099  0DAA  083D               	movf	(_pos_atual+1)^(0+128),w
  5100  0DAB  063F               	xorwf	(_pos_final+1)^(0+128),w
  5101  0DAC  1D03               	skipz
  5102  0DAD  2DB0               	goto	u1995
  5103  0DAE  083C               	movf	_pos_atual^(0+128),w
  5104  0DAF  063E               	xorwf	_pos_final^(0+128),w
  5105  0DB0                     u1995:
  5106  0DB0  1903               	skipnz
  5107  0DB1  2DB3               	goto	u1991
  5108  0DB2  2DB4               	goto	u1990
  5109  0DB3                     u1991:
  5110  0DB3  2DBC               	goto	l789
  5111  0DB4                     u1990:
  5112  0DB4                     l3133:
  5113                           
  5114                           ;main.c: 87:         PWM3_LoadDutyValue(409);
  5115  0DB4  3099               	movlw	153
  5116  0DB5  0020               	movlb	0	; select bank0
  5117  0DB6  00A2               	movwf	PWM3_LoadDutyValue@dutyValue
  5118  0DB7  3001               	movlw	1
  5119  0DB8  00A3               	movwf	PWM3_LoadDutyValue@dutyValue+1
  5120  0DB9  318B  23D5  318D   	fcall	_PWM3_LoadDutyValue
  5121  0DBC                     l789:
  5122  0DBC  0008               	return
  5123  0DBD                     __end_of_deslocamento:
  5124                           
  5125                           	psect	text6
  5126  0BD5                     __ptext6:	
  5127 ;; *************** function _PWM3_LoadDutyValue *****************
  5128 ;; Defined at:
  5129 ;;		line 82 in file "mcc_generated_files/pwm3.c"
  5130 ;; Parameters:    Size  Location     Type
  5131 ;;  dutyValue       2    2[BANK0 ] unsigned short 
  5132 ;; Auto vars:     Size  Location     Type
  5133 ;;		None
  5134 ;; Return value:  Size  Location     Type
  5135 ;;                  1    wreg      void 
  5136 ;; Registers used:
  5137 ;;		wreg, status,2, status,0
  5138 ;; Tracked objects:
  5139 ;;		On entry : 0/0
  5140 ;;		On exit  : 0/0
  5141 ;;		Unchanged: 0/0
  5142 ;; Data sizes:     COMMON   BANK0   BANK1   BANK2   BANK3   BANK4
  5143 ;;      Params:         0       2       0       0       0       0
  5144 ;;      Locals:         0       0       0       0       0       0
  5145 ;;      Temps:          0       2       0       0       0       0
  5146 ;;      Totals:         0       4       0       0       0       0
  5147 ;;Total ram usage:        4 bytes
  5148 ;; Hardware stack levels used: 1
  5149 ;; Hardware stack levels required when called: 6
  5150 ;; This function calls:
  5151 ;;		Nothing
  5152 ;; This function is called by:
  5153 ;;		_deslocamento
  5154 ;;		_controle
  5155 ;; This function uses a non-reentrant model
  5156 ;;
  5157                           
  5158                           
  5159                           ;psect for function _PWM3_LoadDutyValue
  5160  0BD5                     _PWM3_LoadDutyValue:
  5161  0BD5                     l2877:	
  5162                           ;incstack = 0
  5163                           ; Regs used in _PWM3_LoadDutyValue: [wreg+status,2+status,0]
  5164                           
  5165                           
  5166                           ;mcc_generated_files/pwm3.c: 82: void PWM3_LoadDutyValue(uint16_t dutyValue);mcc_generat
      +                          ed_files/pwm3.c: 83: {;mcc_generated_files/pwm3.c: 85:     CCPR3L = ((dutyValue & 0x03FC
      +                          )>>2);
  5167  0BD5  0020               	movlb	0	; select bank0
  5168  0BD6  0823               	movf	PWM3_LoadDutyValue@dutyValue+1,w
  5169  0BD7  00A5               	movwf	??_PWM3_LoadDutyValue+1
  5170  0BD8  0822               	movf	PWM3_LoadDutyValue@dutyValue,w
  5171  0BD9  00A4               	movwf	??_PWM3_LoadDutyValue
  5172  0BDA  36A5               	lsrf	??_PWM3_LoadDutyValue+1,f
  5173  0BDB  0CA4               	rrf	??_PWM3_LoadDutyValue,f
  5174  0BDC  36A5               	lsrf	??_PWM3_LoadDutyValue+1,f
  5175  0BDD  0CA4               	rrf	??_PWM3_LoadDutyValue,f
  5176  0BDE  0824               	movf	??_PWM3_LoadDutyValue,w
  5177  0BDF  0026               	movlb	6	; select bank6
  5178  0BE0  0091               	movwf	17	;volatile
  5179                           
  5180                           ;mcc_generated_files/pwm3.c: 88:     CCP3CON = ((uint8_t)(CCP3CON & 0xCF) | ((dutyValue 
      +                          & 0x0003)<<4));
  5181  0BE1  0020               	movlb	0	; select bank0
  5182  0BE2  0822               	movf	PWM3_LoadDutyValue@dutyValue,w
  5183  0BE3  3903               	andlw	3
  5184  0BE4  00A4               	movwf	??_PWM3_LoadDutyValue
  5185  0BE5  3004               	movlw	4
  5186  0BE6                     u1845:
  5187  0BE6  35A4               	lslf	??_PWM3_LoadDutyValue,f
  5188  0BE7  0B89               	decfsz	9,f
  5189  0BE8  2BE6               	goto	u1845
  5190  0BE9  0026               	movlb	6	; select bank6
  5191  0BEA  0813               	movf	19,w	;volatile
  5192  0BEB  39CF               	andlw	207
  5193  0BEC  0020               	movlb	0	; select bank0
  5194  0BED  0424               	iorwf	??_PWM3_LoadDutyValue,w
  5195  0BEE  0026               	movlb	6	; select bank6
  5196  0BEF  0093               	movwf	19	;volatile
  5197  0BF0                     l482:
  5198  0BF0  0008               	return
  5199  0BF1                     __end_of_PWM3_LoadDutyValue:
  5200                           
  5201                           	psect	text7
  5202  0F32                     __ptext7:	
  5203 ;; *************** function _andar *****************
  5204 ;; Defined at:
  5205 ;;		line 63 in file "main.c"
  5206 ;; Parameters:    Size  Location     Type
  5207 ;;		None
  5208 ;; Auto vars:     Size  Location     Type
  5209 ;;  i               2    7[BANK0 ] int 
  5210 ;;  i               2    5[BANK0 ] int 
  5211 ;; Return value:  Size  Location     Type
  5212 ;;                  1    wreg      void 
  5213 ;; Registers used:
  5214 ;;		wreg, fsr1l, fsr1h, status,2, status,0, pclath, cstack
  5215 ;; Tracked objects:
  5216 ;;		On entry : 0/0
  5217 ;;		On exit  : 0/0
  5218 ;;		Unchanged: 0/0
  5219 ;; Data sizes:     COMMON   BANK0   BANK1   BANK2   BANK3   BANK4
  5220 ;;      Params:         0       0       0       0       0       0
  5221 ;;      Locals:         0       4       0       0       0       0
  5222 ;;      Temps:          0       2       0       0       0       0
  5223 ;;      Totals:         0       6       0       0       0       0
  5224 ;;Total ram usage:        6 bytes
  5225 ;; Hardware stack levels used: 1
  5226 ;; Hardware stack levels required when called: 7
  5227 ;; This function calls:
  5228 ;;		_DATAEE_ReadByte
  5229 ;; This function is called by:
  5230 ;;		_main
  5231 ;; This function uses a non-reentrant model
  5232 ;;
  5233                           
  5234                           
  5235                           ;psect for function _andar
  5236  0F32                     _andar:
  5237  0F32                     l3329:	
  5238                           ;incstack = 0
  5239                           ; Regs used in _andar: [wreg+fsr1l+fsr1h+status,2+status,0+pclath+cstack]
  5240                           
  5241                           
  5242                           ;main.c: 64:     u = pos_atual;
  5243  0F32  0021               	movlb	1	; select bank1
  5244  0F33  083D               	movf	(_pos_atual+1)^(0+128),w
  5245  0F34  00BB               	movwf	(_u+1)^(0+128)
  5246  0F35  083C               	movf	_pos_atual^(0+128),w
  5247  0F36  00BA               	movwf	_u^(0+128)
  5248  0F37                     l3331:
  5249                           
  5250                           ;main.c: 65:     for (int i =0;i<4;i++)
  5251  0F37  0020               	movlb	0	; select bank0
  5252  0F38  01A5               	clrf	andar@i
  5253  0F39  01A6               	clrf	andar@i+1
  5254  0F3A                     l3337:
  5255                           
  5256                           ;main.c: 66:     {;main.c: 67:         LED[i]= DATAEE_ReadByte(i+((1+u)*4));
  5257  0F3A  0021               	movlb	1	; select bank1
  5258  0F3B  083A               	movf	_u^(0+128),w
  5259  0F3C  0020               	movlb	0	; select bank0
  5260  0F3D  00A3               	movwf	??_andar
  5261  0F3E  3001               	movlw	1
  5262  0F3F                     u2275:
  5263  0F3F  35A3               	lslf	??_andar,f
  5264  0F40  3EFF               	addlw	-1
  5265  0F41  1D03               	skipz
  5266  0F42  2F3F               	goto	u2275
  5267  0F43  3523               	lslf	??_andar,w
  5268  0F44  0725               	addwf	andar@i,w
  5269  0F45  3E04               	addlw	4
  5270  0F46  318A  229C  318F   	fcall	_DATAEE_ReadByte
  5271  0F49  0020               	movlb	0	; select bank0
  5272  0F4A  00A4               	movwf	??_andar+1
  5273  0F4B  0825               	movf	andar@i,w
  5274  0F4C  3E30               	addlw	(low (_LED| (0+256)))& (0+255)
  5275  0F4D  0086               	movwf	6
  5276  0F4E  3001               	movlw	1	; select bank2/3
  5277  0F4F  0087               	movwf	7
  5278  0F50  0824               	movf	??_andar+1,w
  5279  0F51  0081               	movwf	1
  5280  0F52                     l3339:
  5281                           
  5282                           ;main.c: 68:     }
  5283  0F52  3001               	movlw	1
  5284  0F53  07A5               	addwf	andar@i,f
  5285  0F54  3000               	movlw	0
  5286  0F55  3DA6               	addwfc	andar@i+1,f
  5287  0F56                     l3341:
  5288  0F56  0826               	movf	andar@i+1,w
  5289  0F57  3A80               	xorlw	128
  5290  0F58  00A3               	movwf	??_andar
  5291  0F59  3080               	movlw	128
  5292  0F5A  0223               	subwf	??_andar,w
  5293  0F5B  1D03               	skipz
  5294  0F5C  2F5F               	goto	u2285
  5295  0F5D  3004               	movlw	4
  5296  0F5E  0225               	subwf	andar@i,w
  5297  0F5F                     u2285:
  5298  0F5F  1C03               	skipc
  5299  0F60  2F62               	goto	u2281
  5300  0F61  2F63               	goto	u2280
  5301  0F62                     u2281:
  5302  0F62  2F3A               	goto	l3337
  5303  0F63                     u2280:
  5304  0F63                     l3343:
  5305                           
  5306                           ;main.c: 73:     for (int i =0;i<4;i++)
  5307  0F63  0020               	movlb	0	; select bank0
  5308  0F64  01A7               	clrf	andar@i_1662
  5309  0F65  01A8               	clrf	andar@i_1662+1
  5310  0F66                     l3349:
  5311                           
  5312                           ;main.c: 74:     {;main.c: 75:         LED[4+i]= DATAEE_ReadByte(i+((7+motor)*4));
  5313  0F66  0021               	movlb	1	; select bank1
  5314  0F67  0850               	movf	_motor^(0+128),w
  5315  0F68  0020               	movlb	0	; select bank0
  5316  0F69  00A3               	movwf	??_andar
  5317  0F6A  3001               	movlw	1
  5318  0F6B                     u2295:
  5319  0F6B  35A3               	lslf	??_andar,f
  5320  0F6C  3EFF               	addlw	-1
  5321  0F6D  1D03               	skipz
  5322  0F6E  2F6B               	goto	u2295
  5323  0F6F  3523               	lslf	??_andar,w
  5324  0F70  0727               	addwf	andar@i_1662,w
  5325  0F71  3E1C               	addlw	28
  5326  0F72  318A  229C  318F   	fcall	_DATAEE_ReadByte
  5327  0F75  0020               	movlb	0	; select bank0
  5328  0F76  00A4               	movwf	??_andar+1
  5329  0F77  0827               	movf	andar@i_1662,w
  5330  0F78  3E34               	addlw	(low ((_LED| (0+256)+4)))& (0+255)
  5331  0F79  0086               	movwf	6
  5332  0F7A  3001               	movlw	1	; select bank2/3
  5333  0F7B  0087               	movwf	7
  5334  0F7C  0824               	movf	??_andar+1,w
  5335  0F7D  0081               	movwf	1
  5336  0F7E                     l3351:
  5337                           
  5338                           ;main.c: 76:     }
  5339  0F7E  3001               	movlw	1
  5340  0F7F  07A7               	addwf	andar@i_1662,f
  5341  0F80  3000               	movlw	0
  5342  0F81  3DA8               	addwfc	andar@i_1662+1,f
  5343  0F82                     l3353:
  5344  0F82  0828               	movf	andar@i_1662+1,w
  5345  0F83  3A80               	xorlw	128
  5346  0F84  00A3               	movwf	??_andar
  5347  0F85  3080               	movlw	128
  5348  0F86  0223               	subwf	??_andar,w
  5349  0F87  1D03               	skipz
  5350  0F88  2F8B               	goto	u2305
  5351  0F89  3004               	movlw	4
  5352  0F8A  0227               	subwf	andar@i_1662,w
  5353  0F8B                     u2305:
  5354  0F8B  1C03               	skipc
  5355  0F8C  2F8E               	goto	u2301
  5356  0F8D  2F8F               	goto	u2300
  5357  0F8E                     u2301:
  5358  0F8E  2F66               	goto	l3349
  5359  0F8F                     u2300:
  5360  0F8F                     l783:
  5361  0F8F  0008               	return
  5362  0F90                     __end_of_andar:
  5363                           
  5364                           	psect	text8
  5365  0A9C                     __ptext8:	
  5366 ;; *************** function _DATAEE_ReadByte *****************
  5367 ;; Defined at:
  5368 ;;		line 211 in file "mcc_generated_files/memory.c"
  5369 ;; Parameters:    Size  Location     Type
  5370 ;;  bAdd            1    wreg     unsigned char 
  5371 ;; Auto vars:     Size  Location     Type
  5372 ;;  bAdd            1    2[BANK0 ] unsigned char 
  5373 ;; Return value:  Size  Location     Type
  5374 ;;                  1    wreg      unsigned char 
  5375 ;; Registers used:
  5376 ;;		wreg
  5377 ;; Tracked objects:
  5378 ;;		On entry : 0/0
  5379 ;;		On exit  : 0/0
  5380 ;;		Unchanged: 0/0
  5381 ;; Data sizes:     COMMON   BANK0   BANK1   BANK2   BANK3   BANK4
  5382 ;;      Params:         0       0       0       0       0       0
  5383 ;;      Locals:         0       1       0       0       0       0
  5384 ;;      Temps:          0       0       0       0       0       0
  5385 ;;      Totals:         0       1       0       0       0       0
  5386 ;;Total ram usage:        1 bytes
  5387 ;; Hardware stack levels used: 1
  5388 ;; Hardware stack levels required when called: 6
  5389 ;; This function calls:
  5390 ;;		Nothing
  5391 ;; This function is called by:
  5392 ;;		_andar
  5393 ;;		_updateMatrix
  5394 ;; This function uses a non-reentrant model
  5395 ;;
  5396                           
  5397                           
  5398                           ;psect for function _DATAEE_ReadByte
  5399  0A9C                     _DATAEE_ReadByte:
  5400                           
  5401                           ;incstack = 0
  5402                           ; Regs used in _DATAEE_ReadByte: [wreg]
  5403                           ;DATAEE_ReadByte@bAdd stored from wreg
  5404  0A9C  0020               	movlb	0	; select bank0
  5405  0A9D  00A2               	movwf	DATAEE_ReadByte@bAdd
  5406  0A9E                     l3105:
  5407                           
  5408                           ;mcc_generated_files/memory.c: 211: uint8_t DATAEE_ReadByte(uint8_t bAdd);mcc_generated_
      +                          files/memory.c: 212: {;mcc_generated_files/memory.c: 213:     EEADRL = (uint8_t)(bAdd & 
      +                          0x0ff);
  5409  0A9E  0822               	movf	DATAEE_ReadByte@bAdd,w
  5410  0A9F  0023               	movlb	3	; select bank3
  5411  0AA0  0091               	movwf	17	;volatile
  5412  0AA1                     l3107:
  5413                           
  5414                           ;mcc_generated_files/memory.c: 214:     EECON1bits.CFGS = 0;
  5415  0AA1  1315               	bcf	21,6	;volsfr
  5416  0AA2                     l3109:
  5417                           
  5418                           ;mcc_generated_files/memory.c: 215:     EECON1bits.EEPGD = 0;
  5419  0AA2  1395               	bcf	21,7	;volsfr
  5420  0AA3                     l3111:
  5421                           
  5422                           ;mcc_generated_files/memory.c: 216:     EECON1bits.RD = 1;
  5423  0AA3  1415               	bsf	21,0	;volsfr
  5424  0AA4                     l3113:
  5425                           
  5426                           ;mcc_generated_files/memory.c: 217:     __nop();
  5427  0AA4  0000               	nop
  5428  0AA5                     l3115:
  5429                           
  5430                           ;mcc_generated_files/memory.c: 218:     __nop();
  5431  0AA5  0000               	nop
  5432                           
  5433                           ;mcc_generated_files/memory.c: 220:     return (EEDATL);
  5434  0AA6  0023               	movlb	3	; select bank3
  5435  0AA7  0813               	movf	19,w	;volatile
  5436  0AA8                     l171:
  5437  0AA8  0008               	return
  5438  0AA9                     __end_of_DATAEE_ReadByte:
  5439                           
  5440                           	psect	text9
  5441  05DD                     __ptext9:	
  5442 ;; *************** function ___xxtofl *****************
  5443 ;; Defined at:
  5444 ;;		line 10 in file "C:\Program Files\Microchip\xc8\v2.32\pic\sources\c99\common\xxtofl.c"
  5445 ;; Parameters:    Size  Location     Type
  5446 ;;  sign            1    wreg     unsigned char 
  5447 ;;  val             4    6[BANK0 ] long 
  5448 ;; Auto vars:     Size  Location     Type
  5449 ;;  sign            1   14[BANK0 ] unsigned char 
  5450 ;;  arg             4   16[BANK0 ] unsigned long 
  5451 ;;  exp             1   15[BANK0 ] unsigned char 
  5452 ;; Return value:  Size  Location     Type
  5453 ;;                  4    6[BANK0 ] unsigned char 
  5454 ;; Registers used:
  5455 ;;		wreg, status,2, status,0
  5456 ;; Tracked objects:
  5457 ;;		On entry : 0/0
  5458 ;;		On exit  : 0/0
  5459 ;;		Unchanged: 0/0
  5460 ;; Data sizes:     COMMON   BANK0   BANK1   BANK2   BANK3   BANK4
  5461 ;;      Params:         0       4       0       0       0       0
  5462 ;;      Locals:         0       6       0       0       0       0
  5463 ;;      Temps:          0       4       0       0       0       0
  5464 ;;      Totals:         0      14       0       0       0       0
  5465 ;;Total ram usage:       14 bytes
  5466 ;; Hardware stack levels used: 1
  5467 ;; Hardware stack levels required when called: 6
  5468 ;; This function calls:
  5469 ;;		Nothing
  5470 ;; This function is called by:
  5471 ;;		_main
  5472 ;; This function uses a non-reentrant model
  5473 ;;
  5474                           
  5475                           
  5476                           ;psect for function ___xxtofl
  5477  05DD                     ___xxtofl:
  5478                           
  5479                           ;incstack = 0
  5480                           ; Regs used in ___xxtofl: [wreg+status,2+status,0]
  5481                           ;___xxtofl@sign stored from wreg
  5482  05DD  0020               	movlb	0	; select bank0
  5483  05DE  00AE               	movwf	___xxtofl@sign
  5484  05DF                     l3705:
  5485  05DF  082E               	movf	___xxtofl@sign,w
  5486  05E0  1903               	btfsc	3,2
  5487  05E1  2DE3               	goto	u3001
  5488  05E2  2DE4               	goto	u3000
  5489  05E3                     u3001:
  5490  05E3  2DF8               	goto	l3711
  5491  05E4                     u3000:
  5492  05E4                     l3707:
  5493  05E4  1FA9               	btfss	___xxtofl@val+3,7
  5494  05E5  2DE7               	goto	u3011
  5495  05E6  2DE8               	goto	u3010
  5496  05E7                     u3011:
  5497  05E7  2DF8               	goto	l3711
  5498  05E8                     u3010:
  5499  05E8                     l3709:
  5500  05E8  0926               	comf	___xxtofl@val,w
  5501  05E9  00B0               	movwf	___xxtofl@arg
  5502  05EA  0927               	comf	___xxtofl@val+1,w
  5503  05EB  00B1               	movwf	___xxtofl@arg+1
  5504  05EC  0928               	comf	___xxtofl@val+2,w
  5505  05ED  00B2               	movwf	___xxtofl@arg+2
  5506  05EE  0929               	comf	___xxtofl@val+3,w
  5507  05EF  00B3               	movwf	___xxtofl@arg+3
  5508  05F0  0AB0               	incf	___xxtofl@arg,f
  5509  05F1  1903               	skipnz
  5510  05F2  0AB1               	incf	___xxtofl@arg+1,f
  5511  05F3  1903               	skipnz
  5512  05F4  0AB2               	incf	___xxtofl@arg+2,f
  5513  05F5  1903               	skipnz
  5514  05F6  0AB3               	incf	___xxtofl@arg+3,f
  5515  05F7  2E00               	goto	l1474
  5516  05F8                     l3711:
  5517  05F8  0829               	movf	___xxtofl@val+3,w
  5518  05F9  00B3               	movwf	___xxtofl@arg+3
  5519  05FA  0828               	movf	___xxtofl@val+2,w
  5520  05FB  00B2               	movwf	___xxtofl@arg+2
  5521  05FC  0827               	movf	___xxtofl@val+1,w
  5522  05FD  00B1               	movwf	___xxtofl@arg+1
  5523  05FE  0826               	movf	___xxtofl@val,w
  5524  05FF  00B0               	movwf	___xxtofl@arg
  5525  0600                     l1474:
  5526  0600  0829               	movf	___xxtofl@val+3,w
  5527  0601  0428               	iorwf	___xxtofl@val+2,w
  5528  0602  0427               	iorwf	___xxtofl@val+1,w
  5529  0603  0426               	iorwf	___xxtofl@val,w
  5530  0604  1D03               	skipz
  5531  0605  2E07               	goto	u3021
  5532  0606  2E08               	goto	u3020
  5533  0607                     u3021:
  5534  0607  2E11               	goto	l3717
  5535  0608                     u3020:
  5536  0608                     l3713:
  5537  0608  3000               	movlw	0
  5538  0609  00A9               	movwf	?___xxtofl+3
  5539  060A  3000               	movlw	0
  5540  060B  00A8               	movwf	?___xxtofl+2
  5541  060C  3000               	movlw	0
  5542  060D  00A7               	movwf	?___xxtofl+1
  5543  060E  3000               	movlw	0
  5544  060F  00A6               	movwf	?___xxtofl
  5545  0610  2E89               	goto	l1476
  5546  0611                     l3717:
  5547  0611  3096               	movlw	150
  5548  0612  00AA               	movwf	??___xxtofl
  5549  0613  082A               	movf	??___xxtofl,w
  5550  0614  00AF               	movwf	___xxtofl@exp
  5551  0615  2E21               	goto	l3721
  5552  0616                     l3719:
  5553  0616  3001               	movlw	1
  5554  0617  00AA               	movwf	??___xxtofl
  5555  0618  082A               	movf	??___xxtofl,w
  5556  0619  07AF               	addwf	___xxtofl@exp,f
  5557  061A  3001               	movlw	1
  5558  061B                     u3035:
  5559  061B  36B3               	lsrf	___xxtofl@arg+3,f
  5560  061C  0CB2               	rrf	___xxtofl@arg+2,f
  5561  061D  0CB1               	rrf	___xxtofl@arg+1,f
  5562  061E  0CB0               	rrf	___xxtofl@arg,f
  5563  061F  0B89               	decfsz	9,f
  5564  0620  2E1B               	goto	u3035
  5565  0621                     l3721:
  5566  0621  30FE               	movlw	254
  5567  0622  0533               	andwf	___xxtofl@arg+3,w
  5568  0623  1D03               	btfss	3,2
  5569  0624  2E26               	goto	u3041
  5570  0625  2E27               	goto	u3040
  5571  0626                     u3041:
  5572  0626  2E16               	goto	l3719
  5573  0627                     u3040:
  5574  0627  2E3B               	goto	l1480
  5575  0628                     l3723:
  5576  0628  3001               	movlw	1
  5577  0629  00AA               	movwf	??___xxtofl
  5578  062A  082A               	movf	??___xxtofl,w
  5579  062B  07AF               	addwf	___xxtofl@exp,f
  5580  062C                     l3725:
  5581  062C  3001               	movlw	1
  5582  062D  07B0               	addwf	___xxtofl@arg,f
  5583  062E  3000               	movlw	0
  5584  062F  3DB1               	addwfc	___xxtofl@arg+1,f
  5585  0630  3000               	movlw	0
  5586  0631  3DB2               	addwfc	___xxtofl@arg+2,f
  5587  0632  3000               	movlw	0
  5588  0633  3DB3               	addwfc	___xxtofl@arg+3,f
  5589  0634                     l3727:
  5590  0634  3001               	movlw	1
  5591  0635                     u3055:
  5592  0635  36B3               	lsrf	___xxtofl@arg+3,f
  5593  0636  0CB2               	rrf	___xxtofl@arg+2,f
  5594  0637  0CB1               	rrf	___xxtofl@arg+1,f
  5595  0638  0CB0               	rrf	___xxtofl@arg,f
  5596  0639  0B89               	decfsz	9,f
  5597  063A  2E35               	goto	u3055
  5598  063B                     l1480:
  5599  063B  30FF               	movlw	255
  5600  063C  0533               	andwf	___xxtofl@arg+3,w
  5601  063D  1D03               	btfss	3,2
  5602  063E  2E40               	goto	u3061
  5603  063F  2E41               	goto	u3060
  5604  0640                     u3061:
  5605  0640  2E28               	goto	l3723
  5606  0641                     u3060:
  5607  0641  2E4B               	goto	l3731
  5608  0642                     l3729:
  5609  0642  3001               	movlw	1
  5610  0643  02AF               	subwf	___xxtofl@exp,f
  5611  0644  3001               	movlw	1
  5612  0645                     u3075:
  5613  0645  35B0               	lslf	___xxtofl@arg,f
  5614  0646  0DB1               	rlf	___xxtofl@arg+1,f
  5615  0647  0DB2               	rlf	___xxtofl@arg+2,f
  5616  0648  0DB3               	rlf	___xxtofl@arg+3,f
  5617  0649  0B89               	decfsz	9,f
  5618  064A  2E45               	goto	u3075
  5619  064B                     l3731:
  5620  064B  1BB2               	btfsc	___xxtofl@arg+2,7
  5621  064C  2E4E               	goto	u3081
  5622  064D  2E4F               	goto	u3080
  5623  064E                     u3081:
  5624  064E  2E55               	goto	l1487
  5625  064F                     u3080:
  5626  064F                     l3733:
  5627  064F  3002               	movlw	2
  5628  0650  022F               	subwf	___xxtofl@exp,w
  5629  0651  1803               	skipnc
  5630  0652  2E54               	goto	u3091
  5631  0653  2E55               	goto	u3090
  5632  0654                     u3091:
  5633  0654  2E42               	goto	l3729
  5634  0655                     u3090:
  5635  0655                     l1487:
  5636  0655  182F               	btfsc	___xxtofl@exp,0
  5637  0656  2E58               	goto	u3101
  5638  0657  2E59               	goto	u3100
  5639  0658                     u3101:
  5640  0658  2E61               	goto	l1488
  5641  0659                     u3100:
  5642  0659                     l3735:
  5643  0659  30FF               	movlw	255
  5644  065A  05B0               	andwf	___xxtofl@arg,f
  5645  065B  30FF               	movlw	255
  5646  065C  05B1               	andwf	___xxtofl@arg+1,f
  5647  065D  307F               	movlw	127
  5648  065E  05B2               	andwf	___xxtofl@arg+2,f
  5649  065F  30FF               	movlw	255
  5650  0660  05B3               	andwf	___xxtofl@arg+3,f
  5651  0661                     l1488:
  5652  0661  1003               	clrc
  5653  0662  0CAF               	rrf	___xxtofl@exp,f
  5654  0663                     l3737:
  5655  0663  082F               	movf	___xxtofl@exp,w
  5656  0664  00AA               	movwf	??___xxtofl
  5657  0665  01AB               	clrf	??___xxtofl+1
  5658  0666  01AC               	clrf	??___xxtofl+2
  5659  0667  01AD               	clrf	??___xxtofl+3
  5660  0668  3018               	movlw	24
  5661  0669                     u3115:
  5662  0669  35AA               	lslf	??___xxtofl,f
  5663  066A  0DAB               	rlf	??___xxtofl+1,f
  5664  066B  0DAC               	rlf	??___xxtofl+2,f
  5665  066C  0DAD               	rlf	??___xxtofl+3,f
  5666  066D                     u3110:
  5667  066D  0B89               	decfsz	9,f
  5668  066E  2E69               	goto	u3115
  5669  066F  082A               	movf	??___xxtofl,w
  5670  0670  04B0               	iorwf	___xxtofl@arg,f
  5671  0671  082B               	movf	??___xxtofl+1,w
  5672  0672  04B1               	iorwf	___xxtofl@arg+1,f
  5673  0673  082C               	movf	??___xxtofl+2,w
  5674  0674  04B2               	iorwf	___xxtofl@arg+2,f
  5675  0675  082D               	movf	??___xxtofl+3,w
  5676  0676  04B3               	iorwf	___xxtofl@arg+3,f
  5677  0677                     l3739:
  5678  0677  082E               	movf	___xxtofl@sign,w
  5679  0678  1903               	btfsc	3,2
  5680  0679  2E7B               	goto	u3121
  5681  067A  2E7C               	goto	u3120
  5682  067B                     u3121:
  5683  067B  2E81               	goto	l3745
  5684  067C                     u3120:
  5685  067C                     l3741:
  5686  067C  1FA9               	btfss	___xxtofl@val+3,7
  5687  067D  2E7F               	goto	u3131
  5688  067E  2E80               	goto	u3130
  5689  067F                     u3131:
  5690  067F  2E81               	goto	l3745
  5691  0680                     u3130:
  5692  0680                     l3743:
  5693  0680  17B3               	bsf	___xxtofl@arg+3,7
  5694  0681                     l3745:
  5695  0681  0833               	movf	___xxtofl@arg+3,w
  5696  0682  00A9               	movwf	?___xxtofl+3
  5697  0683  0832               	movf	___xxtofl@arg+2,w
  5698  0684  00A8               	movwf	?___xxtofl+2
  5699  0685  0831               	movf	___xxtofl@arg+1,w
  5700  0686  00A7               	movwf	?___xxtofl+1
  5701  0687  0830               	movf	___xxtofl@arg,w
  5702  0688  00A6               	movwf	?___xxtofl
  5703  0689                     l1476:
  5704  0689  0008               	return
  5705  068A                     __end_of___xxtofl:
  5706                           
  5707                           	psect	text10
  5708  068A                     __ptext10:	
  5709 ;; *************** function ___fltol *****************
  5710 ;; Defined at:
  5711 ;;		line 43 in file "C:\Program Files\Microchip\xc8\v2.32\pic\sources\c99\common\fltol.c"
  5712 ;; Parameters:    Size  Location     Type
  5713 ;;  f1              4   72[BANK0 ] unsigned char 
  5714 ;; Auto vars:     Size  Location     Type
  5715 ;;  exp1            1    6[BANK1 ] unsigned char 
  5716 ;;  sign1           1    5[BANK1 ] unsigned char 
  5717 ;; Return value:  Size  Location     Type
  5718 ;;                  4   72[BANK0 ] long 
  5719 ;; Registers used:
  5720 ;;		wreg, status,2, status,0
  5721 ;; Tracked objects:
  5722 ;;		On entry : 0/0
  5723 ;;		On exit  : 0/0
  5724 ;;		Unchanged: 0/0
  5725 ;; Data sizes:     COMMON   BANK0   BANK1   BANK2   BANK3   BANK4
  5726 ;;      Params:         0       4       0       0       0       0
  5727 ;;      Locals:         0       0       2       0       0       0
  5728 ;;      Temps:          0       0       5       0       0       0
  5729 ;;      Totals:         0       4       7       0       0       0
  5730 ;;Total ram usage:       11 bytes
  5731 ;; Hardware stack levels used: 1
  5732 ;; Hardware stack levels required when called: 6
  5733 ;; This function calls:
  5734 ;;		Nothing
  5735 ;; This function is called by:
  5736 ;;		_main
  5737 ;; This function uses a non-reentrant model
  5738 ;;
  5739                           
  5740                           
  5741                           ;psect for function ___fltol
  5742  068A                     ___fltol:
  5743  068A                     l3839:	
  5744                           ;incstack = 0
  5745                           ; Regs used in ___fltol: [wreg+status,2+status,0]
  5746                           
  5747  068A  1003               	clrc
  5748  068B  0020               	movlb	0	; select bank0
  5749  068C  0D6A               	rlf	___fltol@f1+2,w
  5750  068D  0D6B               	rlf	___fltol@f1+3,w
  5751  068E  0021               	movlb	1	; select bank1
  5752  068F  00E5               	movwf	??___fltol^(0+128)
  5753  0690  0865               	movf	??___fltol^(0+128),w
  5754  0691  00EB               	movwf	___fltol@exp1^(0+128)
  5755  0692  086B               	movf	___fltol@exp1^(0+128),w
  5756  0693  1D03               	btfss	3,2
  5757  0694  2E96               	goto	u3351
  5758  0695  2E97               	goto	u3350
  5759  0696                     u3351:
  5760  0696  2EA1               	goto	l3845
  5761  0697                     u3350:
  5762  0697                     l3841:
  5763  0697  3000               	movlw	0
  5764  0698  0020               	movlb	0	; select bank0
  5765  0699  00EB               	movwf	?___fltol+3
  5766  069A  3000               	movlw	0
  5767  069B  00EA               	movwf	?___fltol+2
  5768  069C  3000               	movlw	0
  5769  069D  00E9               	movwf	?___fltol+1
  5770  069E  3000               	movlw	0
  5771  069F  00E8               	movwf	?___fltol
  5772  06A0  2F0F               	goto	l1227
  5773  06A1                     l3845:
  5774  06A1  0020               	movlb	0	; select bank0
  5775  06A2  0868               	movf	___fltol@f1,w
  5776  06A3  0021               	movlb	1	; select bank1
  5777  06A4  00E5               	movwf	??___fltol^(0+128)
  5778  06A5  0020               	movlb	0	; select bank0
  5779  06A6  0869               	movf	___fltol@f1+1,w
  5780  06A7  0021               	movlb	1	; select bank1
  5781  06A8  00E6               	movwf	(??___fltol^(0+128)+1)
  5782  06A9  0020               	movlb	0	; select bank0
  5783  06AA  086A               	movf	___fltol@f1+2,w
  5784  06AB  0021               	movlb	1	; select bank1
  5785  06AC  00E7               	movwf	(??___fltol^(0+128)+2)
  5786  06AD  0020               	movlb	0	; select bank0
  5787  06AE  086B               	movf	___fltol@f1+3,w
  5788  06AF  0021               	movlb	1	; select bank1
  5789  06B0  00E8               	movwf	(??___fltol^(0+128)+3)
  5790  06B1  301F               	movlw	31
  5791  06B2                     u3365:
  5792  06B2  36E8               	lsrf	(??___fltol^(0+128)+3),f
  5793  06B3  0CE7               	rrf	(??___fltol^(0+128)+2),f
  5794  06B4  0CE6               	rrf	(??___fltol^(0+128)+1),f
  5795  06B5  0CE5               	rrf	??___fltol^(0+128),f
  5796  06B6                     u3360:
  5797  06B6  0B89               	decfsz	9,f
  5798  06B7  2EB2               	goto	u3365
  5799  06B8  0865               	movf	??___fltol^(0+128),w
  5800  06B9  00E9               	movwf	(??___fltol+4)^(0+128)
  5801  06BA  0869               	movf	(??___fltol+4)^(0+128),w
  5802  06BB  00EA               	movwf	___fltol@sign1^(0+128)
  5803  06BC                     l3847:
  5804  06BC  0020               	movlb	0	; select bank0
  5805  06BD  17EA               	bsf	___fltol@f1+2,7
  5806  06BE                     l3849:
  5807  06BE  30FF               	movlw	255
  5808  06BF  05E8               	andwf	___fltol@f1,f
  5809  06C0  30FF               	movlw	255
  5810  06C1  05E9               	andwf	___fltol@f1+1,f
  5811  06C2  30FF               	movlw	255
  5812  06C3  05EA               	andwf	___fltol@f1+2,f
  5813  06C4  3000               	movlw	0
  5814  06C5  05EB               	andwf	___fltol@f1+3,f
  5815  06C6                     l3851:
  5816  06C6  3096               	movlw	150
  5817  06C7  0021               	movlb	1	; select bank1
  5818  06C8  02EB               	subwf	___fltol@exp1^(0+128),f
  5819  06C9                     l3853:
  5820  06C9  1FEB               	btfss	___fltol@exp1^(0+128),7
  5821  06CA  2ECC               	goto	u3371
  5822  06CB  2ECD               	goto	u3370
  5823  06CC                     u3371:
  5824  06CC  2EE7               	goto	l3863
  5825  06CD                     u3370:
  5826  06CD                     l3855:
  5827  06CD  086B               	movf	___fltol@exp1^(0+128),w
  5828  06CE  3A80               	xorlw	128
  5829  06CF  3E97               	addlw	151
  5830  06D0  1803               	skipnc
  5831  06D1  2ED3               	goto	u3381
  5832  06D2  2ED4               	goto	u3380
  5833  06D3                     u3381:
  5834  06D3  2ED5               	goto	l3861
  5835  06D4                     u3380:
  5836  06D4  2E97               	goto	l3841
  5837  06D5                     l3861:
  5838  06D5  3001               	movlw	1
  5839  06D6                     u3395:
  5840  06D6  0020               	movlb	0	; select bank0
  5841  06D7  36EB               	lsrf	___fltol@f1+3,f
  5842  06D8  0CEA               	rrf	___fltol@f1+2,f
  5843  06D9  0CE9               	rrf	___fltol@f1+1,f
  5844  06DA  0CE8               	rrf	___fltol@f1,f
  5845  06DB  0B89               	decfsz	9,f
  5846  06DC  2ED6               	goto	u3395
  5847  06DD  3001               	movlw	1
  5848  06DE  0021               	movlb	1	; select bank1
  5849  06DF  00E5               	movwf	??___fltol^(0+128)
  5850  06E0  0865               	movf	??___fltol^(0+128),w
  5851  06E1  07EB               	addwf	___fltol@exp1^(0+128),f
  5852  06E2  1D03               	btfss	3,2
  5853  06E3  2EE5               	goto	u3401
  5854  06E4  2EE6               	goto	u3400
  5855  06E5                     u3401:
  5856  06E5  2ED5               	goto	l3861
  5857  06E6                     u3400:
  5858  06E6  2EFE               	goto	l3871
  5859  06E7                     l3863:
  5860  06E7  3020               	movlw	32
  5861  06E8  026B               	subwf	___fltol@exp1^(0+128),w
  5862  06E9  1C03               	skipc
  5863  06EA  2EEC               	goto	u3411
  5864  06EB  2EED               	goto	u3410
  5865  06EC                     u3411:
  5866  06EC  2EF9               	goto	l1234
  5867  06ED                     u3410:
  5868  06ED  2E97               	goto	l3841
  5869  06EE                     l3869:
  5870  06EE  3001               	movlw	1
  5871  06EF                     u3425:
  5872  06EF  0020               	movlb	0	; select bank0
  5873  06F0  35E8               	lslf	___fltol@f1,f
  5874  06F1  0DE9               	rlf	___fltol@f1+1,f
  5875  06F2  0DEA               	rlf	___fltol@f1+2,f
  5876  06F3  0DEB               	rlf	___fltol@f1+3,f
  5877  06F4  0B89               	decfsz	9,f
  5878  06F5  2EEF               	goto	u3425
  5879  06F6  3001               	movlw	1
  5880  06F7  0021               	movlb	1	; select bank1
  5881  06F8  02EB               	subwf	___fltol@exp1^(0+128),f
  5882  06F9                     l1234:
  5883  06F9  086B               	movf	___fltol@exp1^(0+128),w
  5884  06FA  1D03               	btfss	3,2
  5885  06FB  2EFD               	goto	u3431
  5886  06FC  2EFE               	goto	u3430
  5887  06FD                     u3431:
  5888  06FD  2EEE               	goto	l3869
  5889  06FE                     u3430:
  5890  06FE                     l3871:
  5891  06FE  086A               	movf	___fltol@sign1^(0+128),w
  5892  06FF  1903               	btfsc	3,2
  5893  0700  2F02               	goto	u3441
  5894  0701  2F03               	goto	u3440
  5895  0702                     u3441:
  5896  0702  2F0F               	goto	l1237
  5897  0703                     u3440:
  5898  0703                     l3873:
  5899  0703  0020               	movlb	0	; select bank0
  5900  0704  09E8               	comf	___fltol@f1,f
  5901  0705  09E9               	comf	___fltol@f1+1,f
  5902  0706  09EA               	comf	___fltol@f1+2,f
  5903  0707  09EB               	comf	___fltol@f1+3,f
  5904  0708  0AE8               	incf	___fltol@f1,f
  5905  0709  1903               	skipnz
  5906  070A  0AE9               	incf	___fltol@f1+1,f
  5907  070B  1903               	skipnz
  5908  070C  0AEA               	incf	___fltol@f1+2,f
  5909  070D  1903               	skipnz
  5910  070E  0AEB               	incf	___fltol@f1+3,f
  5911  070F                     l1237:
  5912  070F                     l1227:
  5913  070F  0008               	return
  5914  0710                     __end_of___fltol:
  5915                           
  5916                           	psect	text11
  5917  00A2                     __ptext11:	
  5918 ;; *************** function ___flmul *****************
  5919 ;; Defined at:
  5920 ;;		line 8 in file "C:\Program Files\Microchip\xc8\v2.32\pic\sources\c99\common\sprcmul.c"
  5921 ;; Parameters:    Size  Location     Type
  5922 ;;  b               4   20[BANK0 ] long 
  5923 ;;  a               4   24[BANK0 ] long 
  5924 ;; Auto vars:     Size  Location     Type
  5925 ;;  prod            4   40[BANK0 ] struct .
  5926 ;;  grs             4   34[BANK0 ] unsigned long 
  5927 ;;  temp            2   44[BANK0 ] struct .
  5928 ;;  bexp            1   39[BANK0 ] unsigned char 
  5929 ;;  aexp            1   38[BANK0 ] unsigned char 
  5930 ;;  sign            1   33[BANK0 ] unsigned char 
  5931 ;; Return value:  Size  Location     Type
  5932 ;;                  4   20[BANK0 ] unsigned char 
  5933 ;; Registers used:
  5934 ;;		wreg, status,2, status,0, pclath, cstack
  5935 ;; Tracked objects:
  5936 ;;		On entry : 0/0
  5937 ;;		On exit  : 0/0
  5938 ;;		Unchanged: 0/0
  5939 ;; Data sizes:     COMMON   BANK0   BANK1   BANK2   BANK3   BANK4
  5940 ;;      Params:         0       8       0       0       0       0
  5941 ;;      Locals:         0      13       0       0       0       0
  5942 ;;      Temps:          0       5       0       0       0       0
  5943 ;;      Totals:         0      26       0       0       0       0
  5944 ;;Total ram usage:       26 bytes
  5945 ;; Hardware stack levels used: 1
  5946 ;; Hardware stack levels required when called: 7
  5947 ;; This function calls:
  5948 ;;		__Umul8_16
  5949 ;; This function is called by:
  5950 ;;		_main
  5951 ;; This function uses a non-reentrant model
  5952 ;;
  5953                           
  5954                           
  5955                           ;psect for function ___flmul
  5956  00A2                     ___flmul:
  5957  00A2                     l3565:	
  5958                           ;incstack = 0
  5959                           ; Regs used in ___flmul: [wreg+status,2+status,0+pclath+cstack]
  5960                           
  5961  00A2  0020               	movlb	0	; select bank0
  5962  00A3  0837               	movf	___flmul@b+3,w
  5963  00A4  3980               	andlw	128
  5964  00A5  00BC               	movwf	??___flmul
  5965  00A6  083C               	movf	??___flmul,w
  5966  00A7  00C1               	movwf	___flmul@sign
  5967  00A8                     l3567:
  5968  00A8  3537               	lslf	___flmul@b+3,w
  5969  00A9  00BC               	movwf	??___flmul
  5970  00AA  083C               	movf	??___flmul,w
  5971  00AB  00C7               	movwf	___flmul@bexp
  5972  00AC                     l3569:
  5973  00AC  1FB6               	btfss	___flmul@b+2,7
  5974  00AD  28AF               	goto	u2741
  5975  00AE  28B0               	goto	u2740
  5976  00AF                     u2741:
  5977  00AF  28B1               	goto	l3573
  5978  00B0                     u2740:
  5979  00B0                     l3571:
  5980  00B0  1447               	bsf	___flmul@bexp,0
  5981  00B1                     l3573:
  5982  00B1  0847               	movf	___flmul@bexp,w
  5983  00B2  1903               	btfsc	3,2
  5984  00B3  28B5               	goto	u2751
  5985  00B4  28B6               	goto	u2750
  5986  00B5                     u2751:
  5987  00B5  28C5               	goto	l3581
  5988  00B6                     u2750:
  5989  00B6                     l3575:
  5990  00B6  0A47               	incf	___flmul@bexp,w
  5991  00B7  1D03               	btfss	3,2
  5992  00B8  28BA               	goto	u2761
  5993  00B9  28BB               	goto	u2760
  5994  00BA                     u2761:
  5995  00BA  28C3               	goto	l3579
  5996  00BB                     u2760:
  5997  00BB                     l3577:
  5998  00BB  3000               	movlw	0
  5999  00BC  00B7               	movwf	___flmul@b+3
  6000  00BD  3000               	movlw	0
  6001  00BE  00B6               	movwf	___flmul@b+2
  6002  00BF  3000               	movlw	0
  6003  00C0  00B5               	movwf	___flmul@b+1
  6004  00C1  3000               	movlw	0
  6005  00C2  00B4               	movwf	___flmul@b
  6006  00C3                     l3579:
  6007  00C3  17B6               	bsf	___flmul@b+2,7
  6008  00C4  28CD               	goto	l3583
  6009  00C5                     l3581:
  6010  00C5  3000               	movlw	0
  6011  00C6  00B7               	movwf	___flmul@b+3
  6012  00C7  3000               	movlw	0
  6013  00C8  00B6               	movwf	___flmul@b+2
  6014  00C9  3000               	movlw	0
  6015  00CA  00B5               	movwf	___flmul@b+1
  6016  00CB  3000               	movlw	0
  6017  00CC  00B4               	movwf	___flmul@b
  6018  00CD                     l3583:
  6019  00CD  083B               	movf	___flmul@a+3,w
  6020  00CE  3980               	andlw	128
  6021  00CF  00BC               	movwf	??___flmul
  6022  00D0  083C               	movf	??___flmul,w
  6023  00D1  06C1               	xorwf	___flmul@sign,f
  6024  00D2                     l3585:
  6025  00D2  353B               	lslf	___flmul@a+3,w
  6026  00D3  00BC               	movwf	??___flmul
  6027  00D4  083C               	movf	??___flmul,w
  6028  00D5  00C6               	movwf	___flmul@aexp
  6029  00D6                     l3587:
  6030  00D6  1FBA               	btfss	___flmul@a+2,7
  6031  00D7  28D9               	goto	u2771
  6032  00D8  28DA               	goto	u2770
  6033  00D9                     u2771:
  6034  00D9  28DB               	goto	l3591
  6035  00DA                     u2770:
  6036  00DA                     l3589:
  6037  00DA  1446               	bsf	___flmul@aexp,0
  6038  00DB                     l3591:
  6039  00DB  0846               	movf	___flmul@aexp,w
  6040  00DC  1903               	btfsc	3,2
  6041  00DD  28DF               	goto	u2781
  6042  00DE  28E0               	goto	u2780
  6043  00DF                     u2781:
  6044  00DF  28EF               	goto	l3599
  6045  00E0                     u2780:
  6046  00E0                     l3593:
  6047  00E0  0A46               	incf	___flmul@aexp,w
  6048  00E1  1D03               	btfss	3,2
  6049  00E2  28E4               	goto	u2791
  6050  00E3  28E5               	goto	u2790
  6051  00E4                     u2791:
  6052  00E4  28ED               	goto	l3597
  6053  00E5                     u2790:
  6054  00E5                     l3595:
  6055  00E5  3000               	movlw	0
  6056  00E6  00BB               	movwf	___flmul@a+3
  6057  00E7  3000               	movlw	0
  6058  00E8  00BA               	movwf	___flmul@a+2
  6059  00E9  3000               	movlw	0
  6060  00EA  00B9               	movwf	___flmul@a+1
  6061  00EB  3000               	movlw	0
  6062  00EC  00B8               	movwf	___flmul@a
  6063  00ED                     l3597:
  6064  00ED  17BA               	bsf	___flmul@a+2,7
  6065  00EE  28F7               	goto	l3601
  6066  00EF                     l3599:
  6067  00EF  3000               	movlw	0
  6068  00F0  00BB               	movwf	___flmul@a+3
  6069  00F1  3000               	movlw	0
  6070  00F2  00BA               	movwf	___flmul@a+2
  6071  00F3  3000               	movlw	0
  6072  00F4  00B9               	movwf	___flmul@a+1
  6073  00F5  3000               	movlw	0
  6074  00F6  00B8               	movwf	___flmul@a
  6075  00F7                     l3601:
  6076  00F7  0846               	movf	___flmul@aexp,w
  6077  00F8  1903               	btfsc	3,2
  6078  00F9  28FB               	goto	u2801
  6079  00FA  28FC               	goto	u2800
  6080  00FB                     u2801:
  6081  00FB  2901               	goto	l3605
  6082  00FC                     u2800:
  6083  00FC                     l3603:
  6084  00FC  0847               	movf	___flmul@bexp,w
  6085  00FD  1D03               	btfss	3,2
  6086  00FE  2900               	goto	u2811
  6087  00FF  2901               	goto	u2810
  6088  0100                     u2811:
  6089  0100  290A               	goto	l3609
  6090  0101                     u2810:
  6091  0101                     l3605:
  6092  0101  3000               	movlw	0
  6093  0102  00B7               	movwf	?___flmul+3
  6094  0103  3000               	movlw	0
  6095  0104  00B6               	movwf	?___flmul+2
  6096  0105  3000               	movlw	0
  6097  0106  00B5               	movwf	?___flmul+1
  6098  0107  3000               	movlw	0
  6099  0108  00B4               	movwf	?___flmul
  6100  0109  2AF8               	goto	l1430
  6101  010A                     l3609:
  6102  010A  0834               	movf	___flmul@b,w
  6103  010B  00BC               	movwf	??___flmul
  6104  010C  083C               	movf	??___flmul,w
  6105  010D  00A2               	movwf	__Umul8_16@multiplicand
  6106  010E  083A               	movf	___flmul@a+2,w
  6107  010F  318C  244C  3180   	fcall	__Umul8_16
  6108  0112  0020               	movlb	0	; select bank0
  6109  0113  0823               	movf	?__Umul8_16+1,w
  6110  0114  00CD               	movwf	___flmul@temp+1
  6111  0115  0822               	movf	?__Umul8_16,w
  6112  0116  00CC               	movwf	___flmul@temp
  6113  0117                     l3611:
  6114  0117  084C               	movf	___flmul@temp,w
  6115  0118  00BC               	movwf	??___flmul
  6116  0119  01BD               	clrf	??___flmul+1
  6117  011A  01BE               	clrf	??___flmul+2
  6118  011B  01BF               	clrf	??___flmul+3
  6119  011C  083F               	movf	??___flmul+3,w
  6120  011D  00C5               	movwf	___flmul@grs+3
  6121  011E  083E               	movf	??___flmul+2,w
  6122  011F  00C4               	movwf	___flmul@grs+2
  6123  0120  083D               	movf	??___flmul+1,w
  6124  0121  00C3               	movwf	___flmul@grs+1
  6125  0122  083C               	movf	??___flmul,w
  6126  0123  00C2               	movwf	___flmul@grs
  6127  0124                     l3613:
  6128  0124  084D               	movf	___flmul@temp+1,w
  6129  0125  00BC               	movwf	??___flmul
  6130  0126  01BD               	clrf	??___flmul+1
  6131  0127  01BE               	clrf	??___flmul+2
  6132  0128  01BF               	clrf	??___flmul+3
  6133  0129  083F               	movf	??___flmul+3,w
  6134  012A  00CB               	movwf	___flmul@prod+3
  6135  012B  083E               	movf	??___flmul+2,w
  6136  012C  00CA               	movwf	___flmul@prod+2
  6137  012D  083D               	movf	??___flmul+1,w
  6138  012E  00C9               	movwf	___flmul@prod+1
  6139  012F  083C               	movf	??___flmul,w
  6140  0130  00C8               	movwf	___flmul@prod
  6141  0131  0835               	movf	___flmul@b+1,w
  6142  0132  00BC               	movwf	??___flmul
  6143  0133  083C               	movf	??___flmul,w
  6144  0134  00A2               	movwf	__Umul8_16@multiplicand
  6145  0135  0839               	movf	___flmul@a+1,w
  6146  0136  318C  244C  3180   	fcall	__Umul8_16
  6147  0139  0020               	movlb	0	; select bank0
  6148  013A  0823               	movf	?__Umul8_16+1,w
  6149  013B  00CD               	movwf	___flmul@temp+1
  6150  013C  0822               	movf	?__Umul8_16,w
  6151  013D  00CC               	movwf	___flmul@temp
  6152  013E                     l3615:
  6153  013E  084C               	movf	___flmul@temp,w
  6154  013F  00BC               	movwf	??___flmul
  6155  0140  01BD               	clrf	??___flmul+1
  6156  0141  01BE               	clrf	??___flmul+2
  6157  0142  01BF               	clrf	??___flmul+3
  6158  0143  083C               	movf	??___flmul,w
  6159  0144  07C2               	addwf	___flmul@grs,f
  6160  0145  083D               	movf	??___flmul+1,w
  6161  0146  3DC3               	addwfc	___flmul@grs+1,f
  6162  0147  083E               	movf	??___flmul+2,w
  6163  0148  3DC4               	addwfc	___flmul@grs+2,f
  6164  0149  083F               	movf	??___flmul+3,w
  6165  014A  3DC5               	addwfc	___flmul@grs+3,f
  6166  014B                     l3617:
  6167  014B  084D               	movf	___flmul@temp+1,w
  6168  014C  00BC               	movwf	??___flmul
  6169  014D  01BD               	clrf	??___flmul+1
  6170  014E  01BE               	clrf	??___flmul+2
  6171  014F  01BF               	clrf	??___flmul+3
  6172  0150  083C               	movf	??___flmul,w
  6173  0151  07C8               	addwf	___flmul@prod,f
  6174  0152  083D               	movf	??___flmul+1,w
  6175  0153  3DC9               	addwfc	___flmul@prod+1,f
  6176  0154  083E               	movf	??___flmul+2,w
  6177  0155  3DCA               	addwfc	___flmul@prod+2,f
  6178  0156  083F               	movf	??___flmul+3,w
  6179  0157  3DCB               	addwfc	___flmul@prod+3,f
  6180  0158  0836               	movf	___flmul@b+2,w
  6181  0159  00BC               	movwf	??___flmul
  6182  015A  083C               	movf	??___flmul,w
  6183  015B  00A2               	movwf	__Umul8_16@multiplicand
  6184  015C  0838               	movf	___flmul@a,w
  6185  015D  318C  244C  3180   	fcall	__Umul8_16
  6186  0160  0020               	movlb	0	; select bank0
  6187  0161  0823               	movf	?__Umul8_16+1,w
  6188  0162  00CD               	movwf	___flmul@temp+1
  6189  0163  0822               	movf	?__Umul8_16,w
  6190  0164  00CC               	movwf	___flmul@temp
  6191  0165                     l3619:
  6192  0165  084C               	movf	___flmul@temp,w
  6193  0166  00BC               	movwf	??___flmul
  6194  0167  01BD               	clrf	??___flmul+1
  6195  0168  01BE               	clrf	??___flmul+2
  6196  0169  01BF               	clrf	??___flmul+3
  6197  016A  083C               	movf	??___flmul,w
  6198  016B  07C2               	addwf	___flmul@grs,f
  6199  016C  083D               	movf	??___flmul+1,w
  6200  016D  3DC3               	addwfc	___flmul@grs+1,f
  6201  016E  083E               	movf	??___flmul+2,w
  6202  016F  3DC4               	addwfc	___flmul@grs+2,f
  6203  0170  083F               	movf	??___flmul+3,w
  6204  0171  3DC5               	addwfc	___flmul@grs+3,f
  6205  0172                     l3621:
  6206  0172  084D               	movf	___flmul@temp+1,w
  6207  0173  00BC               	movwf	??___flmul
  6208  0174  01BD               	clrf	??___flmul+1
  6209  0175  01BE               	clrf	??___flmul+2
  6210  0176  01BF               	clrf	??___flmul+3
  6211  0177  083C               	movf	??___flmul,w
  6212  0178  07C8               	addwf	___flmul@prod,f
  6213  0179  083D               	movf	??___flmul+1,w
  6214  017A  3DC9               	addwfc	___flmul@prod+1,f
  6215  017B  083E               	movf	??___flmul+2,w
  6216  017C  3DCA               	addwfc	___flmul@prod+2,f
  6217  017D  083F               	movf	??___flmul+3,w
  6218  017E  3DCB               	addwfc	___flmul@prod+3,f
  6219  017F                     l3623:
  6220  017F  3008               	movlw	8
  6221  0180                     u2825:
  6222  0180  35C2               	lslf	___flmul@grs,f
  6223  0181  0DC3               	rlf	___flmul@grs+1,f
  6224  0182  0DC4               	rlf	___flmul@grs+2,f
  6225  0183  0DC5               	rlf	___flmul@grs+3,f
  6226  0184  0B89               	decfsz	9,f
  6227  0185  2980               	goto	u2825
  6228  0186                     l3625:
  6229  0186  0835               	movf	___flmul@b+1,w
  6230  0187  00BC               	movwf	??___flmul
  6231  0188  083C               	movf	??___flmul,w
  6232  0189  00A2               	movwf	__Umul8_16@multiplicand
  6233  018A  0838               	movf	___flmul@a,w
  6234  018B  318C  244C  3180   	fcall	__Umul8_16
  6235  018E  0020               	movlb	0	; select bank0
  6236  018F  0823               	movf	?__Umul8_16+1,w
  6237  0190  00CD               	movwf	___flmul@temp+1
  6238  0191  0822               	movf	?__Umul8_16,w
  6239  0192  00CC               	movwf	___flmul@temp
  6240  0193                     l3627:
  6241  0193  084C               	movf	___flmul@temp,w
  6242  0194  07C2               	addwf	___flmul@grs,f
  6243  0195  084D               	movf	___flmul@temp+1,w
  6244  0196  3DC3               	addwfc	___flmul@grs+1,f
  6245  0197  3000               	movlw	0
  6246  0198  3DC4               	addwfc	___flmul@grs+2,f
  6247  0199  3DC5               	addwfc	___flmul@grs+3,f
  6248  019A                     l3629:
  6249  019A  0834               	movf	___flmul@b,w
  6250  019B  00BC               	movwf	??___flmul
  6251  019C  083C               	movf	??___flmul,w
  6252  019D  00A2               	movwf	__Umul8_16@multiplicand
  6253  019E  0839               	movf	___flmul@a+1,w
  6254  019F  318C  244C  3180   	fcall	__Umul8_16
  6255  01A2  0020               	movlb	0	; select bank0
  6256  01A3  0823               	movf	?__Umul8_16+1,w
  6257  01A4  00CD               	movwf	___flmul@temp+1
  6258  01A5  0822               	movf	?__Umul8_16,w
  6259  01A6  00CC               	movwf	___flmul@temp
  6260  01A7                     l3631:
  6261  01A7  084C               	movf	___flmul@temp,w
  6262  01A8  07C2               	addwf	___flmul@grs,f
  6263  01A9  084D               	movf	___flmul@temp+1,w
  6264  01AA  3DC3               	addwfc	___flmul@grs+1,f
  6265  01AB  3000               	movlw	0
  6266  01AC  3DC4               	addwfc	___flmul@grs+2,f
  6267  01AD  3DC5               	addwfc	___flmul@grs+3,f
  6268  01AE                     l3633:
  6269  01AE  3008               	movlw	8
  6270  01AF                     u2835:
  6271  01AF  35C2               	lslf	___flmul@grs,f
  6272  01B0  0DC3               	rlf	___flmul@grs+1,f
  6273  01B1  0DC4               	rlf	___flmul@grs+2,f
  6274  01B2  0DC5               	rlf	___flmul@grs+3,f
  6275  01B3  0B89               	decfsz	9,f
  6276  01B4  29AF               	goto	u2835
  6277  01B5  0834               	movf	___flmul@b,w
  6278  01B6  00BC               	movwf	??___flmul
  6279  01B7  083C               	movf	??___flmul,w
  6280  01B8  00A2               	movwf	__Umul8_16@multiplicand
  6281  01B9  0838               	movf	___flmul@a,w
  6282  01BA  318C  244C  3180   	fcall	__Umul8_16
  6283  01BD  0020               	movlb	0	; select bank0
  6284  01BE  0823               	movf	?__Umul8_16+1,w
  6285  01BF  00CD               	movwf	___flmul@temp+1
  6286  01C0  0822               	movf	?__Umul8_16,w
  6287  01C1  00CC               	movwf	___flmul@temp
  6288  01C2                     l3635:
  6289  01C2  084C               	movf	___flmul@temp,w
  6290  01C3  07C2               	addwf	___flmul@grs,f
  6291  01C4  084D               	movf	___flmul@temp+1,w
  6292  01C5  3DC3               	addwfc	___flmul@grs+1,f
  6293  01C6  3000               	movlw	0
  6294  01C7  3DC4               	addwfc	___flmul@grs+2,f
  6295  01C8  3DC5               	addwfc	___flmul@grs+3,f
  6296  01C9                     l3637:
  6297  01C9  0835               	movf	___flmul@b+1,w
  6298  01CA  00BC               	movwf	??___flmul
  6299  01CB  083C               	movf	??___flmul,w
  6300  01CC  00A2               	movwf	__Umul8_16@multiplicand
  6301  01CD  083A               	movf	___flmul@a+2,w
  6302  01CE  318C  244C  3180   	fcall	__Umul8_16
  6303  01D1  0020               	movlb	0	; select bank0
  6304  01D2  0823               	movf	?__Umul8_16+1,w
  6305  01D3  00CD               	movwf	___flmul@temp+1
  6306  01D4  0822               	movf	?__Umul8_16,w
  6307  01D5  00CC               	movwf	___flmul@temp
  6308  01D6  084C               	movf	___flmul@temp,w
  6309  01D7  07C8               	addwf	___flmul@prod,f
  6310  01D8  084D               	movf	___flmul@temp+1,w
  6311  01D9  3DC9               	addwfc	___flmul@prod+1,f
  6312  01DA  3000               	movlw	0
  6313  01DB  3DCA               	addwfc	___flmul@prod+2,f
  6314  01DC  3DCB               	addwfc	___flmul@prod+3,f
  6315  01DD                     l3639:
  6316  01DD  0836               	movf	___flmul@b+2,w
  6317  01DE  00BC               	movwf	??___flmul
  6318  01DF  083C               	movf	??___flmul,w
  6319  01E0  00A2               	movwf	__Umul8_16@multiplicand
  6320  01E1  0839               	movf	___flmul@a+1,w
  6321  01E2  318C  244C  3180   	fcall	__Umul8_16
  6322  01E5  0020               	movlb	0	; select bank0
  6323  01E6  0823               	movf	?__Umul8_16+1,w
  6324  01E7  00CD               	movwf	___flmul@temp+1
  6325  01E8  0822               	movf	?__Umul8_16,w
  6326  01E9  00CC               	movwf	___flmul@temp
  6327  01EA                     l3641:
  6328  01EA  084C               	movf	___flmul@temp,w
  6329  01EB  07C8               	addwf	___flmul@prod,f
  6330  01EC  084D               	movf	___flmul@temp+1,w
  6331  01ED  3DC9               	addwfc	___flmul@prod+1,f
  6332  01EE  3000               	movlw	0
  6333  01EF  3DCA               	addwfc	___flmul@prod+2,f
  6334  01F0  3DCB               	addwfc	___flmul@prod+3,f
  6335  01F1  0836               	movf	___flmul@b+2,w
  6336  01F2  00BC               	movwf	??___flmul
  6337  01F3  083C               	movf	??___flmul,w
  6338  01F4  00A2               	movwf	__Umul8_16@multiplicand
  6339  01F5  083A               	movf	___flmul@a+2,w
  6340  01F6  318C  244C  3180   	fcall	__Umul8_16
  6341  01F9  0020               	movlb	0	; select bank0
  6342  01FA  0823               	movf	?__Umul8_16+1,w
  6343  01FB  00CD               	movwf	___flmul@temp+1
  6344  01FC  0822               	movf	?__Umul8_16,w
  6345  01FD  00CC               	movwf	___flmul@temp
  6346  01FE                     l3643:
  6347  01FE  084C               	movf	___flmul@temp,w
  6348  01FF  00BC               	movwf	??___flmul
  6349  0200  084D               	movf	___flmul@temp+1,w
  6350  0201  00BD               	movwf	??___flmul+1
  6351  0202  01BE               	clrf	??___flmul+2
  6352  0203  01BF               	clrf	??___flmul+3
  6353  0204  3008               	movlw	8
  6354  0205                     u2845:
  6355  0205  35BC               	lslf	??___flmul,f
  6356  0206  0DBD               	rlf	??___flmul+1,f
  6357  0207  0DBE               	rlf	??___flmul+2,f
  6358  0208  0DBF               	rlf	??___flmul+3,f
  6359  0209                     u2840:
  6360  0209  0B89               	decfsz	9,f
  6361  020A  2A05               	goto	u2845
  6362  020B  083C               	movf	??___flmul,w
  6363  020C  07C8               	addwf	___flmul@prod,f
  6364  020D  083D               	movf	??___flmul+1,w
  6365  020E  3DC9               	addwfc	___flmul@prod+1,f
  6366  020F  083E               	movf	??___flmul+2,w
  6367  0210  3DCA               	addwfc	___flmul@prod+2,f
  6368  0211  083F               	movf	??___flmul+3,w
  6369  0212  3DCB               	addwfc	___flmul@prod+3,f
  6370  0213                     l3645:
  6371  0213  0842               	movf	___flmul@grs,w
  6372  0214  00BC               	movwf	??___flmul
  6373  0215  0843               	movf	___flmul@grs+1,w
  6374  0216  00BD               	movwf	??___flmul+1
  6375  0217  0844               	movf	___flmul@grs+2,w
  6376  0218  00BE               	movwf	??___flmul+2
  6377  0219  0845               	movf	___flmul@grs+3,w
  6378  021A  00BF               	movwf	??___flmul+3
  6379  021B  3018               	movlw	24
  6380  021C                     u2855:
  6381  021C  36BF               	lsrf	??___flmul+3,f
  6382  021D  0CBE               	rrf	??___flmul+2,f
  6383  021E  0CBD               	rrf	??___flmul+1,f
  6384  021F  0CBC               	rrf	??___flmul,f
  6385  0220                     u2850:
  6386  0220  0B89               	decfsz	9,f
  6387  0221  2A1C               	goto	u2855
  6388  0222  083C               	movf	??___flmul,w
  6389  0223  07C8               	addwf	___flmul@prod,f
  6390  0224  083D               	movf	??___flmul+1,w
  6391  0225  3DC9               	addwfc	___flmul@prod+1,f
  6392  0226  083E               	movf	??___flmul+2,w
  6393  0227  3DCA               	addwfc	___flmul@prod+2,f
  6394  0228  083F               	movf	??___flmul+3,w
  6395  0229  3DCB               	addwfc	___flmul@prod+3,f
  6396  022A                     l3647:
  6397  022A  3008               	movlw	8
  6398  022B                     u2865:
  6399  022B  35C2               	lslf	___flmul@grs,f
  6400  022C  0DC3               	rlf	___flmul@grs+1,f
  6401  022D  0DC4               	rlf	___flmul@grs+2,f
  6402  022E  0DC5               	rlf	___flmul@grs+3,f
  6403  022F  0B89               	decfsz	9,f
  6404  0230  2A2B               	goto	u2865
  6405  0231                     l3649:
  6406  0231  0847               	movf	___flmul@bexp,w
  6407  0232  0746               	addwf	___flmul@aexp,w
  6408  0233  00BC               	movwf	??___flmul
  6409  0234  01BD               	clrf	??___flmul+1
  6410  0235  0DBD               	rlf	??___flmul+1,f
  6411  0236  083C               	movf	??___flmul,w
  6412  0237  3E82               	addlw	130
  6413  0238  00CC               	movwf	___flmul@temp
  6414  0239  30FF               	movlw	255
  6415  023A  3D3D               	addwfc	??___flmul+1,w
  6416  023B  00CD               	movwf	___flmul@temp+1
  6417  023C  2A54               	goto	l3661
  6418  023D                     l3651:
  6419  023D  3001               	movlw	1
  6420  023E                     u2875:
  6421  023E  35C8               	lslf	___flmul@prod,f
  6422  023F  0DC9               	rlf	___flmul@prod+1,f
  6423  0240  0DCA               	rlf	___flmul@prod+2,f
  6424  0241  0DCB               	rlf	___flmul@prod+3,f
  6425  0242  0B89               	decfsz	9,f
  6426  0243  2A3E               	goto	u2875
  6427  0244                     l3653:
  6428  0244  1FC5               	btfss	___flmul@grs+3,7
  6429  0245  2A47               	goto	u2881
  6430  0246  2A48               	goto	u2880
  6431  0247                     u2881:
  6432  0247  2A49               	goto	l3657
  6433  0248                     u2880:
  6434  0248                     l3655:
  6435  0248  1448               	bsf	___flmul@prod,0
  6436  0249                     l3657:
  6437  0249  3001               	movlw	1
  6438  024A                     u2895:
  6439  024A  35C2               	lslf	___flmul@grs,f
  6440  024B  0DC3               	rlf	___flmul@grs+1,f
  6441  024C  0DC4               	rlf	___flmul@grs+2,f
  6442  024D  0DC5               	rlf	___flmul@grs+3,f
  6443  024E  0B89               	decfsz	9,f
  6444  024F  2A4A               	goto	u2895
  6445  0250                     l3659:
  6446  0250  30FF               	movlw	255
  6447  0251  07CC               	addwf	___flmul@temp,f
  6448  0252  30FF               	movlw	255
  6449  0253  3DCD               	addwfc	___flmul@temp+1,f
  6450  0254                     l3661:
  6451  0254  1FCA               	btfss	___flmul@prod+2,7
  6452  0255  2A57               	goto	u2901
  6453  0256  2A58               	goto	u2900
  6454  0257                     u2901:
  6455  0257  2A3D               	goto	l3651
  6456  0258                     u2900:
  6457  0258                     l3663:
  6458  0258  01C6               	clrf	___flmul@aexp
  6459  0259                     l3665:
  6460  0259  1FC5               	btfss	___flmul@grs+3,7
  6461  025A  2A5C               	goto	u2911
  6462  025B  2A5D               	goto	u2910
  6463  025C                     u2911:
  6464  025C  2A79               	goto	l3673
  6465  025D                     u2910:
  6466  025D                     l3667:
  6467  025D  30FF               	movlw	255
  6468  025E  0542               	andwf	___flmul@grs,w
  6469  025F  00BC               	movwf	??___flmul
  6470  0260  30FF               	movlw	255
  6471  0261  0543               	andwf	___flmul@grs+1,w
  6472  0262  00BD               	movwf	??___flmul+1
  6473  0263  30FF               	movlw	255
  6474  0264  0544               	andwf	___flmul@grs+2,w
  6475  0265  00BE               	movwf	??___flmul+2
  6476  0266  307F               	movlw	127
  6477  0267  0545               	andwf	___flmul@grs+3,w
  6478  0268  00BF               	movwf	??___flmul+3
  6479  0269  083F               	movf	??___flmul+3,w
  6480  026A  043E               	iorwf	??___flmul+2,w
  6481  026B  043D               	iorwf	??___flmul+1,w
  6482  026C  043C               	iorwf	??___flmul,w
  6483  026D  1903               	skipnz
  6484  026E  2A70               	goto	u2921
  6485  026F  2A71               	goto	u2920
  6486  0270                     u2921:
  6487  0270  2A74               	goto	l1436
  6488  0271                     u2920:
  6489  0271                     l3669:
  6490  0271  01C6               	clrf	___flmul@aexp
  6491  0272  0AC6               	incf	___flmul@aexp,f
  6492  0273  2A79               	goto	l3673
  6493  0274                     l1436:
  6494  0274  1C48               	btfss	___flmul@prod,0
  6495  0275  2A77               	goto	u2931
  6496  0276  2A78               	goto	u2930
  6497  0277                     u2931:
  6498  0277  2A79               	goto	l3673
  6499  0278                     u2930:
  6500  0278  2A71               	goto	l3669
  6501  0279                     l3673:
  6502  0279  0846               	movf	___flmul@aexp,w
  6503  027A  1903               	btfsc	3,2
  6504  027B  2A7D               	goto	u2941
  6505  027C  2A7E               	goto	u2940
  6506  027D                     u2941:
  6507  027D  2AA6               	goto	l3683
  6508  027E                     u2940:
  6509  027E                     l3675:
  6510  027E  3001               	movlw	1
  6511  027F  07C8               	addwf	___flmul@prod,f
  6512  0280  3000               	movlw	0
  6513  0281  3DC9               	addwfc	___flmul@prod+1,f
  6514  0282  3000               	movlw	0
  6515  0283  3DCA               	addwfc	___flmul@prod+2,f
  6516  0284  3000               	movlw	0
  6517  0285  3DCB               	addwfc	___flmul@prod+3,f
  6518  0286                     l3677:
  6519  0286  1C4B               	btfss	___flmul@prod+3,0
  6520  0287  2A89               	goto	u2951
  6521  0288  2A8A               	goto	u2950
  6522  0289                     u2951:
  6523  0289  2AA6               	goto	l3683
  6524  028A                     u2950:
  6525  028A                     l3679:
  6526  028A  0848               	movf	___flmul@prod,w
  6527  028B  00BC               	movwf	??___flmul
  6528  028C  0849               	movf	___flmul@prod+1,w
  6529  028D  00BD               	movwf	??___flmul+1
  6530  028E  084A               	movf	___flmul@prod+2,w
  6531  028F  00BE               	movwf	??___flmul+2
  6532  0290  084B               	movf	___flmul@prod+3,w
  6533  0291  00BF               	movwf	??___flmul+3
  6534  0292  3001               	movlw	1
  6535  0293  00C0               	movwf	??___flmul+4
  6536  0294                     u2965:
  6537  0294  37BF               	asrf	??___flmul+3,f
  6538  0295  0CBE               	rrf	??___flmul+2,f
  6539  0296  0CBD               	rrf	??___flmul+1,f
  6540  0297  0CBC               	rrf	??___flmul,f
  6541  0298                     u2960:
  6542  0298  0BC0               	decfsz	??___flmul+4,f
  6543  0299  2A94               	goto	u2965
  6544  029A  083F               	movf	??___flmul+3,w
  6545  029B  00CB               	movwf	___flmul@prod+3
  6546  029C  083E               	movf	??___flmul+2,w
  6547  029D  00CA               	movwf	___flmul@prod+2
  6548  029E  083D               	movf	??___flmul+1,w
  6549  029F  00C9               	movwf	___flmul@prod+1
  6550  02A0  083C               	movf	??___flmul,w
  6551  02A1  00C8               	movwf	___flmul@prod
  6552  02A2                     l3681:
  6553  02A2  3001               	movlw	1
  6554  02A3  07CC               	addwf	___flmul@temp,f
  6555  02A4  3000               	movlw	0
  6556  02A5  3DCD               	addwfc	___flmul@temp+1,f
  6557  02A6                     l3683:
  6558  02A6  084D               	movf	___flmul@temp+1,w
  6559  02A7  3A80               	xorlw	128
  6560  02A8  00BC               	movwf	??___flmul
  6561  02A9  3080               	movlw	128
  6562  02AA  023C               	subwf	??___flmul,w
  6563  02AB  1D03               	skipz
  6564  02AC  2AAF               	goto	u2975
  6565  02AD  30FF               	movlw	255
  6566  02AE  024C               	subwf	___flmul@temp,w
  6567  02AF                     u2975:
  6568  02AF  1C03               	skipc
  6569  02B0  2AB2               	goto	u2971
  6570  02B1  2AB3               	goto	u2970
  6571  02B2                     u2971:
  6572  02B2  2ABD               	goto	l3687
  6573  02B3                     u2970:
  6574  02B3                     l3685:
  6575  02B3  307F               	movlw	127
  6576  02B4  0020               	movlb	0	; select bank0
  6577  02B5  00CB               	movwf	___flmul@prod+3
  6578  02B6  3080               	movlw	128
  6579  02B7  00CA               	movwf	___flmul@prod+2
  6580  02B8  3000               	movlw	0
  6581  02B9  00C9               	movwf	___flmul@prod+1
  6582  02BA  3000               	movlw	0
  6583  02BB  00C8               	movwf	___flmul@prod
  6584  02BC  2AEC               	goto	l1442
  6585  02BD                     l3687:
  6586  02BD  0020               	movlb	0	; select bank0
  6587  02BE  084D               	movf	___flmul@temp+1,w
  6588  02BF  3A80               	xorlw	128
  6589  02C0  00BC               	movwf	??___flmul
  6590  02C1  3080               	movlw	128
  6591  02C2  023C               	subwf	??___flmul,w
  6592  02C3  1D03               	skipz
  6593  02C4  2AC7               	goto	u2985
  6594  02C5  3001               	movlw	1
  6595  02C6  024C               	subwf	___flmul@temp,w
  6596  02C7                     u2985:
  6597  02C7  1803               	skipnc
  6598  02C8  2ACA               	goto	u2981
  6599  02C9  2ACB               	goto	u2980
  6600  02CA                     u2981:
  6601  02CA  2AD6               	goto	l3693
  6602  02CB                     u2980:
  6603  02CB                     l3689:
  6604  02CB  3000               	movlw	0
  6605  02CC  0020               	movlb	0	; select bank0
  6606  02CD  00CB               	movwf	___flmul@prod+3
  6607  02CE  3000               	movlw	0
  6608  02CF  00CA               	movwf	___flmul@prod+2
  6609  02D0  3000               	movlw	0
  6610  02D1  00C9               	movwf	___flmul@prod+1
  6611  02D2  3000               	movlw	0
  6612  02D3  00C8               	movwf	___flmul@prod
  6613  02D4                     l3691:
  6614  02D4  01C1               	clrf	___flmul@sign
  6615  02D5  2AEC               	goto	l1442
  6616  02D6                     l3693:
  6617  02D6  0020               	movlb	0	; select bank0
  6618  02D7  084C               	movf	___flmul@temp,w
  6619  02D8  00BC               	movwf	??___flmul
  6620  02D9  083C               	movf	??___flmul,w
  6621  02DA  00C7               	movwf	___flmul@bexp
  6622  02DB  30FF               	movlw	255
  6623  02DC  05C8               	andwf	___flmul@prod,f
  6624  02DD  30FF               	movlw	255
  6625  02DE  05C9               	andwf	___flmul@prod+1,f
  6626  02DF  307F               	movlw	127
  6627  02E0  05CA               	andwf	___flmul@prod+2,f
  6628  02E1  3000               	movlw	0
  6629  02E2  05CB               	andwf	___flmul@prod+3,f
  6630  02E3                     l3695:
  6631  02E3  1C47               	btfss	___flmul@bexp,0
  6632  02E4  2AE6               	goto	u2991
  6633  02E5  2AE7               	goto	u2990
  6634  02E6                     u2991:
  6635  02E6  2AE8               	goto	l3699
  6636  02E7                     u2990:
  6637  02E7                     l3697:
  6638  02E7  17CA               	bsf	___flmul@prod+2,7
  6639  02E8                     l3699:
  6640  02E8  3647               	lsrf	___flmul@bexp,w
  6641  02E9  00BC               	movwf	??___flmul
  6642  02EA  083C               	movf	??___flmul,w
  6643  02EB  00CB               	movwf	___flmul@prod+3
  6644  02EC                     l1442:
  6645  02EC  0841               	movf	___flmul@sign,w
  6646  02ED  00BC               	movwf	??___flmul
  6647  02EE  083C               	movf	??___flmul,w
  6648  02EF  04CB               	iorwf	___flmul@prod+3,f
  6649  02F0                     l3701:
  6650  02F0  084B               	movf	___flmul@prod+3,w
  6651  02F1  00B7               	movwf	?___flmul+3
  6652  02F2  084A               	movf	___flmul@prod+2,w
  6653  02F3  00B6               	movwf	?___flmul+2
  6654  02F4  0849               	movf	___flmul@prod+1,w
  6655  02F5  00B5               	movwf	?___flmul+1
  6656  02F6  0848               	movf	___flmul@prod,w
  6657  02F7  00B4               	movwf	?___flmul
  6658  02F8                     l1430:
  6659  02F8  0008               	return
  6660  02F9                     __end_of___flmul:
  6661                           
  6662                           	psect	text12
  6663  0C4C                     __ptext12:	
  6664 ;; *************** function __Umul8_16 *****************
  6665 ;; Defined at:
  6666 ;;		line 4 in file "C:\Program Files\Microchip\xc8\v2.32\pic\sources\c99\common\Umul8_16.c"
  6667 ;; Parameters:    Size  Location     Type
  6668 ;;  multiplier      1    wreg     unsigned char 
  6669 ;;  multiplicand    1    2[BANK0 ] unsigned char 
  6670 ;; Auto vars:     Size  Location     Type
  6671 ;;  multiplier      1   10[BANK0 ] unsigned char 
  6672 ;;  word_mpld       2    8[BANK0 ] unsigned int 
  6673 ;;  product         2    6[BANK0 ] unsigned int 
  6674 ;; Return value:  Size  Location     Type
  6675 ;;                  2    2[BANK0 ] unsigned int 
  6676 ;; Registers used:
  6677 ;;		wreg, status,2, status,0
  6678 ;; Tracked objects:
  6679 ;;		On entry : 0/0
  6680 ;;		On exit  : 0/0
  6681 ;;		Unchanged: 0/0
  6682 ;; Data sizes:     COMMON   BANK0   BANK1   BANK2   BANK3   BANK4
  6683 ;;      Params:         0       2       0       0       0       0
  6684 ;;      Locals:         0       5       0       0       0       0
  6685 ;;      Temps:          0       2       0       0       0       0
  6686 ;;      Totals:         0       9       0       0       0       0
  6687 ;;Total ram usage:        9 bytes
  6688 ;; Hardware stack levels used: 1
  6689 ;; Hardware stack levels required when called: 6
  6690 ;; This function calls:
  6691 ;;		Nothing
  6692 ;; This function is called by:
  6693 ;;		___flmul
  6694 ;; This function uses a non-reentrant model
  6695 ;;
  6696                           
  6697                           
  6698                           ;psect for function __Umul8_16
  6699  0C4C                     __Umul8_16:
  6700                           
  6701                           ;incstack = 0
  6702                           ; Regs used in __Umul8_16: [wreg+status,2+status,0]
  6703                           ;__Umul8_16@multiplier stored from wreg
  6704  0C4C  0020               	movlb	0	; select bank0
  6705  0C4D  00AA               	movwf	__Umul8_16@multiplier
  6706  0C4E                     l3193:
  6707  0C4E  01A6               	clrf	__Umul8_16@product
  6708  0C4F  01A7               	clrf	__Umul8_16@product+1
  6709  0C50                     l3195:
  6710  0C50  0822               	movf	__Umul8_16@multiplicand,w
  6711  0C51  00A4               	movwf	??__Umul8_16
  6712  0C52  01A5               	clrf	??__Umul8_16+1
  6713  0C53  0824               	movf	??__Umul8_16,w
  6714  0C54  00A8               	movwf	__Umul8_16@word_mpld
  6715  0C55  0825               	movf	??__Umul8_16+1,w
  6716  0C56  00A9               	movwf	__Umul8_16@word_mpld+1
  6717  0C57                     l3197:
  6718  0C57  1C2A               	btfss	__Umul8_16@multiplier,0
  6719  0C58  2C5A               	goto	u2091
  6720  0C59  2C5B               	goto	u2090
  6721  0C5A                     u2091:
  6722  0C5A  2C5F               	goto	l1449
  6723  0C5B                     u2090:
  6724  0C5B                     l3199:
  6725  0C5B  0828               	movf	__Umul8_16@word_mpld,w
  6726  0C5C  07A6               	addwf	__Umul8_16@product,f
  6727  0C5D  0829               	movf	__Umul8_16@word_mpld+1,w
  6728  0C5E  3DA7               	addwfc	__Umul8_16@product+1,f
  6729  0C5F                     l1449:
  6730  0C5F  3001               	movlw	1
  6731  0C60                     u2105:
  6732  0C60  35A8               	lslf	__Umul8_16@word_mpld,f
  6733  0C61  0DA9               	rlf	__Umul8_16@word_mpld+1,f
  6734  0C62  0B89               	decfsz	9,f
  6735  0C63  2C60               	goto	u2105
  6736  0C64  1003               	clrc
  6737  0C65  0CAA               	rrf	__Umul8_16@multiplier,f
  6738  0C66                     l3201:
  6739  0C66  082A               	movf	__Umul8_16@multiplier,w
  6740  0C67  1D03               	btfss	3,2
  6741  0C68  2C6A               	goto	u2111
  6742  0C69  2C6B               	goto	u2110
  6743  0C6A                     u2111:
  6744  0C6A  2C57               	goto	l3197
  6745  0C6B                     u2110:
  6746  0C6B                     l3203:
  6747  0C6B  0827               	movf	__Umul8_16@product+1,w
  6748  0C6C  00A3               	movwf	?__Umul8_16+1
  6749  0C6D  0826               	movf	__Umul8_16@product,w
  6750  0C6E  00A2               	movwf	?__Umul8_16
  6751  0C6F                     l1451:
  6752  0C6F  0008               	return
  6753  0C70                     __end_of__Umul8_16:
  6754                           
  6755                           	psect	text13
  6756  02F9                     __ptext13:	
  6757 ;; *************** function ___fldiv *****************
  6758 ;; Defined at:
  6759 ;;		line 8 in file "C:\Program Files\Microchip\xc8\v2.32\pic\sources\c99\common\sprcdiv.c"
  6760 ;; Parameters:    Size  Location     Type
  6761 ;;  a               4   46[BANK0 ] unsigned int 
  6762 ;;  b               4   50[BANK0 ] unsigned int 
  6763 ;; Auto vars:     Size  Location     Type
  6764 ;;  grs             4   66[BANK0 ] unsigned long 
  6765 ;;  rem             4   59[BANK0 ] unsigned long 
  6766 ;;  new_exp         2   64[BANK0 ] int 
  6767 ;;  aexp            1   71[BANK0 ] unsigned char 
  6768 ;;  bexp            1   70[BANK0 ] unsigned char 
  6769 ;;  sign            1   63[BANK0 ] unsigned char 
  6770 ;; Return value:  Size  Location     Type
  6771 ;;                  4   46[BANK0 ] unsigned char 
  6772 ;; Registers used:
  6773 ;;		wreg, status,2, status,0
  6774 ;; Tracked objects:
  6775 ;;		On entry : 0/0
  6776 ;;		On exit  : 0/0
  6777 ;;		Unchanged: 0/0
  6778 ;; Data sizes:     COMMON   BANK0   BANK1   BANK2   BANK3   BANK4
  6779 ;;      Params:         0       8       0       0       0       0
  6780 ;;      Locals:         0      13       0       0       0       0
  6781 ;;      Temps:          0       5       0       0       0       0
  6782 ;;      Totals:         0      26       0       0       0       0
  6783 ;;Total ram usage:       26 bytes
  6784 ;; Hardware stack levels used: 1
  6785 ;; Hardware stack levels required when called: 6
  6786 ;; This function calls:
  6787 ;;		Nothing
  6788 ;; This function is called by:
  6789 ;;		_main
  6790 ;; This function uses a non-reentrant model
  6791 ;;
  6792                           
  6793                           
  6794                           ;psect for function ___fldiv
  6795  02F9                     ___fldiv:
  6796  02F9                     l3425:	
  6797                           ;incstack = 0
  6798                           ; Regs used in ___fldiv: [wreg+status,2+status,0]
  6799                           
  6800  02F9  0020               	movlb	0	; select bank0
  6801  02FA  0855               	movf	___fldiv@b+3,w
  6802  02FB  3980               	andlw	128
  6803  02FC  00D6               	movwf	??___fldiv
  6804  02FD  0856               	movf	??___fldiv,w
  6805  02FE  00DF               	movwf	___fldiv@sign
  6806  02FF                     l3427:
  6807  02FF  3555               	lslf	___fldiv@b+3,w
  6808  0300  00D6               	movwf	??___fldiv
  6809  0301  0856               	movf	??___fldiv,w
  6810  0302  00E6               	movwf	___fldiv@bexp
  6811  0303                     l3429:
  6812  0303  1FD4               	btfss	___fldiv@b+2,7
  6813  0304  2B06               	goto	u2451
  6814  0305  2B07               	goto	u2450
  6815  0306                     u2451:
  6816  0306  2B08               	goto	l3433
  6817  0307                     u2450:
  6818  0307                     l3431:
  6819  0307  1466               	bsf	___fldiv@bexp,0
  6820  0308                     l3433:
  6821  0308  0866               	movf	___fldiv@bexp,w
  6822  0309  1903               	btfsc	3,2
  6823  030A  2B0C               	goto	u2461
  6824  030B  2B0D               	goto	u2460
  6825  030C                     u2461:
  6826  030C  2B1D               	goto	l3443
  6827  030D                     u2460:
  6828  030D                     l3435:
  6829  030D  0A66               	incf	___fldiv@bexp,w
  6830  030E  1D03               	btfss	3,2
  6831  030F  2B11               	goto	u2471
  6832  0310  2B12               	goto	u2470
  6833  0311                     u2471:
  6834  0311  2B1A               	goto	l3439
  6835  0312                     u2470:
  6836  0312                     l3437:
  6837  0312  3000               	movlw	0
  6838  0313  00D5               	movwf	___fldiv@b+3
  6839  0314  3000               	movlw	0
  6840  0315  00D4               	movwf	___fldiv@b+2
  6841  0316  3000               	movlw	0
  6842  0317  00D3               	movwf	___fldiv@b+1
  6843  0318  3000               	movlw	0
  6844  0319  00D2               	movwf	___fldiv@b
  6845  031A                     l3439:
  6846  031A  17D4               	bsf	___fldiv@b+2,7
  6847  031B                     l3441:
  6848  031B  01D5               	clrf	___fldiv@b+3
  6849  031C  2B25               	goto	l3445
  6850  031D                     l3443:
  6851  031D  3000               	movlw	0
  6852  031E  00D5               	movwf	___fldiv@b+3
  6853  031F  3000               	movlw	0
  6854  0320  00D4               	movwf	___fldiv@b+2
  6855  0321  3000               	movlw	0
  6856  0322  00D3               	movwf	___fldiv@b+1
  6857  0323  3000               	movlw	0
  6858  0324  00D2               	movwf	___fldiv@b
  6859  0325                     l3445:
  6860  0325  0851               	movf	___fldiv@a+3,w
  6861  0326  3980               	andlw	128
  6862  0327  00D6               	movwf	??___fldiv
  6863  0328  0856               	movf	??___fldiv,w
  6864  0329  06DF               	xorwf	___fldiv@sign,f
  6865  032A                     l3447:
  6866  032A  3551               	lslf	___fldiv@a+3,w
  6867  032B  00D6               	movwf	??___fldiv
  6868  032C  0856               	movf	??___fldiv,w
  6869  032D  00E7               	movwf	___fldiv@aexp
  6870  032E                     l3449:
  6871  032E  1FD0               	btfss	___fldiv@a+2,7
  6872  032F  2B31               	goto	u2481
  6873  0330  2B32               	goto	u2480
  6874  0331                     u2481:
  6875  0331  2B33               	goto	l3453
  6876  0332                     u2480:
  6877  0332                     l3451:
  6878  0332  1467               	bsf	___fldiv@aexp,0
  6879  0333                     l3453:
  6880  0333  0867               	movf	___fldiv@aexp,w
  6881  0334  1903               	btfsc	3,2
  6882  0335  2B37               	goto	u2491
  6883  0336  2B38               	goto	u2490
  6884  0337                     u2491:
  6885  0337  2B48               	goto	l3463
  6886  0338                     u2490:
  6887  0338                     l3455:
  6888  0338  0A67               	incf	___fldiv@aexp,w
  6889  0339  1D03               	btfss	3,2
  6890  033A  2B3C               	goto	u2501
  6891  033B  2B3D               	goto	u2500
  6892  033C                     u2501:
  6893  033C  2B45               	goto	l3459
  6894  033D                     u2500:
  6895  033D                     l3457:
  6896  033D  3000               	movlw	0
  6897  033E  00D1               	movwf	___fldiv@a+3
  6898  033F  3000               	movlw	0
  6899  0340  00D0               	movwf	___fldiv@a+2
  6900  0341  3000               	movlw	0
  6901  0342  00CF               	movwf	___fldiv@a+1
  6902  0343  3000               	movlw	0
  6903  0344  00CE               	movwf	___fldiv@a
  6904  0345                     l3459:
  6905  0345  17D0               	bsf	___fldiv@a+2,7
  6906  0346                     l3461:
  6907  0346  01D1               	clrf	___fldiv@a+3
  6908  0347  2B50               	goto	l1390
  6909  0348                     l3463:
  6910  0348  3000               	movlw	0
  6911  0349  00D1               	movwf	___fldiv@a+3
  6912  034A  3000               	movlw	0
  6913  034B  00D0               	movwf	___fldiv@a+2
  6914  034C  3000               	movlw	0
  6915  034D  00CF               	movwf	___fldiv@a+1
  6916  034E  3000               	movlw	0
  6917  034F  00CE               	movwf	___fldiv@a
  6918  0350                     l1390:
  6919  0350  0851               	movf	___fldiv@a+3,w
  6920  0351  0450               	iorwf	___fldiv@a+2,w
  6921  0352  044F               	iorwf	___fldiv@a+1,w
  6922  0353  044E               	iorwf	___fldiv@a,w
  6923  0354  1D03               	skipz
  6924  0355  2B57               	goto	u2511
  6925  0356  2B58               	goto	u2510
  6926  0357                     u2511:
  6927  0357  2B71               	goto	l3473
  6928  0358                     u2510:
  6929  0358                     l3465:
  6930  0358  3000               	movlw	0
  6931  0359  00D5               	movwf	___fldiv@b+3
  6932  035A  3000               	movlw	0
  6933  035B  00D4               	movwf	___fldiv@b+2
  6934  035C  3000               	movlw	0
  6935  035D  00D3               	movwf	___fldiv@b+1
  6936  035E  3000               	movlw	0
  6937  035F  00D2               	movwf	___fldiv@b
  6938  0360  3080               	movlw	128
  6939  0361  04D4               	iorwf	___fldiv@b+2,f
  6940  0362  307F               	movlw	127
  6941  0363  04D5               	iorwf	___fldiv@b+3,f
  6942  0364                     l3467:
  6943  0364  085F               	movf	___fldiv@sign,w
  6944  0365  00D6               	movwf	??___fldiv
  6945  0366  0856               	movf	??___fldiv,w
  6946  0367  04D5               	iorwf	___fldiv@b+3,f
  6947  0368                     l3469:
  6948  0368  0855               	movf	___fldiv@b+3,w
  6949  0369  00D1               	movwf	?___fldiv+3
  6950  036A  0854               	movf	___fldiv@b+2,w
  6951  036B  00D0               	movwf	?___fldiv+2
  6952  036C  0853               	movf	___fldiv@b+1,w
  6953  036D  00CF               	movwf	?___fldiv+1
  6954  036E  0852               	movf	___fldiv@b,w
  6955  036F  00CE               	movwf	?___fldiv
  6956  0370  2CAC               	goto	l1392
  6957  0371                     l3473:
  6958  0371  0866               	movf	___fldiv@bexp,w
  6959  0372  1D03               	btfss	3,2
  6960  0373  2B75               	goto	u2521
  6961  0374  2B76               	goto	u2520
  6962  0375                     u2521:
  6963  0375  2B7F               	goto	l3479
  6964  0376                     u2520:
  6965  0376                     l3475:
  6966  0376  3000               	movlw	0
  6967  0377  00D1               	movwf	?___fldiv+3
  6968  0378  3000               	movlw	0
  6969  0379  00D0               	movwf	?___fldiv+2
  6970  037A  3000               	movlw	0
  6971  037B  00CF               	movwf	?___fldiv+1
  6972  037C  3000               	movlw	0
  6973  037D  00CE               	movwf	?___fldiv
  6974  037E  2CAC               	goto	l1392
  6975  037F                     l3479:
  6976  037F  0866               	movf	___fldiv@bexp,w
  6977  0380  00D6               	movwf	??___fldiv
  6978  0381  01D7               	clrf	??___fldiv+1
  6979  0382  0857               	movf	??___fldiv+1,w
  6980  0383  00D9               	movwf	??___fldiv+3
  6981  0384  0867               	movf	___fldiv@aexp,w
  6982  0385  0256               	subwf	??___fldiv,w
  6983  0386  00D8               	movwf	??___fldiv+2
  6984  0387  1C03               	skipc
  6985  0388  03D9               	decf	??___fldiv+3,f
  6986  0389  0858               	movf	??___fldiv+2,w
  6987  038A  3E7F               	addlw	127
  6988  038B  00E0               	movwf	___fldiv@new_exp
  6989  038C  3000               	movlw	0
  6990  038D  3D59               	addwfc	??___fldiv+3,w
  6991  038E  00E1               	movwf	___fldiv@new_exp+1
  6992  038F                     l3481:
  6993  038F  0855               	movf	___fldiv@b+3,w
  6994  0390  00DE               	movwf	___fldiv@rem+3
  6995  0391  0854               	movf	___fldiv@b+2,w
  6996  0392  00DD               	movwf	___fldiv@rem+2
  6997  0393  0853               	movf	___fldiv@b+1,w
  6998  0394  00DC               	movwf	___fldiv@rem+1
  6999  0395  0852               	movf	___fldiv@b,w
  7000  0396  00DB               	movwf	___fldiv@rem
  7001  0397                     l3483:
  7002  0397  3000               	movlw	0
  7003  0398  00D5               	movwf	___fldiv@b+3
  7004  0399  3000               	movlw	0
  7005  039A  00D4               	movwf	___fldiv@b+2
  7006  039B  3000               	movlw	0
  7007  039C  00D3               	movwf	___fldiv@b+1
  7008  039D  3000               	movlw	0
  7009  039E  00D2               	movwf	___fldiv@b
  7010  039F                     l3485:
  7011  039F  3000               	movlw	0
  7012  03A0  00E5               	movwf	___fldiv@grs+3
  7013  03A1  3000               	movlw	0
  7014  03A2  00E4               	movwf	___fldiv@grs+2
  7015  03A3  3000               	movlw	0
  7016  03A4  00E3               	movwf	___fldiv@grs+1
  7017  03A5  3000               	movlw	0
  7018  03A6  00E2               	movwf	___fldiv@grs
  7019  03A7                     l3487:
  7020  03A7  01E7               	clrf	___fldiv@aexp
  7021  03A8  2BE7               	goto	l3507
  7022  03A9                     l3489:
  7023  03A9  0867               	movf	___fldiv@aexp,w
  7024  03AA  1903               	btfsc	3,2
  7025  03AB  2BAD               	goto	u2531
  7026  03AC  2BAE               	goto	u2530
  7027  03AD                     u2531:
  7028  03AD  2BC8               	goto	l3499
  7029  03AE                     u2530:
  7030  03AE                     l3491:
  7031  03AE  3001               	movlw	1
  7032  03AF                     u2545:
  7033  03AF  35DB               	lslf	___fldiv@rem,f
  7034  03B0  0DDC               	rlf	___fldiv@rem+1,f
  7035  03B1  0DDD               	rlf	___fldiv@rem+2,f
  7036  03B2  0DDE               	rlf	___fldiv@rem+3,f
  7037  03B3  0B89               	decfsz	9,f
  7038  03B4  2BAF               	goto	u2545
  7039  03B5  3001               	movlw	1
  7040  03B6                     u2555:
  7041  03B6  35D2               	lslf	___fldiv@b,f
  7042  03B7  0DD3               	rlf	___fldiv@b+1,f
  7043  03B8  0DD4               	rlf	___fldiv@b+2,f
  7044  03B9  0DD5               	rlf	___fldiv@b+3,f
  7045  03BA  0B89               	decfsz	9,f
  7046  03BB  2BB6               	goto	u2555
  7047  03BC                     l3493:
  7048  03BC  1FE5               	btfss	___fldiv@grs+3,7
  7049  03BD  2BBF               	goto	u2561
  7050  03BE  2BC0               	goto	u2560
  7051  03BF                     u2561:
  7052  03BF  2BC1               	goto	l3497
  7053  03C0                     u2560:
  7054  03C0                     l3495:
  7055  03C0  1452               	bsf	___fldiv@b,0
  7056  03C1                     l3497:
  7057  03C1  3001               	movlw	1
  7058  03C2                     u2575:
  7059  03C2  35E2               	lslf	___fldiv@grs,f
  7060  03C3  0DE3               	rlf	___fldiv@grs+1,f
  7061  03C4  0DE4               	rlf	___fldiv@grs+2,f
  7062  03C5  0DE5               	rlf	___fldiv@grs+3,f
  7063  03C6  0B89               	decfsz	9,f
  7064  03C7  2BC2               	goto	u2575
  7065  03C8                     l3499:
  7066  03C8  0851               	movf	___fldiv@a+3,w
  7067  03C9  025E               	subwf	___fldiv@rem+3,w
  7068  03CA  1D03               	skipz
  7069  03CB  2BD6               	goto	u2585
  7070  03CC  0850               	movf	___fldiv@a+2,w
  7071  03CD  025D               	subwf	___fldiv@rem+2,w
  7072  03CE  1D03               	skipz
  7073  03CF  2BD6               	goto	u2585
  7074  03D0  084F               	movf	___fldiv@a+1,w
  7075  03D1  025C               	subwf	___fldiv@rem+1,w
  7076  03D2  1D03               	skipz
  7077  03D3  2BD6               	goto	u2585
  7078  03D4  084E               	movf	___fldiv@a,w
  7079  03D5  025B               	subwf	___fldiv@rem,w
  7080  03D6                     u2585:
  7081  03D6  1C03               	skipc
  7082  03D7  2BD9               	goto	u2581
  7083  03D8  2BDA               	goto	u2580
  7084  03D9                     u2581:
  7085  03D9  2BE3               	goto	l3505
  7086  03DA                     u2580:
  7087  03DA                     l3501:
  7088  03DA  1765               	bsf	___fldiv@grs+3,6
  7089  03DB                     l3503:
  7090  03DB  084E               	movf	___fldiv@a,w
  7091  03DC  02DB               	subwf	___fldiv@rem,f
  7092  03DD  084F               	movf	___fldiv@a+1,w
  7093  03DE  3BDC               	subwfb	___fldiv@rem+1,f
  7094  03DF  0850               	movf	___fldiv@a+2,w
  7095  03E0  3BDD               	subwfb	___fldiv@rem+2,f
  7096  03E1  0851               	movf	___fldiv@a+3,w
  7097  03E2  3BDE               	subwfb	___fldiv@rem+3,f
  7098  03E3                     l3505:
  7099  03E3  3001               	movlw	1
  7100  03E4  00D6               	movwf	??___fldiv
  7101  03E5  0856               	movf	??___fldiv,w
  7102  03E6  07E7               	addwf	___fldiv@aexp,f
  7103  03E7                     l3507:
  7104  03E7  301A               	movlw	26
  7105  03E8  0267               	subwf	___fldiv@aexp,w
  7106  03E9  1C03               	skipc
  7107  03EA  2BEC               	goto	u2591
  7108  03EB  2BED               	goto	u2590
  7109  03EC                     u2591:
  7110  03EC  2BA9               	goto	l3489
  7111  03ED                     u2590:
  7112  03ED                     l3509:
  7113  03ED  085E               	movf	___fldiv@rem+3,w
  7114  03EE  045D               	iorwf	___fldiv@rem+2,w
  7115  03EF  045C               	iorwf	___fldiv@rem+1,w
  7116  03F0  045B               	iorwf	___fldiv@rem,w
  7117  03F1  1903               	skipnz
  7118  03F2  2BF4               	goto	u2601
  7119  03F3  2BF5               	goto	u2600
  7120  03F4                     u2601:
  7121  03F4  2C0E               	goto	l3523
  7122  03F5                     u2600:
  7123  03F5                     l3511:
  7124  03F5  1462               	bsf	___fldiv@grs,0
  7125  03F6  2C0E               	goto	l3523
  7126  03F7                     l3513:
  7127  03F7  3001               	movlw	1
  7128  03F8                     u2615:
  7129  03F8  35D2               	lslf	___fldiv@b,f
  7130  03F9  0DD3               	rlf	___fldiv@b+1,f
  7131  03FA  0DD4               	rlf	___fldiv@b+2,f
  7132  03FB  0DD5               	rlf	___fldiv@b+3,f
  7133  03FC  0B89               	decfsz	9,f
  7134  03FD  2BF8               	goto	u2615
  7135  03FE                     l3515:
  7136  03FE  1FE5               	btfss	___fldiv@grs+3,7
  7137  03FF  2C01               	goto	u2621
  7138  0400  2C02               	goto	u2620
  7139  0401                     u2621:
  7140  0401  2C03               	goto	l3519
  7141  0402                     u2620:
  7142  0402                     l3517:
  7143  0402  1452               	bsf	___fldiv@b,0
  7144  0403                     l3519:
  7145  0403  3001               	movlw	1
  7146  0404                     u2635:
  7147  0404  35E2               	lslf	___fldiv@grs,f
  7148  0405  0DE3               	rlf	___fldiv@grs+1,f
  7149  0406  0DE4               	rlf	___fldiv@grs+2,f
  7150  0407  0DE5               	rlf	___fldiv@grs+3,f
  7151  0408  0B89               	decfsz	9,f
  7152  0409  2C04               	goto	u2635
  7153  040A                     l3521:
  7154  040A  30FF               	movlw	255
  7155  040B  07E0               	addwf	___fldiv@new_exp,f
  7156  040C  30FF               	movlw	255
  7157  040D  3DE1               	addwfc	___fldiv@new_exp+1,f
  7158  040E                     l3523:
  7159  040E  1FD4               	btfss	___fldiv@b+2,7
  7160  040F  2C11               	goto	u2641
  7161  0410  2C12               	goto	u2640
  7162  0411                     u2641:
  7163  0411  2BF7               	goto	l3513
  7164  0412                     u2640:
  7165  0412                     l3525:
  7166  0412  01E7               	clrf	___fldiv@aexp
  7167  0413                     l3527:
  7168  0413  1FE5               	btfss	___fldiv@grs+3,7
  7169  0414  2C16               	goto	u2651
  7170  0415  2C17               	goto	u2650
  7171  0416                     u2651:
  7172  0416  2C33               	goto	l3535
  7173  0417                     u2650:
  7174  0417                     l3529:
  7175  0417  30FF               	movlw	255
  7176  0418  0562               	andwf	___fldiv@grs,w
  7177  0419  00D6               	movwf	??___fldiv
  7178  041A  30FF               	movlw	255
  7179  041B  0563               	andwf	___fldiv@grs+1,w
  7180  041C  00D7               	movwf	??___fldiv+1
  7181  041D  30FF               	movlw	255
  7182  041E  0564               	andwf	___fldiv@grs+2,w
  7183  041F  00D8               	movwf	??___fldiv+2
  7184  0420  307F               	movlw	127
  7185  0421  0565               	andwf	___fldiv@grs+3,w
  7186  0422  00D9               	movwf	??___fldiv+3
  7187  0423  0859               	movf	??___fldiv+3,w
  7188  0424  0458               	iorwf	??___fldiv+2,w
  7189  0425  0457               	iorwf	??___fldiv+1,w
  7190  0426  0456               	iorwf	??___fldiv,w
  7191  0427  1903               	skipnz
  7192  0428  2C2A               	goto	u2661
  7193  0429  2C2B               	goto	u2660
  7194  042A                     u2661:
  7195  042A  2C2E               	goto	l1406
  7196  042B                     u2660:
  7197  042B                     l3531:
  7198  042B  01E7               	clrf	___fldiv@aexp
  7199  042C  0AE7               	incf	___fldiv@aexp,f
  7200  042D  2C33               	goto	l3535
  7201  042E                     l1406:
  7202  042E  1C52               	btfss	___fldiv@b,0
  7203  042F  2C31               	goto	u2671
  7204  0430  2C32               	goto	u2670
  7205  0431                     u2671:
  7206  0431  2C33               	goto	l3535
  7207  0432                     u2670:
  7208  0432  2C2B               	goto	l3531
  7209  0433                     l3535:
  7210  0433  0867               	movf	___fldiv@aexp,w
  7211  0434  1903               	btfsc	3,2
  7212  0435  2C37               	goto	u2681
  7213  0436  2C38               	goto	u2680
  7214  0437                     u2681:
  7215  0437  2C60               	goto	l3545
  7216  0438                     u2680:
  7217  0438                     l3537:
  7218  0438  3001               	movlw	1
  7219  0439  07D2               	addwf	___fldiv@b,f
  7220  043A  3000               	movlw	0
  7221  043B  3DD3               	addwfc	___fldiv@b+1,f
  7222  043C  3000               	movlw	0
  7223  043D  3DD4               	addwfc	___fldiv@b+2,f
  7224  043E  3000               	movlw	0
  7225  043F  3DD5               	addwfc	___fldiv@b+3,f
  7226  0440                     l3539:
  7227  0440  1C55               	btfss	___fldiv@b+3,0
  7228  0441  2C43               	goto	u2691
  7229  0442  2C44               	goto	u2690
  7230  0443                     u2691:
  7231  0443  2C60               	goto	l3545
  7232  0444                     u2690:
  7233  0444                     l3541:
  7234  0444  0852               	movf	___fldiv@b,w
  7235  0445  00D6               	movwf	??___fldiv
  7236  0446  0853               	movf	___fldiv@b+1,w
  7237  0447  00D7               	movwf	??___fldiv+1
  7238  0448  0854               	movf	___fldiv@b+2,w
  7239  0449  00D8               	movwf	??___fldiv+2
  7240  044A  0855               	movf	___fldiv@b+3,w
  7241  044B  00D9               	movwf	??___fldiv+3
  7242  044C  3001               	movlw	1
  7243  044D  00DA               	movwf	??___fldiv+4
  7244  044E                     u2705:
  7245  044E  37D9               	asrf	??___fldiv+3,f
  7246  044F  0CD8               	rrf	??___fldiv+2,f
  7247  0450  0CD7               	rrf	??___fldiv+1,f
  7248  0451  0CD6               	rrf	??___fldiv,f
  7249  0452                     u2700:
  7250  0452  0BDA               	decfsz	??___fldiv+4,f
  7251  0453  2C4E               	goto	u2705
  7252  0454  0859               	movf	??___fldiv+3,w
  7253  0455  00D5               	movwf	___fldiv@b+3
  7254  0456  0858               	movf	??___fldiv+2,w
  7255  0457  00D4               	movwf	___fldiv@b+2
  7256  0458  0857               	movf	??___fldiv+1,w
  7257  0459  00D3               	movwf	___fldiv@b+1
  7258  045A  0856               	movf	??___fldiv,w
  7259  045B  00D2               	movwf	___fldiv@b
  7260  045C                     l3543:
  7261  045C  3001               	movlw	1
  7262  045D  07E0               	addwf	___fldiv@new_exp,f
  7263  045E  3000               	movlw	0
  7264  045F  3DE1               	addwfc	___fldiv@new_exp+1,f
  7265  0460                     l3545:
  7266  0460  0861               	movf	___fldiv@new_exp+1,w
  7267  0461  3A80               	xorlw	128
  7268  0462  00D6               	movwf	??___fldiv
  7269  0463  3080               	movlw	128
  7270  0464  0256               	subwf	??___fldiv,w
  7271  0465  1D03               	skipz
  7272  0466  2C69               	goto	u2715
  7273  0467  30FF               	movlw	255
  7274  0468  0260               	subwf	___fldiv@new_exp,w
  7275  0469                     u2715:
  7276  0469  1C03               	skipc
  7277  046A  2C6C               	goto	u2711
  7278  046B  2C6D               	goto	u2710
  7279  046C                     u2711:
  7280  046C  2C7A               	goto	l1411
  7281  046D                     u2710:
  7282  046D                     l3547:
  7283  046D  30FF               	movlw	255
  7284  046E  0020               	movlb	0	; select bank0
  7285  046F  00E0               	movwf	___fldiv@new_exp
  7286  0470  3000               	movlw	0
  7287  0471  00E1               	movwf	___fldiv@new_exp+1
  7288  0472  3000               	movlw	0
  7289  0473  00D5               	movwf	___fldiv@b+3
  7290  0474  3000               	movlw	0
  7291  0475  00D4               	movwf	___fldiv@b+2
  7292  0476  3000               	movlw	0
  7293  0477  00D3               	movwf	___fldiv@b+1
  7294  0478  3000               	movlw	0
  7295  0479  00D2               	movwf	___fldiv@b
  7296  047A                     l1411:
  7297  047A  0020               	movlb	0	; select bank0
  7298  047B  0861               	movf	___fldiv@new_exp+1,w
  7299  047C  3A80               	xorlw	128
  7300  047D  00D6               	movwf	??___fldiv
  7301  047E  3080               	movlw	128
  7302  047F  0256               	subwf	??___fldiv,w
  7303  0480  1D03               	skipz
  7304  0481  2C84               	goto	u2725
  7305  0482  3001               	movlw	1
  7306  0483  0260               	subwf	___fldiv@new_exp,w
  7307  0484                     u2725:
  7308  0484  1803               	skipnc
  7309  0485  2C87               	goto	u2721
  7310  0486  2C88               	goto	u2720
  7311  0487                     u2721:
  7312  0487  2C94               	goto	l1412
  7313  0488                     u2720:
  7314  0488                     l3549:
  7315  0488  0020               	movlb	0	; select bank0
  7316  0489  01E0               	clrf	___fldiv@new_exp
  7317  048A  01E1               	clrf	___fldiv@new_exp+1
  7318  048B                     l3551:
  7319  048B  3000               	movlw	0
  7320  048C  00D5               	movwf	___fldiv@b+3
  7321  048D  3000               	movlw	0
  7322  048E  00D4               	movwf	___fldiv@b+2
  7323  048F  3000               	movlw	0
  7324  0490  00D3               	movwf	___fldiv@b+1
  7325  0491  3000               	movlw	0
  7326  0492  00D2               	movwf	___fldiv@b
  7327  0493                     l3553:
  7328  0493  01DF               	clrf	___fldiv@sign
  7329  0494                     l1412:
  7330  0494  0020               	movlb	0	; select bank0
  7331  0495  0860               	movf	___fldiv@new_exp,w
  7332  0496  00D6               	movwf	??___fldiv
  7333  0497  0856               	movf	??___fldiv,w
  7334  0498  00E6               	movwf	___fldiv@bexp
  7335  0499                     l3555:
  7336  0499  1C66               	btfss	___fldiv@bexp,0
  7337  049A  2C9C               	goto	u2731
  7338  049B  2C9D               	goto	u2730
  7339  049C                     u2731:
  7340  049C  2C9F               	goto	l3559
  7341  049D                     u2730:
  7342  049D                     l3557:
  7343  049D  17D4               	bsf	___fldiv@b+2,7
  7344  049E  2CA3               	goto	l1414
  7345  049F                     l3559:
  7346  049F  307F               	movlw	127
  7347  04A0  00D6               	movwf	??___fldiv
  7348  04A1  0856               	movf	??___fldiv,w
  7349  04A2  05D4               	andwf	___fldiv@b+2,f
  7350  04A3                     l1414:
  7351  04A3  3666               	lsrf	___fldiv@bexp,w
  7352  04A4  00D6               	movwf	??___fldiv
  7353  04A5  0856               	movf	??___fldiv,w
  7354  04A6  00D5               	movwf	___fldiv@b+3
  7355  04A7  085F               	movf	___fldiv@sign,w
  7356  04A8  00D6               	movwf	??___fldiv
  7357  04A9  0856               	movf	??___fldiv,w
  7358  04AA  04D5               	iorwf	___fldiv@b+3,f
  7359  04AB  2B68               	goto	l3469
  7360  04AC                     l1392:
  7361  04AC  0008               	return
  7362  04AD                     __end_of___fldiv:
  7363                           
  7364                           	psect	text14
  7365  0CC5                     __ptext14:	
  7366 ;; *************** function _SYSTEM_Initialize *****************
  7367 ;; Defined at:
  7368 ;;		line 50 in file "mcc_generated_files/mcc.c"
  7369 ;; Parameters:    Size  Location     Type
  7370 ;;		None
  7371 ;; Auto vars:     Size  Location     Type
  7372 ;;		None
  7373 ;; Return value:  Size  Location     Type
  7374 ;;                  1    wreg      void 
  7375 ;; Registers used:
  7376 ;;		wreg, status,2, status,0, pclath, cstack
  7377 ;; Tracked objects:
  7378 ;;		On entry : 0/0
  7379 ;;		On exit  : 0/0
  7380 ;;		Unchanged: 0/0
  7381 ;; Data sizes:     COMMON   BANK0   BANK1   BANK2   BANK3   BANK4
  7382 ;;      Params:         0       0       0       0       0       0
  7383 ;;      Locals:         0       0       0       0       0       0
  7384 ;;      Temps:          0       0       0       0       0       0
  7385 ;;      Totals:         0       0       0       0       0       0
  7386 ;;Total ram usage:        0 bytes
  7387 ;; Hardware stack levels used: 1
  7388 ;; Hardware stack levels required when called: 8
  7389 ;; This function calls:
  7390 ;;		_ADC_Initialize
  7391 ;;		_CCP4_Initialize
  7392 ;;		_CMP1_Initialize
  7393 ;;		_CMP2_Initialize
  7394 ;;		_DAC_Initialize
  7395 ;;		_EUSART_Initialize
  7396 ;;		_FVR_Initialize
  7397 ;;		_OSCILLATOR_Initialize
  7398 ;;		_PIN_MANAGER_Initialize
  7399 ;;		_PWM3_Initialize
  7400 ;;		_SPI1_Initialize
  7401 ;;		_TMR1_Initialize
  7402 ;;		_TMR2_Initialize
  7403 ;;		_TMR4_Initialize
  7404 ;;		_WDT_Initialize
  7405 ;; This function is called by:
  7406 ;;		_main
  7407 ;; This function uses a non-reentrant model
  7408 ;;
  7409                           
  7410                           
  7411                           ;psect for function _SYSTEM_Initialize
  7412  0CC5                     _SYSTEM_Initialize:
  7413  0CC5                     l3207:	
  7414                           ;incstack = 0
  7415                           ; Regs used in _SYSTEM_Initialize: [wreg+status,2+status,0+pclath+cstack]
  7416                           
  7417                           
  7418                           ;mcc_generated_files/mcc.c: 53:     SPI1_Initialize();
  7419  0CC5  318A  2290  318C   	fcall	_SPI1_Initialize
  7420                           
  7421                           ;mcc_generated_files/mcc.c: 54:     PIN_MANAGER_Initialize();
  7422  0CC8  318D  2555  318C   	fcall	_PIN_MANAGER_Initialize
  7423                           
  7424                           ;mcc_generated_files/mcc.c: 55:     OSCILLATOR_Initialize();
  7425  0CCB  3189  21EC  318C   	fcall	_OSCILLATOR_Initialize
  7426                           
  7427                           ;mcc_generated_files/mcc.c: 56:     WDT_Initialize();
  7428  0CCE  3189  21C5  318C   	fcall	_WDT_Initialize
  7429                           
  7430                           ;mcc_generated_files/mcc.c: 57:     FVR_Initialize();
  7431  0CD1  3189  21C1  318C   	fcall	_FVR_Initialize
  7432                           
  7433                           ;mcc_generated_files/mcc.c: 58:     CMP2_Initialize();
  7434  0CD4  318A  2284  318C   	fcall	_CMP2_Initialize
  7435                           
  7436                           ;mcc_generated_files/mcc.c: 59:     DAC_Initialize();
  7437  0CD7  3189  21DA  318C   	fcall	_DAC_Initialize
  7438                           
  7439                           ;mcc_generated_files/mcc.c: 60:     TMR4_Initialize();
  7440  0CDA  318B  232C  318C   	fcall	_TMR4_Initialize
  7441                           
  7442                           ;mcc_generated_files/mcc.c: 61:     TMR2_Initialize();
  7443  0CDD  3189  21FB  318C   	fcall	_TMR2_Initialize
  7444                           
  7445                           ;mcc_generated_files/mcc.c: 62:     CMP1_Initialize();
  7446  0CE0  318A  2278  318C   	fcall	_CMP1_Initialize
  7447                           
  7448                           ;mcc_generated_files/mcc.c: 63:     CCP4_Initialize();
  7449  0CE3  318B  2307  318C   	fcall	_CCP4_Initialize
  7450                           
  7451                           ;mcc_generated_files/mcc.c: 64:     ADC_Initialize();
  7452  0CE6  3189  21F3  318C   	fcall	_ADC_Initialize
  7453                           
  7454                           ;mcc_generated_files/mcc.c: 65:     PWM3_Initialize();
  7455  0CE9  318A  2266  318C   	fcall	_PWM3_Initialize
  7456                           
  7457                           ;mcc_generated_files/mcc.c: 66:     TMR1_Initialize();
  7458  0CEC  318B  239E  318C   	fcall	_TMR1_Initialize
  7459                           
  7460                           ;mcc_generated_files/mcc.c: 67:     EUSART_Initialize();
  7461  0CEF  318E  263E  318C   	fcall	_EUSART_Initialize
  7462  0CF2                     l41:
  7463  0CF2  0008               	return
  7464  0CF3                     __end_of_SYSTEM_Initialize:
  7465                           
  7466                           	psect	text15
  7467  09C5                     __ptext15:	
  7468 ;; *************** function _WDT_Initialize *****************
  7469 ;; Defined at:
  7470 ;;		line 80 in file "mcc_generated_files/mcc.c"
  7471 ;; Parameters:    Size  Location     Type
  7472 ;;		None
  7473 ;; Auto vars:     Size  Location     Type
  7474 ;;		None
  7475 ;; Return value:  Size  Location     Type
  7476 ;;                  1    wreg      void 
  7477 ;; Registers used:
  7478 ;;		wreg
  7479 ;; Tracked objects:
  7480 ;;		On entry : 0/0
  7481 ;;		On exit  : 0/0
  7482 ;;		Unchanged: 0/0
  7483 ;; Data sizes:     COMMON   BANK0   BANK1   BANK2   BANK3   BANK4
  7484 ;;      Params:         0       0       0       0       0       0
  7485 ;;      Locals:         0       0       0       0       0       0
  7486 ;;      Temps:          0       0       0       0       0       0
  7487 ;;      Totals:         0       0       0       0       0       0
  7488 ;;Total ram usage:        0 bytes
  7489 ;; Hardware stack levels used: 1
  7490 ;; Hardware stack levels required when called: 6
  7491 ;; This function calls:
  7492 ;;		Nothing
  7493 ;; This function is called by:
  7494 ;;		_SYSTEM_Initialize
  7495 ;; This function uses a non-reentrant model
  7496 ;;
  7497                           
  7498                           
  7499                           ;psect for function _WDT_Initialize
  7500  09C5                     _WDT_Initialize:
  7501  09C5                     l2977:	
  7502                           ;incstack = 0
  7503                           ; Regs used in _WDT_Initialize: [wreg]
  7504                           
  7505                           
  7506                           ;mcc_generated_files/mcc.c: 83:     WDTCON = 0x16;
  7507  09C5  3016               	movlw	22
  7508  09C6  0021               	movlb	1	; select bank1
  7509  09C7  0097               	movwf	23	;volatile
  7510  09C8                     l47:
  7511  09C8  0008               	return
  7512  09C9                     __end_of_WDT_Initialize:
  7513                           
  7514                           	psect	text16
  7515  0B2C                     __ptext16:	
  7516 ;; *************** function _TMR4_Initialize *****************
  7517 ;; Defined at:
  7518 ;;		line 64 in file "mcc_generated_files/tmr4.c"
  7519 ;; Parameters:    Size  Location     Type
  7520 ;;		None
  7521 ;; Auto vars:     Size  Location     Type
  7522 ;;		None
  7523 ;; Return value:  Size  Location     Type
  7524 ;;                  1    wreg      void 
  7525 ;; Registers used:
  7526 ;;		wreg, status,2, status,0, pclath, cstack
  7527 ;; Tracked objects:
  7528 ;;		On entry : 0/0
  7529 ;;		On exit  : 0/0
  7530 ;;		Unchanged: 0/0
  7531 ;; Data sizes:     COMMON   BANK0   BANK1   BANK2   BANK3   BANK4
  7532 ;;      Params:         0       0       0       0       0       0
  7533 ;;      Locals:         0       0       0       0       0       0
  7534 ;;      Temps:          0       0       0       0       0       0
  7535 ;;      Totals:         0       0       0       0       0       0
  7536 ;;Total ram usage:        0 bytes
  7537 ;; Hardware stack levels used: 1
  7538 ;; Hardware stack levels required when called: 7
  7539 ;; This function calls:
  7540 ;;		_TMR4_SetInterruptHandler
  7541 ;; This function is called by:
  7542 ;;		_SYSTEM_Initialize
  7543 ;; This function uses a non-reentrant model
  7544 ;;
  7545                           
  7546                           
  7547                           ;psect for function _TMR4_Initialize
  7548  0B2C                     _TMR4_Initialize:
  7549  0B2C                     l2991:	
  7550                           ;incstack = 0
  7551                           ; Regs used in _TMR4_Initialize: [wreg+status,2+status,0+pclath+cstack]
  7552                           
  7553                           
  7554                           ;mcc_generated_files/tmr4.c: 69:     PR4 = 0xC2;
  7555  0B2C  30C2               	movlw	194
  7556  0B2D  0028               	movlb	8	; select bank8
  7557  0B2E  0096               	movwf	22	;volatile
  7558  0B2F                     l2993:
  7559                           
  7560                           ;mcc_generated_files/tmr4.c: 72:     TMR4 = 0x00;
  7561  0B2F  0195               	clrf	21	;volatile
  7562  0B30                     l2995:
  7563                           
  7564                           ;mcc_generated_files/tmr4.c: 75:     PIR3bits.TMR4IF = 0;
  7565  0B30  0020               	movlb	0	; select bank0
  7566  0B31  1093               	bcf	19,1	;volatile
  7567  0B32                     l2997:
  7568                           
  7569                           ;mcc_generated_files/tmr4.c: 78:     PIE3bits.TMR4IE = 1;
  7570  0B32  0021               	movlb	1	; select bank1
  7571  0B33  1493               	bsf	19,1	;volatile
  7572  0B34                     l2999:
  7573                           
  7574                           ;mcc_generated_files/tmr4.c: 81:     TMR4_SetInterruptHandler(TMR4_DefaultInterruptHandl
      +                          er);
  7575  0B34  30B8               	movlw	low _TMR4_DefaultInterruptHandler
  7576  0B35  0020               	movlb	0	; select bank0
  7577  0B36  00A2               	movwf	TMR4_SetInterruptHandler@InterruptHandler
  7578  0B37  3009               	movlw	high _TMR4_DefaultInterruptHandler
  7579  0B38  00A3               	movwf	TMR4_SetInterruptHandler@InterruptHandler+1
  7580  0B39  3187  27F6  318B   	fcall	_TMR4_SetInterruptHandler
  7581  0B3C                     l3001:
  7582                           
  7583                           ;mcc_generated_files/tmr4.c: 84:     T4CON = 0x1F;
  7584  0B3C  301F               	movlw	31
  7585  0B3D  0028               	movlb	8	; select bank8
  7586  0B3E  0097               	movwf	23	;volatile
  7587  0B3F                     l594:
  7588  0B3F  0008               	return
  7589  0B40                     __end_of_TMR4_Initialize:
  7590                           
  7591                           	psect	text17
  7592  07F6                     __ptext17:	
  7593 ;; *************** function _TMR4_SetInterruptHandler *****************
  7594 ;; Defined at:
  7595 ;;		line 132 in file "mcc_generated_files/tmr4.c"
  7596 ;; Parameters:    Size  Location     Type
  7597 ;;  InterruptHan    2    2[BANK0 ] PTR FTN()void 
  7598 ;;		 -> comm(1), TMR4_DefaultInterruptHandler(1), 
  7599 ;; Auto vars:     Size  Location     Type
  7600 ;;		None
  7601 ;; Return value:  Size  Location     Type
  7602 ;;                  1    wreg      void 
  7603 ;; Registers used:
  7604 ;;		wreg
  7605 ;; Tracked objects:
  7606 ;;		On entry : 0/0
  7607 ;;		On exit  : 0/0
  7608 ;;		Unchanged: 0/0
  7609 ;; Data sizes:     COMMON   BANK0   BANK1   BANK2   BANK3   BANK4
  7610 ;;      Params:         0       2       0       0       0       0
  7611 ;;      Locals:         0       0       0       0       0       0
  7612 ;;      Temps:          0       0       0       0       0       0
  7613 ;;      Totals:         0       2       0       0       0       0
  7614 ;;Total ram usage:        2 bytes
  7615 ;; Hardware stack levels used: 1
  7616 ;; Hardware stack levels required when called: 6
  7617 ;; This function calls:
  7618 ;;		Nothing
  7619 ;; This function is called by:
  7620 ;;		_TMR4_Initialize
  7621 ;;		_main
  7622 ;; This function uses a non-reentrant model
  7623 ;;
  7624                           
  7625                           
  7626                           ;psect for function _TMR4_SetInterruptHandler
  7627  07F6                     _TMR4_SetInterruptHandler:
  7628  07F6                     l2879:	
  7629                           ;incstack = 0
  7630                           ; Regs used in _TMR4_SetInterruptHandler: [wreg]
  7631                           
  7632                           
  7633                           ;mcc_generated_files/tmr4.c: 133:     TMR4_InterruptHandler = InterruptHandler;
  7634  07F6  0020               	movlb	0	; select bank0
  7635  07F7  0823               	movf	TMR4_SetInterruptHandler@InterruptHandler+1,w
  7636  07F8  0021               	movlb	1	; select bank1
  7637  07F9  00D7               	movwf	(_TMR4_InterruptHandler+1)^(0+128)
  7638  07FA  0020               	movlb	0	; select bank0
  7639  07FB  0822               	movf	TMR4_SetInterruptHandler@InterruptHandler,w
  7640  07FC  0021               	movlb	1	; select bank1
  7641  07FD  00D6               	movwf	_TMR4_InterruptHandler^(0+128)
  7642  07FE                     l616:
  7643  07FE  0008               	return
  7644  07FF                     __end_of_TMR4_SetInterruptHandler:
  7645                           
  7646                           	psect	text18
  7647  09FB                     __ptext18:	
  7648 ;; *************** function _TMR2_Initialize *****************
  7649 ;; Defined at:
  7650 ;;		line 62 in file "mcc_generated_files/tmr2.c"
  7651 ;; Parameters:    Size  Location     Type
  7652 ;;		None
  7653 ;; Auto vars:     Size  Location     Type
  7654 ;;		None
  7655 ;; Return value:  Size  Location     Type
  7656 ;;                  1    wreg      void 
  7657 ;; Registers used:
  7658 ;;		wreg, status,2
  7659 ;; Tracked objects:
  7660 ;;		On entry : 0/0
  7661 ;;		On exit  : 0/0
  7662 ;;		Unchanged: 0/0
  7663 ;; Data sizes:     COMMON   BANK0   BANK1   BANK2   BANK3   BANK4
  7664 ;;      Params:         0       0       0       0       0       0
  7665 ;;      Locals:         0       0       0       0       0       0
  7666 ;;      Temps:          0       0       0       0       0       0
  7667 ;;      Totals:         0       0       0       0       0       0
  7668 ;;Total ram usage:        0 bytes
  7669 ;; Hardware stack levels used: 1
  7670 ;; Hardware stack levels required when called: 6
  7671 ;; This function calls:
  7672 ;;		Nothing
  7673 ;; This function is called by:
  7674 ;;		_SYSTEM_Initialize
  7675 ;; This function uses a non-reentrant model
  7676 ;;
  7677                           
  7678                           
  7679                           ;psect for function _TMR2_Initialize
  7680  09FB                     _TMR2_Initialize:
  7681  09FB                     l3003:	
  7682                           ;incstack = 0
  7683                           ; Regs used in _TMR2_Initialize: [wreg+status,2]
  7684                           
  7685                           
  7686                           ;mcc_generated_files/tmr2.c: 67:     PR2 = 0x40;
  7687  09FB  3040               	movlw	64
  7688  09FC  0020               	movlb	0	; select bank0
  7689  09FD  009B               	movwf	27	;volatile
  7690  09FE                     l3005:
  7691                           
  7692                           ;mcc_generated_files/tmr2.c: 70:     TMR2 = 0x00;
  7693  09FE  019A               	clrf	26	;volatile
  7694  09FF                     l3007:
  7695                           
  7696                           ;mcc_generated_files/tmr2.c: 73:     PIR1bits.TMR2IF = 0;
  7697  09FF  1091               	bcf	17,1	;volatile
  7698  0A00                     l3009:
  7699                           
  7700                           ;mcc_generated_files/tmr2.c: 76:     T2CON = 0x04;
  7701  0A00  3004               	movlw	4
  7702  0A01  009C               	movwf	28	;volatile
  7703  0A02                     l449:
  7704  0A02  0008               	return
  7705  0A03                     __end_of_TMR2_Initialize:
  7706                           
  7707                           	psect	text19
  7708  0B9E                     __ptext19:	
  7709 ;; *************** function _TMR1_Initialize *****************
  7710 ;; Defined at:
  7711 ;;		line 64 in file "mcc_generated_files/tmr1.c"
  7712 ;; Parameters:    Size  Location     Type
  7713 ;;		None
  7714 ;; Auto vars:     Size  Location     Type
  7715 ;;		None
  7716 ;; Return value:  Size  Location     Type
  7717 ;;                  1    wreg      void 
  7718 ;; Registers used:
  7719 ;;		wreg, status,2, status,0, pclath, cstack
  7720 ;; Tracked objects:
  7721 ;;		On entry : 0/0
  7722 ;;		On exit  : 0/0
  7723 ;;		Unchanged: 0/0
  7724 ;; Data sizes:     COMMON   BANK0   BANK1   BANK2   BANK3   BANK4
  7725 ;;      Params:         0       0       0       0       0       0
  7726 ;;      Locals:         0       0       0       0       0       0
  7727 ;;      Temps:          0       0       0       0       0       0
  7728 ;;      Totals:         0       0       0       0       0       0
  7729 ;;Total ram usage:        0 bytes
  7730 ;; Hardware stack levels used: 1
  7731 ;; Hardware stack levels required when called: 7
  7732 ;; This function calls:
  7733 ;;		_TMR1_SetInterruptHandler
  7734 ;; This function is called by:
  7735 ;;		_SYSTEM_Initialize
  7736 ;; This function uses a non-reentrant model
  7737 ;;
  7738                           
  7739                           
  7740                           ;psect for function _TMR1_Initialize
  7741  0B9E                     _TMR1_Initialize:
  7742  0B9E                     l3045:	
  7743                           ;incstack = 0
  7744                           ; Regs used in _TMR1_Initialize: [wreg+status,2+status,0+pclath+cstack]
  7745                           
  7746                           
  7747                           ;mcc_generated_files/tmr1.c: 69:     T1GCON = 0x00;
  7748  0B9E  0020               	movlb	0	; select bank0
  7749  0B9F  0199               	clrf	25	;volatile
  7750  0BA0                     l3047:
  7751                           
  7752                           ;mcc_generated_files/tmr1.c: 72:     TMR1H = 0x3C;
  7753  0BA0  303C               	movlw	60
  7754  0BA1  0097               	movwf	23	;volatile
  7755  0BA2                     l3049:
  7756                           
  7757                           ;mcc_generated_files/tmr1.c: 75:     TMR1L = 0xB0;
  7758  0BA2  30B0               	movlw	176
  7759  0BA3  0096               	movwf	22	;volatile
  7760  0BA4                     l3051:
  7761                           
  7762                           ;mcc_generated_files/tmr1.c: 78:     PIR1bits.TMR1IF = 0;
  7763  0BA4  1011               	bcf	17,0	;volatile
  7764  0BA5                     l3053:
  7765                           
  7766                           ;mcc_generated_files/tmr1.c: 81:     timer1ReloadVal=(uint16_t)((TMR1H << 8) | TMR1L);
  7767  0BA5  0817               	movf	23,w	;volatile
  7768  0BA6  0021               	movlb	1	; select bank1
  7769  0BA7  00DB               	movwf	(_timer1ReloadVal+1)^(0+128)	;volatile
  7770  0BA8  0020               	movlb	0	; select bank0
  7771  0BA9  0816               	movf	22,w	;volatile
  7772  0BAA  0021               	movlb	1	; select bank1
  7773  0BAB  00DA               	movwf	_timer1ReloadVal^(0+128)	;volatile
  7774  0BAC                     l3055:
  7775                           
  7776                           ;mcc_generated_files/tmr1.c: 84:     PIE1bits.TMR1IE = 1;
  7777  0BAC  1411               	bsf	17,0	;volatile
  7778  0BAD                     l3057:
  7779                           
  7780                           ;mcc_generated_files/tmr1.c: 87:     TMR1_SetInterruptHandler(TMR1_DefaultInterruptHandl
      +                          er);
  7781  0BAD  30B7               	movlw	low _TMR1_DefaultInterruptHandler
  7782  0BAE  0020               	movlb	0	; select bank0
  7783  0BAF  00A2               	movwf	TMR1_SetInterruptHandler@InterruptHandler
  7784  0BB0  3009               	movlw	high _TMR1_DefaultInterruptHandler
  7785  0BB1  00A3               	movwf	TMR1_SetInterruptHandler@InterruptHandler+1
  7786  0BB2  318A  226F  318B   	fcall	_TMR1_SetInterruptHandler
  7787  0BB5                     l3059:
  7788                           
  7789                           ;mcc_generated_files/tmr1.c: 90:     T1CON = 0x01;
  7790  0BB5  3001               	movlw	1
  7791  0BB6  0020               	movlb	0	; select bank0
  7792  0BB7  0098               	movwf	24	;volatile
  7793  0BB8                     l403:
  7794  0BB8  0008               	return
  7795  0BB9                     __end_of_TMR1_Initialize:
  7796                           
  7797                           	psect	text20
  7798  0A6F                     __ptext20:	
  7799 ;; *************** function _TMR1_SetInterruptHandler *****************
  7800 ;; Defined at:
  7801 ;;		line 171 in file "mcc_generated_files/tmr1.c"
  7802 ;; Parameters:    Size  Location     Type
  7803 ;;  InterruptHan    2    2[BANK0 ] PTR FTN()void 
  7804 ;;		 -> TMR1_DefaultInterruptHandler(1), 
  7805 ;; Auto vars:     Size  Location     Type
  7806 ;;		None
  7807 ;; Return value:  Size  Location     Type
  7808 ;;                  1    wreg      void 
  7809 ;; Registers used:
  7810 ;;		wreg
  7811 ;; Tracked objects:
  7812 ;;		On entry : 0/0
  7813 ;;		On exit  : 0/0
  7814 ;;		Unchanged: 0/0
  7815 ;; Data sizes:     COMMON   BANK0   BANK1   BANK2   BANK3   BANK4
  7816 ;;      Params:         0       2       0       0       0       0
  7817 ;;      Locals:         0       0       0       0       0       0
  7818 ;;      Temps:          0       0       0       0       0       0
  7819 ;;      Totals:         0       2       0       0       0       0
  7820 ;;Total ram usage:        2 bytes
  7821 ;; Hardware stack levels used: 1
  7822 ;; Hardware stack levels required when called: 6
  7823 ;; This function calls:
  7824 ;;		Nothing
  7825 ;; This function is called by:
  7826 ;;		_TMR1_Initialize
  7827 ;; This function uses a non-reentrant model
  7828 ;;
  7829                           
  7830                           
  7831                           ;psect for function _TMR1_SetInterruptHandler
  7832  0A6F                     _TMR1_SetInterruptHandler:
  7833  0A6F                     l2861:	
  7834                           ;incstack = 0
  7835                           ; Regs used in _TMR1_SetInterruptHandler: [wreg]
  7836                           
  7837                           
  7838                           ;mcc_generated_files/tmr1.c: 172:     TMR1_InterruptHandler = InterruptHandler;
  7839  0A6F  0020               	movlb	0	; select bank0
  7840  0A70  0823               	movf	TMR1_SetInterruptHandler@InterruptHandler+1,w
  7841  0A71  0021               	movlb	1	; select bank1
  7842  0A72  00D9               	movwf	(_TMR1_InterruptHandler+1)^(0+128)
  7843  0A73  0020               	movlb	0	; select bank0
  7844  0A74  0822               	movf	TMR1_SetInterruptHandler@InterruptHandler,w
  7845  0A75  0021               	movlb	1	; select bank1
  7846  0A76  00D8               	movwf	_TMR1_InterruptHandler^(0+128)
  7847  0A77                     l433:
  7848  0A77  0008               	return
  7849  0A78                     __end_of_TMR1_SetInterruptHandler:
  7850                           
  7851                           	psect	text21
  7852  0A90                     __ptext21:	
  7853 ;; *************** function _SPI1_Initialize *****************
  7854 ;; Defined at:
  7855 ;;		line 62 in file "mcc_generated_files/spi1.c"
  7856 ;; Parameters:    Size  Location     Type
  7857 ;;		None
  7858 ;; Auto vars:     Size  Location     Type
  7859 ;;		None
  7860 ;; Return value:  Size  Location     Type
  7861 ;;                  1    wreg      void 
  7862 ;; Registers used:
  7863 ;;		wreg
  7864 ;; Tracked objects:
  7865 ;;		On entry : 0/0
  7866 ;;		On exit  : 0/0
  7867 ;;		Unchanged: 0/0
  7868 ;; Data sizes:     COMMON   BANK0   BANK1   BANK2   BANK3   BANK4
  7869 ;;      Params:         0       0       0       0       0       0
  7870 ;;      Locals:         0       0       0       0       0       0
  7871 ;;      Temps:          0       0       0       0       0       0
  7872 ;;      Totals:         0       0       0       0       0       0
  7873 ;;Total ram usage:        0 bytes
  7874 ;; Hardware stack levels used: 1
  7875 ;; Hardware stack levels required when called: 6
  7876 ;; This function calls:
  7877 ;;		Nothing
  7878 ;; This function is called by:
  7879 ;;		_SYSTEM_Initialize
  7880 ;; This function uses a non-reentrant model
  7881 ;;
  7882                           
  7883                           
  7884                           ;psect for function _SPI1_Initialize
  7885  0A90                     _SPI1_Initialize:
  7886  0A90                     l2939:	
  7887                           ;incstack = 0
  7888                           ; Regs used in _SPI1_Initialize: [wreg]
  7889                           
  7890                           
  7891                           ;mcc_generated_files/spi1.c: 65:     SSP1STAT = 0x40;
  7892  0A90  3040               	movlw	64
  7893  0A91  0024               	movlb	4	; select bank4
  7894  0A92  0094               	movwf	20	;volatile
  7895                           
  7896                           ;mcc_generated_files/spi1.c: 66:     SSP1CON1 = 0x0A;
  7897  0A93  300A               	movlw	10
  7898  0A94  0095               	movwf	21	;volatile
  7899                           
  7900                           ;mcc_generated_files/spi1.c: 67:     SSP1ADD = 0x04;
  7901  0A95  3004               	movlw	4
  7902  0A96  0092               	movwf	18	;volatile
  7903  0A97                     l2941:
  7904                           
  7905                           ;mcc_generated_files/spi1.c: 68:     TRISBbits.TRISB4 = 0;
  7906  0A97  0021               	movlb	1	; select bank1
  7907  0A98  120D               	bcf	13,4	;volatile
  7908  0A99                     l2943:
  7909                           
  7910                           ;mcc_generated_files/spi1.c: 69:     SSP1CON1bits.SSPEN = 0;
  7911  0A99  0024               	movlb	4	; select bank4
  7912  0A9A  1295               	bcf	21,5	;volatile
  7913  0A9B                     l192:
  7914  0A9B  0008               	return
  7915  0A9C                     __end_of_SPI1_Initialize:
  7916                           
  7917                           	psect	text22
  7918  0A66                     __ptext22:	
  7919 ;; *************** function _PWM3_Initialize *****************
  7920 ;; Defined at:
  7921 ;;		line 64 in file "mcc_generated_files/pwm3.c"
  7922 ;; Parameters:    Size  Location     Type
  7923 ;;		None
  7924 ;; Auto vars:     Size  Location     Type
  7925 ;;		None
  7926 ;; Return value:  Size  Location     Type
  7927 ;;                  1    wreg      void 
  7928 ;; Registers used:
  7929 ;;		wreg, status,2, status,0
  7930 ;; Tracked objects:
  7931 ;;		On entry : 0/0
  7932 ;;		On exit  : 0/0
  7933 ;;		Unchanged: 0/0
  7934 ;; Data sizes:     COMMON   BANK0   BANK1   BANK2   BANK3   BANK4
  7935 ;;      Params:         0       0       0       0       0       0
  7936 ;;      Locals:         0       0       0       0       0       0
  7937 ;;      Temps:          0       0       0       0       0       0
  7938 ;;      Totals:         0       0       0       0       0       0
  7939 ;;Total ram usage:        0 bytes
  7940 ;; Hardware stack levels used: 1
  7941 ;; Hardware stack levels required when called: 6
  7942 ;; This function calls:
  7943 ;;		Nothing
  7944 ;; This function is called by:
  7945 ;;		_SYSTEM_Initialize
  7946 ;; This function uses a non-reentrant model
  7947 ;;
  7948                           
  7949                           
  7950                           ;psect for function _PWM3_Initialize
  7951  0A66                     _PWM3_Initialize:
  7952  0A66                     l3037:	
  7953                           ;incstack = 0
  7954                           ; Regs used in _PWM3_Initialize: [wreg+status,2+status,0]
  7955                           
  7956                           
  7957                           ;mcc_generated_files/pwm3.c: 69:  CCP3CON = 0x0C;
  7958  0A66  300C               	movlw	12
  7959  0A67  0026               	movlb	6	; select bank6
  7960  0A68  0093               	movwf	19	;volatile
  7961  0A69                     l3039:
  7962                           
  7963                           ;mcc_generated_files/pwm3.c: 72:  CCPR3L = 0x00;
  7964  0A69  0191               	clrf	17	;volatile
  7965  0A6A                     l3041:
  7966                           
  7967                           ;mcc_generated_files/pwm3.c: 75:  CCPR3H = 0x00;
  7968  0A6A  0192               	clrf	18	;volatile
  7969  0A6B                     l3043:
  7970                           
  7971                           ;mcc_generated_files/pwm3.c: 78:  CCPTMRS0bits.C3TSEL = 0x0;
  7972  0A6B  30CF               	movlw	-49
  7973  0A6C  0025               	movlb	5	; select bank5
  7974  0A6D  059E               	andwf	30,f	;volatile
  7975  0A6E                     l479:
  7976  0A6E  0008               	return
  7977  0A6F                     __end_of_PWM3_Initialize:
  7978                           
  7979                           	psect	text23
  7980  0D55                     __ptext23:	
  7981 ;; *************** function _PIN_MANAGER_Initialize *****************
  7982 ;; Defined at:
  7983 ;;		line 58 in file "mcc_generated_files/pin_manager.c"
  7984 ;; Parameters:    Size  Location     Type
  7985 ;;		None
  7986 ;; Auto vars:     Size  Location     Type
  7987 ;;		None
  7988 ;; Return value:  Size  Location     Type
  7989 ;;                  1    wreg      void 
  7990 ;; Registers used:
  7991 ;;		wreg, status,2, status,0, pclath, cstack
  7992 ;; Tracked objects:
  7993 ;;		On entry : 0/0
  7994 ;;		On exit  : 0/0
  7995 ;;		Unchanged: 0/0
  7996 ;; Data sizes:     COMMON   BANK0   BANK1   BANK2   BANK3   BANK4
  7997 ;;      Params:         0       0       0       0       0       0
  7998 ;;      Locals:         0       0       0       0       0       0
  7999 ;;      Temps:          0       0       0       0       0       0
  8000 ;;      Totals:         0       0       0       0       0       0
  8001 ;;Total ram usage:        0 bytes
  8002 ;; Hardware stack levels used: 1
  8003 ;; Hardware stack levels required when called: 7
  8004 ;; This function calls:
  8005 ;;		_IOCBF0_SetInterruptHandler
  8006 ;;		_IOCBF3_SetInterruptHandler
  8007 ;; This function is called by:
  8008 ;;		_SYSTEM_Initialize
  8009 ;; This function uses a non-reentrant model
  8010 ;;
  8011                           
  8012                           
  8013                           ;psect for function _PIN_MANAGER_Initialize
  8014  0D55                     _PIN_MANAGER_Initialize:
  8015  0D55                     l2945:	
  8016                           ;incstack = 0
  8017                           ; Regs used in _PIN_MANAGER_Initialize: [wreg+status,2+status,0+pclath+cstack]
  8018                           
  8019                           
  8020                           ;mcc_generated_files/pin_manager.c: 63:     LATA = 0x03;
  8021  0D55  3003               	movlw	3
  8022  0D56  0022               	movlb	2	; select bank2
  8023  0D57  008C               	movwf	12	;volatile
  8024                           
  8025                           ;mcc_generated_files/pin_manager.c: 64:     LATB = 0x09;
  8026  0D58  3009               	movlw	9
  8027  0D59  008D               	movwf	13	;volatile
  8028                           
  8029                           ;mcc_generated_files/pin_manager.c: 69:     TRISA = 0x37;
  8030  0D5A  3037               	movlw	55
  8031  0D5B  0021               	movlb	1	; select bank1
  8032  0D5C  008C               	movwf	12	;volatile
  8033                           
  8034                           ;mcc_generated_files/pin_manager.c: 70:     TRISB = 0xED;
  8035  0D5D  30ED               	movlw	237
  8036  0D5E  008D               	movwf	13	;volatile
  8037                           
  8038                           ;mcc_generated_files/pin_manager.c: 75:     ANSELB = 0xC0;
  8039  0D5F  30C0               	movlw	192
  8040  0D60  0023               	movlb	3	; select bank3
  8041  0D61  008D               	movwf	13	;volatile
  8042                           
  8043                           ;mcc_generated_files/pin_manager.c: 76:     ANSELA = 0x0F;
  8044  0D62  300F               	movlw	15
  8045  0D63  008C               	movwf	12	;volatile
  8046  0D64                     l2947:
  8047                           
  8048                           ;mcc_generated_files/pin_manager.c: 81:     WPUB = 0x00;
  8049  0D64  0024               	movlb	4	; select bank4
  8050  0D65  018D               	clrf	13	;volatile
  8051  0D66                     l2949:
  8052                           
  8053                           ;mcc_generated_files/pin_manager.c: 82:     WPUA = 0x00;
  8054  0D66  018C               	clrf	12	;volatile
  8055  0D67                     l2951:
  8056                           
  8057                           ;mcc_generated_files/pin_manager.c: 83:     OPTION_REGbits.nWPUEN = 1;
  8058  0D67  0021               	movlb	1	; select bank1
  8059  0D68  1795               	bsf	21,7	;volatile
  8060                           
  8061                           ;mcc_generated_files/pin_manager.c: 89:     APFCON0 = 0xC8;
  8062  0D69  30C8               	movlw	200
  8063  0D6A  0022               	movlb	2	; select bank2
  8064  0D6B  009D               	movwf	29	;volatile
  8065                           
  8066                           ;mcc_generated_files/pin_manager.c: 90:     APFCON1 = 0x01;
  8067  0D6C  3001               	movlw	1
  8068  0D6D  009E               	movwf	30	;volatile
  8069  0D6E                     l2953:
  8070                           
  8071                           ;mcc_generated_files/pin_manager.c: 96:     IOCBFbits.IOCBF0 = 0;
  8072  0D6E  0027               	movlb	7	; select bank7
  8073  0D6F  1016               	bcf	22,0	;volatile
  8074  0D70                     l2955:
  8075                           
  8076                           ;mcc_generated_files/pin_manager.c: 98:     IOCBFbits.IOCBF3 = 0;
  8077  0D70  1196               	bcf	22,3	;volatile
  8078  0D71                     l2957:
  8079                           
  8080                           ;mcc_generated_files/pin_manager.c: 100:     IOCBNbits.IOCBN0 = 0;
  8081  0D71  1015               	bcf	21,0	;volatile
  8082  0D72                     l2959:
  8083                           
  8084                           ;mcc_generated_files/pin_manager.c: 102:     IOCBNbits.IOCBN3 = 0;
  8085  0D72  1195               	bcf	21,3	;volatile
  8086  0D73                     l2961:
  8087                           
  8088                           ;mcc_generated_files/pin_manager.c: 104:     IOCBPbits.IOCBP0 = 1;
  8089  0D73  1414               	bsf	20,0	;volatile
  8090  0D74                     l2963:
  8091                           
  8092                           ;mcc_generated_files/pin_manager.c: 106:     IOCBPbits.IOCBP3 = 1;
  8093  0D74  1594               	bsf	20,3	;volatile
  8094  0D75                     l2965:
  8095                           
  8096                           ;mcc_generated_files/pin_manager.c: 111:     IOCBF0_SetInterruptHandler(IOCBF0_DefaultIn
      +                          terruptHandler);
  8097  0D75  30B5               	movlw	low _IOCBF0_DefaultInterruptHandler
  8098  0D76  0020               	movlb	0	; select bank0
  8099  0D77  00A2               	movwf	IOCBF0_SetInterruptHandler@InterruptHandler
  8100  0D78  3009               	movlw	high _IOCBF0_DefaultInterruptHandler
  8101  0D79  00A3               	movwf	IOCBF0_SetInterruptHandler@InterruptHandler+1
  8102  0D7A  318A  2254  318D   	fcall	_IOCBF0_SetInterruptHandler
  8103  0D7D                     l2967:
  8104                           
  8105                           ;mcc_generated_files/pin_manager.c: 112:     IOCBF3_SetInterruptHandler(IOCBF3_DefaultIn
      +                          terruptHandler);
  8106  0D7D  30B6               	movlw	low _IOCBF3_DefaultInterruptHandler
  8107  0D7E  0020               	movlb	0	; select bank0
  8108  0D7F  00A2               	movwf	IOCBF3_SetInterruptHandler@InterruptHandler
  8109  0D80  3009               	movlw	high _IOCBF3_DefaultInterruptHandler
  8110  0D81  00A3               	movwf	IOCBF3_SetInterruptHandler@InterruptHandler+1
  8111  0D82  318A  225D  318D   	fcall	_IOCBF3_SetInterruptHandler
  8112  0D85                     l2969:
  8113                           
  8114                           ;mcc_generated_files/pin_manager.c: 115:     INTCONbits.IOCIE = 1;
  8115  0D85  158B               	bsf	11,3	;volatile
  8116  0D86                     l96:
  8117  0D86  0008               	return
  8118  0D87                     __end_of_PIN_MANAGER_Initialize:
  8119                           
  8120                           	psect	text24
  8121  0A5D                     __ptext24:	
  8122 ;; *************** function _IOCBF3_SetInterruptHandler *****************
  8123 ;; Defined at:
  8124 ;;		line 181 in file "mcc_generated_files/pin_manager.c"
  8125 ;; Parameters:    Size  Location     Type
  8126 ;;  InterruptHan    2    2[BANK0 ] PTR FTN()void 
  8127 ;;		 -> S2(1), IOCBF3_DefaultInterruptHandler(1), 
  8128 ;; Auto vars:     Size  Location     Type
  8129 ;;		None
  8130 ;; Return value:  Size  Location     Type
  8131 ;;                  1    wreg      void 
  8132 ;; Registers used:
  8133 ;;		wreg
  8134 ;; Tracked objects:
  8135 ;;		On entry : 0/0
  8136 ;;		On exit  : 0/0
  8137 ;;		Unchanged: 0/0
  8138 ;; Data sizes:     COMMON   BANK0   BANK1   BANK2   BANK3   BANK4
  8139 ;;      Params:         0       2       0       0       0       0
  8140 ;;      Locals:         0       0       0       0       0       0
  8141 ;;      Temps:          0       0       0       0       0       0
  8142 ;;      Totals:         0       2       0       0       0       0
  8143 ;;Total ram usage:        2 bytes
  8144 ;; Hardware stack levels used: 1
  8145 ;; Hardware stack levels required when called: 6
  8146 ;; This function calls:
  8147 ;;		Nothing
  8148 ;; This function is called by:
  8149 ;;		_PIN_MANAGER_Initialize
  8150 ;;		_main
  8151 ;; This function uses a non-reentrant model
  8152 ;;
  8153                           
  8154                           
  8155                           ;psect for function _IOCBF3_SetInterruptHandler
  8156  0A5D                     _IOCBF3_SetInterruptHandler:
  8157  0A5D                     l2819:	
  8158                           ;incstack = 0
  8159                           ; Regs used in _IOCBF3_SetInterruptHandler: [wreg]
  8160                           
  8161                           
  8162                           ;mcc_generated_files/pin_manager.c: 182:     IOCBF3_InterruptHandler = InterruptHandler;
  8163  0A5D  0020               	movlb	0	; select bank0
  8164  0A5E  0823               	movf	IOCBF3_SetInterruptHandler@InterruptHandler+1,w
  8165  0A5F  0021               	movlb	1	; select bank1
  8166  0A60  00E1               	movwf	(_IOCBF3_InterruptHandler+1)^(0+128)
  8167  0A61  0020               	movlb	0	; select bank0
  8168  0A62  0822               	movf	IOCBF3_SetInterruptHandler@InterruptHandler,w
  8169  0A63  0021               	movlb	1	; select bank1
  8170  0A64  00E0               	movwf	_IOCBF3_InterruptHandler^(0+128)
  8171  0A65                     l118:
  8172  0A65  0008               	return
  8173  0A66                     __end_of_IOCBF3_SetInterruptHandler:
  8174                           
  8175                           	psect	text25
  8176  0A54                     __ptext25:	
  8177 ;; *************** function _IOCBF0_SetInterruptHandler *****************
  8178 ;; Defined at:
  8179 ;;		line 151 in file "mcc_generated_files/pin_manager.c"
  8180 ;; Parameters:    Size  Location     Type
  8181 ;;  InterruptHan    2    2[BANK0 ] PTR FTN()void 
  8182 ;;		 -> S1(1), IOCBF0_DefaultInterruptHandler(1), 
  8183 ;; Auto vars:     Size  Location     Type
  8184 ;;		None
  8185 ;; Return value:  Size  Location     Type
  8186 ;;                  1    wreg      void 
  8187 ;; Registers used:
  8188 ;;		wreg
  8189 ;; Tracked objects:
  8190 ;;		On entry : 0/0
  8191 ;;		On exit  : 0/0
  8192 ;;		Unchanged: 0/0
  8193 ;; Data sizes:     COMMON   BANK0   BANK1   BANK2   BANK3   BANK4
  8194 ;;      Params:         0       2       0       0       0       0
  8195 ;;      Locals:         0       0       0       0       0       0
  8196 ;;      Temps:          0       0       0       0       0       0
  8197 ;;      Totals:         0       2       0       0       0       0
  8198 ;;Total ram usage:        2 bytes
  8199 ;; Hardware stack levels used: 1
  8200 ;; Hardware stack levels required when called: 6
  8201 ;; This function calls:
  8202 ;;		Nothing
  8203 ;; This function is called by:
  8204 ;;		_PIN_MANAGER_Initialize
  8205 ;;		_main
  8206 ;; This function uses a non-reentrant model
  8207 ;;
  8208                           
  8209                           
  8210                           ;psect for function _IOCBF0_SetInterruptHandler
  8211  0A54                     _IOCBF0_SetInterruptHandler:
  8212  0A54                     l2817:	
  8213                           ;incstack = 0
  8214                           ; Regs used in _IOCBF0_SetInterruptHandler: [wreg]
  8215                           
  8216                           
  8217                           ;mcc_generated_files/pin_manager.c: 152:     IOCBF0_InterruptHandler = InterruptHandler;
  8218  0A54  0020               	movlb	0	; select bank0
  8219  0A55  0823               	movf	IOCBF0_SetInterruptHandler@InterruptHandler+1,w
  8220  0A56  0021               	movlb	1	; select bank1
  8221  0A57  00E3               	movwf	(_IOCBF0_InterruptHandler+1)^(0+128)
  8222  0A58  0020               	movlb	0	; select bank0
  8223  0A59  0822               	movf	IOCBF0_SetInterruptHandler@InterruptHandler,w
  8224  0A5A  0021               	movlb	1	; select bank1
  8225  0A5B  00E2               	movwf	_IOCBF0_InterruptHandler^(0+128)
  8226  0A5C                     l108:
  8227  0A5C  0008               	return
  8228  0A5D                     __end_of_IOCBF0_SetInterruptHandler:
  8229                           
  8230                           	psect	text26
  8231  09EC                     __ptext26:	
  8232 ;; *************** function _OSCILLATOR_Initialize *****************
  8233 ;; Defined at:
  8234 ;;		line 70 in file "mcc_generated_files/mcc.c"
  8235 ;; Parameters:    Size  Location     Type
  8236 ;;		None
  8237 ;; Auto vars:     Size  Location     Type
  8238 ;;		None
  8239 ;; Return value:  Size  Location     Type
  8240 ;;                  1    wreg      void 
  8241 ;; Registers used:
  8242 ;;		wreg, status,2
  8243 ;; Tracked objects:
  8244 ;;		On entry : 0/0
  8245 ;;		On exit  : 0/0
  8246 ;;		Unchanged: 0/0
  8247 ;; Data sizes:     COMMON   BANK0   BANK1   BANK2   BANK3   BANK4
  8248 ;;      Params:         0       0       0       0       0       0
  8249 ;;      Locals:         0       0       0       0       0       0
  8250 ;;      Temps:          0       0       0       0       0       0
  8251 ;;      Totals:         0       0       0       0       0       0
  8252 ;;Total ram usage:        0 bytes
  8253 ;; Hardware stack levels used: 1
  8254 ;; Hardware stack levels required when called: 6
  8255 ;; This function calls:
  8256 ;;		Nothing
  8257 ;; This function is called by:
  8258 ;;		_SYSTEM_Initialize
  8259 ;; This function uses a non-reentrant model
  8260 ;;
  8261                           
  8262                           
  8263                           ;psect for function _OSCILLATOR_Initialize
  8264  09EC                     _OSCILLATOR_Initialize:
  8265  09EC                     l2971:	
  8266                           ;incstack = 0
  8267                           ; Regs used in _OSCILLATOR_Initialize: [wreg+status,2]
  8268                           
  8269                           
  8270                           ;mcc_generated_files/mcc.c: 73:     OSCCON = 0x60;
  8271  09EC  3060               	movlw	96
  8272  09ED  0021               	movlb	1	; select bank1
  8273  09EE  0099               	movwf	25	;volatile
  8274  09EF                     l2973:
  8275                           
  8276                           ;mcc_generated_files/mcc.c: 75:     OSCTUNE = 0x00;
  8277  09EF  0198               	clrf	24	;volatile
  8278  09F0                     l2975:
  8279                           
  8280                           ;mcc_generated_files/mcc.c: 77:     BORCON = 0x00;
  8281  09F0  0022               	movlb	2	; select bank2
  8282  09F1  0196               	clrf	22	;volatile
  8283  09F2                     l44:
  8284  09F2  0008               	return
  8285  09F3                     __end_of_OSCILLATOR_Initialize:
  8286                           
  8287                           	psect	text27
  8288  09C1                     __ptext27:	
  8289 ;; *************** function _FVR_Initialize *****************
  8290 ;; Defined at:
  8291 ;;		line 58 in file "mcc_generated_files/fvr.c"
  8292 ;; Parameters:    Size  Location     Type
  8293 ;;		None
  8294 ;; Auto vars:     Size  Location     Type
  8295 ;;		None
  8296 ;; Return value:  Size  Location     Type
  8297 ;;                  1    wreg      void 
  8298 ;; Registers used:
  8299 ;;		wreg
  8300 ;; Tracked objects:
  8301 ;;		On entry : 0/0
  8302 ;;		On exit  : 0/0
  8303 ;;		Unchanged: 0/0
  8304 ;; Data sizes:     COMMON   BANK0   BANK1   BANK2   BANK3   BANK4
  8305 ;;      Params:         0       0       0       0       0       0
  8306 ;;      Locals:         0       0       0       0       0       0
  8307 ;;      Temps:          0       0       0       0       0       0
  8308 ;;      Totals:         0       0       0       0       0       0
  8309 ;;Total ram usage:        0 bytes
  8310 ;; Hardware stack levels used: 1
  8311 ;; Hardware stack levels required when called: 6
  8312 ;; This function calls:
  8313 ;;		Nothing
  8314 ;; This function is called by:
  8315 ;;		_SYSTEM_Initialize
  8316 ;; This function uses a non-reentrant model
  8317 ;;
  8318                           
  8319                           
  8320                           ;psect for function _FVR_Initialize
  8321  09C1                     _FVR_Initialize:
  8322  09C1                     l2979:	
  8323                           ;incstack = 0
  8324                           ; Regs used in _FVR_Initialize: [wreg]
  8325                           
  8326                           
  8327                           ;mcc_generated_files/fvr.c: 61:     FVRCON = 0x1D;
  8328  09C1  301D               	movlw	29
  8329  09C2  0022               	movlb	2	; select bank2
  8330  09C3  0097               	movwf	23	;volatile
  8331  09C4                     l626:
  8332  09C4  0008               	return
  8333  09C5                     __end_of_FVR_Initialize:
  8334                           
  8335                           	psect	text28
  8336  0E3E                     __ptext28:	
  8337 ;; *************** function _EUSART_Initialize *****************
  8338 ;; Defined at:
  8339 ;;		line 88 in file "mcc_generated_files/eusart.c"
  8340 ;; Parameters:    Size  Location     Type
  8341 ;;		None
  8342 ;; Auto vars:     Size  Location     Type
  8343 ;;		None
  8344 ;; Return value:  Size  Location     Type
  8345 ;;                  1    wreg      void 
  8346 ;; Registers used:
  8347 ;;		wreg, status,2, status,0, pclath, cstack
  8348 ;; Tracked objects:
  8349 ;;		On entry : 0/0
  8350 ;;		On exit  : 0/0
  8351 ;;		Unchanged: 0/0
  8352 ;; Data sizes:     COMMON   BANK0   BANK1   BANK2   BANK3   BANK4
  8353 ;;      Params:         0       0       0       0       0       0
  8354 ;;      Locals:         0       0       0       0       0       0
  8355 ;;      Temps:          0       1       0       0       0       0
  8356 ;;      Totals:         0       1       0       0       0       0
  8357 ;;Total ram usage:        1 bytes
  8358 ;; Hardware stack levels used: 1
  8359 ;; Hardware stack levels required when called: 7
  8360 ;; This function calls:
  8361 ;;		_EUSART_SetErrorHandler
  8362 ;;		_EUSART_SetFramingErrorHandler
  8363 ;;		_EUSART_SetOverrunErrorHandler
  8364 ;;		_EUSART_SetRxInterruptHandler
  8365 ;;		_EUSART_SetTxInterruptHandler
  8366 ;; This function is called by:
  8367 ;;		_SYSTEM_Initialize
  8368 ;; This function uses a non-reentrant model
  8369 ;;
  8370                           
  8371                           
  8372                           ;psect for function _EUSART_Initialize
  8373  0E3E                     _EUSART_Initialize:
  8374  0E3E                     l3061:	
  8375                           ;incstack = 0
  8376                           ; Regs used in _EUSART_Initialize: [wreg+status,2+status,0+pclath+cstack]
  8377                           
  8378                           
  8379                           ;mcc_generated_files/eusart.c: 91:     PIE1bits.RCIE = 0;
  8380  0E3E  0021               	movlb	1	; select bank1
  8381  0E3F  1291               	bcf	17,5	;volatile
  8382  0E40                     l3063:
  8383                           
  8384                           ;mcc_generated_files/eusart.c: 92:     EUSART_SetRxInterruptHandler(EUSART_Receive_ISR);
  8385  0E40  30BD               	movlw	low _EUSART_Receive_ISR
  8386  0E41  0020               	movlb	0	; select bank0
  8387  0E42  00A2               	movwf	EUSART_SetRxInterruptHandler@interruptHandler
  8388  0E43  300D               	movlw	high _EUSART_Receive_ISR
  8389  0E44  00A3               	movwf	EUSART_SetRxInterruptHandler@interruptHandler+1
  8390  0E45  318A  2242  318E   	fcall	_EUSART_SetRxInterruptHandler
  8391  0E48                     l3065:
  8392                           
  8393                           ;mcc_generated_files/eusart.c: 93:     PIE1bits.TXIE = 0;
  8394  0E48  0021               	movlb	1	; select bank1
  8395  0E49  1211               	bcf	17,4	;volatile
  8396                           
  8397                           ;mcc_generated_files/eusart.c: 94:     EUSART_SetTxInterruptHandler(EUSART_Transmit_ISR)
      +                          ;
  8398  0E4A  302B               	movlw	low _EUSART_Transmit_ISR
  8399  0E4B  0020               	movlb	0	; select bank0
  8400  0E4C  00A2               	movwf	EUSART_SetTxInterruptHandler@interruptHandler
  8401  0E4D  300C               	movlw	high _EUSART_Transmit_ISR
  8402  0E4E  00A3               	movwf	EUSART_SetTxInterruptHandler@interruptHandler+1
  8403  0E4F  318A  224B  318E   	fcall	_EUSART_SetTxInterruptHandler
  8404  0E52                     l3067:
  8405                           
  8406                           ;mcc_generated_files/eusart.c: 98:     BAUDCON = 0x08;
  8407  0E52  3008               	movlw	8
  8408  0E53  0023               	movlb	3	; select bank3
  8409  0E54  009F               	movwf	31	;volatile
  8410  0E55                     l3069:
  8411                           
  8412                           ;mcc_generated_files/eusart.c: 101:     RCSTA = 0x90;
  8413  0E55  3090               	movlw	144
  8414  0E56  009D               	movwf	29	;volatile
  8415  0E57                     l3071:
  8416                           
  8417                           ;mcc_generated_files/eusart.c: 104:     TXSTA = 0x24;
  8418  0E57  3024               	movlw	36
  8419  0E58  009E               	movwf	30	;volatile
  8420  0E59                     l3073:
  8421                           
  8422                           ;mcc_generated_files/eusart.c: 107:     SPBRGL = 0x19;
  8423  0E59  3019               	movlw	25
  8424  0E5A  009B               	movwf	27	;volatile
  8425  0E5B                     l3075:
  8426                           
  8427                           ;mcc_generated_files/eusart.c: 110:     SPBRGH = 0x00;
  8428  0E5B  019C               	clrf	28	;volatile
  8429  0E5C                     l3077:
  8430                           
  8431                           ;mcc_generated_files/eusart.c: 113:     EUSART_SetFramingErrorHandler(EUSART_DefaultFram
      +                          ingErrorHandler);
  8432  0E5C  30B4               	movlw	low _EUSART_DefaultFramingErrorHandler
  8433  0E5D  0020               	movlb	0	; select bank0
  8434  0E5E  00A2               	movwf	EUSART_SetFramingErrorHandler@interruptHandler
  8435  0E5F  3009               	movlw	high _EUSART_DefaultFramingErrorHandler
  8436  0E60  00A3               	movwf	EUSART_SetFramingErrorHandler@interruptHandler+1
  8437  0E61  318A  2230  318E   	fcall	_EUSART_SetFramingErrorHandler
  8438  0E64                     l3079:
  8439                           
  8440                           ;mcc_generated_files/eusart.c: 114:     EUSART_SetOverrunErrorHandler(EUSART_DefaultOver
      +                          runErrorHandler);
  8441  0E64  30BD               	movlw	low _EUSART_DefaultOverrunErrorHandler
  8442  0E65  0020               	movlb	0	; select bank0
  8443  0E66  00A2               	movwf	EUSART_SetOverrunErrorHandler@interruptHandler
  8444  0E67  3009               	movlw	high _EUSART_DefaultOverrunErrorHandler
  8445  0E68  00A3               	movwf	EUSART_SetOverrunErrorHandler@interruptHandler+1
  8446  0E69  318A  2239  318E   	fcall	_EUSART_SetOverrunErrorHandler
  8447  0E6C                     l3081:
  8448                           
  8449                           ;mcc_generated_files/eusart.c: 115:     EUSART_SetErrorHandler(EUSART_DefaultErrorHandle
      +                          r);
  8450  0E6C  30B9               	movlw	low _EUSART_DefaultErrorHandler
  8451  0E6D  0020               	movlb	0	; select bank0
  8452  0E6E  00A2               	movwf	EUSART_SetErrorHandler@interruptHandler
  8453  0E6F  3009               	movlw	high _EUSART_DefaultErrorHandler
  8454  0E70  00A3               	movwf	EUSART_SetErrorHandler@interruptHandler+1
  8455  0E71  318A  2227  318E   	fcall	_EUSART_SetErrorHandler
  8456                           
  8457                           ;mcc_generated_files/eusart.c: 117:     eusartRxLastError.status = 0;
  8458  0E74  0021               	movlb	1	; select bank1
  8459  0E75  01C4               	clrf	_eusartRxLastError^(0+128)	;volatile
  8460                           
  8461                           ;mcc_generated_files/eusart.c: 120:     eusartTxHead = 0;
  8462  0E76  01C7               	clrf	_eusartTxHead^(0+128)	;volatile
  8463                           
  8464                           ;mcc_generated_files/eusart.c: 121:     eusartTxTail = 0;
  8465  0E77  01C6               	clrf	_eusartTxTail^(0+128)	;volatile
  8466  0E78                     l3083:
  8467                           
  8468                           ;mcc_generated_files/eusart.c: 122:     eusartTxBufferRemaining = sizeof(eusartTxBuffer)
      +                          ;
  8469  0E78  3008               	movlw	8
  8470  0E79  0020               	movlb	0	; select bank0
  8471  0E7A  00A4               	movwf	??_EUSART_Initialize
  8472  0E7B  0824               	movf	??_EUSART_Initialize,w
  8473  0E7C  0021               	movlb	1	; select bank1
  8474  0E7D  00E4               	movwf	_eusartTxBufferRemaining^(0+128)	;volatile
  8475  0E7E                     l3085:
  8476                           
  8477                           ;mcc_generated_files/eusart.c: 124:     eusartRxHead = 0;
  8478  0E7E  0020               	movlb	0	; select bank0
  8479  0E7F  01ED               	clrf	_eusartRxHead	;volatile
  8480  0E80                     l3087:
  8481                           
  8482                           ;mcc_generated_files/eusart.c: 125:     eusartRxTail = 0;
  8483  0E80  01EC               	clrf	_eusartRxTail	;volatile
  8484  0E81                     l3089:
  8485                           
  8486                           ;mcc_generated_files/eusart.c: 126:     eusartRxCount = 0;
  8487  0E81  0021               	movlb	1	; select bank1
  8488  0E82  01C5               	clrf	_eusartRxCount^(0+128)	;volatile
  8489  0E83                     l3091:
  8490                           
  8491                           ;mcc_generated_files/eusart.c: 129:     PIE1bits.RCIE = 1;
  8492  0E83  1691               	bsf	17,5	;volatile
  8493  0E84                     l307:
  8494  0E84  0008               	return
  8495  0E85                     __end_of_EUSART_Initialize:
  8496                           
  8497                           	psect	text29
  8498  0A4B                     __ptext29:	
  8499 ;; *************** function _EUSART_SetTxInterruptHandler *****************
  8500 ;; Defined at:
  8501 ;;		line 276 in file "mcc_generated_files/eusart.c"
  8502 ;; Parameters:    Size  Location     Type
  8503 ;;  interruptHan    2    2[BANK0 ] PTR FTN()void 
  8504 ;;		 -> EUSART_Transmit_ISR(1), 
  8505 ;; Auto vars:     Size  Location     Type
  8506 ;;		None
  8507 ;; Return value:  Size  Location     Type
  8508 ;;                  1    wreg      void 
  8509 ;; Registers used:
  8510 ;;		wreg
  8511 ;; Tracked objects:
  8512 ;;		On entry : 0/0
  8513 ;;		On exit  : 0/0
  8514 ;;		Unchanged: 0/0
  8515 ;; Data sizes:     COMMON   BANK0   BANK1   BANK2   BANK3   BANK4
  8516 ;;      Params:         0       2       0       0       0       0
  8517 ;;      Locals:         0       0       0       0       0       0
  8518 ;;      Temps:          0       0       0       0       0       0
  8519 ;;      Totals:         0       2       0       0       0       0
  8520 ;;Total ram usage:        2 bytes
  8521 ;; Hardware stack levels used: 1
  8522 ;; Hardware stack levels required when called: 6
  8523 ;; This function calls:
  8524 ;;		Nothing
  8525 ;; This function is called by:
  8526 ;;		_EUSART_Initialize
  8527 ;; This function uses a non-reentrant model
  8528 ;;
  8529                           
  8530                           
  8531                           ;psect for function _EUSART_SetTxInterruptHandler
  8532  0A4B                     _EUSART_SetTxInterruptHandler:
  8533  0A4B                     l2825:	
  8534                           ;incstack = 0
  8535                           ; Regs used in _EUSART_SetTxInterruptHandler: [wreg]
  8536                           
  8537                           
  8538                           ;mcc_generated_files/eusart.c: 277:     EUSART_TxDefaultInterruptHandler = interruptHand
      +                          ler;
  8539  0A4B  0020               	movlb	0	; select bank0
  8540  0A4C  0823               	movf	EUSART_SetTxInterruptHandler@interruptHandler+1,w
  8541  0A4D  0021               	movlb	1	; select bank1
  8542  0A4E  00DF               	movwf	(_EUSART_TxDefaultInterruptHandler+1)^(0+128)
  8543  0A4F  0020               	movlb	0	; select bank0
  8544  0A50  0822               	movf	EUSART_SetTxInterruptHandler@interruptHandler,w
  8545  0A51  0021               	movlb	1	; select bank1
  8546  0A52  00DE               	movwf	_EUSART_TxDefaultInterruptHandler^(0+128)
  8547  0A53                     l373:
  8548  0A53  0008               	return
  8549  0A54                     __end_of_EUSART_SetTxInterruptHandler:
  8550                           
  8551                           	psect	text30
  8552  0A42                     __ptext30:	
  8553 ;; *************** function _EUSART_SetRxInterruptHandler *****************
  8554 ;; Defined at:
  8555 ;;		line 280 in file "mcc_generated_files/eusart.c"
  8556 ;; Parameters:    Size  Location     Type
  8557 ;;  interruptHan    2    2[BANK0 ] PTR FTN()void 
  8558 ;;		 -> EUSART_Receive_ISR(1), 
  8559 ;; Auto vars:     Size  Location     Type
  8560 ;;		None
  8561 ;; Return value:  Size  Location     Type
  8562 ;;                  1    wreg      void 
  8563 ;; Registers used:
  8564 ;;		wreg
  8565 ;; Tracked objects:
  8566 ;;		On entry : 0/0
  8567 ;;		On exit  : 0/0
  8568 ;;		Unchanged: 0/0
  8569 ;; Data sizes:     COMMON   BANK0   BANK1   BANK2   BANK3   BANK4
  8570 ;;      Params:         0       2       0       0       0       0
  8571 ;;      Locals:         0       0       0       0       0       0
  8572 ;;      Temps:          0       0       0       0       0       0
  8573 ;;      Totals:         0       2       0       0       0       0
  8574 ;;Total ram usage:        2 bytes
  8575 ;; Hardware stack levels used: 1
  8576 ;; Hardware stack levels required when called: 6
  8577 ;; This function calls:
  8578 ;;		Nothing
  8579 ;; This function is called by:
  8580 ;;		_EUSART_Initialize
  8581 ;; This function uses a non-reentrant model
  8582 ;;
  8583                           
  8584                           
  8585                           ;psect for function _EUSART_SetRxInterruptHandler
  8586  0A42                     _EUSART_SetRxInterruptHandler:
  8587  0A42                     l2823:	
  8588                           ;incstack = 0
  8589                           ; Regs used in _EUSART_SetRxInterruptHandler: [wreg]
  8590                           
  8591                           
  8592                           ;mcc_generated_files/eusart.c: 281:     EUSART_RxDefaultInterruptHandler = interruptHand
      +                          ler;
  8593  0A42  0020               	movlb	0	; select bank0
  8594  0A43  0823               	movf	EUSART_SetRxInterruptHandler@interruptHandler+1,w
  8595  0A44  0021               	movlb	1	; select bank1
  8596  0A45  00DD               	movwf	(_EUSART_RxDefaultInterruptHandler+1)^(0+128)
  8597  0A46  0020               	movlb	0	; select bank0
  8598  0A47  0822               	movf	EUSART_SetRxInterruptHandler@interruptHandler,w
  8599  0A48  0021               	movlb	1	; select bank1
  8600  0A49  00DC               	movwf	_EUSART_RxDefaultInterruptHandler^(0+128)
  8601  0A4A                     l376:
  8602  0A4A  0008               	return
  8603  0A4B                     __end_of_EUSART_SetRxInterruptHandler:
  8604                           
  8605                           	psect	text31
  8606  0A39                     __ptext31:	
  8607 ;; *************** function _EUSART_SetOverrunErrorHandler *****************
  8608 ;; Defined at:
  8609 ;;		line 268 in file "mcc_generated_files/eusart.c"
  8610 ;; Parameters:    Size  Location     Type
  8611 ;;  interruptHan    2    2[BANK0 ] PTR FTN()void 
  8612 ;;		 -> EUSART_DefaultOverrunErrorHandler(1), 
  8613 ;; Auto vars:     Size  Location     Type
  8614 ;;		None
  8615 ;; Return value:  Size  Location     Type
  8616 ;;                  1    wreg      void 
  8617 ;; Registers used:
  8618 ;;		wreg
  8619 ;; Tracked objects:
  8620 ;;		On entry : 0/0
  8621 ;;		On exit  : 0/0
  8622 ;;		Unchanged: 0/0
  8623 ;; Data sizes:     COMMON   BANK0   BANK1   BANK2   BANK3   BANK4
  8624 ;;      Params:         0       2       0       0       0       0
  8625 ;;      Locals:         0       0       0       0       0       0
  8626 ;;      Temps:          0       0       0       0       0       0
  8627 ;;      Totals:         0       2       0       0       0       0
  8628 ;;Total ram usage:        2 bytes
  8629 ;; Hardware stack levels used: 1
  8630 ;; Hardware stack levels required when called: 6
  8631 ;; This function calls:
  8632 ;;		Nothing
  8633 ;; This function is called by:
  8634 ;;		_EUSART_Initialize
  8635 ;; This function uses a non-reentrant model
  8636 ;;
  8637                           
  8638                           
  8639                           ;psect for function _EUSART_SetOverrunErrorHandler
  8640  0A39                     _EUSART_SetOverrunErrorHandler:
  8641  0A39                     l2829:	
  8642                           ;incstack = 0
  8643                           ; Regs used in _EUSART_SetOverrunErrorHandler: [wreg]
  8644                           
  8645                           
  8646                           ;mcc_generated_files/eusart.c: 269:     EUSART_OverrunErrorHandler = interruptHandler;
  8647  0A39  0020               	movlb	0	; select bank0
  8648  0A3A  0823               	movf	EUSART_SetOverrunErrorHandler@interruptHandler+1,w
  8649  0A3B  0022               	movlb	2	; select bank2
  8650  0A3C  00C5               	movwf	(_EUSART_OverrunErrorHandler+1)^(0+256)
  8651  0A3D  0020               	movlb	0	; select bank0
  8652  0A3E  0822               	movf	EUSART_SetOverrunErrorHandler@interruptHandler,w
  8653  0A3F  0022               	movlb	2	; select bank2
  8654  0A40  00C4               	movwf	_EUSART_OverrunErrorHandler^(0+256)
  8655  0A41                     l367:
  8656  0A41  0008               	return
  8657  0A42                     __end_of_EUSART_SetOverrunErrorHandler:
  8658                           
  8659                           	psect	text32
  8660  0A30                     __ptext32:	
  8661 ;; *************** function _EUSART_SetFramingErrorHandler *****************
  8662 ;; Defined at:
  8663 ;;		line 264 in file "mcc_generated_files/eusart.c"
  8664 ;; Parameters:    Size  Location     Type
  8665 ;;  interruptHan    2    2[BANK0 ] PTR FTN()void 
  8666 ;;		 -> EUSART_DefaultFramingErrorHandler(1), 
  8667 ;; Auto vars:     Size  Location     Type
  8668 ;;		None
  8669 ;; Return value:  Size  Location     Type
  8670 ;;                  1    wreg      void 
  8671 ;; Registers used:
  8672 ;;		wreg
  8673 ;; Tracked objects:
  8674 ;;		On entry : 0/0
  8675 ;;		On exit  : 0/0
  8676 ;;		Unchanged: 0/0
  8677 ;; Data sizes:     COMMON   BANK0   BANK1   BANK2   BANK3   BANK4
  8678 ;;      Params:         0       2       0       0       0       0
  8679 ;;      Locals:         0       0       0       0       0       0
  8680 ;;      Temps:          0       0       0       0       0       0
  8681 ;;      Totals:         0       2       0       0       0       0
  8682 ;;Total ram usage:        2 bytes
  8683 ;; Hardware stack levels used: 1
  8684 ;; Hardware stack levels required when called: 6
  8685 ;; This function calls:
  8686 ;;		Nothing
  8687 ;; This function is called by:
  8688 ;;		_EUSART_Initialize
  8689 ;; This function uses a non-reentrant model
  8690 ;;
  8691                           
  8692                           
  8693                           ;psect for function _EUSART_SetFramingErrorHandler
  8694  0A30                     _EUSART_SetFramingErrorHandler:
  8695  0A30                     l2827:	
  8696                           ;incstack = 0
  8697                           ; Regs used in _EUSART_SetFramingErrorHandler: [wreg]
  8698                           
  8699                           
  8700                           ;mcc_generated_files/eusart.c: 265:     EUSART_FramingErrorHandler = interruptHandler;
  8701  0A30  0020               	movlb	0	; select bank0
  8702  0A31  0823               	movf	EUSART_SetFramingErrorHandler@interruptHandler+1,w
  8703  0A32  0022               	movlb	2	; select bank2
  8704  0A33  00C7               	movwf	(_EUSART_FramingErrorHandler+1)^(0+256)
  8705  0A34  0020               	movlb	0	; select bank0
  8706  0A35  0822               	movf	EUSART_SetFramingErrorHandler@interruptHandler,w
  8707  0A36  0022               	movlb	2	; select bank2
  8708  0A37  00C6               	movwf	_EUSART_FramingErrorHandler^(0+256)
  8709  0A38                     l364:
  8710  0A38  0008               	return
  8711  0A39                     __end_of_EUSART_SetFramingErrorHandler:
  8712                           
  8713                           	psect	text33
  8714  0A27                     __ptext33:	
  8715 ;; *************** function _EUSART_SetErrorHandler *****************
  8716 ;; Defined at:
  8717 ;;		line 272 in file "mcc_generated_files/eusart.c"
  8718 ;; Parameters:    Size  Location     Type
  8719 ;;  interruptHan    2    2[BANK0 ] PTR FTN()void 
  8720 ;;		 -> EUSART_DefaultErrorHandler(1), 
  8721 ;; Auto vars:     Size  Location     Type
  8722 ;;		None
  8723 ;; Return value:  Size  Location     Type
  8724 ;;                  1    wreg      void 
  8725 ;; Registers used:
  8726 ;;		wreg
  8727 ;; Tracked objects:
  8728 ;;		On entry : 0/0
  8729 ;;		On exit  : 0/0
  8730 ;;		Unchanged: 0/0
  8731 ;; Data sizes:     COMMON   BANK0   BANK1   BANK2   BANK3   BANK4
  8732 ;;      Params:         0       2       0       0       0       0
  8733 ;;      Locals:         0       0       0       0       0       0
  8734 ;;      Temps:          0       0       0       0       0       0
  8735 ;;      Totals:         0       2       0       0       0       0
  8736 ;;Total ram usage:        2 bytes
  8737 ;; Hardware stack levels used: 1
  8738 ;; Hardware stack levels required when called: 6
  8739 ;; This function calls:
  8740 ;;		Nothing
  8741 ;; This function is called by:
  8742 ;;		_EUSART_Initialize
  8743 ;; This function uses a non-reentrant model
  8744 ;;
  8745                           
  8746                           
  8747                           ;psect for function _EUSART_SetErrorHandler
  8748  0A27                     _EUSART_SetErrorHandler:
  8749  0A27                     l2831:	
  8750                           ;incstack = 0
  8751                           ; Regs used in _EUSART_SetErrorHandler: [wreg]
  8752                           
  8753                           
  8754                           ;mcc_generated_files/eusart.c: 273:     EUSART_ErrorHandler = interruptHandler;
  8755  0A27  0020               	movlb	0	; select bank0
  8756  0A28  0823               	movf	EUSART_SetErrorHandler@interruptHandler+1,w
  8757  0A29  0022               	movlb	2	; select bank2
  8758  0A2A  00C3               	movwf	(_EUSART_ErrorHandler+1)^(0+256)
  8759  0A2B  0020               	movlb	0	; select bank0
  8760  0A2C  0822               	movf	EUSART_SetErrorHandler@interruptHandler,w
  8761  0A2D  0022               	movlb	2	; select bank2
  8762  0A2E  00C2               	movwf	_EUSART_ErrorHandler^(0+256)
  8763  0A2F                     l370:
  8764  0A2F  0008               	return
  8765  0A30                     __end_of_EUSART_SetErrorHandler:
  8766                           
  8767                           	psect	text34
  8768  09DA                     __ptext34:	
  8769 ;; *************** function _DAC_Initialize *****************
  8770 ;; Defined at:
  8771 ;;		line 58 in file "mcc_generated_files/dac.c"
  8772 ;; Parameters:    Size  Location     Type
  8773 ;;		None
  8774 ;; Auto vars:     Size  Location     Type
  8775 ;;		None
  8776 ;; Return value:  Size  Location     Type
  8777 ;;                  1    wreg      void 
  8778 ;; Registers used:
  8779 ;;		wreg
  8780 ;; Tracked objects:
  8781 ;;		On entry : 0/0
  8782 ;;		On exit  : 0/0
  8783 ;;		Unchanged: 0/0
  8784 ;; Data sizes:     COMMON   BANK0   BANK1   BANK2   BANK3   BANK4
  8785 ;;      Params:         0       0       0       0       0       0
  8786 ;;      Locals:         0       0       0       0       0       0
  8787 ;;      Temps:          0       0       0       0       0       0
  8788 ;;      Totals:         0       0       0       0       0       0
  8789 ;;Total ram usage:        0 bytes
  8790 ;; Hardware stack levels used: 1
  8791 ;; Hardware stack levels required when called: 6
  8792 ;; This function calls:
  8793 ;;		Nothing
  8794 ;; This function is called by:
  8795 ;;		_SYSTEM_Initialize
  8796 ;; This function uses a non-reentrant model
  8797 ;;
  8798                           
  8799                           
  8800                           ;psect for function _DAC_Initialize
  8801  09DA                     _DAC_Initialize:
  8802  09DA                     l2989:	
  8803                           ;incstack = 0
  8804                           ; Regs used in _DAC_Initialize: [wreg]
  8805                           
  8806                           
  8807                           ;mcc_generated_files/dac.c: 61:     DACCON0 = 0x88;
  8808  09DA  3088               	movlw	136
  8809  09DB  0022               	movlb	2	; select bank2
  8810  09DC  0098               	movwf	24	;volatile
  8811                           
  8812                           ;mcc_generated_files/dac.c: 63:     DACCON1 = 0x08;
  8813  09DD  3008               	movlw	8
  8814  09DE  0099               	movwf	25	;volatile
  8815  09DF                     l694:
  8816  09DF  0008               	return
  8817  09E0                     __end_of_DAC_Initialize:
  8818                           
  8819                           	psect	text35
  8820  0A84                     __ptext35:	
  8821 ;; *************** function _CMP2_Initialize *****************
  8822 ;; Defined at:
  8823 ;;		line 58 in file "mcc_generated_files/cmp2.c"
  8824 ;; Parameters:    Size  Location     Type
  8825 ;;		None
  8826 ;; Auto vars:     Size  Location     Type
  8827 ;;		None
  8828 ;; Return value:  Size  Location     Type
  8829 ;;                  1    wreg      void 
  8830 ;; Registers used:
  8831 ;;		wreg
  8832 ;; Tracked objects:
  8833 ;;		On entry : 0/0
  8834 ;;		On exit  : 0/0
  8835 ;;		Unchanged: 0/0
  8836 ;; Data sizes:     COMMON   BANK0   BANK1   BANK2   BANK3   BANK4
  8837 ;;      Params:         0       0       0       0       0       0
  8838 ;;      Locals:         0       0       0       0       0       0
  8839 ;;      Temps:          0       0       0       0       0       0
  8840 ;;      Totals:         0       0       0       0       0       0
  8841 ;;Total ram usage:        0 bytes
  8842 ;; Hardware stack levels used: 1
  8843 ;; Hardware stack levels required when called: 6
  8844 ;; This function calls:
  8845 ;;		Nothing
  8846 ;; This function is called by:
  8847 ;;		_SYSTEM_Initialize
  8848 ;; This function uses a non-reentrant model
  8849 ;;
  8850                           
  8851                           
  8852                           ;psect for function _CMP2_Initialize
  8853  0A84                     _CMP2_Initialize:
  8854  0A84                     l2981:	
  8855                           ;incstack = 0
  8856                           ; Regs used in _CMP2_Initialize: [wreg]
  8857                           
  8858                           
  8859                           ;mcc_generated_files/cmp2.c: 65:     PIE2bits.C2IE = 0;
  8860  0A84  0021               	movlb	1	; select bank1
  8861  0A85  1312               	bcf	18,6	;volatile
  8862  0A86                     l2983:
  8863                           
  8864                           ;mcc_generated_files/cmp2.c: 68:     CM2CON0 = 0x86;
  8865  0A86  3086               	movlw	134
  8866  0A87  0022               	movlb	2	; select bank2
  8867  0A88  0093               	movwf	19	;volatile
  8868                           
  8869                           ;mcc_generated_files/cmp2.c: 71:     CM2CON1 = 0x51;
  8870  0A89  3051               	movlw	81
  8871  0A8A  0094               	movwf	20	;volatile
  8872  0A8B                     l2985:
  8873                           
  8874                           ;mcc_generated_files/cmp2.c: 74:     PIR2bits.C2IF = 0;
  8875  0A8B  0020               	movlb	0	; select bank0
  8876  0A8C  1312               	bcf	18,6	;volatile
  8877  0A8D                     l2987:
  8878                           
  8879                           ;mcc_generated_files/cmp2.c: 77:     PIE2bits.C2IE = 1;
  8880  0A8D  0021               	movlb	1	; select bank1
  8881  0A8E  1712               	bsf	18,6	;volatile
  8882  0A8F                     l684:
  8883  0A8F  0008               	return
  8884  0A90                     __end_of_CMP2_Initialize:
  8885                           
  8886                           	psect	text36
  8887  0A78                     __ptext36:	
  8888 ;; *************** function _CMP1_Initialize *****************
  8889 ;; Defined at:
  8890 ;;		line 58 in file "mcc_generated_files/cmp1.c"
  8891 ;; Parameters:    Size  Location     Type
  8892 ;;		None
  8893 ;; Auto vars:     Size  Location     Type
  8894 ;;		None
  8895 ;; Return value:  Size  Location     Type
  8896 ;;                  1    wreg      void 
  8897 ;; Registers used:
  8898 ;;		wreg
  8899 ;; Tracked objects:
  8900 ;;		On entry : 0/0
  8901 ;;		On exit  : 0/0
  8902 ;;		Unchanged: 0/0
  8903 ;; Data sizes:     COMMON   BANK0   BANK1   BANK2   BANK3   BANK4
  8904 ;;      Params:         0       0       0       0       0       0
  8905 ;;      Locals:         0       0       0       0       0       0
  8906 ;;      Temps:          0       0       0       0       0       0
  8907 ;;      Totals:         0       0       0       0       0       0
  8908 ;;Total ram usage:        0 bytes
  8909 ;; Hardware stack levels used: 1
  8910 ;; Hardware stack levels required when called: 6
  8911 ;; This function calls:
  8912 ;;		Nothing
  8913 ;; This function is called by:
  8914 ;;		_SYSTEM_Initialize
  8915 ;; This function uses a non-reentrant model
  8916 ;;
  8917                           
  8918                           
  8919                           ;psect for function _CMP1_Initialize
  8920  0A78                     _CMP1_Initialize:
  8921  0A78                     l3011:	
  8922                           ;incstack = 0
  8923                           ; Regs used in _CMP1_Initialize: [wreg]
  8924                           
  8925                           
  8926                           ;mcc_generated_files/cmp1.c: 65:     PIE2bits.C1IE = 0;
  8927  0A78  0021               	movlb	1	; select bank1
  8928  0A79  1292               	bcf	18,5	;volatile
  8929  0A7A                     l3013:
  8930                           
  8931                           ;mcc_generated_files/cmp1.c: 68:     CM1CON0 = 0x86;
  8932  0A7A  3086               	movlw	134
  8933  0A7B  0022               	movlb	2	; select bank2
  8934  0A7C  0091               	movwf	17	;volatile
  8935                           
  8936                           ;mcc_generated_files/cmp1.c: 71:     CM1CON1 = 0x50;
  8937  0A7D  3050               	movlw	80
  8938  0A7E  0092               	movwf	18	;volatile
  8939  0A7F                     l3015:
  8940                           
  8941                           ;mcc_generated_files/cmp1.c: 74:     PIR2bits.C1IF = 0;
  8942  0A7F  0020               	movlb	0	; select bank0
  8943  0A80  1292               	bcf	18,5	;volatile
  8944  0A81                     l3017:
  8945                           
  8946                           ;mcc_generated_files/cmp1.c: 77:     PIE2bits.C1IE = 1;
  8947  0A81  0021               	movlb	1	; select bank1
  8948  0A82  1692               	bsf	18,5	;volatile
  8949  0A83                     l668:
  8950  0A83  0008               	return
  8951  0A84                     __end_of_CMP1_Initialize:
  8952                           
  8953                           	psect	text37
  8954  0B07                     __ptext37:	
  8955 ;; *************** function _CCP4_Initialize *****************
  8956 ;; Defined at:
  8957 ;;		line 65 in file "mcc_generated_files/ccp4.c"
  8958 ;; Parameters:    Size  Location     Type
  8959 ;;		None
  8960 ;; Auto vars:     Size  Location     Type
  8961 ;;		None
  8962 ;; Return value:  Size  Location     Type
  8963 ;;                  1    wreg      void 
  8964 ;; Registers used:
  8965 ;;		wreg, status,2, status,0, pclath, cstack
  8966 ;; Tracked objects:
  8967 ;;		On entry : 0/0
  8968 ;;		On exit  : 0/0
  8969 ;;		Unchanged: 0/0
  8970 ;; Data sizes:     COMMON   BANK0   BANK1   BANK2   BANK3   BANK4
  8971 ;;      Params:         0       0       0       0       0       0
  8972 ;;      Locals:         0       0       0       0       0       0
  8973 ;;      Temps:          0       0       0       0       0       0
  8974 ;;      Totals:         0       0       0       0       0       0
  8975 ;;Total ram usage:        0 bytes
  8976 ;; Hardware stack levels used: 1
  8977 ;; Hardware stack levels required when called: 7
  8978 ;; This function calls:
  8979 ;;		_CCP4_SetCallBack
  8980 ;; This function is called by:
  8981 ;;		_SYSTEM_Initialize
  8982 ;; This function uses a non-reentrant model
  8983 ;;
  8984                           
  8985                           
  8986                           ;psect for function _CCP4_Initialize
  8987  0B07                     _CCP4_Initialize:
  8988  0B07                     l3019:	
  8989                           ;incstack = 0
  8990                           ; Regs used in _CCP4_Initialize: [wreg+status,2+status,0+pclath+cstack]
  8991                           
  8992                           
  8993                           ;mcc_generated_files/ccp4.c: 70:  CCP4CON = 0x04;
  8994  0B07  3004               	movlw	4
  8995  0B08  0026               	movlb	6	; select bank6
  8996  0B09  009A               	movwf	26	;volatile
  8997  0B0A                     l3021:
  8998                           
  8999                           ;mcc_generated_files/ccp4.c: 73:  CCPR4L = 0x00;
  9000  0B0A  0198               	clrf	24	;volatile
  9001  0B0B                     l3023:
  9002                           
  9003                           ;mcc_generated_files/ccp4.c: 76:  CCPR4H = 0x00;
  9004  0B0B  0199               	clrf	25	;volatile
  9005  0B0C                     l3025:
  9006                           
  9007                           ;mcc_generated_files/ccp4.c: 79:     CCP4_SetCallBack(CCP4_DefaultCallBack);
  9008  0B0C  30B3               	movlw	low _CCP4_DefaultCallBack
  9009  0B0D  0020               	movlb	0	; select bank0
  9010  0B0E  00A2               	movwf	CCP4_SetCallBack@customCallBack
  9011  0B0F  3009               	movlw	high _CCP4_DefaultCallBack
  9012  0B10  00A3               	movwf	CCP4_SetCallBack@customCallBack+1
  9013  0B11  318A  221E  318B   	fcall	_CCP4_SetCallBack
  9014  0B14                     l3027:
  9015                           
  9016                           ;mcc_generated_files/ccp4.c: 83:     PIR3bits.CCP4IF = 0;
  9017  0B14  0020               	movlb	0	; select bank0
  9018  0B15  1293               	bcf	19,5	;volatile
  9019  0B16                     l3029:
  9020                           
  9021                           ;mcc_generated_files/ccp4.c: 86:     PIE3bits.CCP4IE = 1;
  9022  0B16  0021               	movlb	1	; select bank1
  9023  0B17  1693               	bsf	19,5	;volatile
  9024  0B18                     l649:
  9025  0B18  0008               	return
  9026  0B19                     __end_of_CCP4_Initialize:
  9027                           
  9028                           	psect	text38
  9029  0A1E                     __ptext38:	
  9030 ;; *************** function _CCP4_SetCallBack *****************
  9031 ;; Defined at:
  9032 ;;		line 104 in file "mcc_generated_files/ccp4.c"
  9033 ;; Parameters:    Size  Location     Type
  9034 ;;  customCallBa    2    2[BANK0 ] PTR FTN(unsigned short ,
  9035 ;;		 -> Enc(1), CCP4_DefaultCallBack(1), 
  9036 ;; Auto vars:     Size  Location     Type
  9037 ;;		None
  9038 ;; Return value:  Size  Location     Type
  9039 ;;                  1    wreg      void 
  9040 ;; Registers used:
  9041 ;;		wreg
  9042 ;; Tracked objects:
  9043 ;;		On entry : 0/0
  9044 ;;		On exit  : 0/0
  9045 ;;		Unchanged: 0/0
  9046 ;; Data sizes:     COMMON   BANK0   BANK1   BANK2   BANK3   BANK4
  9047 ;;      Params:         0       2       0       0       0       0
  9048 ;;      Locals:         0       0       0       0       0       0
  9049 ;;      Temps:          0       0       0       0       0       0
  9050 ;;      Totals:         0       2       0       0       0       0
  9051 ;;Total ram usage:        2 bytes
  9052 ;; Hardware stack levels used: 1
  9053 ;; Hardware stack levels required when called: 6
  9054 ;; This function calls:
  9055 ;;		Nothing
  9056 ;; This function is called by:
  9057 ;;		_CCP4_Initialize
  9058 ;;		_main
  9059 ;; This function uses a non-reentrant model
  9060 ;;
  9061                           
  9062                           
  9063                           ;psect for function _CCP4_SetCallBack
  9064  0A1E                     _CCP4_SetCallBack:
  9065  0A1E                     l2881:	
  9066                           ;incstack = 0
  9067                           ; Regs used in _CCP4_SetCallBack: [wreg]
  9068                           
  9069                           
  9070                           ;mcc_generated_files/ccp4.c: 105:     CCP4_CallBack = customCallBack;
  9071  0A1E  0020               	movlb	0	; select bank0
  9072  0A1F  0823               	movf	CCP4_SetCallBack@customCallBack+1,w
  9073  0A20  0022               	movlb	2	; select bank2
  9074  0A21  00C1               	movwf	(_CCP4_CallBack+1)^(0+256)
  9075  0A22  0020               	movlb	0	; select bank0
  9076  0A23  0822               	movf	CCP4_SetCallBack@customCallBack,w
  9077  0A24  0022               	movlb	2	; select bank2
  9078  0A25  00C0               	movwf	_CCP4_CallBack^(0+256)
  9079  0A26                     l655:
  9080  0A26  0008               	return
  9081  0A27                     __end_of_CCP4_SetCallBack:
  9082                           
  9083                           	psect	text39
  9084  09F3                     __ptext39:	
  9085 ;; *************** function _ADC_Initialize *****************
  9086 ;; Defined at:
  9087 ;;		line 67 in file "mcc_generated_files/adc.c"
  9088 ;; Parameters:    Size  Location     Type
  9089 ;;		None
  9090 ;; Auto vars:     Size  Location     Type
  9091 ;;		None
  9092 ;; Return value:  Size  Location     Type
  9093 ;;                  1    wreg      void 
  9094 ;; Registers used:
  9095 ;;		wreg, status,2
  9096 ;; Tracked objects:
  9097 ;;		On entry : 0/0
  9098 ;;		On exit  : 0/0
  9099 ;;		Unchanged: 0/0
  9100 ;; Data sizes:     COMMON   BANK0   BANK1   BANK2   BANK3   BANK4
  9101 ;;      Params:         0       0       0       0       0       0
  9102 ;;      Locals:         0       0       0       0       0       0
  9103 ;;      Temps:          0       0       0       0       0       0
  9104 ;;      Totals:         0       0       0       0       0       0
  9105 ;;Total ram usage:        0 bytes
  9106 ;; Hardware stack levels used: 1
  9107 ;; Hardware stack levels required when called: 6
  9108 ;; This function calls:
  9109 ;;		Nothing
  9110 ;; This function is called by:
  9111 ;;		_SYSTEM_Initialize
  9112 ;; This function uses a non-reentrant model
  9113 ;;
  9114                           
  9115                           
  9116                           ;psect for function _ADC_Initialize
  9117  09F3                     _ADC_Initialize:
  9118  09F3                     l3031:	
  9119                           ;incstack = 0
  9120                           ; Regs used in _ADC_Initialize: [wreg+status,2]
  9121                           
  9122                           
  9123                           ;mcc_generated_files/adc.c: 72:     ADCON1 = 0x83;
  9124  09F3  3083               	movlw	131
  9125  09F4  0021               	movlb	1	; select bank1
  9126  09F5  009E               	movwf	30	;volatile
  9127  09F6                     l3033:
  9128                           
  9129                           ;mcc_generated_files/adc.c: 75:     ADRESL = 0x00;
  9130  09F6  019B               	clrf	27	;volatile
  9131  09F7                     l3035:
  9132                           
  9133                           ;mcc_generated_files/adc.c: 78:     ADRESH = 0x00;
  9134  09F7  019C               	clrf	28	;volatile
  9135                           
  9136                           ;mcc_generated_files/adc.c: 81:     ADCON0 = 0x01;
  9137  09F8  3001               	movlw	1
  9138  09F9  009D               	movwf	29	;volatile
  9139  09FA                     l499:
  9140  09FA  0008               	return
  9141  09FB                     __end_of_ADC_Initialize:
  9142                           
  9143                           	psect	text40
  9144  0EDB                     __ptext40:	
  9145 ;; *************** function _SPI1_Open *****************
  9146 ;; Defined at:
  9147 ;;		line 72 in file "mcc_generated_files/spi1.c"
  9148 ;; Parameters:    Size  Location     Type
  9149 ;;  spi1UniqueCo    1    wreg     enum E355
  9150 ;; Auto vars:     Size  Location     Type
  9151 ;;  spi1UniqueCo    1    5[BANK0 ] enum E355
  9152 ;; Return value:  Size  Location     Type
  9153 ;;                  1    wreg      _Bool 
  9154 ;; Registers used:
  9155 ;;		wreg, fsr0l, fsr0h, status,2, status,0, pclath
  9156 ;; Tracked objects:
  9157 ;;		On entry : 0/0
  9158 ;;		On exit  : 0/0
  9159 ;;		Unchanged: 0/0
  9160 ;; Data sizes:     COMMON   BANK0   BANK1   BANK2   BANK3   BANK4
  9161 ;;      Params:         0       0       0       0       0       0
  9162 ;;      Locals:         0       1       0       0       0       0
  9163 ;;      Temps:          0       3       0       0       0       0
  9164 ;;      Totals:         0       4       0       0       0       0
  9165 ;;Total ram usage:        4 bytes
  9166 ;; Hardware stack levels used: 1
  9167 ;; Hardware stack levels required when called: 6
  9168 ;; This function calls:
  9169 ;;		Nothing
  9170 ;; This function is called by:
  9171 ;;		_main
  9172 ;; This function uses a non-reentrant model
  9173 ;;
  9174                           
  9175                           
  9176                           ;psect for function _SPI1_Open
  9177  0EDB                     _SPI1_Open:
  9178                           
  9179                           ;incstack = 0
  9180                           ; Regs used in _SPI1_Open: [wreg-fsr0h+status,2+status,0+pclath]
  9181                           ;SPI1_Open@spi1UniqueConfiguration stored from wreg
  9182  0EDB  0020               	movlb	0	; select bank0
  9183  0EDC  00A5               	movwf	SPI1_Open@spi1UniqueConfiguration
  9184  0EDD                     l3217:
  9185                           
  9186                           ;mcc_generated_files/spi1.c: 72: _Bool SPI1_Open(spi1_modes_t spi1UniqueConfiguration);m
      +                          cc_generated_files/spi1.c: 73: {;mcc_generated_files/spi1.c: 74:     if(!SSP1CON1bits.SS
      +                          PEN)
  9187  0EDD  0024               	movlb	4	; select bank4
  9188  0EDE  1A95               	btfsc	21,5	;volatile
  9189  0EDF  2EE1               	goto	u2141
  9190  0EE0  2EE2               	goto	u2140
  9191  0EE1                     u2141:
  9192  0EE1  2F31               	goto	l196
  9193  0EE2                     u2140:
  9194  0EE2                     l3219:
  9195                           
  9196                           ;mcc_generated_files/spi1.c: 75:     {;mcc_generated_files/spi1.c: 76:         SSP1STAT 
      +                          = spi1_configuration[spi1UniqueConfiguration].stat;
  9197  0EE2  0020               	movlb	0	; select bank0
  9198  0EE3  0825               	movf	SPI1_Open@spi1UniqueConfiguration,w
  9199  0EE4  00A2               	movwf	??_SPI1_Open
  9200  0EE5  01A3               	clrf	??_SPI1_Open+1
  9201  0EE6  35A2               	lslf	??_SPI1_Open,f
  9202  0EE7  0DA3               	rlf	??_SPI1_Open+1,f
  9203  0EE8  35A2               	lslf	??_SPI1_Open,f
  9204  0EE9  0DA3               	rlf	??_SPI1_Open+1,f
  9205  0EEA  3000               	movlw	low ((_spi1_configuration+1)| (0+32768))
  9206  0EEB  0722               	addwf	??_SPI1_Open,w
  9207  0EEC  0084               	movwf	4
  9208  0EED  3088               	movlw	high ((_spi1_configuration+1)| (0+32768))
  9209  0EEE  3D23               	addwfc	??_SPI1_Open+1,w
  9210  0EEF  0085               	movwf	5
  9211  0EF0  0800               	movf	0,w	;code access
  9212  0EF1  0024               	movlb	4	; select bank4
  9213  0EF2  0094               	movwf	20	;volatile
  9214                           
  9215                           ;mcc_generated_files/spi1.c: 77:         SSP1CON1 = spi1_configuration[spi1UniqueConfigu
      +                          ration].con1;
  9216  0EF3  0020               	movlb	0	; select bank0
  9217  0EF4  0825               	movf	SPI1_Open@spi1UniqueConfiguration,w
  9218  0EF5  00A2               	movwf	??_SPI1_Open
  9219  0EF6  01A3               	clrf	??_SPI1_Open+1
  9220  0EF7  35A2               	lslf	??_SPI1_Open,f
  9221  0EF8  0DA3               	rlf	??_SPI1_Open+1,f
  9222  0EF9  35A2               	lslf	??_SPI1_Open,f
  9223  0EFA  0DA3               	rlf	??_SPI1_Open+1,f
  9224  0EFB  30FF               	movlw	low (_spi1_configuration| (0+32768))
  9225  0EFC  0722               	addwf	??_SPI1_Open,w
  9226  0EFD  0084               	movwf	4
  9227  0EFE  3087               	movlw	high (_spi1_configuration| (0+32768))
  9228  0EFF  3D23               	addwfc	??_SPI1_Open+1,w
  9229  0F00  0085               	movwf	5
  9230  0F01  0800               	movf	0,w	;code access
  9231  0F02  0024               	movlb	4	; select bank4
  9232  0F03  0095               	movwf	21	;volatile
  9233  0F04                     l3221:
  9234                           
  9235                           ;mcc_generated_files/spi1.c: 78:         SSP1CON2 = 0x00;
  9236  0F04  0196               	clrf	22	;volatile
  9237  0F05                     l3223:
  9238                           
  9239                           ;mcc_generated_files/spi1.c: 79:         SSP1ADD = spi1_configuration[spi1UniqueConfigur
      +                          ation].add;
  9240  0F05  0020               	movlb	0	; select bank0
  9241  0F06  0825               	movf	SPI1_Open@spi1UniqueConfiguration,w
  9242  0F07  00A2               	movwf	??_SPI1_Open
  9243  0F08  01A3               	clrf	??_SPI1_Open+1
  9244  0F09  35A2               	lslf	??_SPI1_Open,f
  9245  0F0A  0DA3               	rlf	??_SPI1_Open+1,f
  9246  0F0B  35A2               	lslf	??_SPI1_Open,f
  9247  0F0C  0DA3               	rlf	??_SPI1_Open+1,f
  9248  0F0D  3001               	movlw	low ((_spi1_configuration+2)| (0+32768))
  9249  0F0E  0722               	addwf	??_SPI1_Open,w
  9250  0F0F  0084               	movwf	4
  9251  0F10  3088               	movlw	high ((_spi1_configuration+2)| (0+32768))
  9252  0F11  3D23               	addwfc	??_SPI1_Open+1,w
  9253  0F12  0085               	movwf	5
  9254  0F13  0800               	movf	0,w	;code access
  9255  0F14  0024               	movlb	4	; select bank4
  9256  0F15  0092               	movwf	18	;volatile
  9257  0F16                     l3225:
  9258                           
  9259                           ;mcc_generated_files/spi1.c: 80:         TRISBbits.TRISB4 = spi1_configuration[spi1Uniqu
      +                          eConfiguration].operation;
  9260  0F16  0020               	movlb	0	; select bank0
  9261  0F17  0825               	movf	SPI1_Open@spi1UniqueConfiguration,w
  9262  0F18  00A2               	movwf	??_SPI1_Open
  9263  0F19  01A3               	clrf	??_SPI1_Open+1
  9264  0F1A  35A2               	lslf	??_SPI1_Open,f
  9265  0F1B  0DA3               	rlf	??_SPI1_Open+1,f
  9266  0F1C  35A2               	lslf	??_SPI1_Open,f
  9267  0F1D  0DA3               	rlf	??_SPI1_Open+1,f
  9268  0F1E  3002               	movlw	low ((_spi1_configuration+3)| (0+32768))
  9269  0F1F  0722               	addwf	??_SPI1_Open,w
  9270  0F20  0084               	movwf	4
  9271  0F21  3088               	movlw	high ((_spi1_configuration+3)| (0+32768))
  9272  0F22  3D23               	addwfc	??_SPI1_Open+1,w
  9273  0F23  0085               	movwf	5
  9274  0F24  0800               	movf	0,w	;code access
  9275  0F25  00A4               	movwf	??_SPI1_Open+2
  9276  0F26  0EA4               	swapf	??_SPI1_Open+2,f
  9277  0F27  0021               	movlb	1	; select bank1
  9278  0F28  080D               	movf	13,w	;volatile
  9279  0F29  0020               	movlb	0	; select bank0
  9280  0F2A  0624               	xorwf	??_SPI1_Open+2,w
  9281  0F2B  39EF               	andlw	-17
  9282  0F2C  0624               	xorwf	??_SPI1_Open+2,w
  9283  0F2D  0021               	movlb	1	; select bank1
  9284  0F2E  008D               	movwf	13	;volatile
  9285  0F2F                     l3227:
  9286                           
  9287                           ;mcc_generated_files/spi1.c: 81:         SSP1CON1bits.SSPEN = 1;
  9288  0F2F  0024               	movlb	4	; select bank4
  9289  0F30  1695               	bsf	21,5	;volatile
  9290  0F31                     l196:
  9291  0F31  0008               	return
  9292  0F32                     __end_of_SPI1_Open:
  9293                           
  9294                           	psect	text41
  9295  0A15                     __ptext41:	
  9296 ;; *************** function _EUSART_is_rx_ready *****************
  9297 ;; Defined at:
  9298 ;;		line 137 in file "mcc_generated_files/eusart.c"
  9299 ;; Parameters:    Size  Location     Type
  9300 ;;		None
  9301 ;; Auto vars:     Size  Location     Type
  9302 ;;		None
  9303 ;; Return value:  Size  Location     Type
  9304 ;;                  1    wreg      _Bool 
  9305 ;; Registers used:
  9306 ;;		wreg, status,2, status,0
  9307 ;; Tracked objects:
  9308 ;;		On entry : 0/0
  9309 ;;		On exit  : 0/0
  9310 ;;		Unchanged: 0/0
  9311 ;; Data sizes:     COMMON   BANK0   BANK1   BANK2   BANK3   BANK4
  9312 ;;      Params:         0       0       0       0       0       0
  9313 ;;      Locals:         0       0       0       0       0       0
  9314 ;;      Temps:          0       0       0       0       0       0
  9315 ;;      Totals:         0       0       0       0       0       0
  9316 ;;Total ram usage:        0 bytes
  9317 ;; Hardware stack levels used: 1
  9318 ;; Hardware stack levels required when called: 6
  9319 ;; This function calls:
  9320 ;;		Nothing
  9321 ;; This function is called by:
  9322 ;;		_main
  9323 ;; This function uses a non-reentrant model
  9324 ;;
  9325                           
  9326                           
  9327                           ;psect for function _EUSART_is_rx_ready
  9328  0A15                     _EUSART_is_rx_ready:
  9329  0A15                     l3231:	
  9330                           ;incstack = 0
  9331                           ; Regs used in _EUSART_is_rx_ready: [wreg+status,2+status,0]
  9332                           
  9333                           
  9334                           ;mcc_generated_files/eusart.c: 139:     return (eusartRxCount ? 1 : 0);
  9335  0A15  0021               	movlb	1	; select bank1
  9336  0A16  0845               	movf	_eusartRxCount^(0+128),w	;volatile
  9337  0A17  1D03               	btfss	3,2
  9338  0A18  2A1A               	goto	u2151
  9339  0A19  2A1C               	goto	u2150
  9340  0A1A                     u2151:
  9341  0A1A  3001               	movlw	1
  9342  0A1B  2A1D               	goto	u2160
  9343  0A1C                     u2150:
  9344  0A1C  3000               	movlw	0
  9345  0A1D                     u2160:
  9346  0A1D                     l313:
  9347  0A1D  0008               	return
  9348  0A1E                     __end_of_EUSART_is_rx_ready:
  9349                           
  9350                           	psect	text42
  9351  0C98                     __ptext42:	
  9352 ;; *************** function _EUSART_Read *****************
  9353 ;; Defined at:
  9354 ;;		line 151 in file "mcc_generated_files/eusart.c"
  9355 ;; Parameters:    Size  Location     Type
  9356 ;;		None
  9357 ;; Auto vars:     Size  Location     Type
  9358 ;;  readValue       1    3[BANK0 ] unsigned char 
  9359 ;; Return value:  Size  Location     Type
  9360 ;;                  1    wreg      unsigned char 
  9361 ;; Registers used:
  9362 ;;		wreg, fsr1l, fsr1h, status,2, status,0
  9363 ;; Tracked objects:
  9364 ;;		On entry : 0/0
  9365 ;;		On exit  : 0/0
  9366 ;;		Unchanged: 0/0
  9367 ;; Data sizes:     COMMON   BANK0   BANK1   BANK2   BANK3   BANK4
  9368 ;;      Params:         0       0       0       0       0       0
  9369 ;;      Locals:         0       1       0       0       0       0
  9370 ;;      Temps:          0       1       0       0       0       0
  9371 ;;      Totals:         0       2       0       0       0       0
  9372 ;;Total ram usage:        2 bytes
  9373 ;; Hardware stack levels used: 1
  9374 ;; Hardware stack levels required when called: 6
  9375 ;; This function calls:
  9376 ;;		Nothing
  9377 ;; This function is called by:
  9378 ;;		_main
  9379 ;; This function uses a non-reentrant model
  9380 ;;
  9381                           
  9382                           
  9383                           ;psect for function _EUSART_Read
  9384  0C98                     _EUSART_Read:
  9385  0C98                     l3235:	
  9386                           ;incstack = 0
  9387                           ; Regs used in _EUSART_Read: [wreg+fsr1l+fsr1h+status,2+status,0]
  9388                           
  9389  0C98                     l3237:	
  9390                           ;mcc_generated_files/eusart.c: 155:     while(0 == eusartRxCount)
  9391                           
  9392                           
  9393                           ;mcc_generated_files/eusart.c: 155:     while(0 == eusartRxCount)
  9394  0C98  0021               	movlb	1	; select bank1
  9395  0C99  0845               	movf	_eusartRxCount^(0+128),w	;volatile
  9396  0C9A  1903               	btfsc	3,2
  9397  0C9B  2C9D               	goto	u2171
  9398  0C9C  2C9E               	goto	u2170
  9399  0C9D                     u2171:
  9400  0C9D  2C98               	goto	l3237
  9401  0C9E                     u2170:
  9402  0C9E                     l3239:
  9403                           
  9404                           ;mcc_generated_files/eusart.c: 159:     eusartRxLastError = eusartRxStatusBuffer[eusartR
      +                          xTail];
  9405  0C9E  0020               	movlb	0	; select bank0
  9406  0C9F  086C               	movf	_eusartRxTail,w	;volatile
  9407  0CA0  3EA0               	addlw	(low (_eusartRxStatusBuffer| 0))& (0+255)
  9408  0CA1  0086               	movwf	6
  9409  0CA2  0187               	clrf	7
  9410  0CA3  0801               	movf	1,w
  9411  0CA4  00A2               	movwf	??_EUSART_Read
  9412  0CA5  0822               	movf	??_EUSART_Read,w
  9413  0CA6  0021               	movlb	1	; select bank1
  9414  0CA7  00C4               	movwf	_eusartRxLastError^(0+128)	;volatile
  9415                           
  9416                           ;mcc_generated_files/eusart.c: 161:     readValue = eusartRxBuffer[eusartRxTail++];
  9417  0CA8  0020               	movlb	0	; select bank0
  9418  0CA9  086C               	movf	_eusartRxTail,w
  9419  0CAA  3E38               	addlw	(low (_eusartRxBuffer| (0+256)))& (0+255)
  9420  0CAB  0086               	movwf	6
  9421  0CAC  3001               	movlw	1	; select bank2/3
  9422  0CAD  0087               	movwf	7
  9423  0CAE  0801               	movf	1,w
  9424  0CAF  00A2               	movwf	??_EUSART_Read
  9425  0CB0  0822               	movf	??_EUSART_Read,w
  9426  0CB1  00A3               	movwf	EUSART_Read@readValue
  9427  0CB2                     l3241:
  9428  0CB2  3001               	movlw	1
  9429  0CB3  00A2               	movwf	??_EUSART_Read
  9430  0CB4  0822               	movf	??_EUSART_Read,w
  9431  0CB5  07EC               	addwf	_eusartRxTail,f	;volatile
  9432  0CB6                     l3243:
  9433                           
  9434                           ;mcc_generated_files/eusart.c: 162:     if(sizeof(eusartRxBuffer) <= eusartRxTail)
  9435  0CB6  3008               	movlw	8
  9436  0CB7  026C               	subwf	_eusartRxTail,w	;volatile
  9437  0CB8  1C03               	skipc
  9438  0CB9  2CBB               	goto	u2181
  9439  0CBA  2CBC               	goto	u2180
  9440  0CBB                     u2181:
  9441  0CBB  2CBD               	goto	l3247
  9442  0CBC                     u2180:
  9443  0CBC                     l3245:
  9444                           
  9445                           ;mcc_generated_files/eusart.c: 163:     {;mcc_generated_files/eusart.c: 164:         eus
      +                          artRxTail = 0;
  9446  0CBC  01EC               	clrf	_eusartRxTail	;volatile
  9447  0CBD                     l3247:
  9448                           
  9449                           ;mcc_generated_files/eusart.c: 166:     PIE1bits.RCIE = 0;
  9450  0CBD  0021               	movlb	1	; select bank1
  9451  0CBE  1291               	bcf	17,5	;volatile
  9452  0CBF                     l3249:
  9453                           
  9454                           ;mcc_generated_files/eusart.c: 167:     eusartRxCount--;
  9455  0CBF  3001               	movlw	1
  9456  0CC0  02C5               	subwf	_eusartRxCount^(0+128),f	;volatile
  9457  0CC1                     l3251:
  9458                           
  9459                           ;mcc_generated_files/eusart.c: 168:     PIE1bits.RCIE = 1;
  9460  0CC1  1691               	bsf	17,5	;volatile
  9461  0CC2                     l3253:
  9462                           
  9463                           ;mcc_generated_files/eusart.c: 170:     return readValue;
  9464  0CC2  0020               	movlb	0	; select bank0
  9465  0CC3  0823               	movf	EUSART_Read@readValue,w
  9466  0CC4                     l326:
  9467  0CC4  0008               	return
  9468  0CC5                     __end_of_EUSART_Read:
  9469                           
  9470                           	psect	text43
  9471  0C0D                     __ptext43:	
  9472 ;; *************** function _ADC_GetConversion *****************
  9473 ;; Defined at:
  9474 ;;		line 112 in file "mcc_generated_files/adc.c"
  9475 ;; Parameters:    Size  Location     Type
  9476 ;;  channel         1    wreg     enum E2476
  9477 ;; Auto vars:     Size  Location     Type
  9478 ;;  channel         1    5[BANK0 ] enum E2476
  9479 ;; Return value:  Size  Location     Type
  9480 ;;                  2    2[BANK0 ] unsigned short 
  9481 ;; Registers used:
  9482 ;;		wreg, status,2, status,0
  9483 ;; Tracked objects:
  9484 ;;		On entry : 0/0
  9485 ;;		On exit  : 0/0
  9486 ;;		Unchanged: 0/0
  9487 ;; Data sizes:     COMMON   BANK0   BANK1   BANK2   BANK3   BANK4
  9488 ;;      Params:         0       2       0       0       0       0
  9489 ;;      Locals:         0       1       0       0       0       0
  9490 ;;      Temps:          0       1       0       0       0       0
  9491 ;;      Totals:         0       4       0       0       0       0
  9492 ;;Total ram usage:        4 bytes
  9493 ;; Hardware stack levels used: 1
  9494 ;; Hardware stack levels required when called: 6
  9495 ;; This function calls:
  9496 ;;		Nothing
  9497 ;; This function is called by:
  9498 ;;		_main
  9499 ;; This function uses a non-reentrant model
  9500 ;;
  9501                           
  9502                           
  9503                           ;psect for function _ADC_GetConversion
  9504  0C0D                     _ADC_GetConversion:
  9505                           
  9506                           ;incstack = 0
  9507                           ; Regs used in _ADC_GetConversion: [wreg+status,2+status,0]
  9508                           ;ADC_GetConversion@channel stored from wreg
  9509  0C0D  0020               	movlb	0	; select bank0
  9510  0C0E  00A5               	movwf	ADC_GetConversion@channel
  9511  0C0F                     l3297:
  9512                           
  9513                           ;mcc_generated_files/adc.c: 112: adc_result_t ADC_GetConversion(adc_channel_t channel);m
      +                          cc_generated_files/adc.c: 113: {;mcc_generated_files/adc.c: 115:     ADCON0bits.CHS = ch
      +                          annel;
  9514  0C0F  0825               	movf	ADC_GetConversion@channel,w
  9515  0C10  00A4               	movwf	??_ADC_GetConversion
  9516  0C11  0DA4               	rlf	??_ADC_GetConversion,f
  9517  0C12  0DA4               	rlf	??_ADC_GetConversion,f
  9518  0C13  0021               	movlb	1	; select bank1
  9519  0C14  081D               	movf	29,w	;volatile
  9520  0C15  0020               	movlb	0	; select bank0
  9521  0C16  0624               	xorwf	??_ADC_GetConversion,w
  9522  0C17  3983               	andlw	-125
  9523  0C18  0624               	xorwf	??_ADC_GetConversion,w
  9524  0C19  0021               	movlb	1	; select bank1
  9525  0C1A  009D               	movwf	29	;volatile
  9526  0C1B                     l3299:
  9527                           
  9528                           ;mcc_generated_files/adc.c: 118:     ADCON0bits.ADON = 1;
  9529  0C1B  141D               	bsf	29,0	;volatile
  9530  0C1C                     l3301:
  9531                           
  9532                           ;mcc_generated_files/adc.c: 121:     _delay((unsigned long)((5)*(2000000/4000000.0)));
  9533  0C1C  3200               	nop2	;2 cycle nop
  9534  0C1D                     l3303:
  9535                           
  9536                           ;mcc_generated_files/adc.c: 124:     ADCON0bits.GO_nDONE = 1;
  9537  0C1D  0021               	movlb	1	; select bank1
  9538  0C1E  149D               	bsf	29,1	;volatile
  9539  0C1F                     l514:	
  9540                           ;mcc_generated_files/adc.c: 128:     {;mcc_generated_files/adc.c: 129:     }
  9541                           
  9542                           
  9543                           ;mcc_generated_files/adc.c: 127:     while (ADCON0bits.GO_nDONE)
  9544  0C1F  189D               	btfsc	29,1	;volatile
  9545  0C20  2C22               	goto	u2251
  9546  0C21  2C23               	goto	u2250
  9547  0C22                     u2251:
  9548  0C22  2C1F               	goto	l514
  9549  0C23                     u2250:
  9550  0C23                     l3305:
  9551                           
  9552                           ;mcc_generated_files/adc.c: 132:     return ((adc_result_t)((ADRESH << 8) + ADRESL));
  9553  0C23  081C               	movf	28,w	;volatile
  9554  0C24  0020               	movlb	0	; select bank0
  9555  0C25  00A3               	movwf	?_ADC_GetConversion+1
  9556  0C26  0021               	movlb	1	; select bank1
  9557  0C27  081B               	movf	27,w	;volatile
  9558  0C28  0020               	movlb	0	; select bank0
  9559  0C29  00A2               	movwf	?_ADC_GetConversion
  9560  0C2A                     l517:
  9561  0C2A  0008               	return
  9562  0C2B                     __end_of_ADC_GetConversion:
  9563                           
  9564                           	psect	intentry
  9565  0004                     __pintentry:	
  9566 ;; *************** function _INTERRUPT_InterruptManager *****************
  9567 ;; Defined at:
  9568 ;;		line 52 in file "mcc_generated_files/interrupt_manager.c"
  9569 ;; Parameters:    Size  Location     Type
  9570 ;;		None
  9571 ;; Auto vars:     Size  Location     Type
  9572 ;;		None
  9573 ;; Return value:  Size  Location     Type
  9574 ;;                  1    wreg      void 
  9575 ;; Registers used:
  9576 ;;		wreg, fsr1l, fsr1h, status,2, status,0, pclath, cstack
  9577 ;; Tracked objects:
  9578 ;;		On entry : 0/0
  9579 ;;		On exit  : 0/0
  9580 ;;		Unchanged: 0/0
  9581 ;; Data sizes:     COMMON   BANK0   BANK1   BANK2   BANK3   BANK4
  9582 ;;      Params:         0       0       0       0       0       0
  9583 ;;      Locals:         0       0       0       0       0       0
  9584 ;;      Temps:          0       0       0       0       0       0
  9585 ;;      Totals:         0       0       0       0       0       0
  9586 ;;Total ram usage:        0 bytes
  9587 ;; Hardware stack levels used: 1
  9588 ;; Hardware stack levels required when called: 5
  9589 ;; This function calls:
  9590 ;;		Absolute function
  9591 ;;		_CCP4_CaptureISR
  9592 ;;		_CMP1_ISR
  9593 ;;		_CMP2_ISR
  9594 ;;		_EUSART_Receive_ISR
  9595 ;;		_EUSART_Transmit_ISR
  9596 ;;		_PIN_MANAGER_IOC
  9597 ;;		_TMR1_ISR
  9598 ;;		_TMR4_ISR
  9599 ;; This function is called by:
  9600 ;;		Interrupt level 1
  9601 ;; This function uses a non-reentrant model
  9602 ;;
  9603                           
  9604  0004                     _INTERRUPT_InterruptManager:
  9605                           
  9606                           ;incstack = 0
  9607  0004  147E               	bsf	int$flags,0	;set compiler interrupt flag (level 1)
  9608                           
  9609                           ; Regs used in _INTERRUPT_InterruptManager: [wreg+fsr1l+fsr1h+status,2+status,0+pclath+c
      +                          stack]
  9610  0005  3180               	pagesel	$
  9611  0006                     i1l3751:
  9612                           
  9613                           ;mcc_generated_files/interrupt_manager.c: 55:     if(INTCONbits.IOCIE == 1 && INTCONbits
      +                          .IOCIF == 1)
  9614  0006  1D8B               	btfss	11,3	;volatile
  9615  0007  2809               	goto	u314_21
  9616  0008  280A               	goto	u314_20
  9617  0009                     u314_21:
  9618  0009  2812               	goto	i1l555
  9619  000A                     u314_20:
  9620  000A                     i1l3753:
  9621  000A  1C0B               	btfss	11,0	;volatile
  9622  000B  280D               	goto	u315_21
  9623  000C  280E               	goto	u315_20
  9624  000D                     u315_21:
  9625  000D  2812               	goto	i1l555
  9626  000E                     u315_20:
  9627  000E                     i1l3755:
  9628                           
  9629                           ;mcc_generated_files/interrupt_manager.c: 56:     {;mcc_generated_files/interrupt_manage
      +                          r.c: 57:         PIN_MANAGER_IOC();
  9630  000E  318A  22F6  3180   	fcall	_PIN_MANAGER_IOC
  9631                           
  9632                           ;mcc_generated_files/interrupt_manager.c: 58:     }
  9633  0011  287E               	goto	i1l573
  9634  0012                     i1l555:	
  9635                           ;mcc_generated_files/interrupt_manager.c: 59:     else if(INTCONbits.PEIE == 1)
  9636                           
  9637  0012  1F0B               	btfss	11,6	;volatile
  9638  0013  2815               	goto	u316_21
  9639  0014  2816               	goto	u316_20
  9640  0015                     u316_21:
  9641  0015  287E               	goto	i1l573
  9642  0016                     u316_20:
  9643  0016                     i1l3757:
  9644                           
  9645                           ;mcc_generated_files/interrupt_manager.c: 60:     {;mcc_generated_files/interrupt_manage
      +                          r.c: 61:         if(PIE1bits.TXIE == 1 && PIR1bits.TXIF == 1)
  9646  0016  0021               	movlb	1	; select bank1
  9647  0017  1E11               	btfss	17,4	;volatile
  9648  0018  281A               	goto	u317_21
  9649  0019  281B               	goto	u317_20
  9650  001A                     u317_21:
  9651  001A  2827               	goto	i1l558
  9652  001B                     u317_20:
  9653  001B                     i1l3759:
  9654  001B  0020               	movlb	0	; select bank0
  9655  001C  1E11               	btfss	17,4	;volatile
  9656  001D  281F               	goto	u318_21
  9657  001E  2820               	goto	u318_20
  9658  001F                     u318_21:
  9659  001F  2827               	goto	i1l558
  9660  0020                     u318_20:
  9661  0020                     i1l3761:
  9662                           
  9663                           ;mcc_generated_files/interrupt_manager.c: 62:         {;mcc_generated_files/interrupt_ma
      +                          nager.c: 63:             EUSART_TxDefaultInterruptHandler();
  9664  0020  0021               	movlb	1	; select bank1
  9665  0021  085F               	movf	(_EUSART_TxDefaultInterruptHandler+1)^(0+128),w
  9666  0022  008A               	movwf	10
  9667  0023  085E               	movf	_EUSART_TxDefaultInterruptHandler^(0+128),w
  9668  0024  000A               	callw
  9669  0025  3180               	pagesel	$
  9670                           
  9671                           ;mcc_generated_files/interrupt_manager.c: 64:         }
  9672  0026  287E               	goto	i1l573
  9673  0027                     i1l558:	
  9674                           ;mcc_generated_files/interrupt_manager.c: 65:         else if(PIE1bits.RCIE == 1 && PIR1
      +                          bits.RCIF == 1)
  9675                           
  9676  0027  0021               	movlb	1	; select bank1
  9677  0028  1E91               	btfss	17,5	;volatile
  9678  0029  282B               	goto	u319_21
  9679  002A  282C               	goto	u319_20
  9680  002B                     u319_21:
  9681  002B  2838               	goto	i1l560
  9682  002C                     u319_20:
  9683  002C                     i1l3763:
  9684  002C  0020               	movlb	0	; select bank0
  9685  002D  1E91               	btfss	17,5	;volatile
  9686  002E  2830               	goto	u320_21
  9687  002F  2831               	goto	u320_20
  9688  0030                     u320_21:
  9689  0030  2838               	goto	i1l560
  9690  0031                     u320_20:
  9691  0031                     i1l3765:
  9692                           
  9693                           ;mcc_generated_files/interrupt_manager.c: 66:         {;mcc_generated_files/interrupt_ma
      +                          nager.c: 67:             EUSART_RxDefaultInterruptHandler();
  9694  0031  0021               	movlb	1	; select bank1
  9695  0032  085D               	movf	(_EUSART_RxDefaultInterruptHandler+1)^(0+128),w
  9696  0033  008A               	movwf	10
  9697  0034  085C               	movf	_EUSART_RxDefaultInterruptHandler^(0+128),w
  9698  0035  000A               	callw
  9699  0036  3180               	pagesel	$
  9700                           
  9701                           ;mcc_generated_files/interrupt_manager.c: 68:         }
  9702  0037  287E               	goto	i1l573
  9703  0038                     i1l560:	
  9704                           ;mcc_generated_files/interrupt_manager.c: 69:         else if(PIE2bits.C2IE == 1 && PIR2
      +                          bits.C2IF == 1)
  9705                           
  9706  0038  0021               	movlb	1	; select bank1
  9707  0039  1F12               	btfss	18,6	;volatile
  9708  003A  283C               	goto	u321_21
  9709  003B  283D               	goto	u321_20
  9710  003C                     u321_21:
  9711  003C  2846               	goto	i1l562
  9712  003D                     u321_20:
  9713  003D                     i1l3767:
  9714  003D  0020               	movlb	0	; select bank0
  9715  003E  1F12               	btfss	18,6	;volatile
  9716  003F  2841               	goto	u322_21
  9717  0040  2842               	goto	u322_20
  9718  0041                     u322_21:
  9719  0041  2846               	goto	i1l562
  9720  0042                     u322_20:
  9721  0042                     i1l3769:
  9722                           
  9723                           ;mcc_generated_files/interrupt_manager.c: 70:         {;mcc_generated_files/interrupt_ma
      +                          nager.c: 71:             CMP2_ISR();
  9724  0042  3189  21D4  3180   	fcall	_CMP2_ISR
  9725                           
  9726                           ;mcc_generated_files/interrupt_manager.c: 72:         }
  9727  0045  287E               	goto	i1l573
  9728  0046                     i1l562:	
  9729                           ;mcc_generated_files/interrupt_manager.c: 73:         else if(PIE2bits.C1IE == 1 && PIR2
      +                          bits.C1IF == 1)
  9730                           
  9731  0046  0021               	movlb	1	; select bank1
  9732  0047  1E92               	btfss	18,5	;volatile
  9733  0048  284A               	goto	u323_21
  9734  0049  284B               	goto	u323_20
  9735  004A                     u323_21:
  9736  004A  2854               	goto	i1l564
  9737  004B                     u323_20:
  9738  004B                     i1l3771:
  9739  004B  0020               	movlb	0	; select bank0
  9740  004C  1E92               	btfss	18,5	;volatile
  9741  004D  284F               	goto	u324_21
  9742  004E  2850               	goto	u324_20
  9743  004F                     u324_21:
  9744  004F  2854               	goto	i1l564
  9745  0050                     u324_20:
  9746  0050                     i1l3773:
  9747                           
  9748                           ;mcc_generated_files/interrupt_manager.c: 74:         {;mcc_generated_files/interrupt_ma
      +                          nager.c: 75:             CMP1_ISR();
  9749  0050  3189  21CE  3180   	fcall	_CMP1_ISR
  9750                           
  9751                           ;mcc_generated_files/interrupt_manager.c: 76:         }
  9752  0053  287E               	goto	i1l573
  9753  0054                     i1l564:	
  9754                           ;mcc_generated_files/interrupt_manager.c: 77:         else if(PIE3bits.CCP4IE == 1 && PI
      +                          R3bits.CCP4IF == 1)
  9755                           
  9756  0054  0021               	movlb	1	; select bank1
  9757  0055  1E93               	btfss	19,5	;volatile
  9758  0056  2858               	goto	u325_21
  9759  0057  2859               	goto	u325_20
  9760  0058                     u325_21:
  9761  0058  2862               	goto	i1l566
  9762  0059                     u325_20:
  9763  0059                     i1l3775:
  9764  0059  0020               	movlb	0	; select bank0
  9765  005A  1E93               	btfss	19,5	;volatile
  9766  005B  285D               	goto	u326_21
  9767  005C  285E               	goto	u326_20
  9768  005D                     u326_21:
  9769  005D  2862               	goto	i1l566
  9770  005E                     u326_20:
  9771  005E                     i1l3777:
  9772                           
  9773                           ;mcc_generated_files/interrupt_manager.c: 78:         {;mcc_generated_files/interrupt_ma
      +                          nager.c: 79:             CCP4_CaptureISR();
  9774  005E  318B  2340  3180   	fcall	_CCP4_CaptureISR
  9775                           
  9776                           ;mcc_generated_files/interrupt_manager.c: 80:         }
  9777  0061  287E               	goto	i1l573
  9778  0062                     i1l566:	
  9779                           ;mcc_generated_files/interrupt_manager.c: 81:         else if(PIE3bits.TMR4IE == 1 && PI
      +                          R3bits.TMR4IF == 1)
  9780                           
  9781  0062  0021               	movlb	1	; select bank1
  9782  0063  1C93               	btfss	19,1	;volatile
  9783  0064  2866               	goto	u327_21
  9784  0065  2867               	goto	u327_20
  9785  0066                     u327_21:
  9786  0066  2870               	goto	i1l568
  9787  0067                     u327_20:
  9788  0067                     i1l3779:
  9789  0067  0020               	movlb	0	; select bank0
  9790  0068  1C93               	btfss	19,1	;volatile
  9791  0069  286B               	goto	u328_21
  9792  006A  286C               	goto	u328_20
  9793  006B                     u328_21:
  9794  006B  2870               	goto	i1l568
  9795  006C                     u328_20:
  9796  006C                     i1l3781:
  9797                           
  9798                           ;mcc_generated_files/interrupt_manager.c: 82:         {;mcc_generated_files/interrupt_ma
      +                          nager.c: 83:             TMR4_ISR();
  9799  006C  318A  22D6  3180   	fcall	_TMR4_ISR
  9800                           
  9801                           ;mcc_generated_files/interrupt_manager.c: 84:         }
  9802  006F  287E               	goto	i1l573
  9803  0070                     i1l568:	
  9804                           ;mcc_generated_files/interrupt_manager.c: 85:         else if(PIE1bits.TMR1IE == 1 && PI
      +                          R1bits.TMR1IF == 1)
  9805                           
  9806  0070  0021               	movlb	1	; select bank1
  9807  0071  1C11               	btfss	17,0	;volatile
  9808  0072  2874               	goto	u329_21
  9809  0073  2875               	goto	u329_20
  9810  0074                     u329_21:
  9811  0074  287E               	goto	i1l567
  9812  0075                     u329_20:
  9813  0075                     i1l3783:
  9814  0075  0020               	movlb	0	; select bank0
  9815  0076  1C11               	btfss	17,0	;volatile
  9816  0077  2879               	goto	u330_21
  9817  0078  287A               	goto	u330_20
  9818  0079                     u330_21:
  9819  0079  287E               	goto	i1l567
  9820  007A                     u330_20:
  9821  007A                     i1l3785:
  9822                           
  9823                           ;mcc_generated_files/interrupt_manager.c: 86:         {;mcc_generated_files/interrupt_ma
      +                          nager.c: 87:             TMR1_ISR();
  9824  007A  318B  236D  3180   	fcall	_TMR1_ISR
  9825                           
  9826                           ;mcc_generated_files/interrupt_manager.c: 88:         }
  9827  007D  287E               	goto	i1l573
  9828  007E                     i1l567:
  9829  007E                     i1l573:
  9830  007E  107E               	bcf	int$flags,0	;clear compiler interrupt flag (level 1)
  9831  007F  0009               	retfie
  9832  0080                     __end_of_INTERRUPT_InterruptManager:
  9833                           
  9834                           	psect	text45
  9835  0AD6                     __ptext45:	
  9836 ;; *************** function _TMR4_ISR *****************
  9837 ;; Defined at:
  9838 ;;		line 119 in file "mcc_generated_files/tmr4.c"
  9839 ;; Parameters:    Size  Location     Type
  9840 ;;		None
  9841 ;; Auto vars:     Size  Location     Type
  9842 ;;		None
  9843 ;; Return value:  Size  Location     Type
  9844 ;;                  1    wreg      void 
  9845 ;; Registers used:
  9846 ;;		wreg, fsr1l, fsr1h, status,2, status,0, pclath, cstack
  9847 ;; Tracked objects:
  9848 ;;		On entry : 0/0
  9849 ;;		On exit  : 0/0
  9850 ;;		Unchanged: 0/0
  9851 ;; Data sizes:     COMMON   BANK0   BANK1   BANK2   BANK3   BANK4
  9852 ;;      Params:         0       0       0       0       0       0
  9853 ;;      Locals:         0       0       0       0       0       0
  9854 ;;      Temps:          0       0       0       0       0       0
  9855 ;;      Totals:         0       0       0       0       0       0
  9856 ;;Total ram usage:        0 bytes
  9857 ;; Hardware stack levels used: 1
  9858 ;; Hardware stack levels required when called: 4
  9859 ;; This function calls:
  9860 ;;		Absolute function
  9861 ;;		_TMR4_DefaultInterruptHandler
  9862 ;;		_comm
  9863 ;; This function is called by:
  9864 ;;		_INTERRUPT_InterruptManager
  9865 ;; This function uses a non-reentrant model
  9866 ;;
  9867                           
  9868                           
  9869                           ;psect for function _TMR4_ISR
  9870  0AD6                     _TMR4_ISR:
  9871  0AD6                     i1l3323:	
  9872                           ;incstack = 0
  9873                           ; Regs used in _TMR4_ISR: [wreg+fsr1l+fsr1h+status,2+status,0+pclath+cstack]
  9874                           
  9875                           
  9876                           ;mcc_generated_files/tmr4.c: 123:     PIR3bits.TMR4IF = 0;
  9877  0AD6  0020               	movlb	0	; select bank0
  9878  0AD7  1093               	bcf	19,1	;volatile
  9879  0AD8                     i1l3325:
  9880                           
  9881                           ;mcc_generated_files/tmr4.c: 125:     if(TMR4_InterruptHandler)
  9882  0AD8  0021               	movlb	1	; select bank1
  9883  0AD9  0856               	movf	_TMR4_InterruptHandler^(0+128),w
  9884  0ADA  0457               	iorwf	(_TMR4_InterruptHandler+1)^(0+128),w
  9885  0ADB  1903               	btfsc	3,2
  9886  0ADC  2ADE               	goto	u226_21
  9887  0ADD  2ADF               	goto	u226_20
  9888  0ADE                     u226_21:
  9889  0ADE  2AE4               	goto	i1l613
  9890  0ADF                     u226_20:
  9891  0ADF                     i1l3327:
  9892                           
  9893                           ;mcc_generated_files/tmr4.c: 126:     {;mcc_generated_files/tmr4.c: 127:         TMR4_In
      +                          terruptHandler();
  9894  0ADF  0857               	movf	(_TMR4_InterruptHandler+1)^(0+128),w
  9895  0AE0  008A               	movwf	10
  9896  0AE1  0856               	movf	_TMR4_InterruptHandler^(0+128),w
  9897  0AE2  000A               	callw
  9898  0AE3  318A               	pagesel	$
  9899  0AE4                     i1l613:
  9900  0AE4  0008               	return
  9901  0AE5                     __end_of_TMR4_ISR:
  9902                           
  9903                           	psect	text46
  9904  09B8                     __ptext46:	
  9905 ;; *************** function _TMR4_DefaultInterruptHandler *****************
  9906 ;; Defined at:
  9907 ;;		line 136 in file "mcc_generated_files/tmr4.c"
  9908 ;; Parameters:    Size  Location     Type
  9909 ;;		None
  9910 ;; Auto vars:     Size  Location     Type
  9911 ;;		None
  9912 ;; Return value:  Size  Location     Type
  9913 ;;                  1    wreg      void 
  9914 ;; Registers used:
  9915 ;;		None
  9916 ;; Tracked objects:
  9917 ;;		On entry : 0/0
  9918 ;;		On exit  : 0/0
  9919 ;;		Unchanged: 0/0
  9920 ;; Data sizes:     COMMON   BANK0   BANK1   BANK2   BANK3   BANK4
  9921 ;;      Params:         0       0       0       0       0       0
  9922 ;;      Locals:         0       0       0       0       0       0
  9923 ;;      Temps:          0       0       0       0       0       0
  9924 ;;      Totals:         0       0       0       0       0       0
  9925 ;;Total ram usage:        0 bytes
  9926 ;; Hardware stack levels used: 1
  9927 ;; This function calls:
  9928 ;;		Nothing
  9929 ;; This function is called by:
  9930 ;;		_TMR4_Initialize
  9931 ;;		_TMR4_ISR
  9932 ;; This function uses a non-reentrant model
  9933 ;;
  9934                           
  9935                           
  9936                           ;psect for function _TMR4_DefaultInterruptHandler
  9937  09B8                     _TMR4_DefaultInterruptHandler:
  9938  09B8                     i1l619:	
  9939                           ;incstack = 0
  9940                           ; Regs used in _TMR4_DefaultInterruptHandler: []
  9941                           
  9942  09B8  0008               	return
  9943  09B9                     __end_of_TMR4_DefaultInterruptHandler:
  9944                           
  9945                           	psect	text47
  9946  0E85                     __ptext47:	
  9947 ;; *************** function _comm *****************
  9948 ;; Defined at:
  9949 ;;		line 149 in file "main.c"
  9950 ;; Parameters:    Size  Location     Type
  9951 ;;		None
  9952 ;; Auto vars:     Size  Location     Type
  9953 ;;  i               2    0[BANK0 ] int 
  9954 ;; Return value:  Size  Location     Type
  9955 ;;                  1    wreg      void 
  9956 ;; Registers used:
  9957 ;;		wreg, fsr1l, fsr1h, status,2, status,0, pclath, cstack
  9958 ;; Tracked objects:
  9959 ;;		On entry : 0/0
  9960 ;;		On exit  : 0/0
  9961 ;;		Unchanged: 0/0
  9962 ;; Data sizes:     COMMON   BANK0   BANK1   BANK2   BANK3   BANK4
  9963 ;;      Params:         0       0       0       0       0       0
  9964 ;;      Locals:         0       2       0       0       0       0
  9965 ;;      Temps:          3       0       0       0       0       0
  9966 ;;      Totals:         3       2       0       0       0       0
  9967 ;;Total ram usage:        5 bytes
  9968 ;; Hardware stack levels used: 1
  9969 ;; Hardware stack levels required when called: 3
  9970 ;; This function calls:
  9971 ;;		_EUSART_Write
  9972 ;;		_leds
  9973 ;;		i1___fltol
  9974 ;; This function is called by:
  9975 ;;		_main
  9976 ;;		_TMR4_ISR
  9977 ;; This function uses a non-reentrant model
  9978 ;;
  9979                           
  9980                           
  9981                           ;psect for function _comm
  9982  0E85                     _comm:
  9983  0E85                     i1l3161:	
  9984                           ;incstack = 0
  9985                           ; Regs used in _comm: [wreg+fsr1l+fsr1h+status,2+status,0+pclath+cstack]
  9986                           
  9987                           
  9988                           ;main.c: 151:     txByte[0] = 0xBF & ((uint8_t)motor<<4 | (0b10000000) | (pos_atual & 0x
      +                          03));
  9989  0E85  3003               	movlw	3
  9990  0E86  0021               	movlb	1	; select bank1
  9991  0E87  053C               	andwf	_pos_atual^(0+128),w
  9992  0E88  00FB               	movwf	??_comm
  9993  0E89  0850               	movf	_motor^(0+128),w
  9994  0E8A  00FC               	movwf	??_comm+1
  9995  0E8B  3003               	movlw	3
  9996  0E8C                     u206_25:
  9997  0E8C  35FC               	lslf	??_comm+1,f
  9998  0E8D  3EFF               	addlw	-1
  9999  0E8E  1D03               	skipz
 10000  0E8F  2E8C               	goto	u206_25
 10001  0E90  357C               	lslf	??_comm+1,w
 10002  0E91  047B               	iorwf	??_comm,w
 10003  0E92  3880               	iorlw	128
 10004  0E93  39BF               	andlw	191
 10005  0E94  00FD               	movwf	??_comm+2
 10006  0E95  087D               	movf	??_comm+2,w
 10007  0E96  00B0               	movwf	_txByte^(0+128)
 10008  0E97                     i1l3163:
 10009                           
 10010                           ;main.c: 152:     txByte[1] = 0x7F & (((uint8_t)position)>>1);
 10011  0E97  084B               	movf	(_position+3)^(0+128),w
 10012  0E98  00F3               	movwf	i1___fltol@f1+3
 10013  0E99  084A               	movf	(_position+2)^(0+128),w
 10014  0E9A  00F2               	movwf	i1___fltol@f1+2
 10015  0E9B  0849               	movf	(_position+1)^(0+128),w
 10016  0E9C  00F1               	movwf	i1___fltol@f1+1
 10017  0E9D  0848               	movf	_position^(0+128),w
 10018  0E9E  00F0               	movwf	i1___fltol@f1
 10019  0E9F  3187  2710  318E   	fcall	i1___fltol
 10020  0EA2  3670               	lsrf	?i1___fltol,w
 10021  0EA3  397F               	andlw	127
 10022  0EA4  00FB               	movwf	??_comm
 10023  0EA5  087B               	movf	??_comm,w
 10024  0EA6  0021               	movlb	1	; select bank1
 10025  0EA7  00B1               	movwf	(_txByte^(0+128)+1)
 10026  0EA8                     i1l3165:
 10027                           
 10028                           ;main.c: 153:     txByte[2] = 0x7F & (((uint8_t)speed)<<2);
 10029  0EA8  0852               	movf	_speed^(0+128),w
 10030  0EA9  00FB               	movwf	??_comm
 10031  0EAA  3001               	movlw	1
 10032  0EAB                     u207_25:
 10033  0EAB  35FB               	lslf	??_comm,f
 10034  0EAC  3EFF               	addlw	-1
 10035  0EAD  1D03               	skipz
 10036  0EAE  2EAB               	goto	u207_25
 10037  0EAF  357B               	lslf	??_comm,w
 10038  0EB0  397F               	andlw	127
 10039  0EB1  00FC               	movwf	??_comm+1
 10040  0EB2  087C               	movf	??_comm+1,w
 10041  0EB3  00B2               	movwf	(_txByte^(0+128)+2)
 10042  0EB4                     i1l3167:
 10043                           
 10044                           ;main.c: 154:     txByte[3] = 0x7F & ((temp)<<1);
 10045  0EB4  3554               	lslf	_temp^(0+128),w
 10046  0EB5  397F               	andlw	127
 10047  0EB6  00FB               	movwf	??_comm
 10048  0EB7  087B               	movf	??_comm,w
 10049  0EB8  00B3               	movwf	(_txByte^(0+128)+3)
 10050  0EB9                     i1l3169:
 10051                           
 10052                           ;main.c: 156:     for (int i=0;i<4;i++){
 10053  0EB9  0020               	movlb	0	; select bank0
 10054  0EBA  01A0               	clrf	comm@i
 10055  0EBB  01A1               	clrf	comm@i+1
 10056  0EBC                     i1l3175:
 10057                           
 10058                           ;main.c: 157:       EUSART_Write(txByte[i]);
 10059  0EBC  0020               	movlb	0	; select bank0
 10060  0EBD  0820               	movf	comm@i,w
 10061  0EBE  3EB0               	addlw	(low (_txByte| 0))& (0+255)
 10062  0EBF  0086               	movwf	6
 10063  0EC0  0187               	clrf	7
 10064  0EC1  0801               	movf	1,w
 10065  0EC2  318C  2470  318E   	fcall	_EUSART_Write
 10066  0EC5                     i1l3177:
 10067                           
 10068                           ;main.c: 158:     }
 10069  0EC5  3001               	movlw	1
 10070  0EC6  0020               	movlb	0	; select bank0
 10071  0EC7  07A0               	addwf	comm@i,f
 10072  0EC8  3000               	movlw	0
 10073  0EC9  3DA1               	addwfc	comm@i+1,f
 10074  0ECA                     i1l3179:
 10075  0ECA  0821               	movf	comm@i+1,w
 10076  0ECB  3A80               	xorlw	128
 10077  0ECC  00FB               	movwf	??_comm
 10078  0ECD  3080               	movlw	128
 10079  0ECE  027B               	subwf	??_comm,w
 10080  0ECF  1D03               	skipz
 10081  0ED0  2ED3               	goto	u208_25
 10082  0ED1  3004               	movlw	4
 10083  0ED2  0220               	subwf	comm@i,w
 10084  0ED3                     u208_25:
 10085  0ED3  1C03               	skipc
 10086  0ED4  2ED6               	goto	u208_21
 10087  0ED5  2ED7               	goto	u208_20
 10088  0ED6                     u208_21:
 10089  0ED6  2EBC               	goto	i1l3175
 10090  0ED7                     u208_20:
 10091  0ED7                     i1l3181:
 10092                           
 10093                           ;main.c: 159:     leds();
 10094  0ED7  318C  24F3  318E   	fcall	_leds
 10095  0EDA                     i1l819:
 10096  0EDA  0008               	return
 10097  0EDB                     __end_of_comm:
 10098                           
 10099                           	psect	text48
 10100  0710                     __ptext48:	
 10101 ;; *************** function i1___fltol *****************
 10102 ;; Defined at:
 10103 ;;		line 43 in file "C:\Program Files\Microchip\xc8\v2.32\pic\sources\c99\common\fltol.c"
 10104 ;; Parameters:    Size  Location     Type
 10105 ;;  f1              4    0[COMMON] void 
 10106 ;; Auto vars:     Size  Location     Type
 10107 ;;  exp1            1   10[COMMON] unsigned char 
 10108 ;;  sign1           1    9[COMMON] unsigned char 
 10109 ;; Return value:  Size  Location     Type
 10110 ;;                  4    0[COMMON] long 
 10111 ;; Registers used:
 10112 ;;		wreg, status,2, status,0
 10113 ;; Tracked objects:
 10114 ;;		On entry : 0/0
 10115 ;;		On exit  : 0/0
 10116 ;;		Unchanged: 0/0
 10117 ;; Data sizes:     COMMON   BANK0   BANK1   BANK2   BANK3   BANK4
 10118 ;;      Params:         4       0       0       0       0       0
 10119 ;;      Locals:         2       0       0       0       0       0
 10120 ;;      Temps:          5       0       0       0       0       0
 10121 ;;      Totals:        11       0       0       0       0       0
 10122 ;;Total ram usage:       11 bytes
 10123 ;; Hardware stack levels used: 1
 10124 ;; This function calls:
 10125 ;;		Nothing
 10126 ;; This function is called by:
 10127 ;;		_comm
 10128 ;; This function uses a non-reentrant model
 10129 ;;
 10130                           
 10131                           
 10132                           ;psect for function i1___fltol
 10133  0710                     i1___fltol:
 10134  0710                     i1l2903:	
 10135                           ;incstack = 0
 10136                           ; Regs used in i1___fltol: [wreg+status,2+status,0]
 10137                           
 10138  0710  1003               	clrc
 10139  0711  0D72               	rlf	i1___fltol@f1+2,w
 10140  0712  0D73               	rlf	i1___fltol@f1+3,w
 10141  0713  00F4               	movwf	??i1___fltol
 10142  0714  0874               	movf	??i1___fltol,w
 10143  0715  00FA               	movwf	i1___fltol@exp1
 10144  0716  087A               	movf	i1___fltol@exp1,w
 10145  0717  1D03               	btfss	3,2
 10146  0718  2F1A               	goto	u186_21
 10147  0719  2F1B               	goto	u186_20
 10148  071A                     u186_21:
 10149  071A  2F24               	goto	i1l2909
 10150  071B                     u186_20:
 10151  071B                     i1l2905:
 10152  071B  3000               	movlw	0
 10153  071C  00F3               	movwf	?i1___fltol+3
 10154  071D  3000               	movlw	0
 10155  071E  00F2               	movwf	?i1___fltol+2
 10156  071F  3000               	movlw	0
 10157  0720  00F1               	movwf	?i1___fltol+1
 10158  0721  3000               	movlw	0
 10159  0722  00F0               	movwf	?i1___fltol
 10160  0723  2F83               	goto	i1l1227
 10161  0724                     i1l2909:
 10162  0724  0870               	movf	i1___fltol@f1,w
 10163  0725  00F4               	movwf	??i1___fltol
 10164  0726  0871               	movf	i1___fltol@f1+1,w
 10165  0727  00F5               	movwf	??i1___fltol+1
 10166  0728  0872               	movf	i1___fltol@f1+2,w
 10167  0729  00F6               	movwf	??i1___fltol+2
 10168  072A  0873               	movf	i1___fltol@f1+3,w
 10169  072B  00F7               	movwf	??i1___fltol+3
 10170  072C  301F               	movlw	31
 10171  072D                     u187_25:
 10172  072D  36F7               	lsrf	??i1___fltol+3,f
 10173  072E  0CF6               	rrf	??i1___fltol+2,f
 10174  072F  0CF5               	rrf	??i1___fltol+1,f
 10175  0730  0CF4               	rrf	??i1___fltol,f
 10176  0731                     u187_20:
 10177  0731  0B89               	decfsz	9,f
 10178  0732  2F2D               	goto	u187_25
 10179  0733  0874               	movf	??i1___fltol,w
 10180  0734  00F8               	movwf	??i1___fltol+4
 10181  0735  0878               	movf	??i1___fltol+4,w
 10182  0736  00F9               	movwf	i1___fltol@sign1
 10183  0737                     i1l2911:
 10184  0737  17F2               	bsf	i1___fltol@f1+2,7
 10185  0738                     i1l2913:
 10186  0738  30FF               	movlw	255
 10187  0739  05F0               	andwf	i1___fltol@f1,f
 10188  073A  30FF               	movlw	255
 10189  073B  05F1               	andwf	i1___fltol@f1+1,f
 10190  073C  30FF               	movlw	255
 10191  073D  05F2               	andwf	i1___fltol@f1+2,f
 10192  073E  3000               	movlw	0
 10193  073F  05F3               	andwf	i1___fltol@f1+3,f
 10194  0740                     i1l2915:
 10195  0740  3096               	movlw	150
 10196  0741  02FA               	subwf	i1___fltol@exp1,f
 10197  0742                     i1l2917:
 10198  0742  1FFA               	btfss	i1___fltol@exp1,7
 10199  0743  2F45               	goto	u188_21
 10200  0744  2F46               	goto	u188_20
 10201  0745                     u188_21:
 10202  0745  2F5E               	goto	i1l2927
 10203  0746                     u188_20:
 10204  0746                     i1l2919:
 10205  0746  087A               	movf	i1___fltol@exp1,w
 10206  0747  3A80               	xorlw	128
 10207  0748  3E97               	addlw	151
 10208  0749  1803               	skipnc
 10209  074A  2F4C               	goto	u189_21
 10210  074B  2F4D               	goto	u189_20
 10211  074C                     u189_21:
 10212  074C  2F4E               	goto	i1l2925
 10213  074D                     u189_20:
 10214  074D  2F1B               	goto	i1l2905
 10215  074E                     i1l2925:
 10216  074E  3001               	movlw	1
 10217  074F                     u190_25:
 10218  074F  36F3               	lsrf	i1___fltol@f1+3,f
 10219  0750  0CF2               	rrf	i1___fltol@f1+2,f
 10220  0751  0CF1               	rrf	i1___fltol@f1+1,f
 10221  0752  0CF0               	rrf	i1___fltol@f1,f
 10222  0753  0B89               	decfsz	9,f
 10223  0754  2F4F               	goto	u190_25
 10224  0755  3001               	movlw	1
 10225  0756  00F4               	movwf	??i1___fltol
 10226  0757  0874               	movf	??i1___fltol,w
 10227  0758  07FA               	addwf	i1___fltol@exp1,f
 10228  0759  1D03               	btfss	3,2
 10229  075A  2F5C               	goto	u191_21
 10230  075B  2F5D               	goto	u191_20
 10231  075C                     u191_21:
 10232  075C  2F4E               	goto	i1l2925
 10233  075D                     u191_20:
 10234  075D  2F73               	goto	i1l2935
 10235  075E                     i1l2927:
 10236  075E  3020               	movlw	32
 10237  075F  027A               	subwf	i1___fltol@exp1,w
 10238  0760  1C03               	skipc
 10239  0761  2F63               	goto	u192_21
 10240  0762  2F64               	goto	u192_20
 10241  0763                     u192_21:
 10242  0763  2F6E               	goto	i1l1234
 10243  0764                     u192_20:
 10244  0764  2F1B               	goto	i1l2905
 10245  0765                     i1l2933:
 10246  0765  3001               	movlw	1
 10247  0766                     u193_25:
 10248  0766  35F0               	lslf	i1___fltol@f1,f
 10249  0767  0DF1               	rlf	i1___fltol@f1+1,f
 10250  0768  0DF2               	rlf	i1___fltol@f1+2,f
 10251  0769  0DF3               	rlf	i1___fltol@f1+3,f
 10252  076A  0B89               	decfsz	9,f
 10253  076B  2F66               	goto	u193_25
 10254  076C  3001               	movlw	1
 10255  076D  02FA               	subwf	i1___fltol@exp1,f
 10256  076E                     i1l1234:
 10257  076E  087A               	movf	i1___fltol@exp1,w
 10258  076F  1D03               	btfss	3,2
 10259  0770  2F72               	goto	u194_21
 10260  0771  2F73               	goto	u194_20
 10261  0772                     u194_21:
 10262  0772  2F65               	goto	i1l2933
 10263  0773                     u194_20:
 10264  0773                     i1l2935:
 10265  0773  0879               	movf	i1___fltol@sign1,w
 10266  0774  1903               	btfsc	3,2
 10267  0775  2F77               	goto	u195_21
 10268  0776  2F78               	goto	u195_20
 10269  0777                     u195_21:
 10270  0777  2F83               	goto	i1l1237
 10271  0778                     u195_20:
 10272  0778                     i1l2937:
 10273  0778  09F0               	comf	i1___fltol@f1,f
 10274  0779  09F1               	comf	i1___fltol@f1+1,f
 10275  077A  09F2               	comf	i1___fltol@f1+2,f
 10276  077B  09F3               	comf	i1___fltol@f1+3,f
 10277  077C  0AF0               	incf	i1___fltol@f1,f
 10278  077D  1903               	skipnz
 10279  077E  0AF1               	incf	i1___fltol@f1+1,f
 10280  077F  1903               	skipnz
 10281  0780  0AF2               	incf	i1___fltol@f1+2,f
 10282  0781  1903               	skipnz
 10283  0782  0AF3               	incf	i1___fltol@f1+3,f
 10284  0783                     i1l1237:
 10285  0783                     i1l1227:
 10286  0783  0008               	return
 10287  0784                     __end_ofi1___fltol:
 10288                           
 10289                           	psect	text49
 10290  0CF3                     __ptext49:	
 10291 ;; *************** function _leds *****************
 10292 ;; Defined at:
 10293 ;;		line 140 in file "main.c"
 10294 ;; Parameters:    Size  Location     Type
 10295 ;;		None
 10296 ;; Auto vars:     Size  Location     Type
 10297 ;;  i               2    8[COMMON] int 
 10298 ;; Return value:  Size  Location     Type
 10299 ;;                  1    wreg      void 
 10300 ;; Registers used:
 10301 ;;		wreg, fsr1l, fsr1h, status,2, status,0, pclath, cstack
 10302 ;; Tracked objects:
 10303 ;;		On entry : 0/0
 10304 ;;		On exit  : 0/0
 10305 ;;		Unchanged: 0/0
 10306 ;; Data sizes:     COMMON   BANK0   BANK1   BANK2   BANK3   BANK4
 10307 ;;      Params:         0       0       0       0       0       0
 10308 ;;      Locals:         2       0       0       0       0       0
 10309 ;;      Temps:          3       0       0       0       0       0
 10310 ;;      Totals:         5       0       0       0       0       0
 10311 ;;Total ram usage:        5 bytes
 10312 ;; Hardware stack levels used: 1
 10313 ;; Hardware stack levels required when called: 2
 10314 ;; This function calls:
 10315 ;;		i1_txMAX7219
 10316 ;; This function is called by:
 10317 ;;		_comm
 10318 ;; This function uses a non-reentrant model
 10319 ;;
 10320                           
 10321                           
 10322                           ;psect for function _leds
 10323  0CF3                     _leds:
 10324  0CF3                     i1l2883:	
 10325                           ;incstack = 0
 10326                           ; Regs used in _leds: [wreg+fsr1l+fsr1h+status,2+status,0+pclath+cstack]
 10327                           
 10328                           
 10329                           ;main.c: 141:     for (int i =1;i<8;i++)
 10330  0CF3  3001               	movlw	1
 10331  0CF4  00F8               	movwf	leds@i
 10332  0CF5  3000               	movlw	0
 10333  0CF6  00F9               	movwf	leds@i+1
 10334  0CF7                     i1l2887:
 10335                           
 10336                           ;main.c: 142:     {;main.c: 143:         txMAX7219(i, LED[i-1],i, LED[i]);
 10337  0CF7  0878               	movf	leds@i,w
 10338  0CF8  3E2F               	addlw	(low ((_LED| (0+256)+255)))& (0+255)
 10339  0CF9  0086               	movwf	6
 10340  0CFA  3001               	movlw	1	; select bank2/3
 10341  0CFB  0087               	movwf	7
 10342  0CFC  0801               	movf	1,w
 10343  0CFD  00F5               	movwf	??_leds
 10344  0CFE  0875               	movf	??_leds,w
 10345  0CFF  00F1               	movwf	i1txMAX7219@dat0
 10346  0D00  0878               	movf	leds@i,w
 10347  0D01  00F6               	movwf	??_leds+1
 10348  0D02  0876               	movf	??_leds+1,w
 10349  0D03  00F2               	movwf	i1txMAX7219@addr1
 10350  0D04  0878               	movf	leds@i,w
 10351  0D05  3E30               	addlw	(low (_LED| (0+256)))& (0+255)
 10352  0D06  0086               	movwf	6
 10353  0D07  3001               	movlw	1	; select bank2/3
 10354  0D08  0087               	movwf	7
 10355  0D09  0801               	movf	1,w
 10356  0D0A  00F7               	movwf	??_leds+2
 10357  0D0B  0877               	movf	??_leds+2,w
 10358  0D0C  00F3               	movwf	i1txMAX7219@dat1
 10359  0D0D  0878               	movf	leds@i,w
 10360  0D0E  318B  2384  318C   	fcall	i1_txMAX7219
 10361  0D11                     i1l2889:
 10362                           
 10363                           ;main.c: 145:     }
 10364  0D11  3001               	movlw	1
 10365  0D12  07F8               	addwf	leds@i,f
 10366  0D13  3000               	movlw	0
 10367  0D14  3DF9               	addwfc	leds@i+1,f
 10368  0D15                     i1l2891:
 10369  0D15  0879               	movf	leds@i+1,w
 10370  0D16  3A80               	xorlw	128
 10371  0D17  00F5               	movwf	??_leds
 10372  0D18  3080               	movlw	128
 10373  0D19  0275               	subwf	??_leds,w
 10374  0D1A  1D03               	skipz
 10375  0D1B  2D1E               	goto	u185_25
 10376  0D1C  3008               	movlw	8
 10377  0D1D  0278               	subwf	leds@i,w
 10378  0D1E                     u185_25:
 10379  0D1E  1C03               	skipc
 10380  0D1F  2D21               	goto	u185_21
 10381  0D20  2D22               	goto	u185_20
 10382  0D21                     u185_21:
 10383  0D21  2CF7               	goto	i1l2887
 10384  0D22                     u185_20:
 10385  0D22                     i1l814:
 10386  0D22  0008               	return
 10387  0D23                     __end_of_leds:
 10388                           
 10389                           	psect	text50
 10390  0B84                     __ptext50:	
 10391 ;; *************** function i1_txMAX7219 *****************
 10392 ;; Defined at:
 10393 ;;		line 56 in file "ledMatrix.c"
 10394 ;; Parameters:    Size  Location     Type
 10395 ;;  addr0           1    wreg     unsigned char 
 10396 ;;  dat0            1    1[COMMON] unsigned char 
 10397 ;;  addr1           1    2[COMMON] unsigned char 
 10398 ;;  dat1            1    3[COMMON] unsigned char 
 10399 ;; Auto vars:     Size  Location     Type
 10400 ;;  addr0           1    4[COMMON] unsigned char 
 10401 ;; Return value:  Size  Location     Type
 10402 ;;                  1    wreg      void 
 10403 ;; Registers used:
 10404 ;;		wreg, status,2, status,0, pclath, cstack
 10405 ;; Tracked objects:
 10406 ;;		On entry : 0/0
 10407 ;;		On exit  : 0/0
 10408 ;;		Unchanged: 0/0
 10409 ;; Data sizes:     COMMON   BANK0   BANK1   BANK2   BANK3   BANK4
 10410 ;;      Params:         3       0       0       0       0       0
 10411 ;;      Locals:         1       0       0       0       0       0
 10412 ;;      Temps:          0       0       0       0       0       0
 10413 ;;      Totals:         4       0       0       0       0       0
 10414 ;;Total ram usage:        4 bytes
 10415 ;; Hardware stack levels used: 1
 10416 ;; Hardware stack levels required when called: 1
 10417 ;; This function calls:
 10418 ;;		i1_SPI1_WriteByte
 10419 ;; This function is called by:
 10420 ;;		_leds
 10421 ;; This function uses a non-reentrant model
 10422 ;;
 10423                           
 10424                           
 10425                           ;psect for function i1_txMAX7219
 10426  0B84                     i1_txMAX7219:
 10427                           
 10428                           ;incstack = 0
 10429                           ; Regs used in i1_txMAX7219: [wreg+status,2+status,0+pclath+cstack]
 10430                           ;i1txMAX7219@addr0 stored from wreg
 10431  0B84  00F4               	movwf	i1txMAX7219@addr0
 10432  0B85                     i1l862:	
 10433                           ;ledMatrix.c: 58:     do { LATBbits.LATB1 = 0; } while(0);
 10434                           
 10435  0B85  0022               	movlb	2	; select bank2
 10436  0B86  108D               	bcf	13,1	;volatile
 10437  0B87                     i1l2813:
 10438                           
 10439                           ;ledMatrix.c: 59:     SPI1_WriteByte(addr0);
 10440  0B87  0874               	movf	i1txMAX7219@addr0,w
 10441  0B88  3189  21C9  318B   	fcall	i1_SPI1_WriteByte
 10442  0B8B                     i1l864:	
 10443                           ;ledMatrix.c: 60:     while(!PIR1bits.SSP1IF);
 10444                           
 10445  0B8B  0020               	movlb	0	; select bank0
 10446  0B8C  1D91               	btfss	17,3	;volatile
 10447  0B8D  2B8F               	goto	u177_21
 10448  0B8E  2B90               	goto	u177_20
 10449  0B8F                     u177_21:
 10450  0B8F  2B8B               	goto	i1l864
 10451  0B90                     u177_20:
 10452  0B90                     i1l866:
 10453                           
 10454                           ;ledMatrix.c: 61:     PIR1bits.SSP1IF = 0;
 10455  0B90  1191               	bcf	17,3	;volatile
 10456  0B91                     i1l2815:
 10457                           
 10458                           ;ledMatrix.c: 62:     SPI1_WriteByte(dat0);
 10459  0B91  0871               	movf	i1txMAX7219@dat0,w
 10460  0B92  3189  21C9  318B   	fcall	i1_SPI1_WriteByte
 10461  0B95                     i1l867:	
 10462                           ;ledMatrix.c: 63:     while(!PIR1bits.SSP1IF);
 10463                           
 10464  0B95  0020               	movlb	0	; select bank0
 10465  0B96  1D91               	btfss	17,3	;volatile
 10466  0B97  2B99               	goto	u178_21
 10467  0B98  2B9A               	goto	u178_20
 10468  0B99                     u178_21:
 10469  0B99  2B95               	goto	i1l867
 10470  0B9A                     u178_20:
 10471  0B9A                     i1l869:
 10472                           
 10473                           ;ledMatrix.c: 64:     PIR1bits.SSP1IF = 0;
 10474  0B9A  1191               	bcf	17,3	;volatile
 10475  0B9B                     i1l870:	
 10476                           ;ledMatrix.c: 71:     do { LATBbits.LATB1 = 1; } while(0);
 10477                           
 10478  0B9B  0022               	movlb	2	; select bank2
 10479  0B9C  148D               	bsf	13,1	;volatile
 10480  0B9D                     i1l872:
 10481  0B9D  0008               	return
 10482  0B9E                     __end_ofi1_txMAX7219:
 10483                           
 10484                           	psect	text51
 10485  09C9                     __ptext51:	
 10486 ;; *************** function i1_SPI1_WriteByte *****************
 10487 ;; Defined at:
 10488 ;;		line 131 in file "mcc_generated_files/spi1.c"
 10489 ;; Parameters:    Size  Location     Type
 10490 ;;  byte            1    wreg     unsigned char 
 10491 ;; Auto vars:     Size  Location     Type
 10492 ;;  byte            1    0[COMMON] unsigned char 
 10493 ;; Return value:  Size  Location     Type
 10494 ;;                  1    wreg      void 
 10495 ;; Registers used:
 10496 ;;		wreg
 10497 ;; Tracked objects:
 10498 ;;		On entry : 0/0
 10499 ;;		On exit  : 0/0
 10500 ;;		Unchanged: 0/0
 10501 ;; Data sizes:     COMMON   BANK0   BANK1   BANK2   BANK3   BANK4
 10502 ;;      Params:         0       0       0       0       0       0
 10503 ;;      Locals:         1       0       0       0       0       0
 10504 ;;      Temps:          0       0       0       0       0       0
 10505 ;;      Totals:         1       0       0       0       0       0
 10506 ;;Total ram usage:        1 bytes
 10507 ;; Hardware stack levels used: 1
 10508 ;; This function calls:
 10509 ;;		Nothing
 10510 ;; This function is called by:
 10511 ;;		i1_txMAX7219
 10512 ;; This function uses a non-reentrant model
 10513 ;;
 10514                           
 10515                           
 10516                           ;psect for function i1_SPI1_WriteByte
 10517  09C9                     i1_SPI1_WriteByte:
 10518                           
 10519                           ;incstack = 0
 10520                           ; Regs used in i1_SPI1_WriteByte: [wreg]
 10521                           ;i1SPI1_WriteByte@byte stored from wreg
 10522  09C9  00F0               	movwf	i1SPI1_WriteByte@byte
 10523  09CA                     i1l2797:
 10524                           
 10525                           ;mcc_generated_files/spi1.c: 131: void SPI1_WriteByte(uint8_t byte);mcc_generated_files/
      +                          spi1.c: 132: {;mcc_generated_files/spi1.c: 133:     SSP1BUF = byte;
 10526  09CA  0870               	movf	i1SPI1_WriteByte@byte,w
 10527  09CB  0024               	movlb	4	; select bank4
 10528  09CC  0091               	movwf	17	;volatile
 10529  09CD                     i1l229:
 10530  09CD  0008               	return
 10531  09CE                     __end_ofi1_SPI1_WriteByte:
 10532                           
 10533                           	psect	text52
 10534  0C70                     __ptext52:	
 10535 ;; *************** function _EUSART_Write *****************
 10536 ;; Defined at:
 10537 ;;		line 173 in file "mcc_generated_files/eusart.c"
 10538 ;; Parameters:    Size  Location     Type
 10539 ;;  txData          1    wreg     unsigned char 
 10540 ;; Auto vars:     Size  Location     Type
 10541 ;;  txData          1    1[COMMON] unsigned char 
 10542 ;; Return value:  Size  Location     Type
 10543 ;;                  1    wreg      void 
 10544 ;; Registers used:
 10545 ;;		wreg, fsr1l, fsr1h, status,2, status,0
 10546 ;; Tracked objects:
 10547 ;;		On entry : 0/0
 10548 ;;		On exit  : 0/0
 10549 ;;		Unchanged: 0/0
 10550 ;; Data sizes:     COMMON   BANK0   BANK1   BANK2   BANK3   BANK4
 10551 ;;      Params:         0       0       0       0       0       0
 10552 ;;      Locals:         1       0       0       0       0       0
 10553 ;;      Temps:          1       0       0       0       0       0
 10554 ;;      Totals:         2       0       0       0       0       0
 10555 ;;Total ram usage:        2 bytes
 10556 ;; Hardware stack levels used: 1
 10557 ;; This function calls:
 10558 ;;		Nothing
 10559 ;; This function is called by:
 10560 ;;		_comm
 10561 ;; This function uses a non-reentrant model
 10562 ;;
 10563                           
 10564                           
 10565                           ;psect for function _EUSART_Write
 10566  0C70                     _EUSART_Write:
 10567                           
 10568                           ;incstack = 0
 10569                           ; Regs used in _EUSART_Write: [wreg+fsr1l+fsr1h+status,2+status,0]
 10570                           ;EUSART_Write@txData stored from wreg
 10571  0C70  00F1               	movwf	EUSART_Write@txData
 10572  0C71                     i1l2833:
 10573  0C71                     i1l2835:	
 10574                           ;mcc_generated_files/eusart.c: 173: void EUSART_Write(uint8_t txData);mcc_generated_file
      +                          s/eusart.c: 174: {;mcc_generated_files/eusart.c: 175:     while(0 == eusartTxBufferRemai
      +                          ning)
 10575                           
 10576                           
 10577                           ;mcc_generated_files/eusart.c: 175:     while(0 == eusartTxBufferRemaining)
 10578  0C71  0021               	movlb	1	; select bank1
 10579  0C72  0864               	movf	_eusartTxBufferRemaining^(0+128),w	;volatile
 10580  0C73  1903               	btfsc	3,2
 10581  0C74  2C76               	goto	u179_21
 10582  0C75  2C77               	goto	u179_20
 10583  0C76                     u179_21:
 10584  0C76  2C71               	goto	i1l2835
 10585  0C77                     u179_20:
 10586  0C77                     i1l331:
 10587                           
 10588                           ;mcc_generated_files/eusart.c: 179:     if(0 == PIE1bits.TXIE)
 10589  0C77  1A11               	btfsc	17,4	;volatile
 10590  0C78  2C7A               	goto	u180_21
 10591  0C79  2C7B               	goto	u180_20
 10592  0C7A                     u180_21:
 10593  0C7A  2C7F               	goto	i1l332
 10594  0C7B                     u180_20:
 10595  0C7B                     i1l2837:
 10596                           
 10597                           ;mcc_generated_files/eusart.c: 180:     {;mcc_generated_files/eusart.c: 181:         TXR
      +                          EG = txData;
 10598  0C7B  0871               	movf	EUSART_Write@txData,w
 10599  0C7C  0023               	movlb	3	; select bank3
 10600  0C7D  009A               	movwf	26	;volatile
 10601                           
 10602                           ;mcc_generated_files/eusart.c: 182:     }
 10603  0C7E  2C95               	goto	i1l2849
 10604  0C7F                     i1l332:	
 10605                           ;mcc_generated_files/eusart.c: 183:     else
 10606                           
 10607                           
 10608                           ;mcc_generated_files/eusart.c: 184:     {;mcc_generated_files/eusart.c: 185:         PIE
      +                          1bits.TXIE = 0;
 10609  0C7F  1211               	bcf	17,4	;volatile
 10610  0C80                     i1l2839:
 10611                           
 10612                           ;mcc_generated_files/eusart.c: 186:         eusartTxBuffer[eusartTxHead++] = txData;
 10613  0C80  0871               	movf	EUSART_Write@txData,w
 10614  0C81  00F0               	movwf	??_EUSART_Write
 10615  0C82  0847               	movf	_eusartTxHead^(0+128),w
 10616  0C83  3EA8               	addlw	(low (_eusartTxBuffer| 0))& (0+255)
 10617  0C84  0086               	movwf	6
 10618  0C85  0187               	clrf	7
 10619  0C86  0870               	movf	??_EUSART_Write,w
 10620  0C87  0081               	movwf	1
 10621  0C88                     i1l2841:
 10622  0C88  3001               	movlw	1
 10623  0C89  00F0               	movwf	??_EUSART_Write
 10624  0C8A  0870               	movf	??_EUSART_Write,w
 10625  0C8B  07C7               	addwf	_eusartTxHead^(0+128),f	;volatile
 10626  0C8C                     i1l2843:
 10627                           
 10628                           ;mcc_generated_files/eusart.c: 187:         if(sizeof(eusartTxBuffer) <= eusartTxHead)
 10629  0C8C  3008               	movlw	8
 10630  0C8D  0247               	subwf	_eusartTxHead^(0+128),w	;volatile
 10631  0C8E  1C03               	skipc
 10632  0C8F  2C91               	goto	u181_21
 10633  0C90  2C92               	goto	u181_20
 10634  0C91                     u181_21:
 10635  0C91  2C93               	goto	i1l2847
 10636  0C92                     u181_20:
 10637  0C92                     i1l2845:
 10638                           
 10639                           ;mcc_generated_files/eusart.c: 188:         {;mcc_generated_files/eusart.c: 189:        
      +                               eusartTxHead = 0;
 10640  0C92  01C7               	clrf	_eusartTxHead^(0+128)	;volatile
 10641  0C93                     i1l2847:
 10642                           
 10643                           ;mcc_generated_files/eusart.c: 191:         eusartTxBufferRemaining--;
 10644  0C93  3001               	movlw	1
 10645  0C94  02E4               	subwf	_eusartTxBufferRemaining^(0+128),f	;volatile
 10646  0C95                     i1l2849:
 10647                           
 10648                           ;mcc_generated_files/eusart.c: 193:     PIE1bits.TXIE = 1;
 10649  0C95  0021               	movlb	1	; select bank1
 10650  0C96  1611               	bsf	17,4	;volatile
 10651  0C97                     i1l335:
 10652  0C97  0008               	return
 10653  0C98                     __end_of_EUSART_Write:
 10654                           
 10655                           	psect	text53
 10656  0B6D                     __ptext53:	
 10657 ;; *************** function _TMR1_ISR *****************
 10658 ;; Defined at:
 10659 ;;		line 157 in file "mcc_generated_files/tmr1.c"
 10660 ;; Parameters:    Size  Location     Type
 10661 ;;		None
 10662 ;; Auto vars:     Size  Location     Type
 10663 ;;		None
 10664 ;; Return value:  Size  Location     Type
 10665 ;;                  1    wreg      void 
 10666 ;; Registers used:
 10667 ;;		wreg, status,2, status,0, pclath, cstack
 10668 ;; Tracked objects:
 10669 ;;		On entry : 0/0
 10670 ;;		On exit  : 0/0
 10671 ;;		Unchanged: 0/0
 10672 ;; Data sizes:     COMMON   BANK0   BANK1   BANK2   BANK3   BANK4
 10673 ;;      Params:         0       0       0       0       0       0
 10674 ;;      Locals:         0       0       0       0       0       0
 10675 ;;      Temps:          0       0       0       0       0       0
 10676 ;;      Totals:         0       0       0       0       0       0
 10677 ;;Total ram usage:        0 bytes
 10678 ;; Hardware stack levels used: 1
 10679 ;; Hardware stack levels required when called: 1
 10680 ;; This function calls:
 10681 ;;		Absolute function
 10682 ;;		_TMR1_DefaultInterruptHandler
 10683 ;;		_TMR1_WriteTimer
 10684 ;; This function is called by:
 10685 ;;		_INTERRUPT_InterruptManager
 10686 ;; This function uses a non-reentrant model
 10687 ;;
 10688                           
 10689                           
 10690                           ;psect for function _TMR1_ISR
 10691  0B6D                     _TMR1_ISR:
 10692  0B6D                     i1l3289:	
 10693                           ;incstack = 0
 10694                           ; Regs used in _TMR1_ISR: [wreg+status,2+status,0+pclath+cstack]
 10695                           
 10696                           
 10697                           ;mcc_generated_files/tmr1.c: 161:     PIR1bits.TMR1IF = 0;
 10698  0B6D  0020               	movlb	0	; select bank0
 10699  0B6E  1011               	bcf	17,0	;volatile
 10700  0B6F                     i1l3291:
 10701                           
 10702                           ;mcc_generated_files/tmr1.c: 162:     TMR1_WriteTimer(timer1ReloadVal);
 10703  0B6F  0021               	movlb	1	; select bank1
 10704  0B70  085B               	movf	(_timer1ReloadVal+1)^(0+128),w	;volatile
 10705  0B71  00F1               	movwf	TMR1_WriteTimer@timerVal+1
 10706  0B72  085A               	movf	_timer1ReloadVal^(0+128),w	;volatile
 10707  0B73  00F0               	movwf	TMR1_WriteTimer@timerVal
 10708  0B74  318A  22E5  318B   	fcall	_TMR1_WriteTimer
 10709  0B77                     i1l3293:
 10710                           
 10711                           ;mcc_generated_files/tmr1.c: 164:     if(TMR1_InterruptHandler)
 10712  0B77  0021               	movlb	1	; select bank1
 10713  0B78  0858               	movf	_TMR1_InterruptHandler^(0+128),w
 10714  0B79  0459               	iorwf	(_TMR1_InterruptHandler+1)^(0+128),w
 10715  0B7A  1903               	btfsc	3,2
 10716  0B7B  2B7D               	goto	u224_21
 10717  0B7C  2B7E               	goto	u224_20
 10718  0B7D                     u224_21:
 10719  0B7D  2B83               	goto	i1l430
 10720  0B7E                     u224_20:
 10721  0B7E                     i1l3295:
 10722                           
 10723                           ;mcc_generated_files/tmr1.c: 165:     {;mcc_generated_files/tmr1.c: 166:         TMR1_In
      +                          terruptHandler();
 10724  0B7E  0859               	movf	(_TMR1_InterruptHandler+1)^(0+128),w
 10725  0B7F  008A               	movwf	10
 10726  0B80  0858               	movf	_TMR1_InterruptHandler^(0+128),w
 10727  0B81  000A               	callw
 10728  0B82  318B               	pagesel	$
 10729  0B83                     i1l430:
 10730  0B83  0008               	return
 10731  0B84                     __end_of_TMR1_ISR:
 10732                           
 10733                           	psect	text54
 10734  09B7                     __ptext54:	
 10735 ;; *************** function _TMR1_DefaultInterruptHandler *****************
 10736 ;; Defined at:
 10737 ;;		line 175 in file "mcc_generated_files/tmr1.c"
 10738 ;; Parameters:    Size  Location     Type
 10739 ;;		None
 10740 ;; Auto vars:     Size  Location     Type
 10741 ;;		None
 10742 ;; Return value:  Size  Location     Type
 10743 ;;                  1    wreg      void 
 10744 ;; Registers used:
 10745 ;;		None
 10746 ;; Tracked objects:
 10747 ;;		On entry : 0/0
 10748 ;;		On exit  : 0/0
 10749 ;;		Unchanged: 0/0
 10750 ;; Data sizes:     COMMON   BANK0   BANK1   BANK2   BANK3   BANK4
 10751 ;;      Params:         0       0       0       0       0       0
 10752 ;;      Locals:         0       0       0       0       0       0
 10753 ;;      Temps:          0       0       0       0       0       0
 10754 ;;      Totals:         0       0       0       0       0       0
 10755 ;;Total ram usage:        0 bytes
 10756 ;; Hardware stack levels used: 1
 10757 ;; This function calls:
 10758 ;;		Nothing
 10759 ;; This function is called by:
 10760 ;;		_TMR1_Initialize
 10761 ;;		_TMR1_ISR
 10762 ;; This function uses a non-reentrant model
 10763 ;;
 10764                           
 10765                           
 10766                           ;psect for function _TMR1_DefaultInterruptHandler
 10767  09B7                     _TMR1_DefaultInterruptHandler:
 10768  09B7                     i1l436:	
 10769                           ;incstack = 0
 10770                           ; Regs used in _TMR1_DefaultInterruptHandler: []
 10771                           
 10772  09B7  0008               	return
 10773  09B8                     __end_of_TMR1_DefaultInterruptHandler:
 10774                           
 10775                           	psect	text55
 10776  0AF6                     __ptext55:	
 10777 ;; *************** function _PIN_MANAGER_IOC *****************
 10778 ;; Defined at:
 10779 ;;		line 119 in file "mcc_generated_files/pin_manager.c"
 10780 ;; Parameters:    Size  Location     Type
 10781 ;;		None
 10782 ;; Auto vars:     Size  Location     Type
 10783 ;;		None
 10784 ;; Return value:  Size  Location     Type
 10785 ;;                  1    wreg      void 
 10786 ;; Registers used:
 10787 ;;		wreg, status,2, status,0, pclath, cstack
 10788 ;; Tracked objects:
 10789 ;;		On entry : 0/0
 10790 ;;		On exit  : 0/0
 10791 ;;		Unchanged: 0/0
 10792 ;; Data sizes:     COMMON   BANK0   BANK1   BANK2   BANK3   BANK4
 10793 ;;      Params:         0       0       0       0       0       0
 10794 ;;      Locals:         0       0       0       0       0       0
 10795 ;;      Temps:          0       0       0       0       0       0
 10796 ;;      Totals:         0       0       0       0       0       0
 10797 ;;Total ram usage:        0 bytes
 10798 ;; Hardware stack levels used: 1
 10799 ;; Hardware stack levels required when called: 4
 10800 ;; This function calls:
 10801 ;;		_IOCBF0_ISR
 10802 ;;		_IOCBF3_ISR
 10803 ;; This function is called by:
 10804 ;;		_INTERRUPT_InterruptManager
 10805 ;; This function uses a non-reentrant model
 10806 ;;
 10807                           
 10808                           
 10809                           ;psect for function _PIN_MANAGER_IOC
 10810  0AF6                     _PIN_MANAGER_IOC:
 10811  0AF6                     i1l3209:	
 10812                           ;incstack = 0
 10813                           ; Regs used in _PIN_MANAGER_IOC: [wreg+status,2+status,0+pclath+cstack]
 10814                           
 10815                           
 10816                           ;mcc_generated_files/pin_manager.c: 122:     if(IOCBFbits.IOCBF0 == 1)
 10817  0AF6  0027               	movlb	7	; select bank7
 10818  0AF7  1C16               	btfss	22,0	;volatile
 10819  0AF8  2AFA               	goto	u212_21
 10820  0AF9  2AFB               	goto	u212_20
 10821  0AFA                     u212_21:
 10822  0AFA  2AFE               	goto	i1l3213
 10823  0AFB                     u212_20:
 10824  0AFB                     i1l3211:
 10825                           
 10826                           ;mcc_generated_files/pin_manager.c: 123:     {;mcc_generated_files/pin_manager.c: 124:  
      +                                 IOCBF0_ISR();
 10827  0AFB  318A  22B8  318A   	fcall	_IOCBF0_ISR
 10828  0AFE                     i1l3213:
 10829                           
 10830                           ;mcc_generated_files/pin_manager.c: 127:     if(IOCBFbits.IOCBF3 == 1)
 10831  0AFE  0027               	movlb	7	; select bank7
 10832  0AFF  1D96               	btfss	22,3	;volatile
 10833  0B00  2B02               	goto	u213_21
 10834  0B01  2B03               	goto	u213_20
 10835  0B02                     u213_21:
 10836  0B02  2B06               	goto	i1l101
 10837  0B03                     u213_20:
 10838  0B03                     i1l3215:
 10839                           
 10840                           ;mcc_generated_files/pin_manager.c: 128:     {;mcc_generated_files/pin_manager.c: 129:  
      +                                 IOCBF3_ISR();
 10841  0B03  318A  22C7  318A   	fcall	_IOCBF3_ISR
 10842  0B06                     i1l101:
 10843  0B06  0008               	return
 10844  0B07                     __end_of_PIN_MANAGER_IOC:
 10845                           
 10846                           	psect	text56
 10847  0AC7                     __ptext56:	
 10848 ;; *************** function _IOCBF3_ISR *****************
 10849 ;; Defined at:
 10850 ;;		line 166 in file "mcc_generated_files/pin_manager.c"
 10851 ;; Parameters:    Size  Location     Type
 10852 ;;		None
 10853 ;; Auto vars:     Size  Location     Type
 10854 ;;		None
 10855 ;; Return value:  Size  Location     Type
 10856 ;;                  1    wreg      void 
 10857 ;; Registers used:
 10858 ;;		wreg, status,2, status,0, pclath, cstack
 10859 ;; Tracked objects:
 10860 ;;		On entry : 0/0
 10861 ;;		On exit  : 0/0
 10862 ;;		Unchanged: 0/0
 10863 ;; Data sizes:     COMMON   BANK0   BANK1   BANK2   BANK3   BANK4
 10864 ;;      Params:         0       0       0       0       0       0
 10865 ;;      Locals:         0       0       0       0       0       0
 10866 ;;      Temps:          0       0       0       0       0       0
 10867 ;;      Totals:         0       0       0       0       0       0
 10868 ;;Total ram usage:        0 bytes
 10869 ;; Hardware stack levels used: 1
 10870 ;; Hardware stack levels required when called: 3
 10871 ;; This function calls:
 10872 ;;		Absolute function
 10873 ;;		_IOCBF3_DefaultInterruptHandler
 10874 ;;		_S2
 10875 ;; This function is called by:
 10876 ;;		_PIN_MANAGER_IOC
 10877 ;; This function uses a non-reentrant model
 10878 ;;
 10879                           
 10880                           
 10881                           ;psect for function _IOCBF3_ISR
 10882  0AC7                     _IOCBF3_ISR:
 10883  0AC7                     i1l3099:	
 10884                           ;incstack = 0
 10885                           ; Regs used in _IOCBF3_ISR: [wreg+status,2+status,0+pclath+cstack]
 10886                           
 10887                           
 10888                           ;mcc_generated_files/pin_manager.c: 171:     if(IOCBF3_InterruptHandler)
 10889  0AC7  0021               	movlb	1	; select bank1
 10890  0AC8  0860               	movf	_IOCBF3_InterruptHandler^(0+128),w
 10891  0AC9  0461               	iorwf	(_IOCBF3_InterruptHandler+1)^(0+128),w
 10892  0ACA  1903               	btfsc	3,2
 10893  0ACB  2ACD               	goto	u197_21
 10894  0ACC  2ACE               	goto	u197_20
 10895  0ACD                     u197_21:
 10896  0ACD  2AD3               	goto	i1l3103
 10897  0ACE                     u197_20:
 10898  0ACE                     i1l3101:
 10899                           
 10900                           ;mcc_generated_files/pin_manager.c: 172:     {;mcc_generated_files/pin_manager.c: 173:  
      +                                 IOCBF3_InterruptHandler();
 10901  0ACE  0861               	movf	(_IOCBF3_InterruptHandler+1)^(0+128),w
 10902  0ACF  008A               	movwf	10
 10903  0AD0  0860               	movf	_IOCBF3_InterruptHandler^(0+128),w
 10904  0AD1  000A               	callw
 10905  0AD2  318A               	pagesel	$
 10906  0AD3                     i1l3103:
 10907                           
 10908                           ;mcc_generated_files/pin_manager.c: 175:     IOCBFbits.IOCBF3 = 0;
 10909  0AD3  0027               	movlb	7	; select bank7
 10910  0AD4  1196               	bcf	22,3	;volatile
 10911  0AD5                     i1l115:
 10912  0AD5  0008               	return
 10913  0AD6                     __end_of_IOCBF3_ISR:
 10914                           
 10915                           	psect	text57
 10916  09B6                     __ptext57:	
 10917 ;; *************** function _IOCBF3_DefaultInterruptHandler *****************
 10918 ;; Defined at:
 10919 ;;		line 188 in file "mcc_generated_files/pin_manager.c"
 10920 ;; Parameters:    Size  Location     Type
 10921 ;;		None
 10922 ;; Auto vars:     Size  Location     Type
 10923 ;;		None
 10924 ;; Return value:  Size  Location     Type
 10925 ;;                  1    wreg      void 
 10926 ;; Registers used:
 10927 ;;		None
 10928 ;; Tracked objects:
 10929 ;;		On entry : 0/0
 10930 ;;		On exit  : 0/0
 10931 ;;		Unchanged: 0/0
 10932 ;; Data sizes:     COMMON   BANK0   BANK1   BANK2   BANK3   BANK4
 10933 ;;      Params:         0       0       0       0       0       0
 10934 ;;      Locals:         0       0       0       0       0       0
 10935 ;;      Temps:          0       0       0       0       0       0
 10936 ;;      Totals:         0       0       0       0       0       0
 10937 ;;Total ram usage:        0 bytes
 10938 ;; Hardware stack levels used: 1
 10939 ;; This function calls:
 10940 ;;		Nothing
 10941 ;; This function is called by:
 10942 ;;		_PIN_MANAGER_Initialize
 10943 ;;		_IOCBF3_ISR
 10944 ;; This function uses a non-reentrant model
 10945 ;;
 10946                           
 10947                           
 10948                           ;psect for function _IOCBF3_DefaultInterruptHandler
 10949  09B6                     _IOCBF3_DefaultInterruptHandler:
 10950  09B6                     i1l121:	
 10951                           ;incstack = 0
 10952                           ; Regs used in _IOCBF3_DefaultInterruptHandler: []
 10953                           
 10954  09B6  0008               	return
 10955  09B7                     __end_of_IOCBF3_DefaultInterruptHandler:
 10956                           
 10957                           	psect	text58
 10958  0A0C                     __ptext58:	
 10959 ;; *************** function _S2 *****************
 10960 ;; Defined at:
 10961 ;;		line 178 in file "main.c"
 10962 ;; Parameters:    Size  Location     Type
 10963 ;;		None
 10964 ;; Auto vars:     Size  Location     Type
 10965 ;;		None
 10966 ;; Return value:  Size  Location     Type
 10967 ;;                  1    wreg      void 
 10968 ;; Registers used:
 10969 ;;		wreg, status,2, status,0, pclath, cstack
 10970 ;; Tracked objects:
 10971 ;;		On entry : 0/0
 10972 ;;		On exit  : 0/0
 10973 ;;		Unchanged: 0/0
 10974 ;; Data sizes:     COMMON   BANK0   BANK1   BANK2   BANK3   BANK4
 10975 ;;      Params:         0       0       0       0       0       0
 10976 ;;      Locals:         0       0       0       0       0       0
 10977 ;;      Temps:          0       0       0       0       0       0
 10978 ;;      Totals:         0       0       0       0       0       0
 10979 ;;Total ram usage:        0 bytes
 10980 ;; Hardware stack levels used: 1
 10981 ;; Hardware stack levels required when called: 2
 10982 ;; This function calls:
 10983 ;;		i1_deslocamento
 10984 ;; This function is called by:
 10985 ;;		_main
 10986 ;;		_IOCBF3_ISR
 10987 ;; This function uses a non-reentrant model
 10988 ;;
 10989                           
 10990                           
 10991                           ;psect for function _S2
 10992  0A0C                     _S2:
 10993  0A0C                     i1l2899:	
 10994                           ;incstack = 0
 10995                           ; Regs used in _S2: [wreg+status,2+status,0+pclath+cstack]
 10996                           
 10997                           
 10998                           ;main.c: 179:  pos_atual = 1;
 10999  0A0C  3001               	movlw	1
 11000  0A0D  0021               	movlb	1	; select bank1
 11001  0A0E  00BC               	movwf	_pos_atual^(0+128)
 11002  0A0F  3000               	movlw	0
 11003  0A10  00BD               	movwf	(_pos_atual^(0+128)+1)
 11004  0A11                     i1l2901:
 11005                           
 11006                           ;main.c: 180:  deslocamento();
 11007  0A11  318D  2523  318A   	fcall	i1_deslocamento
 11008  0A14                     i1l825:
 11009  0A14  0008               	return
 11010  0A15                     __end_of_S2:
 11011                           
 11012                           	psect	text59
 11013  0AB8                     __ptext59:	
 11014 ;; *************** function _IOCBF0_ISR *****************
 11015 ;; Defined at:
 11016 ;;		line 136 in file "mcc_generated_files/pin_manager.c"
 11017 ;; Parameters:    Size  Location     Type
 11018 ;;		None
 11019 ;; Auto vars:     Size  Location     Type
 11020 ;;		None
 11021 ;; Return value:  Size  Location     Type
 11022 ;;                  1    wreg      void 
 11023 ;; Registers used:
 11024 ;;		wreg, status,2, status,0, pclath, cstack
 11025 ;; Tracked objects:
 11026 ;;		On entry : 0/0
 11027 ;;		On exit  : 0/0
 11028 ;;		Unchanged: 0/0
 11029 ;; Data sizes:     COMMON   BANK0   BANK1   BANK2   BANK3   BANK4
 11030 ;;      Params:         0       0       0       0       0       0
 11031 ;;      Locals:         0       0       0       0       0       0
 11032 ;;      Temps:          0       0       0       0       0       0
 11033 ;;      Totals:         0       0       0       0       0       0
 11034 ;;Total ram usage:        0 bytes
 11035 ;; Hardware stack levels used: 1
 11036 ;; Hardware stack levels required when called: 2
 11037 ;; This function calls:
 11038 ;;		Absolute function
 11039 ;;		_IOCBF0_DefaultInterruptHandler
 11040 ;;		_S1
 11041 ;; This function is called by:
 11042 ;;		_PIN_MANAGER_IOC
 11043 ;; This function uses a non-reentrant model
 11044 ;;
 11045                           
 11046                           
 11047                           ;psect for function _IOCBF0_ISR
 11048  0AB8                     _IOCBF0_ISR:
 11049  0AB8                     i1l3093:	
 11050                           ;incstack = 0
 11051                           ; Regs used in _IOCBF0_ISR: [wreg+status,2+status,0+pclath+cstack]
 11052                           
 11053                           
 11054                           ;mcc_generated_files/pin_manager.c: 141:     if(IOCBF0_InterruptHandler)
 11055  0AB8  0021               	movlb	1	; select bank1
 11056  0AB9  0862               	movf	_IOCBF0_InterruptHandler^(0+128),w
 11057  0ABA  0463               	iorwf	(_IOCBF0_InterruptHandler+1)^(0+128),w
 11058  0ABB  1903               	btfsc	3,2
 11059  0ABC  2ABE               	goto	u196_21
 11060  0ABD  2ABF               	goto	u196_20
 11061  0ABE                     u196_21:
 11062  0ABE  2AC4               	goto	i1l3097
 11063  0ABF                     u196_20:
 11064  0ABF                     i1l3095:
 11065                           
 11066                           ;mcc_generated_files/pin_manager.c: 142:     {;mcc_generated_files/pin_manager.c: 143:  
      +                                 IOCBF0_InterruptHandler();
 11067  0ABF  0863               	movf	(_IOCBF0_InterruptHandler+1)^(0+128),w
 11068  0AC0  008A               	movwf	10
 11069  0AC1  0862               	movf	_IOCBF0_InterruptHandler^(0+128),w
 11070  0AC2  000A               	callw
 11071  0AC3  318A               	pagesel	$
 11072  0AC4                     i1l3097:
 11073                           
 11074                           ;mcc_generated_files/pin_manager.c: 145:     IOCBFbits.IOCBF0 = 0;
 11075  0AC4  0027               	movlb	7	; select bank7
 11076  0AC5  1016               	bcf	22,0	;volatile
 11077  0AC6                     i1l105:
 11078  0AC6  0008               	return
 11079  0AC7                     __end_of_IOCBF0_ISR:
 11080                           
 11081                           	psect	text60
 11082  09B5                     __ptext60:	
 11083 ;; *************** function _IOCBF0_DefaultInterruptHandler *****************
 11084 ;; Defined at:
 11085 ;;		line 158 in file "mcc_generated_files/pin_manager.c"
 11086 ;; Parameters:    Size  Location     Type
 11087 ;;		None
 11088 ;; Auto vars:     Size  Location     Type
 11089 ;;		None
 11090 ;; Return value:  Size  Location     Type
 11091 ;;                  1    wreg      void 
 11092 ;; Registers used:
 11093 ;;		None
 11094 ;; Tracked objects:
 11095 ;;		On entry : 0/0
 11096 ;;		On exit  : 0/0
 11097 ;;		Unchanged: 0/0
 11098 ;; Data sizes:     COMMON   BANK0   BANK1   BANK2   BANK3   BANK4
 11099 ;;      Params:         0       0       0       0       0       0
 11100 ;;      Locals:         0       0       0       0       0       0
 11101 ;;      Temps:          0       0       0       0       0       0
 11102 ;;      Totals:         0       0       0       0       0       0
 11103 ;;Total ram usage:        0 bytes
 11104 ;; Hardware stack levels used: 1
 11105 ;; This function calls:
 11106 ;;		Nothing
 11107 ;; This function is called by:
 11108 ;;		_PIN_MANAGER_Initialize
 11109 ;;		_IOCBF0_ISR
 11110 ;; This function uses a non-reentrant model
 11111 ;;
 11112                           
 11113                           
 11114                           ;psect for function _IOCBF0_DefaultInterruptHandler
 11115  09B5                     _IOCBF0_DefaultInterruptHandler:
 11116  09B5                     i1l111:	
 11117                           ;incstack = 0
 11118                           ; Regs used in _IOCBF0_DefaultInterruptHandler: []
 11119                           
 11120  09B5  0008               	return
 11121  09B6                     __end_of_IOCBF0_DefaultInterruptHandler:
 11122                           
 11123                           	psect	text61
 11124  0AA9                     __ptext61:	
 11125 ;; *************** function _S1 *****************
 11126 ;; Defined at:
 11127 ;;		line 171 in file "main.c"
 11128 ;; Parameters:    Size  Location     Type
 11129 ;;		None
 11130 ;; Auto vars:     Size  Location     Type
 11131 ;;		None
 11132 ;; Return value:  Size  Location     Type
 11133 ;;                  1    wreg      void 
 11134 ;; Registers used:
 11135 ;;		wreg, status,2, status,0, pclath, cstack
 11136 ;; Tracked objects:
 11137 ;;		On entry : 0/0
 11138 ;;		On exit  : 0/0
 11139 ;;		Unchanged: 0/0
 11140 ;; Data sizes:     COMMON   BANK0   BANK1   BANK2   BANK3   BANK4
 11141 ;;      Params:         0       0       0       0       0       0
 11142 ;;      Locals:         0       0       0       0       0       0
 11143 ;;      Temps:          0       0       0       0       0       0
 11144 ;;      Totals:         0       0       0       0       0       0
 11145 ;;Total ram usage:        0 bytes
 11146 ;; Hardware stack levels used: 1
 11147 ;; Hardware stack levels required when called: 1
 11148 ;; This function calls:
 11149 ;;		i1_PWM3_LoadDutyValue
 11150 ;; This function is called by:
 11151 ;;		_main
 11152 ;;		_IOCBF0_ISR
 11153 ;; This function uses a non-reentrant model
 11154 ;;
 11155                           
 11156                           
 11157                           ;psect for function _S1
 11158  0AA9                     _S1:
 11159  0AA9                     i1l2893:	
 11160                           ;incstack = 0
 11161                           ; Regs used in _S1: [wreg+status,2+status,0+pclath+cstack]
 11162                           
 11163                           
 11164                           ;main.c: 172:  pos_atual = 0;
 11165  0AA9  0021               	movlb	1	; select bank1
 11166  0AAA  01BC               	clrf	_pos_atual^(0+128)
 11167  0AAB  01BD               	clrf	(_pos_atual+1)^(0+128)
 11168                           
 11169                           ;main.c: 173:  pulsos = 0;
 11170  0AAC  01CE               	clrf	_pulsos^(0+128)
 11171  0AAD  01CF               	clrf	(_pulsos+1)^(0+128)
 11172  0AAE                     i1l2895:
 11173                           
 11174                           ;main.c: 174:     PWM3_LoadDutyValue(0);
 11175  0AAE  3000               	movlw	0
 11176  0AAF  00F0               	movwf	i1PWM3_LoadDutyValue@dutyValue
 11177  0AB0  00F1               	movwf	i1PWM3_LoadDutyValue@dutyValue+1
 11178  0AB1  318B  2356  318A   	fcall	i1_PWM3_LoadDutyValue
 11179  0AB4                     i1l2897:
 11180                           
 11181                           ;main.c: 175:     motor = 0;
 11182  0AB4  0021               	movlb	1	; select bank1
 11183  0AB5  01D0               	clrf	_motor^(0+128)
 11184  0AB6  01D1               	clrf	(_motor+1)^(0+128)
 11185  0AB7                     i1l822:
 11186  0AB7  0008               	return
 11187  0AB8                     __end_of_S1:
 11188                           
 11189                           	psect	text62
 11190  0C2B                     __ptext62:	
 11191 ;; *************** function _EUSART_Transmit_ISR *****************
 11192 ;; Defined at:
 11193 ;;		line 197 in file "mcc_generated_files/eusart.c"
 11194 ;; Parameters:    Size  Location     Type
 11195 ;;		None
 11196 ;; Auto vars:     Size  Location     Type
 11197 ;;		None
 11198 ;; Return value:  Size  Location     Type
 11199 ;;                  1    wreg      void 
 11200 ;; Registers used:
 11201 ;;		wreg, fsr1l, fsr1h, status,2, status,0
 11202 ;; Tracked objects:
 11203 ;;		On entry : 0/0
 11204 ;;		On exit  : 0/0
 11205 ;;		Unchanged: 0/0
 11206 ;; Data sizes:     COMMON   BANK0   BANK1   BANK2   BANK3   BANK4
 11207 ;;      Params:         0       0       0       0       0       0
 11208 ;;      Locals:         0       0       0       0       0       0
 11209 ;;      Temps:          1       0       0       0       0       0
 11210 ;;      Totals:         1       0       0       0       0       0
 11211 ;;Total ram usage:        1 bytes
 11212 ;; Hardware stack levels used: 1
 11213 ;; This function calls:
 11214 ;;		Nothing
 11215 ;; This function is called by:
 11216 ;;		_EUSART_Initialize
 11217 ;;		_INTERRUPT_InterruptManager
 11218 ;; This function uses a non-reentrant model
 11219 ;;
 11220                           
 11221                           
 11222                           ;psect for function _EUSART_Transmit_ISR
 11223  0C2B                     _EUSART_Transmit_ISR:
 11224  0C2B                     i1l3257:	
 11225                           ;incstack = 0
 11226                           ; Regs used in _EUSART_Transmit_ISR: [wreg+fsr1l+fsr1h+status,2+status,0]
 11227                           
 11228                           
 11229                           ;mcc_generated_files/eusart.c: 201:     if(sizeof(eusartTxBuffer) > eusartTxBufferRemain
      +                          ing)
 11230  0C2B  3008               	movlw	8
 11231  0C2C  0021               	movlb	1	; select bank1
 11232  0C2D  0264               	subwf	_eusartTxBufferRemaining^(0+128),w	;volatile
 11233  0C2E  1803               	skipnc
 11234  0C2F  2C31               	goto	u219_21
 11235  0C30  2C32               	goto	u219_20
 11236  0C31                     u219_21:
 11237  0C31  2C4A               	goto	i1l338
 11238  0C32                     u219_20:
 11239  0C32                     i1l3259:
 11240                           
 11241                           ;mcc_generated_files/eusart.c: 202:     {;mcc_generated_files/eusart.c: 203:         TXR
      +                          EG = eusartTxBuffer[eusartTxTail++];
 11242  0C32  0846               	movf	_eusartTxTail^(0+128),w
 11243  0C33  3EA8               	addlw	(low (_eusartTxBuffer| 0))& (0+255)
 11244  0C34  0086               	movwf	6
 11245  0C35  0187               	clrf	7
 11246  0C36  0801               	movf	1,w
 11247  0C37  0023               	movlb	3	; select bank3
 11248  0C38  009A               	movwf	26	;volatile
 11249  0C39                     i1l3261:
 11250  0C39  3001               	movlw	1
 11251  0C3A  00F0               	movwf	??_EUSART_Transmit_ISR
 11252  0C3B  0870               	movf	??_EUSART_Transmit_ISR,w
 11253  0C3C  0021               	movlb	1	; select bank1
 11254  0C3D  07C6               	addwf	_eusartTxTail^(0+128),f	;volatile
 11255  0C3E                     i1l3263:
 11256                           
 11257                           ;mcc_generated_files/eusart.c: 204:         if(sizeof(eusartTxBuffer) <= eusartTxTail)
 11258  0C3E  3008               	movlw	8
 11259  0C3F  0246               	subwf	_eusartTxTail^(0+128),w	;volatile
 11260  0C40  1C03               	skipc
 11261  0C41  2C43               	goto	u220_21
 11262  0C42  2C44               	goto	u220_20
 11263  0C43                     u220_21:
 11264  0C43  2C45               	goto	i1l3267
 11265  0C44                     u220_20:
 11266  0C44                     i1l3265:
 11267                           
 11268                           ;mcc_generated_files/eusart.c: 205:         {;mcc_generated_files/eusart.c: 206:        
      +                               eusartTxTail = 0;
 11269  0C44  01C6               	clrf	_eusartTxTail^(0+128)	;volatile
 11270  0C45                     i1l3267:
 11271                           
 11272                           ;mcc_generated_files/eusart.c: 208:         eusartTxBufferRemaining++;
 11273  0C45  3001               	movlw	1
 11274  0C46  00F0               	movwf	??_EUSART_Transmit_ISR
 11275  0C47  0870               	movf	??_EUSART_Transmit_ISR,w
 11276  0C48  07E4               	addwf	_eusartTxBufferRemaining^(0+128),f	;volatile
 11277                           
 11278                           ;mcc_generated_files/eusart.c: 209:     }
 11279  0C49  2C4B               	goto	i1l341
 11280  0C4A                     i1l338:	
 11281                           ;mcc_generated_files/eusart.c: 210:     else
 11282                           
 11283                           
 11284                           ;mcc_generated_files/eusart.c: 211:     {;mcc_generated_files/eusart.c: 212:         PIE
      +                          1bits.TXIE = 0;
 11285  0C4A  1211               	bcf	17,4	;volatile
 11286  0C4B                     i1l341:
 11287  0C4B  0008               	return
 11288  0C4C                     __end_of_EUSART_Transmit_ISR:
 11289                           
 11290                           	psect	text63
 11291  0DBD                     __ptext63:	
 11292 ;; *************** function _EUSART_Receive_ISR *****************
 11293 ;; Defined at:
 11294 ;;		line 216 in file "mcc_generated_files/eusart.c"
 11295 ;; Parameters:    Size  Location     Type
 11296 ;;		None
 11297 ;; Auto vars:     Size  Location     Type
 11298 ;;		None
 11299 ;; Return value:  Size  Location     Type
 11300 ;;                  1    wreg      void 
 11301 ;; Registers used:
 11302 ;;		wreg, fsr1l, fsr1h, status,2, status,0, pclath, cstack
 11303 ;; Tracked objects:
 11304 ;;		On entry : 0/0
 11305 ;;		On exit  : 0/0
 11306 ;;		Unchanged: 0/0
 11307 ;; Data sizes:     COMMON   BANK0   BANK1   BANK2   BANK3   BANK4
 11308 ;;      Params:         0       0       0       0       0       0
 11309 ;;      Locals:         0       0       0       0       0       0
 11310 ;;      Temps:          0       0       0       0       0       0
 11311 ;;      Totals:         0       0       0       0       0       0
 11312 ;;Total ram usage:        0 bytes
 11313 ;; Hardware stack levels used: 1
 11314 ;; Hardware stack levels required when called: 2
 11315 ;; This function calls:
 11316 ;;		Absolute function
 11317 ;;		_EUSART_DefaultErrorHandler
 11318 ;;		_EUSART_DefaultFramingErrorHandler
 11319 ;;		_EUSART_DefaultOverrunErrorHandler
 11320 ;;		_EUSART_RxDataHandler
 11321 ;; This function is called by:
 11322 ;;		_EUSART_Initialize
 11323 ;;		_INTERRUPT_InterruptManager
 11324 ;; This function uses a non-reentrant model
 11325 ;;
 11326                           
 11327                           
 11328                           ;psect for function _EUSART_Receive_ISR
 11329  0DBD                     _EUSART_Receive_ISR:
 11330  0DBD                     i1l3269:	
 11331                           ;incstack = 0
 11332                           ; Regs used in _EUSART_Receive_ISR: [wreg+fsr1l+fsr1h+status,2+status,0+pclath+cstack]
 11333                           
 11334                           
 11335                           ;mcc_generated_files/eusart.c: 219:     eusartRxStatusBuffer[eusartRxHead].status = 0;
 11336  0DBD  0020               	movlb	0	; select bank0
 11337  0DBE  086D               	movf	_eusartRxHead,w	;volatile
 11338  0DBF  3EA0               	addlw	(low (_eusartRxStatusBuffer| 0))& (0+255)
 11339  0DC0  0086               	movwf	6
 11340  0DC1  0187               	clrf	7
 11341  0DC2  0181               	clrf	1
 11342  0DC3                     i1l3271:
 11343                           
 11344                           ;mcc_generated_files/eusart.c: 221:     if(RCSTAbits.FERR){
 11345  0DC3  0023               	movlb	3	; select bank3
 11346  0DC4  1D1D               	btfss	29,2	;volatile
 11347  0DC5  2DC7               	goto	u221_21
 11348  0DC6  2DC8               	goto	u221_20
 11349  0DC7                     u221_21:
 11350  0DC7  2DD4               	goto	i1l3277
 11351  0DC8                     u221_20:
 11352  0DC8                     i1l3273:
 11353                           
 11354                           ;mcc_generated_files/eusart.c: 222:         eusartRxStatusBuffer[eusartRxHead].ferr = 1;
 11355  0DC8  0020               	movlb	0	; select bank0
 11356  0DC9  086D               	movf	_eusartRxHead,w	;volatile
 11357  0DCA  3EA0               	addlw	(low (_eusartRxStatusBuffer| 0))& (0+255)
 11358  0DCB  0086               	movwf	6
 11359  0DCC  0187               	clrf	7
 11360  0DCD  1481               	bsf	1,1
 11361  0DCE                     i1l3275:
 11362                           
 11363                           ;mcc_generated_files/eusart.c: 223:         EUSART_FramingErrorHandler();
 11364  0DCE  0022               	movlb	2	; select bank2
 11365  0DCF  0847               	movf	(_EUSART_FramingErrorHandler+1)^(0+256),w
 11366  0DD0  008A               	movwf	10
 11367  0DD1  0846               	movf	_EUSART_FramingErrorHandler^(0+256),w
 11368  0DD2  000A               	callw
 11369  0DD3  318D               	pagesel	$
 11370  0DD4                     i1l3277:
 11371                           
 11372                           ;mcc_generated_files/eusart.c: 226:     if(RCSTAbits.OERR){
 11373  0DD4  0023               	movlb	3	; select bank3
 11374  0DD5  1C9D               	btfss	29,1	;volatile
 11375  0DD6  2DD8               	goto	u222_21
 11376  0DD7  2DD9               	goto	u222_20
 11377  0DD8                     u222_21:
 11378  0DD8  2DE5               	goto	i1l3283
 11379  0DD9                     u222_20:
 11380  0DD9                     i1l3279:
 11381                           
 11382                           ;mcc_generated_files/eusart.c: 227:         eusartRxStatusBuffer[eusartRxHead].oerr = 1;
 11383  0DD9  0020               	movlb	0	; select bank0
 11384  0DDA  086D               	movf	_eusartRxHead,w	;volatile
 11385  0DDB  3EA0               	addlw	(low (_eusartRxStatusBuffer| 0))& (0+255)
 11386  0DDC  0086               	movwf	6
 11387  0DDD  0187               	clrf	7
 11388  0DDE  1501               	bsf	1,2
 11389  0DDF                     i1l3281:
 11390                           
 11391                           ;mcc_generated_files/eusart.c: 228:         EUSART_OverrunErrorHandler();
 11392  0DDF  0022               	movlb	2	; select bank2
 11393  0DE0  0845               	movf	(_EUSART_OverrunErrorHandler+1)^(0+256),w
 11394  0DE1  008A               	movwf	10
 11395  0DE2  0844               	movf	_EUSART_OverrunErrorHandler^(0+256),w
 11396  0DE3  000A               	callw
 11397  0DE4  318D               	pagesel	$
 11398  0DE5                     i1l3283:
 11399                           
 11400                           ;mcc_generated_files/eusart.c: 231:     if(eusartRxStatusBuffer[eusartRxHead].status){
 11401  0DE5  0020               	movlb	0	; select bank0
 11402  0DE6  086D               	movf	_eusartRxHead,w	;volatile
 11403  0DE7  3EA0               	addlw	(low (_eusartRxStatusBuffer| 0))& (0+255)
 11404  0DE8  0086               	movwf	6
 11405  0DE9  0187               	clrf	7
 11406  0DEA  0801               	movf	1,w
 11407  0DEB  1903               	btfsc	3,2
 11408  0DEC  2DEE               	goto	u223_21
 11409  0DED  2DEF               	goto	u223_20
 11410  0DEE                     u223_21:
 11411  0DEE  2DF6               	goto	i1l3287
 11412  0DEF                     u223_20:
 11413  0DEF                     i1l3285:
 11414                           
 11415                           ;mcc_generated_files/eusart.c: 232:         EUSART_ErrorHandler();
 11416  0DEF  0022               	movlb	2	; select bank2
 11417  0DF0  0843               	movf	(_EUSART_ErrorHandler+1)^(0+256),w
 11418  0DF1  008A               	movwf	10
 11419  0DF2  0842               	movf	_EUSART_ErrorHandler^(0+256),w
 11420  0DF3  000A               	callw
 11421  0DF4  318D               	pagesel	$
 11422                           
 11423                           ;mcc_generated_files/eusart.c: 233:     } else {
 11424  0DF5  2DF9               	goto	i1l348
 11425  0DF6                     i1l3287:
 11426                           
 11427                           ;mcc_generated_files/eusart.c: 234:         EUSART_RxDataHandler();
 11428  0DF6  318B  23B9  318D   	fcall	_EUSART_RxDataHandler
 11429  0DF9                     i1l348:
 11430  0DF9  0008               	return
 11431  0DFA                     __end_of_EUSART_Receive_ISR:
 11432                           
 11433                           	psect	text64
 11434  09BD                     __ptext64:	
 11435 ;; *************** function _EUSART_DefaultOverrunErrorHandler *****************
 11436 ;; Defined at:
 11437 ;;		line 252 in file "mcc_generated_files/eusart.c"
 11438 ;; Parameters:    Size  Location     Type
 11439 ;;		None
 11440 ;; Auto vars:     Size  Location     Type
 11441 ;;		None
 11442 ;; Return value:  Size  Location     Type
 11443 ;;                  1    wreg      void 
 11444 ;; Registers used:
 11445 ;;		None
 11446 ;; Tracked objects:
 11447 ;;		On entry : 0/0
 11448 ;;		On exit  : 0/0
 11449 ;;		Unchanged: 0/0
 11450 ;; Data sizes:     COMMON   BANK0   BANK1   BANK2   BANK3   BANK4
 11451 ;;      Params:         0       0       0       0       0       0
 11452 ;;      Locals:         0       0       0       0       0       0
 11453 ;;      Temps:          0       0       0       0       0       0
 11454 ;;      Totals:         0       0       0       0       0       0
 11455 ;;Total ram usage:        0 bytes
 11456 ;; Hardware stack levels used: 1
 11457 ;; This function calls:
 11458 ;;		Nothing
 11459 ;; This function is called by:
 11460 ;;		_EUSART_Initialize
 11461 ;;		_EUSART_Receive_ISR
 11462 ;; This function uses a non-reentrant model
 11463 ;;
 11464                           
 11465                           
 11466                           ;psect for function _EUSART_DefaultOverrunErrorHandler
 11467  09BD                     _EUSART_DefaultOverrunErrorHandler:
 11468  09BD                     i1l3119:	
 11469                           ;incstack = 0
 11470                           ; Regs used in _EUSART_DefaultOverrunErrorHandler: []
 11471                           
 11472                           
 11473                           ;mcc_generated_files/eusart.c: 255:     RCSTAbits.CREN = 0;
 11474  09BD  0023               	movlb	3	; select bank3
 11475  09BE  121D               	bcf	29,4	;volatile
 11476                           
 11477                           ;mcc_generated_files/eusart.c: 256:     RCSTAbits.CREN = 1;
 11478  09BF  161D               	bsf	29,4	;volatile
 11479  09C0                     i1l358:
 11480  09C0  0008               	return
 11481  09C1                     __end_of_EUSART_DefaultOverrunErrorHandler:
 11482                           
 11483                           	psect	text65
 11484  09B4                     __ptext65:	
 11485 ;; *************** function _EUSART_DefaultFramingErrorHandler *****************
 11486 ;; Defined at:
 11487 ;;		line 250 in file "mcc_generated_files/eusart.c"
 11488 ;; Parameters:    Size  Location     Type
 11489 ;;		None
 11490 ;; Auto vars:     Size  Location     Type
 11491 ;;		None
 11492 ;; Return value:  Size  Location     Type
 11493 ;;                  1    wreg      void 
 11494 ;; Registers used:
 11495 ;;		None
 11496 ;; Tracked objects:
 11497 ;;		On entry : 0/0
 11498 ;;		On exit  : 0/0
 11499 ;;		Unchanged: 0/0
 11500 ;; Data sizes:     COMMON   BANK0   BANK1   BANK2   BANK3   BANK4
 11501 ;;      Params:         0       0       0       0       0       0
 11502 ;;      Locals:         0       0       0       0       0       0
 11503 ;;      Temps:          0       0       0       0       0       0
 11504 ;;      Totals:         0       0       0       0       0       0
 11505 ;;Total ram usage:        0 bytes
 11506 ;; Hardware stack levels used: 1
 11507 ;; This function calls:
 11508 ;;		Nothing
 11509 ;; This function is called by:
 11510 ;;		_EUSART_Initialize
 11511 ;;		_EUSART_Receive_ISR
 11512 ;; This function uses a non-reentrant model
 11513 ;;
 11514                           
 11515                           
 11516                           ;psect for function _EUSART_DefaultFramingErrorHandler
 11517  09B4                     _EUSART_DefaultFramingErrorHandler:
 11518  09B4                     i1l355:	
 11519                           ;incstack = 0
 11520                           ; Regs used in _EUSART_DefaultFramingErrorHandler: []
 11521                           
 11522  09B4  0008               	return
 11523  09B5                     __end_of_EUSART_DefaultFramingErrorHandler:
 11524                           
 11525                           	psect	text66
 11526  09B9                     __ptext66:	
 11527 ;; *************** function _EUSART_DefaultErrorHandler *****************
 11528 ;; Defined at:
 11529 ;;		line 260 in file "mcc_generated_files/eusart.c"
 11530 ;; Parameters:    Size  Location     Type
 11531 ;;		None
 11532 ;; Auto vars:     Size  Location     Type
 11533 ;;		None
 11534 ;; Return value:  Size  Location     Type
 11535 ;;                  1    wreg      void 
 11536 ;; Registers used:
 11537 ;;		wreg, fsr1l, fsr1h, status,2, status,0, pclath, cstack
 11538 ;; Tracked objects:
 11539 ;;		On entry : 0/0
 11540 ;;		On exit  : 0/0
 11541 ;;		Unchanged: 0/0
 11542 ;; Data sizes:     COMMON   BANK0   BANK1   BANK2   BANK3   BANK4
 11543 ;;      Params:         0       0       0       0       0       0
 11544 ;;      Locals:         0       0       0       0       0       0
 11545 ;;      Temps:          0       0       0       0       0       0
 11546 ;;      Totals:         0       0       0       0       0       0
 11547 ;;Total ram usage:        0 bytes
 11548 ;; Hardware stack levels used: 1
 11549 ;; Hardware stack levels required when called: 1
 11550 ;; This function calls:
 11551 ;;		_EUSART_RxDataHandler
 11552 ;; This function is called by:
 11553 ;;		_EUSART_Initialize
 11554 ;;		_EUSART_Receive_ISR
 11555 ;; This function uses a non-reentrant model
 11556 ;;
 11557                           
 11558                           
 11559                           ;psect for function _EUSART_DefaultErrorHandler
 11560  09B9                     _EUSART_DefaultErrorHandler:
 11561  09B9                     i1l3121:	
 11562                           ;incstack = 0
 11563                           ; Regs used in _EUSART_DefaultErrorHandler: [wreg+fsr1l+fsr1h+status,2+status,0+pclath+c
      +                          stack]
 11564                           
 11565                           
 11566                           ;mcc_generated_files/eusart.c: 261:     EUSART_RxDataHandler();
 11567  09B9  318B  23B9  3189   	fcall	_EUSART_RxDataHandler
 11568  09BC                     i1l361:
 11569  09BC  0008               	return
 11570  09BD                     __end_of_EUSART_DefaultErrorHandler:
 11571                           
 11572                           	psect	text67
 11573  0BB9                     __ptext67:	
 11574 ;; *************** function _EUSART_RxDataHandler *****************
 11575 ;; Defined at:
 11576 ;;		line 240 in file "mcc_generated_files/eusart.c"
 11577 ;; Parameters:    Size  Location     Type
 11578 ;;		None
 11579 ;; Auto vars:     Size  Location     Type
 11580 ;;		None
 11581 ;; Return value:  Size  Location     Type
 11582 ;;                  1    wreg      void 
 11583 ;; Registers used:
 11584 ;;		wreg, fsr1l, fsr1h, status,2, status,0
 11585 ;; Tracked objects:
 11586 ;;		On entry : 0/0
 11587 ;;		On exit  : 0/0
 11588 ;;		Unchanged: 0/0
 11589 ;; Data sizes:     COMMON   BANK0   BANK1   BANK2   BANK3   BANK4
 11590 ;;      Params:         0       0       0       0       0       0
 11591 ;;      Locals:         0       0       0       0       0       0
 11592 ;;      Temps:          1       0       0       0       0       0
 11593 ;;      Totals:         1       0       0       0       0       0
 11594 ;;Total ram usage:        1 bytes
 11595 ;; Hardware stack levels used: 1
 11596 ;; This function calls:
 11597 ;;		Nothing
 11598 ;; This function is called by:
 11599 ;;		_EUSART_Receive_ISR
 11600 ;;		_EUSART_DefaultErrorHandler
 11601 ;; This function uses a non-reentrant model
 11602 ;;
 11603                           
 11604                           
 11605                           ;psect for function _EUSART_RxDataHandler
 11606  0BB9                     _EUSART_RxDataHandler:
 11607  0BB9                     i1l2851:	
 11608                           ;incstack = 0
 11609                           ; Regs used in _EUSART_RxDataHandler: [wreg+fsr1l+fsr1h+status,2+status,0]
 11610                           
 11611                           
 11612                           ;mcc_generated_files/eusart.c: 242:     eusartRxBuffer[eusartRxHead++] = RCREG;
 11613  0BB9  0023               	movlb	3	; select bank3
 11614  0BBA  0819               	movf	25,w	;volatile
 11615  0BBB  00F0               	movwf	??_EUSART_RxDataHandler
 11616  0BBC  0020               	movlb	0	; select bank0
 11617  0BBD  086D               	movf	_eusartRxHead,w
 11618  0BBE  3E38               	addlw	(low (_eusartRxBuffer| (0+256)))& (0+255)
 11619  0BBF  0086               	movwf	6
 11620  0BC0  3001               	movlw	1	; select bank2/3
 11621  0BC1  0087               	movwf	7
 11622  0BC2  0870               	movf	??_EUSART_RxDataHandler,w
 11623  0BC3  0081               	movwf	1
 11624  0BC4                     i1l2853:
 11625  0BC4  3001               	movlw	1
 11626  0BC5  00F0               	movwf	??_EUSART_RxDataHandler
 11627  0BC6  0870               	movf	??_EUSART_RxDataHandler,w
 11628  0BC7  07ED               	addwf	_eusartRxHead,f	;volatile
 11629  0BC8                     i1l2855:
 11630                           
 11631                           ;mcc_generated_files/eusart.c: 243:     if(sizeof(eusartRxBuffer) <= eusartRxHead)
 11632  0BC8  3008               	movlw	8
 11633  0BC9  026D               	subwf	_eusartRxHead,w	;volatile
 11634  0BCA  1C03               	skipc
 11635  0BCB  2BCD               	goto	u182_21
 11636  0BCC  2BCE               	goto	u182_20
 11637  0BCD                     u182_21:
 11638  0BCD  2BCF               	goto	i1l2859
 11639  0BCE                     u182_20:
 11640  0BCE                     i1l2857:
 11641                           
 11642                           ;mcc_generated_files/eusart.c: 244:     {;mcc_generated_files/eusart.c: 245:         eus
      +                          artRxHead = 0;
 11643  0BCE  01ED               	clrf	_eusartRxHead	;volatile
 11644  0BCF                     i1l2859:
 11645                           
 11646                           ;mcc_generated_files/eusart.c: 247:     eusartRxCount++;
 11647  0BCF  3001               	movlw	1
 11648  0BD0  00F0               	movwf	??_EUSART_RxDataHandler
 11649  0BD1  0870               	movf	??_EUSART_RxDataHandler,w
 11650  0BD2  0021               	movlb	1	; select bank1
 11651  0BD3  07C5               	addwf	_eusartRxCount^(0+128),f	;volatile
 11652  0BD4                     i1l352:
 11653  0BD4  0008               	return
 11654  0BD5                     __end_of_EUSART_RxDataHandler:
 11655                           
 11656                           	psect	text68
 11657  09D4                     __ptext68:	
 11658 ;; *************** function _CMP2_ISR *****************
 11659 ;; Defined at:
 11660 ;;		line 201 in file "main.c"
 11661 ;; Parameters:    Size  Location     Type
 11662 ;;		None
 11663 ;; Auto vars:     Size  Location     Type
 11664 ;;		None
 11665 ;; Return value:  Size  Location     Type
 11666 ;;                  1    wreg      void 
 11667 ;; Registers used:
 11668 ;;		wreg, status,2, status,0, pclath, cstack
 11669 ;; Tracked objects:
 11670 ;;		On entry : 0/0
 11671 ;;		On exit  : 0/0
 11672 ;;		Unchanged: 0/0
 11673 ;; Data sizes:     COMMON   BANK0   BANK1   BANK2   BANK3   BANK4
 11674 ;;      Params:         0       0       0       0       0       0
 11675 ;;      Locals:         0       0       0       0       0       0
 11676 ;;      Temps:          0       0       0       0       0       0
 11677 ;;      Totals:         0       0       0       0       0       0
 11678 ;;Total ram usage:        0 bytes
 11679 ;; Hardware stack levels used: 1
 11680 ;; Hardware stack levels required when called: 2
 11681 ;; This function calls:
 11682 ;;		_S4
 11683 ;; This function is called by:
 11684 ;;		_INTERRUPT_InterruptManager
 11685 ;; This function uses a non-reentrant model
 11686 ;;
 11687                           
 11688                           
 11689                           ;psect for function _CMP2_ISR
 11690  09D4                     _CMP2_ISR:
 11691  09D4                     i1l3309:	
 11692                           ;incstack = 0
 11693                           ; Regs used in _CMP2_ISR: [wreg+status,2+status,0+pclath+cstack]
 11694                           
 11695                           
 11696                           ;main.c: 202:     S4();
 11697  09D4  318B  2319  3189   	fcall	_S4
 11698  09D7                     i1l3311:
 11699                           
 11700                           ;main.c: 204:     PIR2bits.C1IF = 0;
 11701  09D7  0020               	movlb	0	; select bank0
 11702  09D8  1292               	bcf	18,5	;volatile
 11703  09D9                     i1l837:
 11704  09D9  0008               	return
 11705  09DA                     __end_of_CMP2_ISR:
 11706                           
 11707                           	psect	text69
 11708  0B19                     __ptext69:	
 11709 ;; *************** function _S4 *****************
 11710 ;; Defined at:
 11711 ;;		line 194 in file "main.c"
 11712 ;; Parameters:    Size  Location     Type
 11713 ;;		None
 11714 ;; Auto vars:     Size  Location     Type
 11715 ;;		None
 11716 ;; Return value:  Size  Location     Type
 11717 ;;                  1    wreg      void 
 11718 ;; Registers used:
 11719 ;;		wreg, status,2, status,0, pclath, cstack
 11720 ;; Tracked objects:
 11721 ;;		On entry : 0/0
 11722 ;;		On exit  : 0/0
 11723 ;;		Unchanged: 0/0
 11724 ;; Data sizes:     COMMON   BANK0   BANK1   BANK2   BANK3   BANK4
 11725 ;;      Params:         0       0       0       0       0       0
 11726 ;;      Locals:         0       0       0       0       0       0
 11727 ;;      Temps:          0       0       0       0       0       0
 11728 ;;      Totals:         0       0       0       0       0       0
 11729 ;;Total ram usage:        0 bytes
 11730 ;; Hardware stack levels used: 1
 11731 ;; Hardware stack levels required when called: 1
 11732 ;; This function calls:
 11733 ;;		i1_PWM3_LoadDutyValue
 11734 ;; This function is called by:
 11735 ;;		_CMP2_ISR
 11736 ;; This function uses a non-reentrant model
 11737 ;;
 11738                           
 11739                           
 11740                           ;psect for function _S4
 11741  0B19                     _S4:
 11742  0B19                     i1l3187:	
 11743                           ;incstack = 0
 11744                           ; Regs used in _S4: [wreg+status,2+status,0+pclath+cstack]
 11745                           
 11746                           
 11747                           ;main.c: 195:  pos_atual = 3;
 11748  0B19  3003               	movlw	3
 11749  0B1A  0021               	movlb	1	; select bank1
 11750  0B1B  00BC               	movwf	_pos_atual^(0+128)
 11751  0B1C  3000               	movlw	0
 11752  0B1D  00BD               	movwf	(_pos_atual^(0+128)+1)
 11753                           
 11754                           ;main.c: 196:  pulsos = 215;
 11755  0B1E  30D7               	movlw	215
 11756  0B1F  00CE               	movwf	_pulsos^(0+128)
 11757  0B20  3000               	movlw	0
 11758  0B21  00CF               	movwf	(_pulsos^(0+128)+1)
 11759  0B22                     i1l3189:
 11760                           
 11761                           ;main.c: 197:     PWM3_LoadDutyValue(0);
 11762  0B22  3000               	movlw	0
 11763  0B23  00F0               	movwf	i1PWM3_LoadDutyValue@dutyValue
 11764  0B24  00F1               	movwf	i1PWM3_LoadDutyValue@dutyValue+1
 11765  0B25  318B  2356  318B   	fcall	i1_PWM3_LoadDutyValue
 11766  0B28                     i1l3191:
 11767                           
 11768                           ;main.c: 198:     motor = 0;
 11769  0B28  0021               	movlb	1	; select bank1
 11770  0B29  01D0               	clrf	_motor^(0+128)
 11771  0B2A  01D1               	clrf	(_motor+1)^(0+128)
 11772  0B2B                     i1l834:
 11773  0B2B  0008               	return
 11774  0B2C                     __end_of_S4:
 11775                           
 11776                           	psect	text70
 11777  09CE                     __ptext70:	
 11778 ;; *************** function _CMP1_ISR *****************
 11779 ;; Defined at:
 11780 ;;		line 188 in file "main.c"
 11781 ;; Parameters:    Size  Location     Type
 11782 ;;		None
 11783 ;; Auto vars:     Size  Location     Type
 11784 ;;		None
 11785 ;; Return value:  Size  Location     Type
 11786 ;;                  1    wreg      void 
 11787 ;; Registers used:
 11788 ;;		wreg, status,2, status,0, pclath, cstack
 11789 ;; Tracked objects:
 11790 ;;		On entry : 0/0
 11791 ;;		On exit  : 0/0
 11792 ;;		Unchanged: 0/0
 11793 ;; Data sizes:     COMMON   BANK0   BANK1   BANK2   BANK3   BANK4
 11794 ;;      Params:         0       0       0       0       0       0
 11795 ;;      Locals:         0       0       0       0       0       0
 11796 ;;      Temps:          0       0       0       0       0       0
 11797 ;;      Totals:         0       0       0       0       0       0
 11798 ;;Total ram usage:        0 bytes
 11799 ;; Hardware stack levels used: 1
 11800 ;; Hardware stack levels required when called: 3
 11801 ;; This function calls:
 11802 ;;		_S3
 11803 ;; This function is called by:
 11804 ;;		_INTERRUPT_InterruptManager
 11805 ;; This function uses a non-reentrant model
 11806 ;;
 11807                           
 11808                           
 11809                           ;psect for function _CMP1_ISR
 11810  09CE                     _CMP1_ISR:
 11811  09CE                     i1l3313:	
 11812                           ;incstack = 0
 11813                           ; Regs used in _CMP1_ISR: [wreg+status,2+status,0+pclath+cstack]
 11814                           
 11815                           
 11816                           ;main.c: 189:     S3();
 11817  09CE  318A  2203  3189   	fcall	_S3
 11818  09D1                     i1l3315:
 11819                           
 11820                           ;main.c: 191:     PIR2bits.C1IF = 0;
 11821  09D1  0020               	movlb	0	; select bank0
 11822  09D2  1292               	bcf	18,5	;volatile
 11823  09D3                     i1l831:
 11824  09D3  0008               	return
 11825  09D4                     __end_of_CMP1_ISR:
 11826                           
 11827                           	psect	text71
 11828  0A03                     __ptext71:	
 11829 ;; *************** function _S3 *****************
 11830 ;; Defined at:
 11831 ;;		line 183 in file "main.c"
 11832 ;; Parameters:    Size  Location     Type
 11833 ;;		None
 11834 ;; Auto vars:     Size  Location     Type
 11835 ;;		None
 11836 ;; Return value:  Size  Location     Type
 11837 ;;                  1    wreg      void 
 11838 ;; Registers used:
 11839 ;;		wreg, status,2, status,0, pclath, cstack
 11840 ;; Tracked objects:
 11841 ;;		On entry : 0/0
 11842 ;;		On exit  : 0/0
 11843 ;;		Unchanged: 0/0
 11844 ;; Data sizes:     COMMON   BANK0   BANK1   BANK2   BANK3   BANK4
 11845 ;;      Params:         0       0       0       0       0       0
 11846 ;;      Locals:         0       0       0       0       0       0
 11847 ;;      Temps:          0       0       0       0       0       0
 11848 ;;      Totals:         0       0       0       0       0       0
 11849 ;;Total ram usage:        0 bytes
 11850 ;; Hardware stack levels used: 1
 11851 ;; Hardware stack levels required when called: 2
 11852 ;; This function calls:
 11853 ;;		i1_deslocamento
 11854 ;; This function is called by:
 11855 ;;		_CMP1_ISR
 11856 ;; This function uses a non-reentrant model
 11857 ;;
 11858                           
 11859                           
 11860                           ;psect for function _S3
 11861  0A03                     _S3:
 11862  0A03                     i1l3183:	
 11863                           ;incstack = 0
 11864                           ; Regs used in _S3: [wreg+status,2+status,0+pclath+cstack]
 11865                           
 11866                           
 11867                           ;main.c: 184:  pos_atual = 2;
 11868  0A03  3002               	movlw	2
 11869  0A04  0021               	movlb	1	; select bank1
 11870  0A05  00BC               	movwf	_pos_atual^(0+128)
 11871  0A06  3000               	movlw	0
 11872  0A07  00BD               	movwf	(_pos_atual^(0+128)+1)
 11873  0A08                     i1l3185:
 11874                           
 11875                           ;main.c: 185:  deslocamento();
 11876  0A08  318D  2523  318A   	fcall	i1_deslocamento
 11877  0A0B                     i1l828:
 11878  0A0B  0008               	return
 11879  0A0C                     __end_of_S3:
 11880                           
 11881                           	psect	text72
 11882  0D23                     __ptext72:	
 11883 ;; *************** function i1_deslocamento *****************
 11884 ;; Defined at:
 11885 ;;		line 79 in file "main.c"
 11886 ;; Parameters:    Size  Location     Type
 11887 ;;		None
 11888 ;; Auto vars:     Size  Location     Type
 11889 ;;		None
 11890 ;; Return value:  Size  Location     Type
 11891 ;;                  1    wreg      void 
 11892 ;; Registers used:
 11893 ;;		wreg, status,2, status,0, pclath, cstack
 11894 ;; Tracked objects:
 11895 ;;		On entry : 0/0
 11896 ;;		On exit  : 0/0
 11897 ;;		Unchanged: 0/0
 11898 ;; Data sizes:     COMMON   BANK0   BANK1   BANK2   BANK3   BANK4
 11899 ;;      Params:         0       0       0       0       0       0
 11900 ;;      Locals:         0       0       0       0       0       0
 11901 ;;      Temps:          2       0       0       0       0       0
 11902 ;;      Totals:         2       0       0       0       0       0
 11903 ;;Total ram usage:        2 bytes
 11904 ;; Hardware stack levels used: 1
 11905 ;; Hardware stack levels required when called: 1
 11906 ;; This function calls:
 11907 ;;		i1_PWM3_LoadDutyValue
 11908 ;; This function is called by:
 11909 ;;		_S2
 11910 ;;		_S3
 11911 ;; This function uses a non-reentrant model
 11912 ;;
 11913                           
 11914                           
 11915                           ;psect for function i1_deslocamento
 11916  0D23                     i1_deslocamento:
 11917  0D23                     i1l2801:	
 11918                           ;incstack = 0
 11919                           ; Regs used in i1_deslocamento: [wreg+status,2+status,0+pclath+cstack]
 11920                           
 11921                           
 11922                           ;main.c: 82:     if(pos_final==pos_atual){
 11923  0D23  0021               	movlb	1	; select bank1
 11924  0D24  083D               	movf	(_pos_atual+1)^(0+128),w
 11925  0D25  063F               	xorwf	(_pos_final+1)^(0+128),w
 11926  0D26  1D03               	skipz
 11927  0D27  2D2A               	goto	u175_25
 11928  0D28  083C               	movf	_pos_atual^(0+128),w
 11929  0D29  063E               	xorwf	_pos_final^(0+128),w
 11930  0D2A                     u175_25:
 11931  0D2A  1D03               	skipz
 11932  0D2B  2D2D               	goto	u175_21
 11933  0D2C  2D2E               	goto	u175_20
 11934  0D2D                     u175_21:
 11935  0D2D  2D43               	goto	i1l2809
 11936  0D2E                     u175_20:
 11937  0D2E                     i1l2803:
 11938                           
 11939                           ;main.c: 83:          PWM3_LoadDutyValue(0);
 11940  0D2E  3000               	movlw	0
 11941  0D2F  00F0               	movwf	i1PWM3_LoadDutyValue@dutyValue
 11942  0D30  00F1               	movwf	i1PWM3_LoadDutyValue@dutyValue+1
 11943  0D31  318B  2356  318D   	fcall	i1_PWM3_LoadDutyValue
 11944  0D34                     i1l2805:
 11945                           
 11946                           ;main.c: 84:          motor = 0;
 11947  0D34  0021               	movlb	1	; select bank1
 11948  0D35  01D0               	clrf	_motor^(0+128)
 11949  0D36  01D1               	clrf	(_motor+1)^(0+128)
 11950  0D37                     i1l2807:
 11951                           
 11952                           ;main.c: 85:          _delay((unsigned long)((2000)*(2000000/4000.0)));
 11953  0D37  3006               	movlw	6
 11954  0D38  00F5               	movwf	??i1_deslocamento+1
 11955  0D39  3013               	movlw	19
 11956  0D3A  00F4               	movwf	??i1_deslocamento
 11957  0D3B  30AE               	movlw	174
 11958  0D3C                     u351_27:
 11959  0D3C  0B89               	decfsz	9,f
 11960  0D3D  2D3C               	goto	u351_27
 11961  0D3E  0BF4               	decfsz	??i1_deslocamento,f
 11962  0D3F  2D3C               	goto	u351_27
 11963  0D40  0BF5               	decfsz	??i1_deslocamento+1,f
 11964  0D41  2D3C               	goto	u351_27
 11965                           
 11966                           ;main.c: 86:     }else if (pos_final != pos_atual) {
 11967  0D42  2D54               	goto	i1l789
 11968  0D43                     i1l2809:
 11969  0D43  083D               	movf	(_pos_atual+1)^(0+128),w
 11970  0D44  063F               	xorwf	(_pos_final+1)^(0+128),w
 11971  0D45  1D03               	skipz
 11972  0D46  2D49               	goto	u176_25
 11973  0D47  083C               	movf	_pos_atual^(0+128),w
 11974  0D48  063E               	xorwf	_pos_final^(0+128),w
 11975  0D49                     u176_25:
 11976  0D49  1903               	skipnz
 11977  0D4A  2D4C               	goto	u176_21
 11978  0D4B  2D4D               	goto	u176_20
 11979  0D4C                     u176_21:
 11980  0D4C  2D54               	goto	i1l789
 11981  0D4D                     u176_20:
 11982  0D4D                     i1l2811:
 11983                           
 11984                           ;main.c: 87:         PWM3_LoadDutyValue(409);
 11985  0D4D  3099               	movlw	153
 11986  0D4E  00F0               	movwf	i1PWM3_LoadDutyValue@dutyValue
 11987  0D4F  3001               	movlw	1
 11988  0D50  00F1               	movwf	i1PWM3_LoadDutyValue@dutyValue+1
 11989  0D51  318B  2356  318D   	fcall	i1_PWM3_LoadDutyValue
 11990  0D54                     i1l789:
 11991  0D54  0008               	return
 11992  0D55                     __end_ofi1_deslocamento:
 11993                           
 11994                           	psect	text73
 11995  0B40                     __ptext73:	
 11996 ;; *************** function _CCP4_CaptureISR *****************
 11997 ;; Defined at:
 11998 ;;		line 89 in file "mcc_generated_files/ccp4.c"
 11999 ;; Parameters:    Size  Location     Type
 12000 ;;		None
 12001 ;; Auto vars:     Size  Location     Type
 12002 ;;  module          2    8[COMMON] struct CCPR4Reg_tag
 12003 ;; Return value:  Size  Location     Type
 12004 ;;                  1    wreg      void 
 12005 ;; Registers used:
 12006 ;;		wreg, status,2, status,0, pclath, cstack
 12007 ;; Tracked objects:
 12008 ;;		On entry : 0/0
 12009 ;;		On exit  : 0/0
 12010 ;;		Unchanged: 0/0
 12011 ;; Data sizes:     COMMON   BANK0   BANK1   BANK2   BANK3   BANK4
 12012 ;;      Params:         0       0       0       0       0       0
 12013 ;;      Locals:         2       0       0       0       0       0
 12014 ;;      Temps:          1       0       0       0       0       0
 12015 ;;      Totals:         3       0       0       0       0       0
 12016 ;;Total ram usage:        3 bytes
 12017 ;; Hardware stack levels used: 1
 12018 ;; Hardware stack levels required when called: 2
 12019 ;; This function calls:
 12020 ;;		Absolute function
 12021 ;;		_CCP4_DefaultCallBack
 12022 ;;		_Enc
 12023 ;; This function is called by:
 12024 ;;		_INTERRUPT_InterruptManager
 12025 ;; This function uses a non-reentrant model
 12026 ;;
 12027                           
 12028                           
 12029                           ;psect for function _CCP4_CaptureISR
 12030  0B40                     _CCP4_CaptureISR:
 12031  0B40                     i1l3317:	
 12032                           ;incstack = 0
 12033                           ; Regs used in _CCP4_CaptureISR: [wreg+status,2+status,0+pclath+cstack]
 12034                           
 12035                           
 12036                           ;mcc_generated_files/ccp4.c: 91:     CCP4_PERIOD_REG_T module;;mcc_generated_files/ccp4.
      +                          c: 94:     PIR3bits.CCP4IF = 0;
 12037  0B40  0020               	movlb	0	; select bank0
 12038  0B41  1293               	bcf	19,5	;volatile
 12039  0B42                     i1l3319:
 12040                           
 12041                           ;mcc_generated_files/ccp4.c: 97:     module.ccpr4l = CCPR4L;
 12042  0B42  0026               	movlb	6	; select bank6
 12043  0B43  0818               	movf	24,w	;volatile
 12044  0B44  00F7               	movwf	??_CCP4_CaptureISR
 12045  0B45  0877               	movf	??_CCP4_CaptureISR,w
 12046  0B46  00F8               	movwf	CCP4_CaptureISR@module
 12047                           
 12048                           ;mcc_generated_files/ccp4.c: 98:     module.ccpr4h = CCPR4H;
 12049  0B47  0819               	movf	25,w	;volatile
 12050  0B48  00F7               	movwf	??_CCP4_CaptureISR
 12051  0B49  0877               	movf	??_CCP4_CaptureISR,w
 12052  0B4A  00F9               	movwf	CCP4_CaptureISR@module+1
 12053  0B4B                     i1l3321:
 12054                           
 12055                           ;mcc_generated_files/ccp4.c: 101:     CCP4_CallBack(module.ccpr4_16Bit);
 12056  0B4B  0879               	movf	CCP4_CaptureISR@module+1,w
 12057  0B4C  00F5               	movwf	Enc@colect_value+1
 12058  0B4D  0878               	movf	CCP4_CaptureISR@module,w
 12059  0B4E  00F4               	movwf	Enc@colect_value
 12060  0B4F  0022               	movlb	2	; select bank2
 12061  0B50  0841               	movf	(_CCP4_CallBack+1)^(0+256),w
 12062  0B51  008A               	movwf	10
 12063  0B52  0840               	movf	_CCP4_CallBack^(0+256),w
 12064  0B53  000A               	callw
 12065  0B54  318B               	pagesel	$
 12066  0B55                     i1l652:
 12067  0B55  0008               	return
 12068  0B56                     __end_of_CCP4_CaptureISR:
 12069                           
 12070                           	psect	text74
 12071  09B3                     __ptext74:	
 12072 ;; *************** function _CCP4_DefaultCallBack *****************
 12073 ;; Defined at:
 12074 ;;		line 60 in file "mcc_generated_files/ccp4.c"
 12075 ;; Parameters:    Size  Location     Type
 12076 ;;  capturedValu    2    4[COMMON] unsigned short 
 12077 ;; Auto vars:     Size  Location     Type
 12078 ;;		None
 12079 ;; Return value:  Size  Location     Type
 12080 ;;                  1    wreg      void 
 12081 ;; Registers used:
 12082 ;;		None
 12083 ;; Tracked objects:
 12084 ;;		On entry : 0/0
 12085 ;;		On exit  : 0/0
 12086 ;;		Unchanged: 0/0
 12087 ;; Data sizes:     COMMON   BANK0   BANK1   BANK2   BANK3   BANK4
 12088 ;;      Params:         2       0       0       0       0       0
 12089 ;;      Locals:         0       0       0       0       0       0
 12090 ;;      Temps:          0       0       0       0       0       0
 12091 ;;      Totals:         2       0       0       0       0       0
 12092 ;;Total ram usage:        2 bytes
 12093 ;; Hardware stack levels used: 1
 12094 ;; This function calls:
 12095 ;;		Nothing
 12096 ;; This function is called by:
 12097 ;;		_CCP4_Initialize
 12098 ;;		_CCP4_CaptureISR
 12099 ;; This function uses a non-reentrant model
 12100 ;;
 12101                           
 12102                           
 12103                           ;psect for function _CCP4_DefaultCallBack
 12104  09B3                     _CCP4_DefaultCallBack:
 12105  09B3                     i1l646:	
 12106                           ;incstack = 0
 12107                           ; Regs used in _CCP4_DefaultCallBack: []
 12108                           
 12109  09B3  0008               	return
 12110  09B4                     __end_of_CCP4_DefaultCallBack:
 12111                           
 12112                           	psect	text75
 12113  0DFA                     __ptext75:	
 12114 ;; *************** function _Enc *****************
 12115 ;; Defined at:
 12116 ;;		line 121 in file "main.c"
 12117 ;; Parameters:    Size  Location     Type
 12118 ;;  colect_value    2    4[COMMON] unsigned short 
 12119 ;; Auto vars:     Size  Location     Type
 12120 ;;		None
 12121 ;; Return value:  Size  Location     Type
 12122 ;;                  1    wreg      void 
 12123 ;; Registers used:
 12124 ;;		wreg, status,2, status,0, pclath, cstack
 12125 ;; Tracked objects:
 12126 ;;		On entry : 0/0
 12127 ;;		On exit  : 0/0
 12128 ;;		Unchanged: 0/0
 12129 ;; Data sizes:     COMMON   BANK0   BANK1   BANK2   BANK3   BANK4
 12130 ;;      Params:         2       0       0       0       0       0
 12131 ;;      Locals:         0       0       0       0       0       0
 12132 ;;      Temps:          1       0       0       0       0       0
 12133 ;;      Totals:         3       0       0       0       0       0
 12134 ;;Total ram usage:        3 bytes
 12135 ;; Hardware stack levels used: 1
 12136 ;; Hardware stack levels required when called: 1
 12137 ;; This function calls:
 12138 ;;		_TMR1_WriteTimer
 12139 ;;		i1_PWM3_LoadDutyValue
 12140 ;; This function is called by:
 12141 ;;		_main
 12142 ;;		_CCP4_CaptureISR
 12143 ;; This function uses a non-reentrant model
 12144 ;;
 12145                           
 12146                           
 12147                           ;psect for function _Enc
 12148  0DFA                     _Enc:
 12149  0DFA                     i1l3135:	
 12150                           ;incstack = 0
 12151                           ; Regs used in _Enc: [wreg+status,2+status,0+pclath+cstack]
 12152                           
 12153                           
 12154                           ;main.c: 123:     TMR1_WriteTimer(0);
 12155  0DFA  3000               	movlw	0
 12156  0DFB  00F0               	movwf	TMR1_WriteTimer@timerVal
 12157  0DFC  00F1               	movwf	TMR1_WriteTimer@timerVal+1
 12158  0DFD  318A  22E5  318D   	fcall	_TMR1_WriteTimer
 12159  0E00                     i1l3137:
 12160                           
 12161                           ;main.c: 125:     if(motor==2 && pulsos >= 0){
 12162  0E00  3002               	movlw	2
 12163  0E01  0021               	movlb	1	; select bank1
 12164  0E02  0650               	xorwf	_motor^(0+128),w
 12165  0E03  0451               	iorwf	(_motor+1)^(0+128),w
 12166  0E04  1D03               	btfss	3,2
 12167  0E05  2E07               	goto	u200_21
 12168  0E06  2E08               	goto	u200_20
 12169  0E07                     u200_21:
 12170  0E07  2E11               	goto	i1l3143
 12171  0E08                     u200_20:
 12172  0E08                     i1l3139:
 12173  0E08  1BCF               	btfsc	(_pulsos+1)^(0+128),7
 12174  0E09  2E0B               	goto	u201_21
 12175  0E0A  2E0C               	goto	u201_20
 12176  0E0B                     u201_21:
 12177  0E0B  2E11               	goto	i1l3143
 12178  0E0C                     u201_20:
 12179  0E0C                     i1l3141:
 12180                           
 12181                           ;main.c: 126:         pulsos--;
 12182  0E0C  30FF               	movlw	255
 12183  0E0D  07CE               	addwf	_pulsos^(0+128),f
 12184  0E0E  30FF               	movlw	255
 12185  0E0F  3DCF               	addwfc	(_pulsos+1)^(0+128),f
 12186                           
 12187                           ;main.c: 127:     }
 12188  0E10  2E3D               	goto	i1l809
 12189  0E11                     i1l3143:
 12190  0E11  0350               	decf	_motor^(0+128),w
 12191  0E12  0451               	iorwf	(_motor+1)^(0+128),w
 12192  0E13  1D03               	btfss	3,2
 12193  0E14  2E16               	goto	u202_21
 12194  0E15  2E17               	goto	u202_20
 12195  0E16                     u202_21:
 12196  0E16  2E2A               	goto	i1l3149
 12197  0E17                     u202_20:
 12198  0E17                     i1l3145:
 12199  0E17  084F               	movf	(_pulsos+1)^(0+128),w
 12200  0E18  3A80               	xorlw	128
 12201  0E19  00F6               	movwf	??_Enc
 12202  0E1A  3080               	movlw	128
 12203  0E1B  0276               	subwf	??_Enc,w
 12204  0E1C  1D03               	skipz
 12205  0E1D  2E20               	goto	u203_25
 12206  0E1E  30D8               	movlw	216
 12207  0E1F  024E               	subwf	_pulsos^(0+128),w
 12208  0E20                     u203_25:
 12209  0E20  1803               	skipnc
 12210  0E21  2E23               	goto	u203_21
 12211  0E22  2E24               	goto	u203_20
 12212  0E23                     u203_21:
 12213  0E23  2E2A               	goto	i1l3149
 12214  0E24                     u203_20:
 12215  0E24                     i1l3147:
 12216                           
 12217                           ;main.c: 129:         pulsos++;
 12218  0E24  3001               	movlw	1
 12219  0E25  0021               	movlb	1	; select bank1
 12220  0E26  07CE               	addwf	_pulsos^(0+128),f
 12221  0E27  3000               	movlw	0
 12222  0E28  3DCF               	addwfc	(_pulsos+1)^(0+128),f
 12223                           
 12224                           ;main.c: 130:     }
 12225  0E29  2E3D               	goto	i1l809
 12226  0E2A                     i1l3149:
 12227                           
 12228                           ;main.c: 132:         pulsos = 0;
 12229  0E2A  0021               	movlb	1	; select bank1
 12230  0E2B  01CE               	clrf	_pulsos^(0+128)
 12231  0E2C  01CF               	clrf	(_pulsos+1)^(0+128)
 12232  0E2D                     i1l3151:
 12233                           
 12234                           ;main.c: 133:         position = 0;
 12235  0E2D  3000               	movlw	0
 12236  0E2E  00CB               	movwf	(_position+3)^(0+128)
 12237  0E2F  3000               	movlw	0
 12238  0E30  00CA               	movwf	(_position+2)^(0+128)
 12239  0E31  3000               	movlw	0
 12240  0E32  00C9               	movwf	(_position+1)^(0+128)
 12241  0E33  3000               	movlw	0
 12242  0E34  00C8               	movwf	_position^(0+128)
 12243  0E35                     i1l3153:
 12244                           
 12245                           ;main.c: 134:         speed = 0;
 12246  0E35  01D2               	clrf	_speed^(0+128)
 12247  0E36  01D3               	clrf	(_speed+1)^(0+128)
 12248  0E37                     i1l3155:
 12249                           
 12250                           ;main.c: 135:         PWM3_LoadDutyValue(0);
 12251  0E37  3000               	movlw	0
 12252  0E38  00F0               	movwf	i1PWM3_LoadDutyValue@dutyValue
 12253  0E39  00F1               	movwf	i1PWM3_LoadDutyValue@dutyValue+1
 12254  0E3A  318B  2356  318D   	fcall	i1_PWM3_LoadDutyValue
 12255  0E3D                     i1l809:
 12256  0E3D  0008               	return
 12257  0E3E                     __end_of_Enc:
 12258                           
 12259                           	psect	text76
 12260  0B56                     __ptext76:	
 12261 ;; *************** function i1_PWM3_LoadDutyValue *****************
 12262 ;; Defined at:
 12263 ;;		line 82 in file "mcc_generated_files/pwm3.c"
 12264 ;; Parameters:    Size  Location     Type
 12265 ;;  dutyValue       2    0[COMMON] unsigned short 
 12266 ;; Auto vars:     Size  Location     Type
 12267 ;;		None
 12268 ;; Return value:  Size  Location     Type
 12269 ;;                  1    wreg      void 
 12270 ;; Registers used:
 12271 ;;		wreg, status,2, status,0
 12272 ;; Tracked objects:
 12273 ;;		On entry : 0/0
 12274 ;;		On exit  : 0/0
 12275 ;;		Unchanged: 0/0
 12276 ;; Data sizes:     COMMON   BANK0   BANK1   BANK2   BANK3   BANK4
 12277 ;;      Params:         2       0       0       0       0       0
 12278 ;;      Locals:         0       0       0       0       0       0
 12279 ;;      Temps:          2       0       0       0       0       0
 12280 ;;      Totals:         4       0       0       0       0       0
 12281 ;;Total ram usage:        4 bytes
 12282 ;; Hardware stack levels used: 1
 12283 ;; This function calls:
 12284 ;;		Nothing
 12285 ;; This function is called by:
 12286 ;;		_Enc
 12287 ;;		_S1
 12288 ;;		_S4
 12289 ;;		i1_deslocamento
 12290 ;; This function uses a non-reentrant model
 12291 ;;
 12292                           
 12293                           
 12294                           ;psect for function i1_PWM3_LoadDutyValue
 12295  0B56                     i1_PWM3_LoadDutyValue:
 12296  0B56                     i1l2799:	
 12297                           ;incstack = 0
 12298                           ; Regs used in i1_PWM3_LoadDutyValue: [wreg+status,2+status,0]
 12299                           
 12300                           
 12301                           ;mcc_generated_files/pwm3.c: 82: void PWM3_LoadDutyValue(uint16_t dutyValue);mcc_generat
      +                          ed_files/pwm3.c: 83: {;mcc_generated_files/pwm3.c: 85:     CCPR3L = ((dutyValue & 0x03FC
      +                          )>>2);
 12302  0B56  0871               	movf	i1PWM3_LoadDutyValue@dutyValue+1,w
 12303  0B57  00F3               	movwf	??i1_PWM3_LoadDutyValue+1
 12304  0B58  0870               	movf	i1PWM3_LoadDutyValue@dutyValue,w
 12305  0B59  00F2               	movwf	??i1_PWM3_LoadDutyValue
 12306  0B5A  36F3               	lsrf	??i1_PWM3_LoadDutyValue+1,f
 12307  0B5B  0CF2               	rrf	??i1_PWM3_LoadDutyValue,f
 12308  0B5C  36F3               	lsrf	??i1_PWM3_LoadDutyValue+1,f
 12309  0B5D  0CF2               	rrf	??i1_PWM3_LoadDutyValue,f
 12310  0B5E  0872               	movf	??i1_PWM3_LoadDutyValue,w
 12311  0B5F  0026               	movlb	6	; select bank6
 12312  0B60  0091               	movwf	17	;volatile
 12313                           
 12314                           ;mcc_generated_files/pwm3.c: 88:     CCP3CON = ((uint8_t)(CCP3CON & 0xCF) | ((dutyValue 
      +                          & 0x0003)<<4));
 12315  0B61  0870               	movf	i1PWM3_LoadDutyValue@dutyValue,w
 12316  0B62  3903               	andlw	3
 12317  0B63  00F2               	movwf	??i1_PWM3_LoadDutyValue
 12318  0B64  3004               	movlw	4
 12319  0B65                     u174_25:
 12320  0B65  35F2               	lslf	??i1_PWM3_LoadDutyValue,f
 12321  0B66  0B89               	decfsz	9,f
 12322  0B67  2B65               	goto	u174_25
 12323  0B68  0813               	movf	19,w	;volatile
 12324  0B69  39CF               	andlw	207
 12325  0B6A  0472               	iorwf	??i1_PWM3_LoadDutyValue,w
 12326  0B6B  0093               	movwf	19	;volatile
 12327  0B6C                     i1l482:
 12328  0B6C  0008               	return
 12329  0B6D                     __end_ofi1_PWM3_LoadDutyValue:
 12330                           
 12331                           	psect	text77
 12332  0AE5                     __ptext77:	
 12333 ;; *************** function _TMR1_WriteTimer *****************
 12334 ;; Defined at:
 12335 ;;		line 120 in file "mcc_generated_files/tmr1.c"
 12336 ;; Parameters:    Size  Location     Type
 12337 ;;  timerVal        2    0[COMMON] unsigned short 
 12338 ;; Auto vars:     Size  Location     Type
 12339 ;;		None
 12340 ;; Return value:  Size  Location     Type
 12341 ;;                  1    wreg      void 
 12342 ;; Registers used:
 12343 ;;		wreg, status,2
 12344 ;; Tracked objects:
 12345 ;;		On entry : 0/0
 12346 ;;		On exit  : 0/0
 12347 ;;		Unchanged: 0/0
 12348 ;; Data sizes:     COMMON   BANK0   BANK1   BANK2   BANK3   BANK4
 12349 ;;      Params:         2       0       0       0       0       0
 12350 ;;      Locals:         0       0       0       0       0       0
 12351 ;;      Temps:          0       0       0       0       0       0
 12352 ;;      Totals:         2       0       0       0       0       0
 12353 ;;Total ram usage:        2 bytes
 12354 ;; Hardware stack levels used: 1
 12355 ;; This function calls:
 12356 ;;		Nothing
 12357 ;; This function is called by:
 12358 ;;		_TMR1_ISR
 12359 ;;		_Enc
 12360 ;;		_TMR1_Reload
 12361 ;; This function uses a non-reentrant model
 12362 ;;
 12363                           
 12364                           
 12365                           ;psect for function _TMR1_WriteTimer
 12366  0AE5                     _TMR1_WriteTimer:
 12367  0AE5                     i1l2863:	
 12368                           ;incstack = 0
 12369                           ; Regs used in _TMR1_WriteTimer: [wreg+status,2]
 12370                           
 12371                           
 12372                           ;mcc_generated_files/tmr1.c: 120: void TMR1_WriteTimer(uint16_t timerVal);mcc_generated_
      +                          files/tmr1.c: 121: {;mcc_generated_files/tmr1.c: 122:     if (T1CONbits.nT1SYNC == 1)
 12373  0AE5  0020               	movlb	0	; select bank0
 12374  0AE6  1D18               	btfss	24,2	;volatile
 12375  0AE7  2AE9               	goto	u183_21
 12376  0AE8  2AEA               	goto	u183_20
 12377  0AE9                     u183_21:
 12378  0AE9  2AF1               	goto	i1l2873
 12379  0AEA                     u183_20:
 12380  0AEA                     i1l2865:
 12381                           
 12382                           ;mcc_generated_files/tmr1.c: 123:     {;mcc_generated_files/tmr1.c: 125:         T1CONbi
      +                          ts.TMR1ON = 0;
 12383  0AEA  1018               	bcf	24,0	;volatile
 12384  0AEB                     i1l2867:
 12385                           
 12386                           ;mcc_generated_files/tmr1.c: 128:         TMR1H = (uint8_t)(timerVal >> 8);
 12387  0AEB  0871               	movf	TMR1_WriteTimer@timerVal+1,w
 12388  0AEC  0097               	movwf	23	;volatile
 12389  0AED                     i1l2869:
 12390                           
 12391                           ;mcc_generated_files/tmr1.c: 129:         TMR1L = (uint8_t)timerVal;
 12392  0AED  0870               	movf	TMR1_WriteTimer@timerVal,w
 12393  0AEE  0096               	movwf	22	;volatile
 12394  0AEF                     i1l2871:
 12395                           
 12396                           ;mcc_generated_files/tmr1.c: 132:         T1CONbits.TMR1ON =1;
 12397  0AEF  1418               	bsf	24,0	;volatile
 12398                           
 12399                           ;mcc_generated_files/tmr1.c: 133:     }
 12400  0AF0  2AF5               	goto	i1l417
 12401  0AF1                     i1l2873:
 12402                           
 12403                           ;mcc_generated_files/tmr1.c: 135:     {;mcc_generated_files/tmr1.c: 137:         TMR1H =
      +                           (uint8_t)(timerVal >> 8);
 12404  0AF1  0871               	movf	TMR1_WriteTimer@timerVal+1,w
 12405  0AF2  0097               	movwf	23	;volatile
 12406  0AF3                     i1l2875:
 12407                           
 12408                           ;mcc_generated_files/tmr1.c: 138:         TMR1L = (uint8_t)timerVal;
 12409  0AF3  0870               	movf	TMR1_WriteTimer@timerVal,w
 12410  0AF4  0096               	movwf	22	;volatile
 12411  0AF5                     i1l417:
 12412  0AF5  0008               	return
 12413  0AF6                     __end_of_TMR1_WriteTimer:
 12414  007E                     btemp	set	126	;btemp
 12415  007E                     int$flags	set	126
 12416  007E                     wtemp0	set	126
 12417                           
 12418                           	psect	idloc
 12419                           
 12420                           ;Config register IDLOC0 @ 0x8000
 12421                           ;	unspecified, using default values
 12422  8000                     	org	32768
 12423  8000  3FFF               	dw	16383
 12424                           
 12425                           ;Config register IDLOC1 @ 0x8001
 12426                           ;	unspecified, using default values
 12427  8001                     	org	32769
 12428  8001  3FFF               	dw	16383
 12429                           
 12430                           ;Config register IDLOC2 @ 0x8002
 12431                           ;	unspecified, using default values
 12432  8002                     	org	32770
 12433  8002  3FFF               	dw	16383
 12434                           
 12435                           ;Config register IDLOC3 @ 0x8003
 12436                           ;	unspecified, using default values
 12437  8003                     	org	32771
 12438  8003  3FFF               	dw	16383
 12439                           
 12440                           	psect	config
 12441                           
 12442                           ;Config register CONFIG1 @ 0x8007
 12443                           ;	Oscillator Selection
 12444                           ;	FOSC = INTOSC, INTOSC oscillator: I/O function on CLKIN pin
 12445                           ;	Watchdog Timer Enable
 12446                           ;	WDTE = OFF, WDT disabled
 12447                           ;	Power-up Timer Enable
 12448                           ;	PWRTE = OFF, PWRT disabled
 12449                           ;	MCLR Pin Function Select
 12450                           ;	MCLRE = ON, MCLR/VPP pin function is MCLR
 12451                           ;	Flash Program Memory Code Protection
 12452                           ;	CP = OFF, Program memory code protection is disabled
 12453                           ;	Data Memory Code Protection
 12454                           ;	CPD = OFF, Data memory code protection is disabled
 12455                           ;	Brown-out Reset Enable
 12456                           ;	BOREN = ON, Brown-out Reset enabled
 12457                           ;	Clock Out Enable
 12458                           ;	CLKOUTEN = OFF, CLKOUT function is disabled. I/O or oscillator function on the CLKOUT 
      +                          pin
 12459                           ;	Internal/External Switchover
 12460                           ;	IESO = ON, Internal/External Switchover mode is enabled
 12461                           ;	Fail-Safe Clock Monitor Enable
 12462                           ;	FCMEN = ON, Fail-Safe Clock Monitor is enabled
 12463  8007                     	org	32775
 12464  8007  3FE4               	dw	16356
 12465                           
 12466                           ;Config register CONFIG2 @ 0x8008
 12467                           ;	Flash Memory Self-Write Protection
 12468                           ;	WRT = OFF, Write protection off
 12469                           ;	PLL Enable
 12470                           ;	PLLEN = OFF, 4x PLL disabled
 12471                           ;	Stack Overflow/Underflow Reset Enable
 12472                           ;	STVREN = ON, Stack Overflow or Underflow will cause a Reset
 12473                           ;	Brown-out Reset Voltage Selection
 12474                           ;	BORV = LO, Brown-out Reset Voltage (Vbor), low trip point selected.
 12475                           ;	Low-Voltage Programming Enable
 12476                           ;	LVP = ON, Low-voltage programming enabled
 12477  8008                     	org	32776
 12478  8008  3EFF               	dw	16127

Data Sizes:
    Strings     0
    Constant    4
    Data        2
    BSS         88
    Persistent  55
    Stack       0

Auto Spaces:
    Space          Size  Autos    Used
    COMMON           14     14      14
    BANK0            80     76      78
    BANK1            80      7      78
    BANK2            80      4      44
    BANK3            80      0       0
    BANK4            48      0       0

Pointer List with Targets:

    ADC_InterruptHandler	PTR FTN()void  size(2) Largest target is 1
		 -> Absolute function(), 

    CCP4_SetCallBack@customCallBack	PTR FTN(unsigned short ,)void  size(2) Largest target is 1
		 -> Enc(), CCP4_DefaultCallBack(), 

    CCP4_CallBack	PTR FTN(unsigned short ,)void  size(2) Largest target is 1
		 -> Enc(), CCP4_DefaultCallBack(), Absolute function(), 

    TMR4_SetInterruptHandler@InterruptHandler	PTR FTN()void  size(2) Largest target is 1
		 -> comm(), TMR4_DefaultInterruptHandler(), 

    TMR4_InterruptHandler	PTR FTN()void  size(2) Largest target is 1
		 -> comm(), TMR4_DefaultInterruptHandler(), Absolute function(), 

    TMR1_SetInterruptHandler@InterruptHandler	PTR FTN()void  size(2) Largest target is 1
		 -> TMR1_DefaultInterruptHandler(), 

    TMR1_InterruptHandler	PTR FTN()void  size(2) Largest target is 1
		 -> TMR1_DefaultInterruptHandler(), Absolute function(), 

    EUSART_SetRxInterruptHandler@interruptHandler	PTR FTN()void  size(2) Largest target is 1
		 -> EUSART_Receive_ISR(), 

    EUSART_RxDefaultInterruptHandler	PTR FTN()void  size(2) Largest target is 1
		 -> EUSART_Receive_ISR(), Absolute function(), 

    EUSART_SetTxInterruptHandler@interruptHandler	PTR FTN()void  size(2) Largest target is 1
		 -> EUSART_Transmit_ISR(), 

    EUSART_TxDefaultInterruptHandler	PTR FTN()void  size(2) Largest target is 1
		 -> EUSART_Transmit_ISR(), Absolute function(), 

    EUSART_SetErrorHandler@interruptHandler	PTR FTN()void  size(2) Largest target is 1
		 -> EUSART_DefaultErrorHandler(), 

    EUSART_SetOverrunErrorHandler@interruptHandler	PTR FTN()void  size(2) Largest target is 1
		 -> EUSART_DefaultOverrunErrorHandler(), 

    EUSART_SetFramingErrorHandler@interruptHandler	PTR FTN()void  size(2) Largest target is 1
		 -> EUSART_DefaultFramingErrorHandler(), 

    EUSART_ErrorHandler	PTR FTN()void  size(2) Largest target is 1
		 -> EUSART_DefaultErrorHandler(), Absolute function(), 

    EUSART_OverrunErrorHandler	PTR FTN()void  size(2) Largest target is 1
		 -> EUSART_DefaultOverrunErrorHandler(), Absolute function(), 

    EUSART_FramingErrorHandler	PTR FTN()void  size(2) Largest target is 1
		 -> EUSART_DefaultFramingErrorHandler(), Absolute function(), 

    IOCBF3_SetInterruptHandler@InterruptHandler	PTR FTN()void  size(2) Largest target is 1
		 -> S2(), IOCBF3_DefaultInterruptHandler(), 

    IOCBF3_InterruptHandler	PTR FTN()void  size(2) Largest target is 1
		 -> S2(), Absolute function(), IOCBF3_DefaultInterruptHandler(), 

    IOCBF0_SetInterruptHandler@InterruptHandler	PTR FTN()void  size(2) Largest target is 1
		 -> S1(), IOCBF0_DefaultInterruptHandler(), 

    IOCBF0_InterruptHandler	PTR FTN()void  size(2) Largest target is 1
		 -> S1(), Absolute function(), IOCBF0_DefaultInterruptHandler(), 


Critical Paths under _main in COMMON

    None.

Critical Paths under _INTERRUPT_InterruptManager in COMMON

    _TMR4_ISR->_comm
    _comm->i1___fltol
    _leds->i1_txMAX7219
    i1_txMAX7219->i1_SPI1_WriteByte
    _TMR1_ISR->_TMR1_WriteTimer
    _S2->i1_deslocamento
    _S1->i1_PWM3_LoadDutyValue
    _EUSART_Receive_ISR->_EUSART_RxDataHandler
    _EUSART_DefaultErrorHandler->_EUSART_RxDataHandler
    _S4->i1_PWM3_LoadDutyValue
    _S3->i1_deslocamento
    i1_deslocamento->i1_PWM3_LoadDutyValue
    _CCP4_CaptureISR->_Enc
    _Enc->i1_PWM3_LoadDutyValue

Critical Paths under _main in BANK0

    _main->___fltol
    _initMAX7219->_txMAX7219
    _txMAX7219->_SPI1_WriteByte
    _controle->_deslocamento
    _deslocamento->_PWM3_LoadDutyValue
    _andar->_DATAEE_ReadByte
    ___xxtofl->_ADC_GetConversion
    ___fltol->___fldiv
    ___flmul->___xxtofl
    ___fldiv->___flmul
    _SYSTEM_Initialize->_EUSART_Initialize
    _TMR4_Initialize->_TMR4_SetInterruptHandler
    _TMR1_Initialize->_TMR1_SetInterruptHandler
    _PIN_MANAGER_Initialize->_IOCBF0_SetInterruptHandler
    _PIN_MANAGER_Initialize->_IOCBF3_SetInterruptHandler
    _EUSART_Initialize->_EUSART_SetErrorHandler
    _EUSART_Initialize->_EUSART_SetFramingErrorHandler
    _EUSART_Initialize->_EUSART_SetOverrunErrorHandler
    _EUSART_Initialize->_EUSART_SetRxInterruptHandler
    _EUSART_Initialize->_EUSART_SetTxInterruptHandler
    _CCP4_Initialize->_CCP4_SetCallBack

Critical Paths under _INTERRUPT_InterruptManager in BANK0

    _TMR4_ISR->_comm

Critical Paths under _main in BANK1

    _main->___fltol

Critical Paths under _INTERRUPT_InterruptManager in BANK1

    None.

Critical Paths under _main in BANK2

    None.

Critical Paths under _INTERRUPT_InterruptManager in BANK2

    None.

Critical Paths under _main in BANK3

    None.

Critical Paths under _INTERRUPT_InterruptManager in BANK3

    None.

Critical Paths under _main in BANK4

    None.

Critical Paths under _INTERRUPT_InterruptManager in BANK4

    None.

Call Graph Tables:

 ---------------------------------------------------------------------------------
 (Depth) Function   	        Calls       Base Space   Used Autos Params    Refs
 ---------------------------------------------------------------------------------
 (0) _main                                                 4     4      0   10468
                                              0 BANK2      4     4      0
                  _ADC_GetConversion
                   _CCP4_SetCallBack
                        _EUSART_Read
                 _EUSART_is_rx_ready
         _IOCBF0_SetInterruptHandler
         _IOCBF3_SetInterruptHandler
                          _SPI1_Open
                  _SYSTEM_Initialize
           _TMR4_SetInterruptHandler
                            ___fldiv
                            ___flmul
                            ___fltol
                           ___xxtofl
                              _andar
                           _controle
                        _initMAX7219
 ---------------------------------------------------------------------------------
 (1) _initMAX7219                                          3     3      0    2040
                                              7 BANK0      3     3      0
                          _txMAX7219
 ---------------------------------------------------------------------------------
 (2) _txMAX7219                                            4     1      3    2040
                                              3 BANK0      4     1      3
                     _SPI1_WriteByte
 ---------------------------------------------------------------------------------
 (3) _SPI1_WriteByte                                       1     1      0      22
                                              2 BANK0      1     1      0
 ---------------------------------------------------------------------------------
 (1) _controle                                             2     2      0     996
                                              8 BANK0      2     2      0
                 _PWM3_LoadDutyValue
                       _deslocamento
 ---------------------------------------------------------------------------------
 (2) _deslocamento                                         2     2      0     498
                                              6 BANK0      2     2      0
                 _PWM3_LoadDutyValue
 ---------------------------------------------------------------------------------
 (3) _PWM3_LoadDutyValue                                   4     2      2     498
                                              2 BANK0      4     2      2
 ---------------------------------------------------------------------------------
 (1) _andar                                                6     6      0     202
                                              3 BANK0      6     6      0
                    _DATAEE_ReadByte
 ---------------------------------------------------------------------------------
 (2) _DATAEE_ReadByte                                      1     1      0      22
                                              2 BANK0      1     1      0
 ---------------------------------------------------------------------------------
 (1) ___xxtofl                                            14    10      4     550
                                              6 BANK0     14    10      4
                  _ADC_GetConversion (ARG)
 ---------------------------------------------------------------------------------
 (1) ___fltol                                             11     7      4     572
                                             72 BANK0      4     0      4
                                              0 BANK1      7     7      0
                  _ADC_GetConversion (ARG)
                            ___fldiv (ARG)
                            ___flmul (ARG)
                           ___xxtofl (ARG)
 ---------------------------------------------------------------------------------
 (1) ___flmul                                             26    18      8    2569
                                             20 BANK0     26    18      8
                          __Umul8_16
                           ___xxtofl (ARG)
 ---------------------------------------------------------------------------------
 (2) __Umul8_16                                            9     7      2     799
                                              2 BANK0      9     7      2
 ---------------------------------------------------------------------------------
 (1) ___fldiv                                             26    18      8    1425
                                             46 BANK0     26    18      8
                  _ADC_GetConversion (ARG)
                            ___flmul (ARG)
                           ___xxtofl (ARG)
 ---------------------------------------------------------------------------------
 (1) _SYSTEM_Initialize                                    0     0      0    1284
                     _ADC_Initialize
                    _CCP4_Initialize
                    _CMP1_Initialize
                    _CMP2_Initialize
                     _DAC_Initialize
                  _EUSART_Initialize
                     _FVR_Initialize
              _OSCILLATOR_Initialize
             _PIN_MANAGER_Initialize
                    _PWM3_Initialize
                    _SPI1_Initialize
                    _TMR1_Initialize
                    _TMR2_Initialize
                    _TMR4_Initialize
                     _WDT_Initialize
 ---------------------------------------------------------------------------------
 (2) _WDT_Initialize                                       0     0      0       0
 ---------------------------------------------------------------------------------
 (2) _TMR4_Initialize                                      0     0      0     174
           _TMR4_SetInterruptHandler
 ---------------------------------------------------------------------------------
 (1) _TMR4_SetInterruptHandler                             2     0      2     174
                                              2 BANK0      2     0      2
 ---------------------------------------------------------------------------------
 (2) _TMR2_Initialize                                      0     0      0       0
 ---------------------------------------------------------------------------------
 (2) _TMR1_Initialize                                      0     0      0      98
           _TMR1_SetInterruptHandler
 ---------------------------------------------------------------------------------
 (3) _TMR1_SetInterruptHandler                             2     0      2      98
                                              2 BANK0      2     0      2
 ---------------------------------------------------------------------------------
 (2) _SPI1_Initialize                                      0     0      0       0
 ---------------------------------------------------------------------------------
 (2) _PWM3_Initialize                                      0     0      0       0
 ---------------------------------------------------------------------------------
 (2) _PIN_MANAGER_Initialize                               0     0      0     348
         _IOCBF0_SetInterruptHandler
         _IOCBF3_SetInterruptHandler
 ---------------------------------------------------------------------------------
 (3) _IOCBF3_SetInterruptHandler                           2     0      2     174
                                              2 BANK0      2     0      2
 ---------------------------------------------------------------------------------
 (3) _IOCBF0_SetInterruptHandler                           2     0      2     174
                                              2 BANK0      2     0      2
 ---------------------------------------------------------------------------------
 (2) _OSCILLATOR_Initialize                                0     0      0       0
 ---------------------------------------------------------------------------------
 (2) _FVR_Initialize                                       0     0      0       0
 ---------------------------------------------------------------------------------
 (2) _EUSART_Initialize                                    1     1      0     490
                                              4 BANK0      1     1      0
             _EUSART_SetErrorHandler
      _EUSART_SetFramingErrorHandler
      _EUSART_SetOverrunErrorHandler
       _EUSART_SetRxInterruptHandler
       _EUSART_SetTxInterruptHandler
 ---------------------------------------------------------------------------------
 (3) _EUSART_SetTxInterruptHandler                         2     0      2      98
                                              2 BANK0      2     0      2
 ---------------------------------------------------------------------------------
 (3) _EUSART_SetRxInterruptHandler                         2     0      2      98
                                              2 BANK0      2     0      2
 ---------------------------------------------------------------------------------
 (3) _EUSART_SetOverrunErrorHandler                        2     0      2      98
                                              2 BANK0      2     0      2
 ---------------------------------------------------------------------------------
 (3) _EUSART_SetFramingErrorHandler                        2     0      2      98
                                              2 BANK0      2     0      2
 ---------------------------------------------------------------------------------
 (3) _EUSART_SetErrorHandler                               2     0      2      98
                                              2 BANK0      2     0      2
 ---------------------------------------------------------------------------------
 (2) _DAC_Initialize                                       0     0      0       0
 ---------------------------------------------------------------------------------
 (2) _CMP2_Initialize                                      0     0      0       0
 ---------------------------------------------------------------------------------
 (2) _CMP1_Initialize                                      0     0      0       0
 ---------------------------------------------------------------------------------
 (2) _CCP4_Initialize                                      0     0      0     174
                   _CCP4_SetCallBack
 ---------------------------------------------------------------------------------
 (3) _CCP4_SetCallBack                                     2     0      2     174
                                              2 BANK0      2     0      2
 ---------------------------------------------------------------------------------
 (2) _ADC_Initialize                                       0     0      0       0
 ---------------------------------------------------------------------------------
 (1) _SPI1_Open                                            4     4      0      88
                                              2 BANK0      4     4      0
 ---------------------------------------------------------------------------------
 (1) _EUSART_is_rx_ready                                   0     0      0       0
 ---------------------------------------------------------------------------------
 (1) _EUSART_Read                                          2     2      0      24
                                              2 BANK0      2     2      0
 ---------------------------------------------------------------------------------
 (1) _ADC_GetConversion                                    4     2      2      22
                                              2 BANK0      4     2      2
 ---------------------------------------------------------------------------------
 Estimated maximum stack depth 3
 ---------------------------------------------------------------------------------
 (Depth) Function   	        Calls       Base Space   Used Autos Params    Refs
 ---------------------------------------------------------------------------------
 (4) _INTERRUPT_InterruptManager                           0     0      0    2247
                   Absolute function *
                    _CCP4_CaptureISR
                           _CMP1_ISR
                           _CMP2_ISR
                 _EUSART_Receive_ISR *
                _EUSART_Transmit_ISR *
                    _PIN_MANAGER_IOC
                           _TMR1_ISR
                           _TMR4_ISR
 ---------------------------------------------------------------------------------
 (5) _TMR4_ISR                                             0     0      0     645
                   Absolute function *
       _TMR4_DefaultInterruptHandler *
                               _comm *
 ---------------------------------------------------------------------------------
 (6) _comm                                                 5     5      0     645
                                             11 COMMON     3     3      0
                                              0 BANK0      2     2      0
                       _EUSART_Write
                               _leds
                          i1___fltol
 ---------------------------------------------------------------------------------
 (7) i1___fltol                                           11     7      4     255
                                              0 COMMON    11     7      4
 ---------------------------------------------------------------------------------
 (7) _leds                                                 5     5      0     278
                                              5 COMMON     5     5      0
                        i1_txMAX7219
 ---------------------------------------------------------------------------------
 (8) i1_txMAX7219                                          4     1      3     144
                                              1 COMMON     4     1      3
                   i1_SPI1_WriteByte
 ---------------------------------------------------------------------------------
 (9) i1_SPI1_WriteByte                                     1     1      0      22
                                              0 COMMON     1     1      0
 ---------------------------------------------------------------------------------
 (7) _EUSART_Write                                         2     2      0      44
                                              0 COMMON     2     2      0
 ---------------------------------------------------------------------------------
 (6) _TMR4_DefaultInterruptHandler                         0     0      0       0
 ---------------------------------------------------------------------------------
 (5) _TMR1_ISR                                             0     0      0     316
                   Absolute function *
       _TMR1_DefaultInterruptHandler *
                    _TMR1_WriteTimer
 ---------------------------------------------------------------------------------
 (6) _TMR1_DefaultInterruptHandler                         0     0      0       0
 ---------------------------------------------------------------------------------
 (5) _PIN_MANAGER_IOC                                      0     0      0     348
                         _IOCBF0_ISR
                         _IOCBF3_ISR
 ---------------------------------------------------------------------------------
 (6) _IOCBF3_ISR                                           0     0      0     174
                   Absolute function *
     _IOCBF3_DefaultInterruptHandler *
                                 _S2 *
 ---------------------------------------------------------------------------------
 (7) _S2                                                   0     0      0     174
                     i1_deslocamento
 ---------------------------------------------------------------------------------
 (7) _IOCBF3_DefaultInterruptHandler                       0     0      0       0
 ---------------------------------------------------------------------------------
 (6) _IOCBF0_ISR                                           0     0      0     174
                   Absolute function *
     _IOCBF0_DefaultInterruptHandler *
                                 _S1 *
 ---------------------------------------------------------------------------------
 (7) _S1                                                   0     0      0     174
               i1_PWM3_LoadDutyValue
 ---------------------------------------------------------------------------------
 (7) _IOCBF0_DefaultInterruptHandler                       0     0      0       0
 ---------------------------------------------------------------------------------
 (5) _EUSART_Transmit_ISR                                  1     1      0       0
                                              0 COMMON     1     1      0
 ---------------------------------------------------------------------------------
 (5) _EUSART_Receive_ISR                                   0     0      0       0
                   Absolute function *
         _EUSART_DefaultErrorHandler *
  _EUSART_DefaultFramingErrorHandler *
  _EUSART_DefaultOverrunErrorHandler *
               _EUSART_RxDataHandler
 ---------------------------------------------------------------------------------
 (6) _EUSART_DefaultOverrunErrorHandler                    0     0      0       0
 ---------------------------------------------------------------------------------
 (6) _EUSART_DefaultFramingErrorHandler                    0     0      0       0
 ---------------------------------------------------------------------------------
 (6) _EUSART_DefaultErrorHandler                           0     0      0       0
               _EUSART_RxDataHandler
 ---------------------------------------------------------------------------------
 (6) _EUSART_RxDataHandler                                 1     1      0       0
                                              0 COMMON     1     1      0
 ---------------------------------------------------------------------------------
 (5) _CMP2_ISR                                             0     0      0     174
                                 _S4
 ---------------------------------------------------------------------------------
 (6) _S4                                                   0     0      0     174
               i1_PWM3_LoadDutyValue
 ---------------------------------------------------------------------------------
 (5) _CMP1_ISR                                             0     0      0     174
                                 _S3
 ---------------------------------------------------------------------------------
 (6) _S3                                                   0     0      0     174
                     i1_deslocamento
 ---------------------------------------------------------------------------------
 (8) i1_deslocamento                                       2     2      0     174
                                              4 COMMON     2     2      0
               i1_PWM3_LoadDutyValue
 ---------------------------------------------------------------------------------
 (5) _CCP4_CaptureISR                                      3     3      0     590
                                              7 COMMON     3     3      0
                   Absolute function *
               _CCP4_DefaultCallBack *
                                _Enc *
 ---------------------------------------------------------------------------------
 (6) _Enc                                                  3     1      2     543
                                              4 COMMON     3     1      2
                    _TMR1_WriteTimer
               i1_PWM3_LoadDutyValue
 ---------------------------------------------------------------------------------
 (9) i1_PWM3_LoadDutyValue                                 4     2      2     174
                                              0 COMMON     4     2      2
 ---------------------------------------------------------------------------------
 (6) _TMR1_WriteTimer                                      2     0      2     316
                                              0 COMMON     2     0      2
 ---------------------------------------------------------------------------------
 (6) _CCP4_DefaultCallBack                                 2     0      2       0
                                              4 COMMON     2     0      2
 ---------------------------------------------------------------------------------
 (6) Absolute function(Fake)                               0     0      0       0
 ---------------------------------------------------------------------------------
 Estimated maximum stack depth 9
 ---------------------------------------------------------------------------------

 Call Graph Graphs:

 _main (ROOT)
   _ADC_GetConversion
   _CCP4_SetCallBack
   _EUSART_Read
   _EUSART_is_rx_ready
   _IOCBF0_SetInterruptHandler
   _IOCBF3_SetInterruptHandler
   _SPI1_Open
   _SYSTEM_Initialize
     _ADC_Initialize
     _CCP4_Initialize
       _CCP4_SetCallBack
     _CMP1_Initialize
     _CMP2_Initialize
     _DAC_Initialize
     _EUSART_Initialize
       _EUSART_SetErrorHandler
       _EUSART_SetFramingErrorHandler
       _EUSART_SetOverrunErrorHandler
       _EUSART_SetRxInterruptHandler
       _EUSART_SetTxInterruptHandler
     _FVR_Initialize
     _OSCILLATOR_Initialize
     _PIN_MANAGER_Initialize
       _IOCBF0_SetInterruptHandler
       _IOCBF3_SetInterruptHandler
     _PWM3_Initialize
     _SPI1_Initialize
     _TMR1_Initialize
       _TMR1_SetInterruptHandler
     _TMR2_Initialize
     _TMR4_Initialize
       _TMR4_SetInterruptHandler
     _WDT_Initialize
   _TMR4_SetInterruptHandler
   ___fldiv
     _ADC_GetConversion (ARG)
     ___flmul (ARG)
       __Umul8_16
       ___xxtofl (ARG)
         _ADC_GetConversion (ARG)
     ___xxtofl (ARG)
   ___flmul
   ___fltol
     _ADC_GetConversion (ARG)
     ___fldiv (ARG)
     ___flmul (ARG)
     ___xxtofl (ARG)
   ___xxtofl
   _andar
     _DATAEE_ReadByte
   _controle
     _PWM3_LoadDutyValue
     _deslocamento
       _PWM3_LoadDutyValue
   _initMAX7219
     _txMAX7219
       _SPI1_WriteByte

 _INTERRUPT_InterruptManager (ROOT)
   Absolute function(Fake) *
   _CCP4_CaptureISR *
     Absolute function(Fake) *
     _CCP4_DefaultCallBack *
     _Enc *
       _TMR1_WriteTimer
       i1_PWM3_LoadDutyValue
   _CMP1_ISR *
     _S3
       i1_deslocamento
         i1_PWM3_LoadDutyValue
   _CMP2_ISR *
     _S4
       i1_PWM3_LoadDutyValue
   _EUSART_Receive_ISR *
     Absolute function(Fake) *
     _EUSART_DefaultErrorHandler *
       _EUSART_RxDataHandler
     _EUSART_DefaultFramingErrorHandler *
     _EUSART_DefaultOverrunErrorHandler *
     _EUSART_RxDataHandler *
   _EUSART_Transmit_ISR *
   _PIN_MANAGER_IOC *
     _IOCBF0_ISR
       Absolute function(Fake) *
       _IOCBF0_DefaultInterruptHandler *
       _S1 *
         i1_PWM3_LoadDutyValue
     _IOCBF3_ISR
       Absolute function(Fake) *
       _IOCBF3_DefaultInterruptHandler *
       _S2 *
         i1_deslocamento
   _TMR1_ISR *
     Absolute function(Fake) *
     _TMR1_DefaultInterruptHandler *
     _TMR1_WriteTimer *
   _TMR4_ISR *
     Absolute function(Fake) *
     _TMR4_DefaultInterruptHandler *
     _comm *
       _EUSART_Write
       _leds
         i1_txMAX7219
           i1_SPI1_WriteByte
       i1___fltol

 Address spaces:
Name               Size   Autos  Total    Cost      Usage
BIGRAM             170      0       0       0        0.0%
EEDATA             100      0       0       0        0.0%
NULL                 0      0       0       0        0.0%
CODE                 0      0       0       0        0.0%
BITCOMMON            E      0       0       1        0.0%
BITSFR0              0      0       0       1        0.0%
SFR0                 0      0       0       1        0.0%
COMMON               E      E       E       2      100.0%
BITSFR1              0      0       0       2        0.0%
SFR1                 0      0       0       2        0.0%
BITSFR2              0      0       0       3        0.0%
SFR2                 0      0       0       3        0.0%
STACK                0      0       0       3        0.0%
BITSFR3              0      0       0       4        0.0%
SFR3                 0      0       0       4        0.0%
ABS                  0      0      D6       4        0.0%
BITBANK0            50      0       0       5        0.0%
BITSFR4              0      0       0       5        0.0%
SFR4                 0      0       0       5        0.0%
BANK0               50     4C      4E       6       97.5%
BITSFR5              0      0       0       6        0.0%
SFR5                 0      0       0       6        0.0%
BITBANK1            50      0       0       7        0.0%
BITSFR6              0      0       0       7        0.0%
SFR6                 0      0       0       7        0.0%
BANK1               50      7      4E       8       97.5%
BITSFR7              0      0       0       8        0.0%
SFR7                 0      0       0       8        0.0%
BITBANK2            50      0       0       9        0.0%
BITSFR8              0      0       0       9        0.0%
SFR8                 0      0       0       9        0.0%
BANK2               50      4      2C      10       55.0%
BITSFR9              0      0       0      10        0.0%
SFR9                 0      0       0      10        0.0%
BITBANK3            50      0       0      11        0.0%
BITSFR10             0      0       0      11        0.0%
SFR10                0      0       0      11        0.0%
BANK3               50      0       0      12        0.0%
BITSFR11             0      0       0      12        0.0%
SFR11                0      0       0      12        0.0%
BITBANK4            30      0       0      13        0.0%
BITSFR12             0      0       0      13        0.0%
SFR12                0      0       0      13        0.0%
BANK4               30      0       0      14        0.0%
BITSFR13             0      0       0      14        0.0%
SFR13                0      0       0      14        0.0%
BITSFR14             0      0       0      15        0.0%
SFR14                0      0       0      15        0.0%
DATA                 0      0      D6      15        0.0%
BITSFR15             0      0       0      16        0.0%
SFR15                0      0       0      16        0.0%
BITSFR16             0      0       0      17        0.0%
SFR16                0      0       0      17        0.0%
BITSFR17             0      0       0      18        0.0%
SFR17                0      0       0      18        0.0%
BITSFR18             0      0       0      19        0.0%
SFR18                0      0       0      19        0.0%
BITSFR19             0      0       0      20        0.0%
SFR19                0      0       0      20        0.0%
BITSFR20             0      0       0      21        0.0%
SFR20                0      0       0      21        0.0%
BITSFR21             0      0       0      22        0.0%
SFR21                0      0       0      22        0.0%
BITSFR22             0      0       0      23        0.0%
SFR22                0      0       0      23        0.0%
BITSFR23             0      0       0      24        0.0%
SFR23                0      0       0      24        0.0%
BITSFR24             0      0       0      25        0.0%
SFR24                0      0       0      25        0.0%
BITSFR25             0      0       0      26        0.0%
SFR25                0      0       0      26        0.0%
BITSFR26             0      0       0      27        0.0%
SFR26                0      0       0      27        0.0%
BITSFR27             0      0       0      28        0.0%
SFR27                0      0       0      28        0.0%
BITSFR28             0      0       0      29        0.0%
SFR28                0      0       0      29        0.0%
BITSFR29             0      0       0      30        0.0%
SFR29                0      0       0      30        0.0%
BITSFR30             0      0       0      31        0.0%
SFR30                0      0       0      31        0.0%
BITSFR31             0      0       0      32        0.0%
SFR31                0      0       0      32        0.0%


Microchip Technology PIC Macro Assembler V2.32 build 20210201212658 
Symbol Table                                                                                   Wed Sep 21 16:23:12 2022

                              _CCP4_Initialize 0B07                  ?_EUSART_SetRxInterruptHandler 0022  
                           SPI1_WriteByte@byte 0022                                   ___fldiv@aexp 0067  
                                 ___fldiv@bexp 0066                                              _u 00BA  
             ??_IOCBF3_DefaultInterruptHandler 0070                ?_IOCBF3_DefaultInterruptHandler 0070  
                                 ___fldiv@sign 005F                                             l41 0CF2  
                                           l44 09F2                                             l47 09C8  
                            ??_CMP1_Initialize 0022                                             _S1 0AA9  
                                           _S2 0A0C                                             _S3 0A03  
                                           _S4 0B19                                             l96 0D86  
                       __end_of_FVR_Initialize 09C5                            __Umul8_16@word_mpld 0028  
                                          ?_S1 0070                                            ?_S2 0070  
                                          ?_S3 0070                                            ?_S4 0070  
                                          l108 0A5C                                            l118 0A65  
                                          l313 0A1D                                            l307 0E84  
                                          l403 0BB8                                            l171 0AA8  
                                          l229 09E5                                            l326 0CC4  
                                          l192 0A9B                                            l433 0A77  
                                          l514 0C1F                                            l370 0A2F  
                                          _BCD 00B8                                            l196 0F31  
                                          l364 0A38                                            l517 0C2A  
                                          l373 0A53                                            l367 0A41  
                                          l376 0A4A                                            l616 07FE  
                                          l449 0A02                                            l626 09C4  
                                          l482 0BF0                                            l802 0FFF  
                                          l655 0A26                                            l479 0A6E  
                                          l649 0B18                                            l594 0B3F  
                                          l499 09FA                                            l843 05BE  
                                          l668 0A83                                            l684 0A8F  
                                          l694 09DF                                            l870 0C0A  
                                          l862 0BF3                                            l783 0F8F  
                                          l872 0C0C                                            l864 0BFA  
                                          l866 0BFF                                            l867 0C04  
                                          l875 07F5                                            l789 0DBC  
                                          l869 0C09                                            _LED 0130  
                                          _PR2 001B                                            _PR4 0416  
                                          _Enc 0DFA                                _timer1ReloadVal 00DA  
                       ??_EUSART_RxDataHandler 0070                                            _iRx 00B4  
                                          _pwm 00B6                 ?_EUSART_SetFramingErrorHandler 0022  
                                 i1___fltol@f1 0070                                _TMR2_Initialize 09FB  
               CCP4_SetCallBack@customCallBack 0022                                            wreg 0009  
                             _CCP4_SetCallBack 0A1E                                   ___flmul@aexp 0046  
                                 ___flmul@bexp 0047                                   ?_initMAX7219 0070  
                                 ___flmul@sign 0041                                   ___flmul@temp 004C  
                                 ___flmul@prod 0048                        __end_of_CCP4_CaptureISR 0B56  
                                         ??_S1 0074                                           ??_S2 0076  
                                         ??_S3 0076                                           ??_S4 0074  
                                 ?_EUSART_Read 0070                                           ?_Enc 0074  
                                 ___fltol@exp1 00EB                                           l3001 0B3C  
                                         l1234 06F9                                           l3011 0A78  
                                         l3003 09FB                                           l1411 047A  
                                         l1227 070F                                           l1412 0494  
                                         l3021 0B0A                                           l3013 0A7A  
                                         l3005 09FE                                           l1237 070F  
                                         l1414 04A3                                           l1406 042E  
                                         l1430 02F8                                           l3031 09F3  
                                         l3023 0B0B                                           l3015 0A7F  
                                         l3007 09FF                                           l3111 0AA3  
                                         l3033 09F6                                           l3025 0B0C  
                                         l3017 0A81                                           l3041 0A6A  
                                         l3009 0A00                                           l3201 0C66  
                                         l3113 0AA4                                           l3105 0A9E  
                                         l1442 02EC                                           l3035 09F7  
                                         l3027 0B14                                           l3019 0B07  
                                         l3043 0A6B                                           l3051 0BA4  
                                         l1451 0C6F                                           l3203 0C6B  
                                         l3115 0AA5                                           l3107 0AA1  
                                         l3131 0DAA                                           l3123 0D87  
                                         l1436 0274                                           l3301 0C1C  
                                         l3221 0F04                                           l3029 0B16  
                                         l3061 0E3E                                           l3037 0A66  
                                         l3053 0BA5                                           l3045 0B9E  
                                         l3109 0AA2                                           l3133 0DB4  
                                         l3125 0D92                                           l1390 0350  
                                         l3303 0C1D                                           l3231 0A15  
                                         l3223 0F05                                           l3071 0E57  
                                         l3063 0E40                                           l3039 0A69  
                                         l3055 0BAC                                           l3047 0BA0  
                                         l3207 0CC5                                           l3127 0D99  
                                         l1392 04AC                                           l1480 063B  
                                         l3305 0C23                                           l3241 0CB2  
                                         l3225 0F16                                           l3217 0EDD  
                                         l3081 0E6C                                           l3073 0E59  
                                         l3065 0E48                                           l3057 0BAD  
                                         l3049 0BA2                                           l1449 0C5F  
                                         l3129 0D9C                                           l1474 0600  
                                         l3251 0CC1                                           l3243 0CB6  
                                         l3235 0C98                                           l3227 0F2F  
                                         l3219 0EE2                                           l3091 0E83  
                                         l3083 0E78                                           l3075 0E5B  
                                         l3067 0E52                                           l3059 0BB5  
                                         l3331 0F37                                           l1476 0689  
                                         l3253 0CC2                                           l3245 0CBC  
                                         l3237 0C98                                           l3085 0E7E  
                                         l3077 0E5C                                           l3069 0E55  
                                         l3501 03DA                                           l3341 0F56  
                                         l3157 0BF5                                           l3247 0CBD  
                                         l3239 0C9E                                           l3087 0E80  
                                         l3079 0E64                                           l3511 03F5  
                                         l3503 03DB                                           l3431 0307  
                                         l1487 0655                                           l3351 0F7E  
                                         l3343 0F63                                           l3159 0C00  
                                         l1488 0661                                           l3249 0CBF  
                                         l3089 0E81                                           l3521 040A  
                                         l3513 03F7                                           l3505 03E3  
                                         l3441 031B                                           l3433 0308  
                                         l3425 02F9                                           l3193 0C4E  
                                         l3601 00F7                                           l3353 0F82  
                                         l3337 0F3A                                           l3329 0F32  
                                         l3361 0FAE                                           l3531 042B  
                                         l3515 03FE                                           l3523 040E  
                                         l3507 03E7                                           l3451 0332  
                                         l3435 030D                                           l3443 031D  
                                         l3427 02FF                                           l3195 0C50  
                                         l3611 0117                                           l3603 00FC  
                                         l3339 0F52                                           l3371 0FDE  
                                         l3363 0FBB                                           l3355 0F90  
                                         l3541 0444                                           l3525 0412  
                                         l3517 0402                                           l3509 03ED  
                                         l3461 0346                                           l3453 0333  
                                         l3445 0325                                           l3437 0312  
                                         l3429 0303                                           l3197 0C57  
                                         l3701 02F0                                           l3621 0172  
                                         l3613 0124                                           l3605 0101  
                                         l3349 0F66                                           l3373 0FE4  
                                         l3365 0FBD                                           l3357 0FA3  
                                         l2821 09E2                                           l3381 0784  
                                         l2831 0A27                                           l2823 0A42  
                                         l3551 048B                                           l3543 045C  
                                         l3535 0433                                           l3527 0413  
                                         l3519 0403                                           l3455 0338  
                                         l3463 0348                                           l3447 032A  
                                         l3439 031A                                           l3199 0C5B  
                                         l3631 01A7                                           l3623 017F  
                                         l3615 013E                                           l3711 05F8  
                                         l3375 0FF1                                           l3359 0FA8  
                                         l3367 0FC6                                           l3383 07D0  
                                         l3297 0C0F                                           l2825 0A4B  
                                         l2817 0A54                                           l3553 0493  
                                         l3537 0438                                           l3545 0460  
                                         l3529 0417                                           l3481 038F  
                                         l3465 0358                                           l3473 0371  
                                         l3457 033D                                           l3449 032E  
                                         l3641 01EA                                           l3633 01AE  
                                         l3625 0186                                           l3617 014B  
                                         l3609 010A                                           l3721 0621  
                                         l3713 0608                                           l3705 05DF  
                                         l3377 0FF3                                           l3369 0FD9  
                                         l3385 07DD                                           l3299 0C1B  
                                         l2827 0A30                                           l2819 0A5D  
                                         l3555 0499                                           l3547 046D  
                                         l3539 0440                                           l3491 03AE  
                                         l3483 0397                                           l3475 0376  
                                         l3467 0364                                           l3459 0345  
                                         l3651 023D                                           l3643 01FE  
                                         l3635 01C2                                           l3627 0193  
                                         l3619 0165                                           l3571 00B0  
                                         l3731 064B                                           l3723 0628  
                                         l3707 05E4                                           l3379 0FFC  
                                         l3387 07E8                                           l2829 0A39  
                                         l2941 0A97                                           l2861 0A6F  
                                         l3557 049D                                           l3549 0488  
                                         l3493 03BC                                           l3485 039F  
                                         l3469 0368                                           l3653 0244  
                                         l3661 0254                                           l3645 0213  
                                         l3637 01C9                                           l3629 019A  
                                         l3581 00C5                                           l3573 00B1  
                                         l3565 00A2                                           l3741 067C  
                                         l3733 064F                                           l3725 062C  
                                         l3717 0611                                           l3709 05E8  
                                         l3901 05B1                                           l2951 0D67  
                                         l2943 0A99                                           l3559 049F  
                                         l3495 03C0                                           l3487 03A7  
                                         l3479 037F                                           l3663 0258  
                                         l3655 0248                                           l3647 022A  
                                         l3639 01DD                                           l3591 00DB  
                                         l3583 00CD                                           l3575 00B6  
                                         l3567 00A8                                           l3743 0680  
                                         l3735 0659                                           l3727 0634  
                                         l3719 0616                                           l3903 05BB  
                                         l2881 0A1E                                           l2961 0D73  
                                         l2953 0D6E                                           l2945 0D55  
                                         l3497 03C1                                           l3489 03A9  
                                         l3681 02A2                                           l3673 0279  
                                         l3665 0259                                           l3657 0249  
                                         l3649 0231                                           l3593 00E0  
                                         l3585 00D2                                           l3577 00BB  
                                         l3569 00AC                                           l3841 0697  
                                         l3745 0681                                           l3737 0663  
                                         l3729 0642                                           l3905 05C6  
                                         l2971 09EC                                           l2963 0D74  
                                         l2955 0D70                                           l2947 0D64  
                                         l2939 0A90                                           l3499 03C8  
                                         l3691 02D4                                           l3675 027E  
                                         l3683 02A6                                           l3667 025D  
                                         l3659 0250                                           l3595 00E5  
                                         l3587 00D6                                           l3579 00C3  
                                         l3851 06C6                                           l3739 0677  
                                         l3907 05CE                                           l2981 0A84  
                                         l2973 09EF                                           l2965 0D75  
                                         l2957 0D71                                           l2949 0D66  
                                         l3693 02D6                                           l3685 02B3  
                                         l3677 0286                                           l3669 0271  
                                         l3597 00ED                                           l3589 00DA  
                                         l3861 06D5                                           l3853 06C9  
                                         l3845 06A1                                           l2877 0BD5  
                                         l2983 0A86                                           l2975 09F0  
                                         l2967 0D7D                                           l2959 0D72  
                                         l2879 07F6                                           l2991 0B2C  
                                         l3695 02E3                                           l3687 02BD  
                                         l3679 028A                                           l3599 00EF  
                                         l3871 06FE                                           l3855 06CD  
                                         l3863 06E7                                           l3847 06BC  
                                         l3839 068A                                           l2985 0A8B  
                                         l2969 0D85                                           l2993 0B2F  
                                         l2977 09C5                                           l3697 02E7  
                                         l3689 02CB                                           l3873 0703  
                                         l3849 06BE                                           l3881 04B7  
                                         l2987 0A8D                                           l2979 09C1  
                                         l2995 0B30                                           l3699 02E8  
                                         l3891 04D1                                           l3883 04B8  
                                         l3875 04AD                                           l2989 09DA  
                                         l2997 0B32                                           l3869 06EE  
                                         l3893 04D9                                           l3885 04B9  
                                         l3877 04B0                                           l2999 0B34  
                                         l3895 04DC                                           l3887 04C1  
                                         l3879 04B4                                           l3897 0525  
                                         l3889 04C9                                           l3899 057B  
                                         u2110 0C6B                                           u2111 0C6A  
                                         u3000 05E4                                           u2040 0BFF  
                                         u2105 0C60                                           u3001 05E3  
                                         u2041 0BFE                                           u3010 05E8  
                                         u2050 0C09                                           u3011 05E7  
                                         u2051 0C08                                           u2140 0EE2  
                                         u3100 0659                                           u3020 0608  
                                         u2300 0F8F                                           u2141 0EE1  
                                         u3101 0658                                           u3021 0607  
                                         u2301 0F8E                                           _LATA 010C  
                                         u2150 0A1C                                           u3110 066D  
                                         u2310 0FA3                                           _LATB 010D  
                                         u2151 0A1A                                           u2311 0FA2  
                                         u2160 0A1D                                           u3120 067C  
                                         u3040 0627                                           u2320 0FA8  
                                         u3121 067B                                           u3041 0626  
                                         u2305 0F8B                                           u2321 0FA7  
                                         u2250 0C23                                           u2170 0C9E  
                                         u2090 0C5B                                           u3130 0680  
                                         u2330 0FD9                                           u2251 0C22  
                                         u2171 0C9D                                           u2091 0C5A  
                                         u3131 067F                                           u3115 0669  
                                         u3035 061B                                           u2331 0FD8  
                                         u2315 0F9F                                           u2180 0CBC  
                                         u2500 033D                                           u3060 0641  
                                         u2340 0FDE                                           u2181 0CBB  
                                         u2501 033C                                           u3061 0640  
                                         u2341 0FDD                                           u2510 0358  
                                         u2511 0357                                           u3055 0635  
                                         u2335 0FD5                                           u2600 03F5  
                                         u2520 0376                                           u3400 06E6  
                                         u3080 064F                                           u2280 0F63  
                                         u2601 03F4                                           u2521 0375  
                                         u3401 06E5                                           u3081 064E  
                                         u2281 0F62                                           u2530 03AE  
                                         u2450 0307                                           u3410 06ED  
                                         u3090 0655                                           u2531 03AD  
                                         u2451 0306                                           u3411 06EC  
                                         u3091 0654                                           u3075 0645  
                                         u2275 0F3F                                           u2700 0452  
                                         u2620 0402                                           u2460 030D  
                                         u2621 0401                                           u2461 030C  
                                         u2285 0F5F                                           u2710 046D  
                                         u2470 0312                                           u3430 06FE  
                                         u3350 0697                                           u2711 046C  
                                         u2615 03F8                                           u2471 0311  
                                         u3431 06FD                                           u3351 0696  
                                         u2295 0F6B                                           u2720 0488  
                                         u2640 0412                                           u2560 03C0  
                                         u2480 0332                                           u2800 00FC  
                                         u3440 0703                                           u3360 06B6  
                                         u2721 0487                                           u2705 044E  
                                         u2641 0411                                           u2561 03BF  
                                         u2545 03AF                                           u2481 0331  
                                         u2801 00FB                                           u3441 0702  
                                         u3425 06EF                                           u2730 049D  
                                         u2650 0417                                           u2490 0338  
                                         u2810 0101                                           u3370 06CD  
                                         u3450 05BB                              ??_CMP2_Initialize 0022  
                                         u2731 049C                                           u2715 0469  
                                         u2651 0416                                           u2635 0404  
                                         u2555 03B6                                           u2491 0337  
                                         u2811 0100                                           u3371 06CC  
                                         u3507 0DA2                                           u3451 05BA  
                                         u2660 042B                                           u2580 03DA  
                                         u2900 0258                                           u2740 00B0  
                                         u3380 06D4                                           u3460 05C6  
                                         u2725 0484                                           u2661 042A  
                                         u2581 03D9                                           u2901 0257  
                                         u2741 00AF                                           u3381 06D3  
                                         u3365 06B2                                           u1845 0BE6  
                                         u3461 05C5                                           u2670 0432  
                                         u2590 03ED                                           u2910 025D  
                                         u2750 00B6                                           u2671 0431  
                                         u2591 03EC                                           u2575 03C2  
                                         u2911 025C                                           u2751 00B5  
                                         u3455 05B7                                           u2680 0438  
                                         u2920 0271                                           u2840 0209  
                                         u2760 00BB                                           u2681 0437  
                                         u2585 03D6                                           u2921 0270  
                                         u2825 0180                                           u2761 00BA  
                                         u2690 0444                                           u2930 0278  
                                         u2850 0220                                           u2770 00DA  
                                         u2691 0443                                           u2931 0277  
                                         u2835 01AF                                           u2771 00D9  
                                         u3395 06D6                                           u2940 027E  
                                         u2780 00E0                                           u1980 0D92  
                                         u2941 027D                                           u2845 0205  
                                         u2781 00DF                                           u1981 0D91  
                                         u3477 07D6                                           u2950 028A  
                                         u2790 00E5                                           u1990 0DB4  
                                         u2951 0289                                           u2855 021C  
                                         u2791 00E4                                           u1991 0DB3  
                                         u3487 0FB4                                           u2960 0298  
                                         u2880 0248                                           u2881 0247  
                                         u2865 022B                                           u1985 0D8E  
                                         u3497 0FEA                                           u2970 02B3  
                                         u2971 02B2                                           u2875 023E  
                                         u1995 0DB0                                           u2980 02CB  
                                         u2981 02CA                                           u2965 0294  
                                         u2990 02E7                                           u2991 02E6  
                                         u2975 02AF                                           u2895 024A  
                                         u2985 02C7                                           _TMR2 001A  
                                         _TMR4 0415                                           _WPUA 020C  
                                         _WPUB 020D                                           _comm 0E85  
                                         _main 04AD                                           _leds 0CF3  
                                         _temp 00D4                                           fsr0h 0005  
                                         fsr1h 0007                                           indf0 0000  
                                         fsr0l 0004                                           indf1 0001  
                                         fsr1l 0006                                           btemp 007E  
                                         start 0080                                ___fldiv@new_exp 0060  
                             __end_of_CMP1_ISR 09D4                               __end_of_CMP2_ISR 09DA  
                   ??_TMR1_SetInterruptHandler 0024                     ??_TMR4_SetInterruptHandler 0024  
                                        ??_Enc 0076                                ?_FVR_Initialize 0070  
                                ?_EUSART_Write 0070                 __size_of_OSCILLATOR_Initialize 0007  
                          __size_of_IOCBF0_ISR 000F                            __size_of_IOCBF3_ISR 000F  
                __end_of_OSCILLATOR_Initialize 09F3                                  ___fltol@sign1 00EA  
                                        ?_comm 0070                                          ?_main 0070  
                                        ?_leds 0070                  __size_ofi1_PWM3_LoadDutyValue 0017  
                              __end_of___fldiv 04AD                                    i1_txMAX7219 0B84  
                       ??_CCP4_DefaultCallBack 0076                                __end_of___flmul 02F9  
             SPI1_Open@spi1UniqueConfiguration 0025                                __end_of___fltol 0710  
                                        _T1CON 0018                                          _T2CON 001C  
                                        _T4CON 0417                                          i1l101 0B06  
                                        i1l111 09B5                                          i1l105 0AC6  
                                        i1l121 09B6                                          i1l115 0AD5  
                                        i1l331 0C77                                          i1l332 0C7F  
                                        i1l341 0C4B                                          i1l229 09CD  
                                        i1l430 0B83                                          i1l335 0C97  
                                        i1l352 0BD4                                          i1l417 0AF5  
                                        i1l361 09BC                                          i1l338 0C4A  
                                        i1l355 09B4                                          i1l348 0DF9  
                                        i1l436 09B7                                          i1l613 0AE4  
                                        i1l358 09C0                                          i1l560 0038  
                                        i1l482 0B6C                                          i1l562 0046  
                                        i1l619 09B8                                          i1l555 0012  
                                        i1l652 0B55                                          i1l564 0054  
                                        i1l573 007E                                          i1l646 09B3  
                                        i1l822 0AB7                                          i1l814 0D22  
                                        i1l566 0062                                          i1l558 0027  
                                        i1l831 09D3                                          i1l567 007E  
                                        i1l568 0070                                          i1l809 0E3D  
                                        i1l825 0A14                                          i1l834 0B2B  
                                        i1l819 0EDA                                          i1l828 0A0B  
                                        i1l837 09D9                                          i1l870 0B9B  
                                        i1l862 0B85                                          i1l872 0B9D  
                                        i1l864 0B8B                                          i1l866 0B90  
                                        i1l867 0B95                                          i1l789 0D54  
                                        i1l869 0B9A                                          _RCREG 0199  
                                        _RCSTA 019D                                          _TMR1H 0017  
                                        _TMR1L 0016                                          _TRISA 008C  
                                        _TRISB 008D                                          _TXREG 019A  
                                        _TXSTA 019E                             __size_of_SPI1_Open 0057  
                              _TMR4_Initialize 0B2C                               __end_of_TMR1_ISR 0B84  
                             __end_of_TMR4_ISR 0AE5                                _DATAEE_ReadByte 0A9C  
                                        _andar 0F32                        __end_of_PIN_MANAGER_IOC 0B07  
                               _WDT_Initialize 09C5                                          _count 00EC  
                                        _motor 00D0                                          _speed 00D2  
                                        comm@i 0020                                          leds@i 0078  
                      __end_of_PWM3_Initialize 0A6F                        __end_of_TMR1_Initialize 0BB9  
                                        pclath 000A                                 i1___fltol@exp1 007A  
                                        status 0003                        __end_of_CCP4_Initialize 0B19  
                                        wtemp0 007E                             __size_ofi1___fltol 0074  
                            ?i1_SPI1_WriteByte 0070                                _TMR1_WriteTimer 0AE5  
                     __size_of_SPI1_Initialize 000C                        __size_of_SPI1_WriteByte 0006  
                           ??i1_SPI1_WriteByte 0070                               ??_DAC_Initialize 0022  
                              __initialization 0082                                   __end_of_comm 0EDB  
                                 __end_of_main 05DD                                   __end_of_leds 0D23  
                               ??_EUSART_Write 0070                        __end_of_TMR2_Initialize 0A03  
                  ?_INTERRUPT_InterruptManager 0070                 ??_EUSART_SetRxInterruptHandler 0024  
                                       ??_comm 007B                                         ??_main 0148  
                                       ??_leds 0075                        _IOCBF0_InterruptHandler 00E2  
                       __end_of_WDT_Initialize 09C9                               ?_CCP4_CaptureISR 0070  
                         __end_of_deslocamento 0DBD                                         ?_andar 0070  
    __end_of_EUSART_DefaultFramingErrorHandler 09B5     __size_of_EUSART_DefaultFramingErrorHandler 0001  
          ??_EUSART_DefaultFramingErrorHandler 0070             ?_EUSART_DefaultFramingErrorHandler 0070  
            _EUSART_DefaultFramingErrorHandler 09B4                                         _ADCON0 009D  
                                       _ADCON1 009E                     _EUSART_OverrunErrorHandler 0144  
                                       _ADRESH 009C                                         _EEADRH 0192  
                                       _ADRESL 009B                                         _EEADRL 0191  
                                       _EEDATH 0194                                         _CCPR3H 0312  
                                       _CCPR4H 0319                                         _EEDATL 0193  
                                       _CCPR3L 0311                                         _CCPR4L 0318  
                                       _EECON2 0196                                         _ANSELA 018C  
                                       _ANSELB 018D                     __end_of_EUSART_is_rx_ready 0A1E  
                                       _BORCON 0116                                         _T1GCON 0019  
                      TMR1_WriteTimer@timerVal 0070                                         i1l1234 076E  
                                       i1l1227 0783                                         i1l3101 0ACE  
                                       i1l1237 0783                                         i1l3103 0AD3  
                                       u200_20 0E08                                         u200_21 0E07  
                                       i1l3121 09B9                                         i1l3211 0AFB  
                                       i1l3141 0E0C                                         i1l3213 0AFE  
                                       i1l3151 0E2D                                         i1l3143 0E11  
                                       i1l3135 0DFA                                         i1l3311 09D7  
                                       i1l3119 09BD                                         i1l3215 0B03  
                                       u201_20 0E0C                                         i1l3153 0E35  
                                       i1l3145 0E17                                         u201_21 0E0B  
                                       i1l3137 0E00                                         i1l3321 0B4B  
                                       i1l3313 09CE                                         i1l3209 0AF6  
                                       i1l3161 0E85                                         i1l3155 0E37  
                                       i1l3147 0E24                                         i1l3139 0E08  
                                       i1l3315 09D1                                         i1l3163 0E97  
                                       i1l3323 0AD6                                         i1l3149 0E2A  
                                       i1l3317 0B40                                         i1l3309 09D4  
                                       i1l3261 0C39                                         i1l3093 0AB8  
                                       i1l3181 0ED7                                         i1l3165 0EA8  
                                       i1l3325 0AD8                                         i1l3319 0B42  
                                       i1l3183 0A03                                         i1l3191 0B28  
                                       i1l3271 0DC3                                         i1l3263 0C3E  
                                       i1l3095 0ABF                                         i1l3175 0EBC  
                                       i1l3167 0EB4                                         i1l3327 0ADF  
                                       u202_20 0E17                                         u202_21 0E16  
                                       i1l2801 0D23                                         i1l3185 0A08  
                                       i1l3281 0DDF                                         i1l3273 0DC8  
                                       i1l3265 0C44                                         i1l3257 0C2B  
                                       i1l3097 0AC4                                         i1l3177 0EC5  
                                       i1l3169 0EB9                                         i1l2811 0D4D  
                                       i1l2803 0D2E                                         i1l3187 0B19  
                                       i1l3283 0DE5                                         i1l3275 0DCE  
                                       i1l3267 0C45                                         i1l3259 0C32  
                                       i1l3099 0AC7                                         i1l3291 0B6F  
                                       i1l3179 0ECA                                         i1l2805 0D34  
                                       i1l3189 0B22                                         i1l3285 0DEF  
                                       i1l3277 0DD4                                         i1l3269 0DBD  
                                       i1l2901 0A11                                         i1l3293 0B77  
                                       i1l2813 0B87                                         i1l2807 0D37  
                                       i1l3287 0DF6                                         i1l3279 0DD9  
                                       i1l3295 0B7E                                         i1l2815 0B91  
                                       i1l2911 0737                                         i1l2903 0710  
                                       u203_20 0E24                                         u203_21 0E23  
                                       i1l2809 0D43                                         i1l3289 0B6D  
                                       i1l2841 0C88                                         i1l2833 0C71  
                                       i1l2913 0738                                         i1l2905 071B  
                                       i1l2851 0BB9                                         i1l2843 0C8C  
                                       i1l2835 0C71                                         i1l2915 0740  
                                       u203_25 0E20                                         i1l2853 0BC4  
                                       i1l2845 0C92                                         i1l2837 0C7B  
                                       i1l2933 0765                                         i1l2925 074E  
                                       i1l2917 0742                                         i1l2909 0724  
                                       i1l2871 0AEF                                         i1l2863 0AE5  
                                       i1l2855 0BC8                                         i1l2847 0C93  
                                       i1l2839 0C80                                         i1l2935 0773  
                                       i1l2919 0746                                         i1l2927 075E  
                                       i1l3751 0006                                         u220_20 0C44  
                                       u212_20 0AFB                                         i1l2865 0AEA  
                                       i1l2873 0AF1                                         i1l2857 0BCE  
                                       u220_21 0C43                                         u212_21 0AFA  
                                       i1l2849 0C95                                         i1l2937 0778  
                                       i1l3761 0020                                         i1l3753 000A  
                                       i1l2875 0AF3                                         i1l2867 0AEB  
                                       i1l2859 0BCF                                         i1l2891 0D15  
                                       i1l2883 0CF3                                         i1l3771 004B  
                                       i1l3763 002C                                         i1l3755 000E  
                                       i1l2869 0AED                                         i1l2893 0AA9  
                                       i1l2797 09CA                                         i1l3781 006C  
                                       i1l3773 0050                                         i1l3765 0031  
                                       i1l3757 0016                                         i1l2799 0B56  
                                       i1l2895 0AAE                                         i1l2887 0CF7  
                                       i1l3783 0075                                         i1l3775 0059  
                                       i1l3767 003D                                         i1l3759 001B  
                                       u221_20 0DC8                                         u213_20 0B03  
                                       u221_21 0DC7                                         i1l2897 0AB4  
                                       u213_21 0B02                                         i1l2889 0D11  
                                       i1l3785 007A                                         i1l3777 005E  
                                       i1l3769 0042                                         i1l2899 0A0C  
                                       i1l3779 0067                                         u222_20 0DD9  
                                       u222_21 0DD8                                         u206_25 0E8C  
                                       u223_20 0DEF                                         u223_21 0DEE  
                                       u207_25 0EAB                                         u224_20 0B7E  
                                       u208_20 0ED7                                         u320_20 0031  
                                       u224_21 0B7D                                         u208_21 0ED6  
                                       u320_21 0030                                         u208_25 0ED3  
                                       u321_20 003D                                         u321_21 003C  
                                       u226_20 0ADF                                         u330_20 007A  
                                       u322_20 0042                                         u314_20 000A  
                                       u226_21 0ADE                                         u330_21 0079  
                                       u322_21 0041                                         u314_21 0009  
                                       u219_20 0C32                                         u323_20 004B  
                                       u315_20 000E                                         _FVRCON 0117  
                                       u219_21 0C31                                         u323_21 004A  
                                       u315_21 000D                                         u180_20 0C7B  
                                       u324_20 0050                                         u316_20 0016  
                                       u180_21 0C7A                                         u324_21 004F  
                                       u316_21 0015                                         u181_20 0C92  
                                       u325_20 0059                                         u317_20 001B  
                                       u181_21 0C91                                         u325_21 0058  
                                       u317_21 001A                                         u182_20 0BCE  
                                       u326_20 005E                                         u318_20 0020  
                                       u182_21 0BCD                                         u326_21 005D  
                                       u318_21 001F                                         u174_25 0B65  
                                       u190_25 074F                                         u183_20 0AEA  
                                       u175_20 0D2E                                         u191_20 075D  
                                       u327_20 0067                                         u319_20 002C  
                                       u183_21 0AE9                                         u175_21 0D2D  
                                       u191_21 075C                                         u327_21 0066  
                                       u319_21 002B                                         u175_25 0D2A  
                                       u351_27 0D3C                                         u176_20 0D4D  
                                       u192_20 0764                                         u328_20 006C  
                                       u176_21 0D4C                                         u192_21 0763  
                                       u328_21 006B                                         u176_25 0D49  
                                       u177_20 0B90                                         u185_20 0D22  
                                       u329_20 0075                                         u177_21 0B8F  
                                       u185_21 0D21                                         u329_21 0074  
                                       u185_25 0D1E                                         u193_25 0766  
                                       u178_20 0B9A                                         u194_20 0773  
                                       u186_20 071B                                         u178_21 0B99  
                                       u194_21 0772                                         u186_21 071A  
                                       u179_20 0C77                                         u195_20 0778  
                                       u187_20 0731                                         u179_21 0C76  
                                       u195_21 0777                                         u187_25 072D  
                                       u196_20 0ABF                                         u188_20 0746  
                                       u196_21 0ABE                                         u188_21 0745  
                                       u197_20 0ACE                                         u189_20 074D  
                                       u197_21 0ACD                                         u189_21 074C  
                                       _OSCCON 0099                                         _SPBRGH 019C  
                                       _SPBRGL 019B                                         _WDTCON 0097  
                             __end_of___xxtofl 068A                              __end_of_SPI1_Open 0F32  
         __end_of_TMR1_DefaultInterruptHandler 09B8          __size_of_TMR1_DefaultInterruptHandler 0001  
                 _TMR1_DefaultInterruptHandler 09B7                                   _CCPTMRS0bits 029E  
                  __size_of_PWM3_LoadDutyValue 001C                                      ??___fldiv 0056  
                                    ??___flmul 003C                               __end_of_controle 1000  
                                    ??___fltol 00E5                            _EUSART_Transmit_ISR 0C2B  
                                       andar@i 0025                                         _matrix 0120  
                      __end_of_TMR4_Initialize 0B40                                         _rxByte 00C3  
                                       _txByte 00B0                                  _CCP4_CallBack 0140  
                                       _pulsos 00CE                        __end_of_DATAEE_ReadByte 0AA9  
                            __end_ofi1___fltol 0784           __end_of_TMR4_DefaultInterruptHandler 09B9  
        __size_of_TMR4_DefaultInterruptHandler 0001                   _TMR4_DefaultInterruptHandler 09B8  
                           __size_of__Umul8_16 0024                                ?_WDT_Initialize 0070  
                              i1___fltol@sign1 0079                       ADC_GetConversion@channel 0025  
                                    ?_CMP1_ISR 0070                                      ?_CMP2_ISR 0070  
     TMR4_SetInterruptHandler@InterruptHandler 0022       TMR1_SetInterruptHandler@InterruptHandler 0022  
   IOCBF3_SetInterruptHandler@InterruptHandler 0022     IOCBF0_SetInterruptHandler@InterruptHandler 0022  
                             ?_PIN_MANAGER_IOC 0070                        __end_of_TMR1_WriteTimer 0AF6  
                                 ??_IOCBF0_ISR 0074                           __size_of_initMAX7219 0072  
                         ?_EUSART_Transmit_ISR 0070                                   ??_IOCBF3_ISR 0076  
                             ?_TMR1_Initialize 0070                               ?_PWM3_Initialize 0070  
                                 ___xxtofl@arg 0030                           __size_of_EUSART_Read 002D  
                                 ___xxtofl@exp 002F                              _SYSTEM_Initialize 0CC5  
                                 ___xxtofl@val 0026                        __end_of__initialization 009E  
                             ?_CCP4_Initialize 0070                                _CMP1_Initialize 0A78  
                           ?_SYSTEM_Initialize 0070                                     ___fltol@f1 0068  
         __end_of_EUSART_SetTxInterruptHandler 0A54          __size_of_EUSART_SetTxInterruptHandler 0009  
                 _EUSART_SetTxInterruptHandler 0A4B                       __end_of_CCP4_SetCallBack 0A27  
                               __pcstackCOMMON 0070                                   __pidataBANK1 0002  
                          ??_SYSTEM_Initialize 0025                                  __end_of_andar 0F90  
                                    ?_TMR1_ISR 0070                  ?_TMR1_DefaultInterruptHandler 0070  
                                    ?_TMR4_ISR 0070                              ??_SPI1_Initialize 0022  
       __end_of_IOCBF0_DefaultInterruptHandler 09B6        __size_of_IOCBF0_DefaultInterruptHandler 0001  
               _IOCBF0_DefaultInterruptHandler 09B5                               ?_TMR2_Initialize 0070  
                      __size_ofi1_deslocamento 0032                                     __end_of_S1 0AB8  
                                   __end_of_S2 0A15                                     __end_of_S3 0A0C  
                                   __end_of_S4 0B2C                             __end_of_IOCBF0_ISR 0AC7  
                           __end_of_IOCBF3_ISR 0AD6                                _CMP2_Initialize 0A84  
                           _spi1_configuration 07FF                                 _OPTION_REGbits 0095  
                         _eusartRxStatusBuffer 00A0                  ?_TMR4_DefaultInterruptHandler 0070  
              ??_EUSART_SetOverrunErrorHandler 0024         __end_of_IOCBF3_DefaultInterruptHandler 09B7  
      __size_of_IOCBF3_DefaultInterruptHandler 0001                 _IOCBF3_DefaultInterruptHandler 09B6  
                                   ??_CMP1_ISR 0076                                     ??_CMP2_ISR 0074  
                                      ??_andar 0023                      __end_of_SYSTEM_Initialize 0CF3  
                        ??_EUSART_Transmit_ISR 0070                                     __pbssBANK0 006C  
                                   __pbssBANK1 00A0                                     __pbssBANK2 0120  
                         __end_of_EUSART_Write 0C98                             __size_of_txMAX7219 001C  
                  __size_of_EUSART_Receive_ISR 003D                                 _SPI1_WriteByte 09E0  
                        _TMR4_InterruptHandler 00D6                              __end_of__Umul8_16 0C70  
                             ??_FVR_Initialize 0022                                     __pmaintext 04AD  
                i1PWM3_LoadDutyValue@dutyValue 0070                  ?_EUSART_SetTxInterruptHandler 0022  
             _EUSART_TxDefaultInterruptHandler 00DE                                     ??_TMR1_ISR 0072  
                                   ??_TMR4_ISR 007E                                     __pintentry 0004  
                                      _DACCON0 0118                                        _DACCON1 0119  
                                      _CM1CON0 0111                                        _CM1CON1 0112  
                                      _CM2CON0 0113                                        _CM2CON1 0114  
                                      _CCP3CON 0313                                        _CCP4CON 031A  
                                      _BAUDCON 019F                               ?_TMR4_Initialize 0070  
                                      _APFCON0 011D                                        _APFCON1 011E  
                 ??_EUSART_DefaultErrorHandler 0071                                   ?i1_txMAX7219 0071  
                      __size_of_ADC_Initialize 0008                               ?_DATAEE_ReadByte 0070  
                        __size_of_deslocamento 0036                                  _eusartRxCount 00C5  
                                    ?___xxtofl 0026                  __size_of_EUSART_RxDataHandler 001C  
                                      _OSCTUNE 0098                                        _SSP1ADD 0212  
                                      _SSP1BUF 0211                        __end_of_CMP1_Initialize 0A84  
                     ??_EUSART_SetErrorHandler 0024                               ?_TMR1_WriteTimer 0070  
                                    ?_controle 0070                         __end_of_SPI1_WriteByte 09E6  
                 __end_ofi1_PWM3_LoadDutyValue 0B6D                           _ADC_InterruptHandler 00C0  
          __size_of_EUSART_DefaultErrorHandler 0004                                   _deslocamento 0D87  
                      __end_of_CMP2_Initialize 0A90                                        ___fldiv 02F9  
                                      ___flmul 00A2                                        ___fltol 068A  
                                      __ptext1 0784                                        __ptext2 0BF1  
                                      __ptext3 09E0                                        __ptext4 0F90  
                                      __ptext5 0D87                                        __ptext6 0BD5  
                                      __ptext7 0F32                                        __ptext8 0A9C  
                                      __ptext9 05DD                      __size_ofi1_SPI1_WriteByte 0005  
               ??_TMR1_DefaultInterruptHandler 0070                              __end_of_txMAX7219 0C0D  
                                    _T1CONbits 0018                                   __size_of_Enc 0044  
                        _OSCILLATOR_Initialize 09EC                                      _T2CONbits 001C  
                                   ??___xxtofl 002A                                      _CMOUTbits 0115  
                __size_of_CCP4_DefaultCallBack 0001              __size_of_TMR1_SetInterruptHandler 0009  
                                    _T4CONbits 0417                       ??_PIN_MANAGER_Initialize 0024  
            __size_of_TMR4_SetInterruptHandler 0009                      ?_TMR1_SetInterruptHandler 0022  
                                    _IOCBFbits 0396                      ?_TMR4_SetInterruptHandler 0022  
                                    _IOCBNbits 0395                                      _IOCBPbits 0394  
                   __size_of_SYSTEM_Initialize 002E                                        clrloop0 09E7  
                         end_of_initialization 009E                                   _colect_value 00CC  
               ??_TMR4_DefaultInterruptHandler 0070                                     ??_controle 0028  
        __end_of_EUSART_SetOverrunErrorHandler 0A42         __size_of_EUSART_SetOverrunErrorHandler 0009  
                _EUSART_SetOverrunErrorHandler 0A39                                ?_SPI1_WriteByte 0070  
                            _EUSART_Initialize 0E3E                             ?_EUSART_Initialize 0070  
                                    _RCSTAbits 019D                             _EUSART_is_rx_ready 0A15  
                                    _SPI1_Open 0EDB                                 i1_deslocamento 0D23  
                          ??_EUSART_Initialize 0024                               ??_WDT_Initialize 0022  
               ??_EUSART_SetTxInterruptHandler 0024                                      _PORTAbits 000C  
                          ?_EUSART_is_rx_ready 0070                                  ___xxtofl@sign 002E  
                               txMAX7219@addr0 0026                                 txMAX7219@addr1 0024  
                                    _TRISBbits 008D                          __size_of_EUSART_Write 0028  
                                  ___fldiv@grs 0062                                      i1___fltol 0710  
                                  ___fldiv@rem 005B                   ??_IOCBF0_SetInterruptHandler 0024  
                 ??_IOCBF3_SetInterruptHandler 0024                               ?_CMP1_Initialize 0070  
              __size_of_EUSART_SetErrorHandler 0009                              __size_of_CMP1_ISR 0006  
                            __size_of_CMP2_ISR 0006                                    ___flmul@grs 0042  
                    __end_of_EUSART_Initialize 0E85                           ??_EUSART_is_rx_ready 0022  
                              _SPI1_Initialize 0A90                                      _TXSTAbits 019E  
                     __size_of_CCP4_CaptureISR 0016              CCP4_DefaultCallBack@capturedValue 0074  
                   __end_of_PWM3_LoadDutyValue 0BF1                              ?_CCP4_SetCallBack 0022  
                       __end_ofi1_deslocamento 0D55                               ?_CMP2_Initialize 0070  
                                   ?_SPI1_Open 0070                             ??_CCP4_SetCallBack 0024  
           __end_of_EUSART_DefaultErrorHandler 09BD                     _EUSART_DefaultErrorHandler 09B9  
                                 _EUSART_Write 0C70                              __size_of_TMR1_ISR 0017  
                            __size_of_TMR4_ISR 000F                                 _ADC_Initialize 09F3  
          __size_of_IOCBF0_SetInterruptHandler 0009            __size_of_IOCBF3_SetInterruptHandler 0009  
                       ?_OSCILLATOR_Initialize 0070                           i1_PWM3_LoadDutyValue 0B56  
                      __size_of_DAC_Initialize 0006                           __size_ofi1_txMAX7219 001A  
                          start_initialization 0082                                  ??_initMAX7219 0027  
                                  __end_of_Enc 0E3E                __size_of_PIN_MANAGER_Initialize 0032  
                                ??_EUSART_Read 0022                                     ?i1___fltol 0070  
 EUSART_SetRxInterruptHandler@interruptHandler 0022   EUSART_SetTxInterruptHandler@interruptHandler 0022  
                          DATAEE_ReadByte@bAdd 0022                       __size_of_PIN_MANAGER_IOC 0011  
               ?_EUSART_SetOverrunErrorHandler 0022                       __size_of_PWM3_Initialize 0009  
                     __size_of_TMR1_Initialize 001B                     _EUSART_FramingErrorHandler 0146  
                              ?i1_deslocamento 0070                         _EUSART_SetErrorHandler 0A27  
                     __size_of_CCP4_Initialize 0012                         __end_of_ADC_Initialize 09FB  
                                    __Umul8_16 0C4C                                    __pdataBANK1 00EC  
                        ?i1_PWM3_LoadDutyValue 0070                               i1_SPI1_WriteByte 09C9  
                        CCP4_CaptureISR@module 0078                                      ___fldiv@a 004E  
                                    ___fldiv@b 0052                    __end_of_EUSART_Transmit_ISR 0C4C  
                                    ___flmul@a 0038                                      ___flmul@b 0034  
                                    ___latbits 0001                                  __pcstackBANK0 0020  
                                __pcstackBANK1 00E5                                  __pcstackBANK2 0148  
                     __size_of_TMR2_Initialize 0008                              __size_of___xxtofl 00AD  
                      __end_of_SPI1_Initialize 0A9C                     __end_of_EUSART_Receive_ISR 0DFA  
                   __size_of_EUSART_Initialize 0047                            __end_of_initMAX7219 07F6  
             _EUSART_RxDefaultInterruptHandler 00DC                            __end_of_EUSART_Read 0CC5  
                            __size_of_controle 0070                                      __pnvBANK1 00D6  
                                    __pnvBANK2 0140                        _IOCBF3_InterruptHandler 00E0  
                 __end_of_EUSART_RxDataHandler 0BD5                         _PIN_MANAGER_Initialize 0D55  
                         EUSART_Read@readValue 0023               __end_of_TMR1_SetInterruptHandler 0A78  
             __end_of_TMR4_SetInterruptHandler 07FF                                       ?___fldiv 004E  
                            ??_CCP4_CaptureISR 0077                                       ?___flmul 0034  
                                     ?___fltol 0068                                     ?__Umul8_16 0022  
                                  ??_SPI1_Open 0022                                ?_ADC_Initialize 0070  
                                 _eusartRxHead 006D                                   _eusartTxHead 00C7  
                                 _eusartRxTail 006C                                   _eusartTxTail 00C6  
                 ??_INTERRUPT_InterruptManager 007E                        _eusartTxBufferRemaining 00E4  
           __end_of_IOCBF0_SetInterruptHandler 0A5D                     _IOCBF0_SetInterruptHandler 0A54  
           __end_of_IOCBF3_SetInterruptHandler 0A66                     _IOCBF3_SetInterruptHandler 0A5D  
                     __size_of_TMR4_Initialize 0014                               ??_SPI1_WriteByte 0022  
                                    _txMAX7219 0BF1                                    ??i1___fltol 0074  
                                     _CMP1_ISR 09CE                                       _CMP2_ISR 09D4  
                               __size_of_andar 005E                       __size_of_DATAEE_ReadByte 000D  
                                  __size_of_S1 000F                                    __size_of_S2 0009  
                                  __size_of_S3 0009                                    __size_of_S4 0013  
                               _eusartRxBuffer 0138                                 _eusartTxBuffer 00A8  
                                     _LATAbits 010C         EUSART_SetErrorHandler@interruptHandler 0022  
                                     _LATBbits 010D                                      clear_ram0 09E6  
                 __end_of_CCP4_DefaultCallBack 09B4                                       _PIE1bits 0091  
                                     _PIE2bits 0092                                       _PIE3bits 0093  
                            _eusartRxLastError 00C4                       __size_of_TMR1_WriteTimer 0011  
          __size_of_INTERRUPT_InterruptManager 007C                                       _PIR1bits 0011  
              ??_EUSART_SetFramingErrorHandler 0024                                       _PIR2bits 0012  
                                     _PIR3bits 0013                           i1SPI1_WriteByte@byte 0070  
                                    _pos_final 00BE                                       _SSP1CON1 0215  
                                     _SSP1CON2 0216                                      _pos_atual 00BC  
    __end_of_EUSART_DefaultOverrunErrorHandler 09C1     __size_of_EUSART_DefaultOverrunErrorHandler 0004  
          ??_EUSART_DefaultOverrunErrorHandler 0070             ?_EUSART_DefaultOverrunErrorHandler 0070  
            _EUSART_DefaultOverrunErrorHandler 09BD                                       _TMR1_ISR 0B6D  
                                     _TMR4_ISR 0AD6                                       _SSP1STAT 0214  
                            ??_PIN_MANAGER_IOC 0076                         ??i1_PWM3_LoadDutyValue 0072  
                                txMAX7219@dat0 0023                                  txMAX7219@dat1 0025  
                            ??_TMR1_Initialize 0024                              ??_PWM3_Initialize 0022  
                                   _ADCON0bits 009D                                 _DAC_Initialize 09DA  
                      __size_of_FVR_Initialize 0004                              ??_CCP4_Initialize 0024  
                                  _initMAX7219 0784                                     ?_txMAX7219 0023  
                                  _EUSART_Read 0C98                               ?_SPI1_Initialize 0070  
                            ??_TMR2_Initialize 0022                                    _enviarDados 00C2  
                                   _EECON1bits 0195                               i1txMAX7219@addr0 0074  
                             i1txMAX7219@addr1 0072                              _ADC_GetConversion 0C0D  
                                  andar@i_1662 0027                        ??_OSCILLATOR_Initialize 0022  
                                  ??__Umul8_16 0024                            _EUSART_ErrorHandler 0142  
                           ?_ADC_GetConversion 0022                               __size_of___fldiv 01B4  
                             __size_of___flmul 0257                               __size_of___fltol 0086  
                       __end_of_DAC_Initialize 09E0                    ?_EUSART_DefaultErrorHandler 0070  
                     _TMR1_SetInterruptHandler 0A6F                       _TMR4_SetInterruptHandler 07F6  
                           _PWM3_LoadDutyValue 0BD5                          _TMR1_InterruptHandler 00D8  
                          ??_ADC_GetConversion 0024                                       ___xxtofl 05DD  
                    __size_of_CCP4_SetCallBack 0009                           _EUSART_RxDataHandler 0BB9  
                                     __ptext10 068A                                       __ptext11 00A2  
                                     __ptext20 0A6F                                       __ptext12 0C4C  
                                     __ptext21 0A90                                       __ptext13 02F9  
                                   _T1GCONbits 0019                                       __ptext30 0A42  
                                     __ptext22 0A66                                       __ptext14 0CC5  
                                     __ptext31 0A39                                       __ptext23 0D55  
                                     __ptext15 09C5                                       __ptext40 0EDB  
                                     __ptext32 0A30                                       __ptext24 0A5D  
                                     __ptext16 0B2C                                       __ptext41 0A15  
                                     __ptext33 0A27                                       __ptext25 0A54  
                                     __ptext17 07F6                                       __ptext50 0B84  
                                     __ptext42 0C98                                       __ptext34 09DA  
                                     __ptext26 09EC                                       __ptext18 09FB  
                                     __ptext51 09C9                                       __ptext43 0C0D  
                                     __ptext35 0A84                                       __ptext27 09C1  
                                     __ptext19 0B9E                                       __ptext60 09B5  
                                     __ptext52 0C70                                       __ptext36 0A78  
                                     __ptext28 0E3E                                       __ptext61 0AA9  
                                     __ptext53 0B6D                                       __ptext45 0AD6  
                                     __ptext37 0B07                                       __ptext29 0A4B  
                                     __ptext70 09CE                                       __ptext62 0C2B  
                                     __ptext54 09B7                                       __ptext46 09B8  
                                     __ptext38 0A1E                                       __ptext71 0A03  
                                     __ptext63 0DBD                                       __ptext55 0AF6  
                                     __ptext47 0E85                                       __ptext39 09F3  
                                     __ptext72 0D23                                       __ptext64 09BD  
                                     __ptext56 0AC7                                       __ptext48 0710  
                                     __ptext73 0B40                                       __ptext65 09B4  
                                     __ptext57 09B6                                       __ptext49 0CF3  
                                     __ptext74 09B3                                       __ptext66 09B9  
                                     __ptext58 0A0C                            ?_PWM3_LoadDutyValue 0022  
                                     __ptext75 0DFA                                       __ptext67 0BB9  
                                     __ptext59 0AB8                                       __ptext76 0B56  
                                     __ptext68 09D4                                       __ptext77 0AE5  
                                     __ptext69 0B19                                   _SSP1CON1bits 0215  
                                   _IOCBF0_ISR 0AB8                                     _IOCBF3_ISR 0AC7  
                                     _controle 0F90                              ??_TMR4_Initialize 0024  
                  __size_of_EUSART_is_rx_ready 0009                                  __size_of_comm 0056  
                                __size_of_main 0130                                  __size_of_leds 0030  
                     __end_ofi1_SPI1_WriteByte 09CE                               ??i1_deslocamento 0074  
                            ??_DATAEE_ReadByte 0022                      __end_of_ADC_GetConversion 0C2B  
                     __size_of_CMP1_Initialize 000C                        ?_EUSART_SetErrorHandler 0022  
EUSART_SetOverrunErrorHandler@interruptHandler 0022                           ??_PWM3_LoadDutyValue 0024  
                                     int$flags 007E                                       _position 00C8  
           __end_of_INTERRUPT_InterruptManager 0080                     _INTERRUPT_InterruptManager 0004  
        __end_of_EUSART_SetFramingErrorHandler 0A39         __size_of_EUSART_SetFramingErrorHandler 0009  
                _EUSART_SetFramingErrorHandler 0A30                                ?_DAC_Initialize 0070  
                            ??_TMR1_WriteTimer 0072                                  ??i1_txMAX7219 0074  
                                   _INTCONbits 000B                       __size_of_CMP2_Initialize 000C  
                         _CCP4_DefaultCallBack 09B3                                i1txMAX7219@dat0 0071  
                              i1txMAX7219@dat1 0073                          ?_EUSART_RxDataHandler 0070  
                                   _FVRCONbits 0117                                    ??_txMAX7219 0026  
                      __size_of_WDT_Initialize 0004                                       intlevel1 0000  
                              _CCP4_CaptureISR 0B40                        ?_PIN_MANAGER_Initialize 0070  
                              Enc@colect_value 0074                 __end_of_EUSART_SetErrorHandler 0A30  
                             ??_ADC_Initialize 0022           __end_of_EUSART_SetRxInterruptHandler 0A4B  
        __size_of_EUSART_SetRxInterruptHandler 0009                   _EUSART_SetRxInterruptHandler 0A42  
                                ?_deslocamento 0070                             _EUSART_Receive_ISR 0DBD  
EUSART_SetFramingErrorHandler@interruptHandler 0022                    PWM3_LoadDutyValue@dutyValue 0022  
                                __pstringtext1 07FF                                 _FVR_Initialize 09C1  
                       __Umul8_16@multiplicand 0022                            ?_EUSART_Receive_ISR 0070  
                        ?_CCP4_DefaultCallBack 0074                    ?_IOCBF0_SetInterruptHandler 0022  
                  ?_IOCBF3_SetInterruptHandler 0022                            __end_ofi1_txMAX7219 0B9E  
                                  ?_IOCBF0_ISR 0070                             EUSART_Write@txData 0071  
                 __size_of_EUSART_Transmit_ISR 0021                                    ?_IOCBF3_ISR 0070  
               __end_of_PIN_MANAGER_Initialize 0D87               ??_IOCBF0_DefaultInterruptHandler 0070  
              ?_IOCBF0_DefaultInterruptHandler 0070                                _PIN_MANAGER_IOC 0AF6  
                         ??_EUSART_Receive_ISR 0071                           __Umul8_16@multiplier 002A  
                   __size_of_ADC_GetConversion 001E                                _TMR1_Initialize 0B9E  
                              _PWM3_Initialize 0A66                     __end_of_spi1_configuration 0803  
                            __Umul8_16@product 0026                                 ??_deslocamento 0026  
