

Microchip MPLAB XC8 Assembler V2.32 build 20210201212658 
                                                                                               Tue Sep 20 00:38:03 2022

Microchip MPLAB XC8 C Compiler v2.32 (Free license) build 20210201212658 Og1 
     1                           	processor	16F1827
     2                           	pagewidth 120
     3                           	opt	flic
     4                           	psect	eeprom_data,global,class=EEDATA,space=3,delta=2,noexec
     5                           	psect	idataBANK1,global,class=CODE,delta=2,noexec
     6                           	psect	stringtext1,global,class=STRCODE,delta=2,noexec
     7                           	psect	nvBANK1,global,class=BANK1,space=1,delta=1,noexec
     8                           	psect	cinit,global,class=CODE,merge=1,delta=2
     9                           	psect	bssBANK0,global,class=BANK0,space=1,delta=1,noexec
    10                           	psect	bssBANK1,global,class=BANK1,space=1,delta=1,noexec
    11                           	psect	dataBANK1,global,class=BANK1,space=1,delta=1,noexec
    12                           	psect	bssBANK2,global,class=BANK2,space=1,delta=1,noexec
    13                           	psect	clrtext,global,class=CODE,delta=2
    14                           	psect	cstackBANK1,global,class=BANK1,space=1,delta=1,noexec
    15                           	psect	cstackCOMMON,global,class=COMMON,space=1,delta=1,noexec
    16                           	psect	cstackBANK0,global,class=BANK0,space=1,delta=1,noexec
    17                           	psect	maintext,global,class=CODE,merge=1,split=1,delta=2
    18                           	psect	text1,local,class=CODE,merge=1,delta=2
    19                           	psect	text2,local,class=CODE,merge=1,delta=2
    20                           	psect	text3,local,class=CODE,merge=1,delta=2
    21                           	psect	text4,local,class=CODE,merge=1,delta=2
    22                           	psect	text5,local,class=CODE,merge=1,delta=2
    23                           	psect	text6,local,class=CODE,merge=1,delta=2
    24                           	psect	text7,local,class=CODE,merge=1,delta=2
    25                           	psect	text8,local,class=CODE,merge=1,delta=2
    26                           	psect	text9,local,class=CODE,merge=1,delta=2,group=1
    27                           	psect	text10,local,class=CODE,merge=1,delta=2,group=1
    28                           	psect	text11,local,class=CODE,merge=1,delta=2,group=1
    29                           	psect	text12,local,class=CODE,merge=1,delta=2,group=1
    30                           	psect	text13,local,class=CODE,merge=1,delta=2,group=1
    31                           	psect	text14,local,class=CODE,merge=1,delta=2
    32                           	psect	text15,local,class=CODE,merge=1,delta=2
    33                           	psect	text16,local,class=CODE,merge=1,delta=2
    34                           	psect	text17,local,class=CODE,merge=1,delta=2
    35                           	psect	text18,local,class=CODE,merge=1,delta=2
    36                           	psect	text19,local,class=CODE,merge=1,delta=2
    37                           	psect	text20,local,class=CODE,merge=1,delta=2
    38                           	psect	text21,local,class=CODE,merge=1,delta=2
    39                           	psect	text22,local,class=CODE,merge=1,delta=2
    40                           	psect	text23,local,class=CODE,merge=1,delta=2
    41                           	psect	text24,local,class=CODE,merge=1,delta=2
    42                           	psect	text25,local,class=CODE,merge=1,delta=2
    43                           	psect	text26,local,class=CODE,merge=1,delta=2
    44                           	psect	text27,local,class=CODE,merge=1,delta=2
    45                           	psect	text28,local,class=CODE,merge=1,delta=2
    46                           	psect	text29,local,class=CODE,merge=1,delta=2
    47                           	psect	text30,local,class=CODE,merge=1,delta=2
    48                           	psect	text31,local,class=CODE,merge=1,delta=2
    49                           	psect	text32,local,class=CODE,merge=1,delta=2
    50                           	psect	text33,local,class=CODE,merge=1,delta=2
    51                           	psect	text34,local,class=CODE,merge=1,delta=2
    52                           	psect	text35,local,class=CODE,merge=1,delta=2
    53                           	psect	text36,local,class=CODE,merge=1,delta=2
    54                           	psect	text37,local,class=CODE,merge=1,delta=2
    55                           	psect	text38,local,class=CODE,merge=1,delta=2
    56                           	psect	text39,local,class=CODE,merge=1,delta=2
    57                           	psect	intentry,global,class=CODE,delta=2
    58                           	psect	text41,local,class=CODE,merge=1,delta=2
    59                           	psect	text42,local,class=CODE,merge=1,delta=2
    60                           	psect	text43,local,class=CODE,merge=1,delta=2
    61                           	psect	text44,local,class=CODE,merge=1,delta=2
    62                           	psect	text45,local,class=CODE,merge=1,delta=2
    63                           	psect	text46,local,class=CODE,merge=1,delta=2
    64                           	psect	text47,local,class=CODE,merge=1,delta=2
    65                           	psect	text48,local,class=CODE,merge=1,delta=2
    66                           	psect	text49,local,class=CODE,merge=1,delta=2
    67                           	psect	text50,local,class=CODE,merge=1,delta=2
    68                           	psect	text51,local,class=CODE,merge=1,delta=2
    69                           	psect	text52,local,class=CODE,merge=1,delta=2
    70                           	psect	text53,local,class=CODE,merge=1,delta=2
    71                           	psect	text54,local,class=CODE,merge=1,delta=2
    72                           	psect	text55,local,class=CODE,merge=1,delta=2
    73                           	psect	text56,local,class=CODE,merge=1,delta=2
    74                           	psect	text57,local,class=CODE,merge=1,delta=2
    75                           	psect	text58,local,class=CODE,merge=1,delta=2
    76                           	psect	text59,local,class=CODE,merge=1,delta=2
    77                           	psect	text60,local,class=CODE,merge=1,delta=2
    78                           	psect	text61,local,class=CODE,merge=1,delta=2
    79                           	psect	text62,local,class=CODE,merge=1,delta=2
    80                           	psect	text63,local,class=CODE,merge=1,delta=2
    81                           	psect	text64,local,class=CODE,merge=1,delta=2
    82                           	psect	text65,local,class=CODE,merge=1,delta=2
    83                           	psect	text66,local,class=CODE,merge=1,delta=2
    84                           	psect	text67,local,class=CODE,merge=1,delta=2
    85                           	psect	text68,local,class=CODE,merge=1,delta=2
    86                           	psect	idloc,global,abs,ovrld,class=IDLOC,space=5,delta=2,noexec
    87                           	psect	config,global,abs,ovrld,class=CONFIG,space=4,delta=2,noexec
    88                           	dabs	1,0x7E,2
    89  0000                     
    90                           ; Version 2.40
    91                           ; Generated 17/11/2021 GMT
    92                           ; 
    93                           ; Copyright © 2021, Microchip Technology Inc. and its subsidiaries ("Microchip")
    94                           ; All rights reserved.
    95                           ; 
    96                           ; This software is developed by Microchip Technology Inc. and its subsidiaries ("Microch
      +                          ip").
    97                           ; 
    98                           ; Redistribution and use in source and binary forms, with or without modification, are
    99                           ; permitted provided that the following conditions are met:
   100                           ; 
   101                           ;     1. Redistributions of source code must retain the above copyright notice, this lis
      +                          t of
   102                           ;        conditions and the following disclaimer.
   103                           ; 
   104                           ;     2. Redistributions in binary form must reproduce the above copyright notice, this 
      +                          list
   105                           ;        of conditions and the following disclaimer in the documentation and/or other
   106                           ;        materials provided with the distribution. Publication is not required when
   107                           ;        this file is used in an embedded application.
   108                           ; 
   109                           ;     3. Microchip's name may not be used to endorse or promote products derived from th
      +                          is
   110                           ;        software without specific prior written permission.
   111                           ; 
   112                           ; THIS SOFTWARE IS PROVIDED BY MICROCHIP "AS IS" AND ANY EXPRESS OR IMPLIED WARRANTIES,
   113                           ; INCLUDING, BUT NOT LIMITED TO, THE IMPLIED WARRANTIES OF MERCHANTABILITY AND FITNESS F
      +                          OR
   114                           ; PURPOSE ARE DISCLAIMED.  IN NO EVENT SHALL MICROCHIP BE LIABLE FOR ANY DIRECT, INDIREC
      +                          T,
   115                           ; INCIDENTAL, SPECIAL, EXEMPLARY, OR CONSEQUENTIAL DAMAGES (INCLUDING BUT NOT LIMITED TO
   116                           ; PROCUREMENT OF SUBSTITUTE GOODS OR SERVICES; LOSS OF USE, DATA OR PROFITS; OR BUSINESS
   117                           ; INTERRUPTION) HOWSOEVER CAUSED AND ON ANY THEORY OF LIABILITY, WHETHER IN CONTRACT, ST
      +                          RICT
   118                           ; LIABILITY, OR TORT (INCLUDING NEGLIGENCE OR OTHERWISE) ARISING IN ANY WAY OUT OF THE U
      +                          SE OF
   119                           ; THIS SOFTWARE, EVEN IF ADVISED OF THE POSSIBILITY OF SUCH DAMAGE.
   120                           ; 
   121                           ; 
   122                           ; Code-generator required, PIC16F1827 Definitions
   123                           ; 
   124                           ; SFR Addresses
   125  0000                     	;# 
   126  0001                     	;# 
   127  0002                     	;# 
   128  0003                     	;# 
   129  0004                     	;# 
   130  0005                     	;# 
   131  0006                     	;# 
   132  0007                     	;# 
   133  0008                     	;# 
   134  0009                     	;# 
   135  000A                     	;# 
   136  000B                     	;# 
   137  000C                     	;# 
   138  000D                     	;# 
   139  0011                     	;# 
   140  0012                     	;# 
   141  0013                     	;# 
   142  0014                     	;# 
   143  0015                     	;# 
   144  0016                     	;# 
   145  0016                     	;# 
   146  0017                     	;# 
   147  0018                     	;# 
   148  0019                     	;# 
   149  001A                     	;# 
   150  001B                     	;# 
   151  001C                     	;# 
   152  001E                     	;# 
   153  001F                     	;# 
   154  008C                     	;# 
   155  008D                     	;# 
   156  0091                     	;# 
   157  0092                     	;# 
   158  0093                     	;# 
   159  0094                     	;# 
   160  0095                     	;# 
   161  0096                     	;# 
   162  0097                     	;# 
   163  0098                     	;# 
   164  0099                     	;# 
   165  009A                     	;# 
   166  009B                     	;# 
   167  009B                     	;# 
   168  009C                     	;# 
   169  009D                     	;# 
   170  009E                     	;# 
   171  010C                     	;# 
   172  010D                     	;# 
   173  0111                     	;# 
   174  0112                     	;# 
   175  0113                     	;# 
   176  0114                     	;# 
   177  0115                     	;# 
   178  0116                     	;# 
   179  0117                     	;# 
   180  0118                     	;# 
   181  0119                     	;# 
   182  011A                     	;# 
   183  011B                     	;# 
   184  011D                     	;# 
   185  011E                     	;# 
   186  018C                     	;# 
   187  018D                     	;# 
   188  0191                     	;# 
   189  0191                     	;# 
   190  0192                     	;# 
   191  0193                     	;# 
   192  0193                     	;# 
   193  0193                     	;# 
   194  0194                     	;# 
   195  0195                     	;# 
   196  0196                     	;# 
   197  0199                     	;# 
   198  019A                     	;# 
   199  019B                     	;# 
   200  019B                     	;# 
   201  019B                     	;# 
   202  019B                     	;# 
   203  019C                     	;# 
   204  019C                     	;# 
   205  019D                     	;# 
   206  019E                     	;# 
   207  019F                     	;# 
   208  020C                     	;# 
   209  020D                     	;# 
   210  0211                     	;# 
   211  0211                     	;# 
   212  0212                     	;# 
   213  0212                     	;# 
   214  0213                     	;# 
   215  0213                     	;# 
   216  0214                     	;# 
   217  0214                     	;# 
   218  0215                     	;# 
   219  0215                     	;# 
   220  0215                     	;# 
   221  0216                     	;# 
   222  0216                     	;# 
   223  0217                     	;# 
   224  0217                     	;# 
   225  0219                     	;# 
   226  021A                     	;# 
   227  021B                     	;# 
   228  021C                     	;# 
   229  021D                     	;# 
   230  021E                     	;# 
   231  021F                     	;# 
   232  0291                     	;# 
   233  0291                     	;# 
   234  0292                     	;# 
   235  0293                     	;# 
   236  0294                     	;# 
   237  0295                     	;# 
   238  0295                     	;# 
   239  0296                     	;# 
   240  0298                     	;# 
   241  0298                     	;# 
   242  0299                     	;# 
   243  029A                     	;# 
   244  029B                     	;# 
   245  029C                     	;# 
   246  029C                     	;# 
   247  029D                     	;# 
   248  029E                     	;# 
   249  029E                     	;# 
   250  0311                     	;# 
   251  0311                     	;# 
   252  0312                     	;# 
   253  0313                     	;# 
   254  0318                     	;# 
   255  0318                     	;# 
   256  0319                     	;# 
   257  031A                     	;# 
   258  0394                     	;# 
   259  0395                     	;# 
   260  0396                     	;# 
   261  039A                     	;# 
   262  039C                     	;# 
   263  039D                     	;# 
   264  039E                     	;# 
   265  039F                     	;# 
   266  0415                     	;# 
   267  0416                     	;# 
   268  0417                     	;# 
   269  041C                     	;# 
   270  041D                     	;# 
   271  041E                     	;# 
   272  0FE4                     	;# 
   273  0FE5                     	;# 
   274  0FE6                     	;# 
   275  0FE7                     	;# 
   276  0FE8                     	;# 
   277  0FE9                     	;# 
   278  0FEA                     	;# 
   279  0FEB                     	;# 
   280  0FED                     	;# 
   281  0FEE                     	;# 
   282  0FEF                     	;# 
   283  0000                     	;# 
   284  0001                     	;# 
   285  0002                     	;# 
   286  0003                     	;# 
   287  0004                     	;# 
   288  0005                     	;# 
   289  0006                     	;# 
   290  0007                     	;# 
   291  0008                     	;# 
   292  0009                     	;# 
   293  000A                     	;# 
   294  000B                     	;# 
   295  000C                     	;# 
   296  000D                     	;# 
   297  0011                     	;# 
   298  0012                     	;# 
   299  0013                     	;# 
   300  0014                     	;# 
   301  0015                     	;# 
   302  0016                     	;# 
   303  0016                     	;# 
   304  0017                     	;# 
   305  0018                     	;# 
   306  0019                     	;# 
   307  001A                     	;# 
   308  001B                     	;# 
   309  001C                     	;# 
   310  001E                     	;# 
   311  001F                     	;# 
   312  008C                     	;# 
   313  008D                     	;# 
   314  0091                     	;# 
   315  0092                     	;# 
   316  0093                     	;# 
   317  0094                     	;# 
   318  0095                     	;# 
   319  0096                     	;# 
   320  0097                     	;# 
   321  0098                     	;# 
   322  0099                     	;# 
   323  009A                     	;# 
   324  009B                     	;# 
   325  009B                     	;# 
   326  009C                     	;# 
   327  009D                     	;# 
   328  009E                     	;# 
   329  010C                     	;# 
   330  010D                     	;# 
   331  0111                     	;# 
   332  0112                     	;# 
   333  0113                     	;# 
   334  0114                     	;# 
   335  0115                     	;# 
   336  0116                     	;# 
   337  0117                     	;# 
   338  0118                     	;# 
   339  0119                     	;# 
   340  011A                     	;# 
   341  011B                     	;# 
   342  011D                     	;# 
   343  011E                     	;# 
   344  018C                     	;# 
   345  018D                     	;# 
   346  0191                     	;# 
   347  0191                     	;# 
   348  0192                     	;# 
   349  0193                     	;# 
   350  0193                     	;# 
   351  0193                     	;# 
   352  0194                     	;# 
   353  0195                     	;# 
   354  0196                     	;# 
   355  0199                     	;# 
   356  019A                     	;# 
   357  019B                     	;# 
   358  019B                     	;# 
   359  019B                     	;# 
   360  019B                     	;# 
   361  019C                     	;# 
   362  019C                     	;# 
   363  019D                     	;# 
   364  019E                     	;# 
   365  019F                     	;# 
   366  020C                     	;# 
   367  020D                     	;# 
   368  0211                     	;# 
   369  0211                     	;# 
   370  0212                     	;# 
   371  0212                     	;# 
   372  0213                     	;# 
   373  0213                     	;# 
   374  0214                     	;# 
   375  0214                     	;# 
   376  0215                     	;# 
   377  0215                     	;# 
   378  0215                     	;# 
   379  0216                     	;# 
   380  0216                     	;# 
   381  0217                     	;# 
   382  0217                     	;# 
   383  0219                     	;# 
   384  021A                     	;# 
   385  021B                     	;# 
   386  021C                     	;# 
   387  021D                     	;# 
   388  021E                     	;# 
   389  021F                     	;# 
   390  0291                     	;# 
   391  0291                     	;# 
   392  0292                     	;# 
   393  0293                     	;# 
   394  0294                     	;# 
   395  0295                     	;# 
   396  0295                     	;# 
   397  0296                     	;# 
   398  0298                     	;# 
   399  0298                     	;# 
   400  0299                     	;# 
   401  029A                     	;# 
   402  029B                     	;# 
   403  029C                     	;# 
   404  029C                     	;# 
   405  029D                     	;# 
   406  029E                     	;# 
   407  029E                     	;# 
   408  0311                     	;# 
   409  0311                     	;# 
   410  0312                     	;# 
   411  0313                     	;# 
   412  0318                     	;# 
   413  0318                     	;# 
   414  0319                     	;# 
   415  031A                     	;# 
   416  0394                     	;# 
   417  0395                     	;# 
   418  0396                     	;# 
   419  039A                     	;# 
   420  039C                     	;# 
   421  039D                     	;# 
   422  039E                     	;# 
   423  039F                     	;# 
   424  0415                     	;# 
   425  0416                     	;# 
   426  0417                     	;# 
   427  041C                     	;# 
   428  041D                     	;# 
   429  041E                     	;# 
   430  0FE4                     	;# 
   431  0FE5                     	;# 
   432  0FE6                     	;# 
   433  0FE7                     	;# 
   434  0FE8                     	;# 
   435  0FE9                     	;# 
   436  0FEA                     	;# 
   437  0FEB                     	;# 
   438  0FED                     	;# 
   439  0FEE                     	;# 
   440  0FEF                     	;# 
   441  0000                     	;# 
   442  0001                     	;# 
   443  0002                     	;# 
   444  0003                     	;# 
   445  0004                     	;# 
   446  0005                     	;# 
   447  0006                     	;# 
   448  0007                     	;# 
   449  0008                     	;# 
   450  0009                     	;# 
   451  000A                     	;# 
   452  000B                     	;# 
   453  000C                     	;# 
   454  000D                     	;# 
   455  0011                     	;# 
   456  0012                     	;# 
   457  0013                     	;# 
   458  0014                     	;# 
   459  0015                     	;# 
   460  0016                     	;# 
   461  0016                     	;# 
   462  0017                     	;# 
   463  0018                     	;# 
   464  0019                     	;# 
   465  001A                     	;# 
   466  001B                     	;# 
   467  001C                     	;# 
   468  001E                     	;# 
   469  001F                     	;# 
   470  008C                     	;# 
   471  008D                     	;# 
   472  0091                     	;# 
   473  0092                     	;# 
   474  0093                     	;# 
   475  0094                     	;# 
   476  0095                     	;# 
   477  0096                     	;# 
   478  0097                     	;# 
   479  0098                     	;# 
   480  0099                     	;# 
   481  009A                     	;# 
   482  009B                     	;# 
   483  009B                     	;# 
   484  009C                     	;# 
   485  009D                     	;# 
   486  009E                     	;# 
   487  010C                     	;# 
   488  010D                     	;# 
   489  0111                     	;# 
   490  0112                     	;# 
   491  0113                     	;# 
   492  0114                     	;# 
   493  0115                     	;# 
   494  0116                     	;# 
   495  0117                     	;# 
   496  0118                     	;# 
   497  0119                     	;# 
   498  011A                     	;# 
   499  011B                     	;# 
   500  011D                     	;# 
   501  011E                     	;# 
   502  018C                     	;# 
   503  018D                     	;# 
   504  0191                     	;# 
   505  0191                     	;# 
   506  0192                     	;# 
   507  0193                     	;# 
   508  0193                     	;# 
   509  0193                     	;# 
   510  0194                     	;# 
   511  0195                     	;# 
   512  0196                     	;# 
   513  0199                     	;# 
   514  019A                     	;# 
   515  019B                     	;# 
   516  019B                     	;# 
   517  019B                     	;# 
   518  019B                     	;# 
   519  019C                     	;# 
   520  019C                     	;# 
   521  019D                     	;# 
   522  019E                     	;# 
   523  019F                     	;# 
   524  020C                     	;# 
   525  020D                     	;# 
   526  0211                     	;# 
   527  0211                     	;# 
   528  0212                     	;# 
   529  0212                     	;# 
   530  0213                     	;# 
   531  0213                     	;# 
   532  0214                     	;# 
   533  0214                     	;# 
   534  0215                     	;# 
   535  0215                     	;# 
   536  0215                     	;# 
   537  0216                     	;# 
   538  0216                     	;# 
   539  0217                     	;# 
   540  0217                     	;# 
   541  0219                     	;# 
   542  021A                     	;# 
   543  021B                     	;# 
   544  021C                     	;# 
   545  021D                     	;# 
   546  021E                     	;# 
   547  021F                     	;# 
   548  0291                     	;# 
   549  0291                     	;# 
   550  0292                     	;# 
   551  0293                     	;# 
   552  0294                     	;# 
   553  0295                     	;# 
   554  0295                     	;# 
   555  0296                     	;# 
   556  0298                     	;# 
   557  0298                     	;# 
   558  0299                     	;# 
   559  029A                     	;# 
   560  029B                     	;# 
   561  029C                     	;# 
   562  029C                     	;# 
   563  029D                     	;# 
   564  029E                     	;# 
   565  029E                     	;# 
   566  0311                     	;# 
   567  0311                     	;# 
   568  0312                     	;# 
   569  0313                     	;# 
   570  0318                     	;# 
   571  0318                     	;# 
   572  0319                     	;# 
   573  031A                     	;# 
   574  0394                     	;# 
   575  0395                     	;# 
   576  0396                     	;# 
   577  039A                     	;# 
   578  039C                     	;# 
   579  039D                     	;# 
   580  039E                     	;# 
   581  039F                     	;# 
   582  0415                     	;# 
   583  0416                     	;# 
   584  0417                     	;# 
   585  041C                     	;# 
   586  041D                     	;# 
   587  041E                     	;# 
   588  0FE4                     	;# 
   589  0FE5                     	;# 
   590  0FE6                     	;# 
   591  0FE7                     	;# 
   592  0FE8                     	;# 
   593  0FE9                     	;# 
   594  0FEA                     	;# 
   595  0FEB                     	;# 
   596  0FED                     	;# 
   597  0FEE                     	;# 
   598  0FEF                     	;# 
   599  0000                     	;# 
   600  0001                     	;# 
   601  0002                     	;# 
   602  0003                     	;# 
   603  0004                     	;# 
   604  0005                     	;# 
   605  0006                     	;# 
   606  0007                     	;# 
   607  0008                     	;# 
   608  0009                     	;# 
   609  000A                     	;# 
   610  000B                     	;# 
   611  000C                     	;# 
   612  000D                     	;# 
   613  0011                     	;# 
   614  0012                     	;# 
   615  0013                     	;# 
   616  0014                     	;# 
   617  0015                     	;# 
   618  0016                     	;# 
   619  0016                     	;# 
   620  0017                     	;# 
   621  0018                     	;# 
   622  0019                     	;# 
   623  001A                     	;# 
   624  001B                     	;# 
   625  001C                     	;# 
   626  001E                     	;# 
   627  001F                     	;# 
   628  008C                     	;# 
   629  008D                     	;# 
   630  0091                     	;# 
   631  0092                     	;# 
   632  0093                     	;# 
   633  0094                     	;# 
   634  0095                     	;# 
   635  0096                     	;# 
   636  0097                     	;# 
   637  0098                     	;# 
   638  0099                     	;# 
   639  009A                     	;# 
   640  009B                     	;# 
   641  009B                     	;# 
   642  009C                     	;# 
   643  009D                     	;# 
   644  009E                     	;# 
   645  010C                     	;# 
   646  010D                     	;# 
   647  0111                     	;# 
   648  0112                     	;# 
   649  0113                     	;# 
   650  0114                     	;# 
   651  0115                     	;# 
   652  0116                     	;# 
   653  0117                     	;# 
   654  0118                     	;# 
   655  0119                     	;# 
   656  011A                     	;# 
   657  011B                     	;# 
   658  011D                     	;# 
   659  011E                     	;# 
   660  018C                     	;# 
   661  018D                     	;# 
   662  0191                     	;# 
   663  0191                     	;# 
   664  0192                     	;# 
   665  0193                     	;# 
   666  0193                     	;# 
   667  0193                     	;# 
   668  0194                     	;# 
   669  0195                     	;# 
   670  0196                     	;# 
   671  0199                     	;# 
   672  019A                     	;# 
   673  019B                     	;# 
   674  019B                     	;# 
   675  019B                     	;# 
   676  019B                     	;# 
   677  019C                     	;# 
   678  019C                     	;# 
   679  019D                     	;# 
   680  019E                     	;# 
   681  019F                     	;# 
   682  020C                     	;# 
   683  020D                     	;# 
   684  0211                     	;# 
   685  0211                     	;# 
   686  0212                     	;# 
   687  0212                     	;# 
   688  0213                     	;# 
   689  0213                     	;# 
   690  0214                     	;# 
   691  0214                     	;# 
   692  0215                     	;# 
   693  0215                     	;# 
   694  0215                     	;# 
   695  0216                     	;# 
   696  0216                     	;# 
   697  0217                     	;# 
   698  0217                     	;# 
   699  0219                     	;# 
   700  021A                     	;# 
   701  021B                     	;# 
   702  021C                     	;# 
   703  021D                     	;# 
   704  021E                     	;# 
   705  021F                     	;# 
   706  0291                     	;# 
   707  0291                     	;# 
   708  0292                     	;# 
   709  0293                     	;# 
   710  0294                     	;# 
   711  0295                     	;# 
   712  0295                     	;# 
   713  0296                     	;# 
   714  0298                     	;# 
   715  0298                     	;# 
   716  0299                     	;# 
   717  029A                     	;# 
   718  029B                     	;# 
   719  029C                     	;# 
   720  029C                     	;# 
   721  029D                     	;# 
   722  029E                     	;# 
   723  029E                     	;# 
   724  0311                     	;# 
   725  0311                     	;# 
   726  0312                     	;# 
   727  0313                     	;# 
   728  0318                     	;# 
   729  0318                     	;# 
   730  0319                     	;# 
   731  031A                     	;# 
   732  0394                     	;# 
   733  0395                     	;# 
   734  0396                     	;# 
   735  039A                     	;# 
   736  039C                     	;# 
   737  039D                     	;# 
   738  039E                     	;# 
   739  039F                     	;# 
   740  0415                     	;# 
   741  0416                     	;# 
   742  0417                     	;# 
   743  041C                     	;# 
   744  041D                     	;# 
   745  041E                     	;# 
   746  0FE4                     	;# 
   747  0FE5                     	;# 
   748  0FE6                     	;# 
   749  0FE7                     	;# 
   750  0FE8                     	;# 
   751  0FE9                     	;# 
   752  0FEA                     	;# 
   753  0FEB                     	;# 
   754  0FED                     	;# 
   755  0FEE                     	;# 
   756  0FEF                     	;# 
   757  0000                     	;# 
   758  0001                     	;# 
   759  0002                     	;# 
   760  0003                     	;# 
   761  0004                     	;# 
   762  0005                     	;# 
   763  0006                     	;# 
   764  0007                     	;# 
   765  0008                     	;# 
   766  0009                     	;# 
   767  000A                     	;# 
   768  000B                     	;# 
   769  000C                     	;# 
   770  000D                     	;# 
   771  0011                     	;# 
   772  0012                     	;# 
   773  0013                     	;# 
   774  0014                     	;# 
   775  0015                     	;# 
   776  0016                     	;# 
   777  0016                     	;# 
   778  0017                     	;# 
   779  0018                     	;# 
   780  0019                     	;# 
   781  001A                     	;# 
   782  001B                     	;# 
   783  001C                     	;# 
   784  001E                     	;# 
   785  001F                     	;# 
   786  008C                     	;# 
   787  008D                     	;# 
   788  0091                     	;# 
   789  0092                     	;# 
   790  0093                     	;# 
   791  0094                     	;# 
   792  0095                     	;# 
   793  0096                     	;# 
   794  0097                     	;# 
   795  0098                     	;# 
   796  0099                     	;# 
   797  009A                     	;# 
   798  009B                     	;# 
   799  009B                     	;# 
   800  009C                     	;# 
   801  009D                     	;# 
   802  009E                     	;# 
   803  010C                     	;# 
   804  010D                     	;# 
   805  0111                     	;# 
   806  0112                     	;# 
   807  0113                     	;# 
   808  0114                     	;# 
   809  0115                     	;# 
   810  0116                     	;# 
   811  0117                     	;# 
   812  0118                     	;# 
   813  0119                     	;# 
   814  011A                     	;# 
   815  011B                     	;# 
   816  011D                     	;# 
   817  011E                     	;# 
   818  018C                     	;# 
   819  018D                     	;# 
   820  0191                     	;# 
   821  0191                     	;# 
   822  0192                     	;# 
   823  0193                     	;# 
   824  0193                     	;# 
   825  0193                     	;# 
   826  0194                     	;# 
   827  0195                     	;# 
   828  0196                     	;# 
   829  0199                     	;# 
   830  019A                     	;# 
   831  019B                     	;# 
   832  019B                     	;# 
   833  019B                     	;# 
   834  019B                     	;# 
   835  019C                     	;# 
   836  019C                     	;# 
   837  019D                     	;# 
   838  019E                     	;# 
   839  019F                     	;# 
   840  020C                     	;# 
   841  020D                     	;# 
   842  0211                     	;# 
   843  0211                     	;# 
   844  0212                     	;# 
   845  0212                     	;# 
   846  0213                     	;# 
   847  0213                     	;# 
   848  0214                     	;# 
   849  0214                     	;# 
   850  0215                     	;# 
   851  0215                     	;# 
   852  0215                     	;# 
   853  0216                     	;# 
   854  0216                     	;# 
   855  0217                     	;# 
   856  0217                     	;# 
   857  0219                     	;# 
   858  021A                     	;# 
   859  021B                     	;# 
   860  021C                     	;# 
   861  021D                     	;# 
   862  021E                     	;# 
   863  021F                     	;# 
   864  0291                     	;# 
   865  0291                     	;# 
   866  0292                     	;# 
   867  0293                     	;# 
   868  0294                     	;# 
   869  0295                     	;# 
   870  0295                     	;# 
   871  0296                     	;# 
   872  0298                     	;# 
   873  0298                     	;# 
   874  0299                     	;# 
   875  029A                     	;# 
   876  029B                     	;# 
   877  029C                     	;# 
   878  029C                     	;# 
   879  029D                     	;# 
   880  029E                     	;# 
   881  029E                     	;# 
   882  0311                     	;# 
   883  0311                     	;# 
   884  0312                     	;# 
   885  0313                     	;# 
   886  0318                     	;# 
   887  0318                     	;# 
   888  0319                     	;# 
   889  031A                     	;# 
   890  0394                     	;# 
   891  0395                     	;# 
   892  0396                     	;# 
   893  039A                     	;# 
   894  039C                     	;# 
   895  039D                     	;# 
   896  039E                     	;# 
   897  039F                     	;# 
   898  0415                     	;# 
   899  0416                     	;# 
   900  0417                     	;# 
   901  041C                     	;# 
   902  041D                     	;# 
   903  041E                     	;# 
   904  0FE4                     	;# 
   905  0FE5                     	;# 
   906  0FE6                     	;# 
   907  0FE7                     	;# 
   908  0FE8                     	;# 
   909  0FE9                     	;# 
   910  0FEA                     	;# 
   911  0FEB                     	;# 
   912  0FED                     	;# 
   913  0FEE                     	;# 
   914  0FEF                     	;# 
   915  0000                     	;# 
   916  0001                     	;# 
   917  0002                     	;# 
   918  0003                     	;# 
   919  0004                     	;# 
   920  0005                     	;# 
   921  0006                     	;# 
   922  0007                     	;# 
   923  0008                     	;# 
   924  0009                     	;# 
   925  000A                     	;# 
   926  000B                     	;# 
   927  000C                     	;# 
   928  000D                     	;# 
   929  0011                     	;# 
   930  0012                     	;# 
   931  0013                     	;# 
   932  0014                     	;# 
   933  0015                     	;# 
   934  0016                     	;# 
   935  0016                     	;# 
   936  0017                     	;# 
   937  0018                     	;# 
   938  0019                     	;# 
   939  001A                     	;# 
   940  001B                     	;# 
   941  001C                     	;# 
   942  001E                     	;# 
   943  001F                     	;# 
   944  008C                     	;# 
   945  008D                     	;# 
   946  0091                     	;# 
   947  0092                     	;# 
   948  0093                     	;# 
   949  0094                     	;# 
   950  0095                     	;# 
   951  0096                     	;# 
   952  0097                     	;# 
   953  0098                     	;# 
   954  0099                     	;# 
   955  009A                     	;# 
   956  009B                     	;# 
   957  009B                     	;# 
   958  009C                     	;# 
   959  009D                     	;# 
   960  009E                     	;# 
   961  010C                     	;# 
   962  010D                     	;# 
   963  0111                     	;# 
   964  0112                     	;# 
   965  0113                     	;# 
   966  0114                     	;# 
   967  0115                     	;# 
   968  0116                     	;# 
   969  0117                     	;# 
   970  0118                     	;# 
   971  0119                     	;# 
   972  011A                     	;# 
   973  011B                     	;# 
   974  011D                     	;# 
   975  011E                     	;# 
   976  018C                     	;# 
   977  018D                     	;# 
   978  0191                     	;# 
   979  0191                     	;# 
   980  0192                     	;# 
   981  0193                     	;# 
   982  0193                     	;# 
   983  0193                     	;# 
   984  0194                     	;# 
   985  0195                     	;# 
   986  0196                     	;# 
   987  0199                     	;# 
   988  019A                     	;# 
   989  019B                     	;# 
   990  019B                     	;# 
   991  019B                     	;# 
   992  019B                     	;# 
   993  019C                     	;# 
   994  019C                     	;# 
   995  019D                     	;# 
   996  019E                     	;# 
   997  019F                     	;# 
   998  020C                     	;# 
   999  020D                     	;# 
  1000  0211                     	;# 
  1001  0211                     	;# 
  1002  0212                     	;# 
  1003  0212                     	;# 
  1004  0213                     	;# 
  1005  0213                     	;# 
  1006  0214                     	;# 
  1007  0214                     	;# 
  1008  0215                     	;# 
  1009  0215                     	;# 
  1010  0215                     	;# 
  1011  0216                     	;# 
  1012  0216                     	;# 
  1013  0217                     	;# 
  1014  0217                     	;# 
  1015  0219                     	;# 
  1016  021A                     	;# 
  1017  021B                     	;# 
  1018  021C                     	;# 
  1019  021D                     	;# 
  1020  021E                     	;# 
  1021  021F                     	;# 
  1022  0291                     	;# 
  1023  0291                     	;# 
  1024  0292                     	;# 
  1025  0293                     	;# 
  1026  0294                     	;# 
  1027  0295                     	;# 
  1028  0295                     	;# 
  1029  0296                     	;# 
  1030  0298                     	;# 
  1031  0298                     	;# 
  1032  0299                     	;# 
  1033  029A                     	;# 
  1034  029B                     	;# 
  1035  029C                     	;# 
  1036  029C                     	;# 
  1037  029D                     	;# 
  1038  029E                     	;# 
  1039  029E                     	;# 
  1040  0311                     	;# 
  1041  0311                     	;# 
  1042  0312                     	;# 
  1043  0313                     	;# 
  1044  0318                     	;# 
  1045  0318                     	;# 
  1046  0319                     	;# 
  1047  031A                     	;# 
  1048  0394                     	;# 
  1049  0395                     	;# 
  1050  0396                     	;# 
  1051  039A                     	;# 
  1052  039C                     	;# 
  1053  039D                     	;# 
  1054  039E                     	;# 
  1055  039F                     	;# 
  1056  0415                     	;# 
  1057  0416                     	;# 
  1058  0417                     	;# 
  1059  041C                     	;# 
  1060  041D                     	;# 
  1061  041E                     	;# 
  1062  0FE4                     	;# 
  1063  0FE5                     	;# 
  1064  0FE6                     	;# 
  1065  0FE7                     	;# 
  1066  0FE8                     	;# 
  1067  0FE9                     	;# 
  1068  0FEA                     	;# 
  1069  0FEB                     	;# 
  1070  0FED                     	;# 
  1071  0FEE                     	;# 
  1072  0FEF                     	;# 
  1073  0000                     	;# 
  1074  0001                     	;# 
  1075  0002                     	;# 
  1076  0003                     	;# 
  1077  0004                     	;# 
  1078  0005                     	;# 
  1079  0006                     	;# 
  1080  0007                     	;# 
  1081  0008                     	;# 
  1082  0009                     	;# 
  1083  000A                     	;# 
  1084  000B                     	;# 
  1085  000C                     	;# 
  1086  000D                     	;# 
  1087  0011                     	;# 
  1088  0012                     	;# 
  1089  0013                     	;# 
  1090  0014                     	;# 
  1091  0015                     	;# 
  1092  0016                     	;# 
  1093  0016                     	;# 
  1094  0017                     	;# 
  1095  0018                     	;# 
  1096  0019                     	;# 
  1097  001A                     	;# 
  1098  001B                     	;# 
  1099  001C                     	;# 
  1100  001E                     	;# 
  1101  001F                     	;# 
  1102  008C                     	;# 
  1103  008D                     	;# 
  1104  0091                     	;# 
  1105  0092                     	;# 
  1106  0093                     	;# 
  1107  0094                     	;# 
  1108  0095                     	;# 
  1109  0096                     	;# 
  1110  0097                     	;# 
  1111  0098                     	;# 
  1112  0099                     	;# 
  1113  009A                     	;# 
  1114  009B                     	;# 
  1115  009B                     	;# 
  1116  009C                     	;# 
  1117  009D                     	;# 
  1118  009E                     	;# 
  1119  010C                     	;# 
  1120  010D                     	;# 
  1121  0111                     	;# 
  1122  0112                     	;# 
  1123  0113                     	;# 
  1124  0114                     	;# 
  1125  0115                     	;# 
  1126  0116                     	;# 
  1127  0117                     	;# 
  1128  0118                     	;# 
  1129  0119                     	;# 
  1130  011A                     	;# 
  1131  011B                     	;# 
  1132  011D                     	;# 
  1133  011E                     	;# 
  1134  018C                     	;# 
  1135  018D                     	;# 
  1136  0191                     	;# 
  1137  0191                     	;# 
  1138  0192                     	;# 
  1139  0193                     	;# 
  1140  0193                     	;# 
  1141  0193                     	;# 
  1142  0194                     	;# 
  1143  0195                     	;# 
  1144  0196                     	;# 
  1145  0199                     	;# 
  1146  019A                     	;# 
  1147  019B                     	;# 
  1148  019B                     	;# 
  1149  019B                     	;# 
  1150  019B                     	;# 
  1151  019C                     	;# 
  1152  019C                     	;# 
  1153  019D                     	;# 
  1154  019E                     	;# 
  1155  019F                     	;# 
  1156  020C                     	;# 
  1157  020D                     	;# 
  1158  0211                     	;# 
  1159  0211                     	;# 
  1160  0212                     	;# 
  1161  0212                     	;# 
  1162  0213                     	;# 
  1163  0213                     	;# 
  1164  0214                     	;# 
  1165  0214                     	;# 
  1166  0215                     	;# 
  1167  0215                     	;# 
  1168  0215                     	;# 
  1169  0216                     	;# 
  1170  0216                     	;# 
  1171  0217                     	;# 
  1172  0217                     	;# 
  1173  0219                     	;# 
  1174  021A                     	;# 
  1175  021B                     	;# 
  1176  021C                     	;# 
  1177  021D                     	;# 
  1178  021E                     	;# 
  1179  021F                     	;# 
  1180  0291                     	;# 
  1181  0291                     	;# 
  1182  0292                     	;# 
  1183  0293                     	;# 
  1184  0294                     	;# 
  1185  0295                     	;# 
  1186  0295                     	;# 
  1187  0296                     	;# 
  1188  0298                     	;# 
  1189  0298                     	;# 
  1190  0299                     	;# 
  1191  029A                     	;# 
  1192  029B                     	;# 
  1193  029C                     	;# 
  1194  029C                     	;# 
  1195  029D                     	;# 
  1196  029E                     	;# 
  1197  029E                     	;# 
  1198  0311                     	;# 
  1199  0311                     	;# 
  1200  0312                     	;# 
  1201  0313                     	;# 
  1202  0318                     	;# 
  1203  0318                     	;# 
  1204  0319                     	;# 
  1205  031A                     	;# 
  1206  0394                     	;# 
  1207  0395                     	;# 
  1208  0396                     	;# 
  1209  039A                     	;# 
  1210  039C                     	;# 
  1211  039D                     	;# 
  1212  039E                     	;# 
  1213  039F                     	;# 
  1214  0415                     	;# 
  1215  0416                     	;# 
  1216  0417                     	;# 
  1217  041C                     	;# 
  1218  041D                     	;# 
  1219  041E                     	;# 
  1220  0FE4                     	;# 
  1221  0FE5                     	;# 
  1222  0FE6                     	;# 
  1223  0FE7                     	;# 
  1224  0FE8                     	;# 
  1225  0FE9                     	;# 
  1226  0FEA                     	;# 
  1227  0FEB                     	;# 
  1228  0FED                     	;# 
  1229  0FEE                     	;# 
  1230  0FEF                     	;# 
  1231  0000                     	;# 
  1232  0001                     	;# 
  1233  0002                     	;# 
  1234  0003                     	;# 
  1235  0004                     	;# 
  1236  0005                     	;# 
  1237  0006                     	;# 
  1238  0007                     	;# 
  1239  0008                     	;# 
  1240  0009                     	;# 
  1241  000A                     	;# 
  1242  000B                     	;# 
  1243  000C                     	;# 
  1244  000D                     	;# 
  1245  0011                     	;# 
  1246  0012                     	;# 
  1247  0013                     	;# 
  1248  0014                     	;# 
  1249  0015                     	;# 
  1250  0016                     	;# 
  1251  0016                     	;# 
  1252  0017                     	;# 
  1253  0018                     	;# 
  1254  0019                     	;# 
  1255  001A                     	;# 
  1256  001B                     	;# 
  1257  001C                     	;# 
  1258  001E                     	;# 
  1259  001F                     	;# 
  1260  008C                     	;# 
  1261  008D                     	;# 
  1262  0091                     	;# 
  1263  0092                     	;# 
  1264  0093                     	;# 
  1265  0094                     	;# 
  1266  0095                     	;# 
  1267  0096                     	;# 
  1268  0097                     	;# 
  1269  0098                     	;# 
  1270  0099                     	;# 
  1271  009A                     	;# 
  1272  009B                     	;# 
  1273  009B                     	;# 
  1274  009C                     	;# 
  1275  009D                     	;# 
  1276  009E                     	;# 
  1277  010C                     	;# 
  1278  010D                     	;# 
  1279  0111                     	;# 
  1280  0112                     	;# 
  1281  0113                     	;# 
  1282  0114                     	;# 
  1283  0115                     	;# 
  1284  0116                     	;# 
  1285  0117                     	;# 
  1286  0118                     	;# 
  1287  0119                     	;# 
  1288  011A                     	;# 
  1289  011B                     	;# 
  1290  011D                     	;# 
  1291  011E                     	;# 
  1292  018C                     	;# 
  1293  018D                     	;# 
  1294  0191                     	;# 
  1295  0191                     	;# 
  1296  0192                     	;# 
  1297  0193                     	;# 
  1298  0193                     	;# 
  1299  0193                     	;# 
  1300  0194                     	;# 
  1301  0195                     	;# 
  1302  0196                     	;# 
  1303  0199                     	;# 
  1304  019A                     	;# 
  1305  019B                     	;# 
  1306  019B                     	;# 
  1307  019B                     	;# 
  1308  019B                     	;# 
  1309  019C                     	;# 
  1310  019C                     	;# 
  1311  019D                     	;# 
  1312  019E                     	;# 
  1313  019F                     	;# 
  1314  020C                     	;# 
  1315  020D                     	;# 
  1316  0211                     	;# 
  1317  0211                     	;# 
  1318  0212                     	;# 
  1319  0212                     	;# 
  1320  0213                     	;# 
  1321  0213                     	;# 
  1322  0214                     	;# 
  1323  0214                     	;# 
  1324  0215                     	;# 
  1325  0215                     	;# 
  1326  0215                     	;# 
  1327  0216                     	;# 
  1328  0216                     	;# 
  1329  0217                     	;# 
  1330  0217                     	;# 
  1331  0219                     	;# 
  1332  021A                     	;# 
  1333  021B                     	;# 
  1334  021C                     	;# 
  1335  021D                     	;# 
  1336  021E                     	;# 
  1337  021F                     	;# 
  1338  0291                     	;# 
  1339  0291                     	;# 
  1340  0292                     	;# 
  1341  0293                     	;# 
  1342  0294                     	;# 
  1343  0295                     	;# 
  1344  0295                     	;# 
  1345  0296                     	;# 
  1346  0298                     	;# 
  1347  0298                     	;# 
  1348  0299                     	;# 
  1349  029A                     	;# 
  1350  029B                     	;# 
  1351  029C                     	;# 
  1352  029C                     	;# 
  1353  029D                     	;# 
  1354  029E                     	;# 
  1355  029E                     	;# 
  1356  0311                     	;# 
  1357  0311                     	;# 
  1358  0312                     	;# 
  1359  0313                     	;# 
  1360  0318                     	;# 
  1361  0318                     	;# 
  1362  0319                     	;# 
  1363  031A                     	;# 
  1364  0394                     	;# 
  1365  0395                     	;# 
  1366  0396                     	;# 
  1367  039A                     	;# 
  1368  039C                     	;# 
  1369  039D                     	;# 
  1370  039E                     	;# 
  1371  039F                     	;# 
  1372  0415                     	;# 
  1373  0416                     	;# 
  1374  0417                     	;# 
  1375  041C                     	;# 
  1376  041D                     	;# 
  1377  041E                     	;# 
  1378  0FE4                     	;# 
  1379  0FE5                     	;# 
  1380  0FE6                     	;# 
  1381  0FE7                     	;# 
  1382  0FE8                     	;# 
  1383  0FE9                     	;# 
  1384  0FEA                     	;# 
  1385  0FEB                     	;# 
  1386  0FED                     	;# 
  1387  0FEE                     	;# 
  1388  0FEF                     	;# 
  1389  0000                     	;# 
  1390  0001                     	;# 
  1391  0002                     	;# 
  1392  0003                     	;# 
  1393  0004                     	;# 
  1394  0005                     	;# 
  1395  0006                     	;# 
  1396  0007                     	;# 
  1397  0008                     	;# 
  1398  0009                     	;# 
  1399  000A                     	;# 
  1400  000B                     	;# 
  1401  000C                     	;# 
  1402  000D                     	;# 
  1403  0011                     	;# 
  1404  0012                     	;# 
  1405  0013                     	;# 
  1406  0014                     	;# 
  1407  0015                     	;# 
  1408  0016                     	;# 
  1409  0016                     	;# 
  1410  0017                     	;# 
  1411  0018                     	;# 
  1412  0019                     	;# 
  1413  001A                     	;# 
  1414  001B                     	;# 
  1415  001C                     	;# 
  1416  001E                     	;# 
  1417  001F                     	;# 
  1418  008C                     	;# 
  1419  008D                     	;# 
  1420  0091                     	;# 
  1421  0092                     	;# 
  1422  0093                     	;# 
  1423  0094                     	;# 
  1424  0095                     	;# 
  1425  0096                     	;# 
  1426  0097                     	;# 
  1427  0098                     	;# 
  1428  0099                     	;# 
  1429  009A                     	;# 
  1430  009B                     	;# 
  1431  009B                     	;# 
  1432  009C                     	;# 
  1433  009D                     	;# 
  1434  009E                     	;# 
  1435  010C                     	;# 
  1436  010D                     	;# 
  1437  0111                     	;# 
  1438  0112                     	;# 
  1439  0113                     	;# 
  1440  0114                     	;# 
  1441  0115                     	;# 
  1442  0116                     	;# 
  1443  0117                     	;# 
  1444  0118                     	;# 
  1445  0119                     	;# 
  1446  011A                     	;# 
  1447  011B                     	;# 
  1448  011D                     	;# 
  1449  011E                     	;# 
  1450  018C                     	;# 
  1451  018D                     	;# 
  1452  0191                     	;# 
  1453  0191                     	;# 
  1454  0192                     	;# 
  1455  0193                     	;# 
  1456  0193                     	;# 
  1457  0193                     	;# 
  1458  0194                     	;# 
  1459  0195                     	;# 
  1460  0196                     	;# 
  1461  0199                     	;# 
  1462  019A                     	;# 
  1463  019B                     	;# 
  1464  019B                     	;# 
  1465  019B                     	;# 
  1466  019B                     	;# 
  1467  019C                     	;# 
  1468  019C                     	;# 
  1469  019D                     	;# 
  1470  019E                     	;# 
  1471  019F                     	;# 
  1472  020C                     	;# 
  1473  020D                     	;# 
  1474  0211                     	;# 
  1475  0211                     	;# 
  1476  0212                     	;# 
  1477  0212                     	;# 
  1478  0213                     	;# 
  1479  0213                     	;# 
  1480  0214                     	;# 
  1481  0214                     	;# 
  1482  0215                     	;# 
  1483  0215                     	;# 
  1484  0215                     	;# 
  1485  0216                     	;# 
  1486  0216                     	;# 
  1487  0217                     	;# 
  1488  0217                     	;# 
  1489  0219                     	;# 
  1490  021A                     	;# 
  1491  021B                     	;# 
  1492  021C                     	;# 
  1493  021D                     	;# 
  1494  021E                     	;# 
  1495  021F                     	;# 
  1496  0291                     	;# 
  1497  0291                     	;# 
  1498  0292                     	;# 
  1499  0293                     	;# 
  1500  0294                     	;# 
  1501  0295                     	;# 
  1502  0295                     	;# 
  1503  0296                     	;# 
  1504  0298                     	;# 
  1505  0298                     	;# 
  1506  0299                     	;# 
  1507  029A                     	;# 
  1508  029B                     	;# 
  1509  029C                     	;# 
  1510  029C                     	;# 
  1511  029D                     	;# 
  1512  029E                     	;# 
  1513  029E                     	;# 
  1514  0311                     	;# 
  1515  0311                     	;# 
  1516  0312                     	;# 
  1517  0313                     	;# 
  1518  0318                     	;# 
  1519  0318                     	;# 
  1520  0319                     	;# 
  1521  031A                     	;# 
  1522  0394                     	;# 
  1523  0395                     	;# 
  1524  0396                     	;# 
  1525  039A                     	;# 
  1526  039C                     	;# 
  1527  039D                     	;# 
  1528  039E                     	;# 
  1529  039F                     	;# 
  1530  0415                     	;# 
  1531  0416                     	;# 
  1532  0417                     	;# 
  1533  041C                     	;# 
  1534  041D                     	;# 
  1535  041E                     	;# 
  1536  0FE4                     	;# 
  1537  0FE5                     	;# 
  1538  0FE6                     	;# 
  1539  0FE7                     	;# 
  1540  0FE8                     	;# 
  1541  0FE9                     	;# 
  1542  0FEA                     	;# 
  1543  0FEB                     	;# 
  1544  0FED                     	;# 
  1545  0FEE                     	;# 
  1546  0FEF                     	;# 
  1547  0000                     	;# 
  1548  0001                     	;# 
  1549  0002                     	;# 
  1550  0003                     	;# 
  1551  0004                     	;# 
  1552  0005                     	;# 
  1553  0006                     	;# 
  1554  0007                     	;# 
  1555  0008                     	;# 
  1556  0009                     	;# 
  1557  000A                     	;# 
  1558  000B                     	;# 
  1559  000C                     	;# 
  1560  000D                     	;# 
  1561  0011                     	;# 
  1562  0012                     	;# 
  1563  0013                     	;# 
  1564  0014                     	;# 
  1565  0015                     	;# 
  1566  0016                     	;# 
  1567  0016                     	;# 
  1568  0017                     	;# 
  1569  0018                     	;# 
  1570  0019                     	;# 
  1571  001A                     	;# 
  1572  001B                     	;# 
  1573  001C                     	;# 
  1574  001E                     	;# 
  1575  001F                     	;# 
  1576  008C                     	;# 
  1577  008D                     	;# 
  1578  0091                     	;# 
  1579  0092                     	;# 
  1580  0093                     	;# 
  1581  0094                     	;# 
  1582  0095                     	;# 
  1583  0096                     	;# 
  1584  0097                     	;# 
  1585  0098                     	;# 
  1586  0099                     	;# 
  1587  009A                     	;# 
  1588  009B                     	;# 
  1589  009B                     	;# 
  1590  009C                     	;# 
  1591  009D                     	;# 
  1592  009E                     	;# 
  1593  010C                     	;# 
  1594  010D                     	;# 
  1595  0111                     	;# 
  1596  0112                     	;# 
  1597  0113                     	;# 
  1598  0114                     	;# 
  1599  0115                     	;# 
  1600  0116                     	;# 
  1601  0117                     	;# 
  1602  0118                     	;# 
  1603  0119                     	;# 
  1604  011A                     	;# 
  1605  011B                     	;# 
  1606  011D                     	;# 
  1607  011E                     	;# 
  1608  018C                     	;# 
  1609  018D                     	;# 
  1610  0191                     	;# 
  1611  0191                     	;# 
  1612  0192                     	;# 
  1613  0193                     	;# 
  1614  0193                     	;# 
  1615  0193                     	;# 
  1616  0194                     	;# 
  1617  0195                     	;# 
  1618  0196                     	;# 
  1619  0199                     	;# 
  1620  019A                     	;# 
  1621  019B                     	;# 
  1622  019B                     	;# 
  1623  019B                     	;# 
  1624  019B                     	;# 
  1625  019C                     	;# 
  1626  019C                     	;# 
  1627  019D                     	;# 
  1628  019E                     	;# 
  1629  019F                     	;# 
  1630  020C                     	;# 
  1631  020D                     	;# 
  1632  0211                     	;# 
  1633  0211                     	;# 
  1634  0212                     	;# 
  1635  0212                     	;# 
  1636  0213                     	;# 
  1637  0213                     	;# 
  1638  0214                     	;# 
  1639  0214                     	;# 
  1640  0215                     	;# 
  1641  0215                     	;# 
  1642  0215                     	;# 
  1643  0216                     	;# 
  1644  0216                     	;# 
  1645  0217                     	;# 
  1646  0217                     	;# 
  1647  0219                     	;# 
  1648  021A                     	;# 
  1649  021B                     	;# 
  1650  021C                     	;# 
  1651  021D                     	;# 
  1652  021E                     	;# 
  1653  021F                     	;# 
  1654  0291                     	;# 
  1655  0291                     	;# 
  1656  0292                     	;# 
  1657  0293                     	;# 
  1658  0294                     	;# 
  1659  0295                     	;# 
  1660  0295                     	;# 
  1661  0296                     	;# 
  1662  0298                     	;# 
  1663  0298                     	;# 
  1664  0299                     	;# 
  1665  029A                     	;# 
  1666  029B                     	;# 
  1667  029C                     	;# 
  1668  029C                     	;# 
  1669  029D                     	;# 
  1670  029E                     	;# 
  1671  029E                     	;# 
  1672  0311                     	;# 
  1673  0311                     	;# 
  1674  0312                     	;# 
  1675  0313                     	;# 
  1676  0318                     	;# 
  1677  0318                     	;# 
  1678  0319                     	;# 
  1679  031A                     	;# 
  1680  0394                     	;# 
  1681  0395                     	;# 
  1682  0396                     	;# 
  1683  039A                     	;# 
  1684  039C                     	;# 
  1685  039D                     	;# 
  1686  039E                     	;# 
  1687  039F                     	;# 
  1688  0415                     	;# 
  1689  0416                     	;# 
  1690  0417                     	;# 
  1691  041C                     	;# 
  1692  041D                     	;# 
  1693  041E                     	;# 
  1694  0FE4                     	;# 
  1695  0FE5                     	;# 
  1696  0FE6                     	;# 
  1697  0FE7                     	;# 
  1698  0FE8                     	;# 
  1699  0FE9                     	;# 
  1700  0FEA                     	;# 
  1701  0FEB                     	;# 
  1702  0FED                     	;# 
  1703  0FEE                     	;# 
  1704  0FEF                     	;# 
  1705  0000                     	;# 
  1706  0001                     	;# 
  1707  0002                     	;# 
  1708  0003                     	;# 
  1709  0004                     	;# 
  1710  0005                     	;# 
  1711  0006                     	;# 
  1712  0007                     	;# 
  1713  0008                     	;# 
  1714  0009                     	;# 
  1715  000A                     	;# 
  1716  000B                     	;# 
  1717  000C                     	;# 
  1718  000D                     	;# 
  1719  0011                     	;# 
  1720  0012                     	;# 
  1721  0013                     	;# 
  1722  0014                     	;# 
  1723  0015                     	;# 
  1724  0016                     	;# 
  1725  0016                     	;# 
  1726  0017                     	;# 
  1727  0018                     	;# 
  1728  0019                     	;# 
  1729  001A                     	;# 
  1730  001B                     	;# 
  1731  001C                     	;# 
  1732  001E                     	;# 
  1733  001F                     	;# 
  1734  008C                     	;# 
  1735  008D                     	;# 
  1736  0091                     	;# 
  1737  0092                     	;# 
  1738  0093                     	;# 
  1739  0094                     	;# 
  1740  0095                     	;# 
  1741  0096                     	;# 
  1742  0097                     	;# 
  1743  0098                     	;# 
  1744  0099                     	;# 
  1745  009A                     	;# 
  1746  009B                     	;# 
  1747  009B                     	;# 
  1748  009C                     	;# 
  1749  009D                     	;# 
  1750  009E                     	;# 
  1751  010C                     	;# 
  1752  010D                     	;# 
  1753  0111                     	;# 
  1754  0112                     	;# 
  1755  0113                     	;# 
  1756  0114                     	;# 
  1757  0115                     	;# 
  1758  0116                     	;# 
  1759  0117                     	;# 
  1760  0118                     	;# 
  1761  0119                     	;# 
  1762  011A                     	;# 
  1763  011B                     	;# 
  1764  011D                     	;# 
  1765  011E                     	;# 
  1766  018C                     	;# 
  1767  018D                     	;# 
  1768  0191                     	;# 
  1769  0191                     	;# 
  1770  0192                     	;# 
  1771  0193                     	;# 
  1772  0193                     	;# 
  1773  0193                     	;# 
  1774  0194                     	;# 
  1775  0195                     	;# 
  1776  0196                     	;# 
  1777  0199                     	;# 
  1778  019A                     	;# 
  1779  019B                     	;# 
  1780  019B                     	;# 
  1781  019B                     	;# 
  1782  019B                     	;# 
  1783  019C                     	;# 
  1784  019C                     	;# 
  1785  019D                     	;# 
  1786  019E                     	;# 
  1787  019F                     	;# 
  1788  020C                     	;# 
  1789  020D                     	;# 
  1790  0211                     	;# 
  1791  0211                     	;# 
  1792  0212                     	;# 
  1793  0212                     	;# 
  1794  0213                     	;# 
  1795  0213                     	;# 
  1796  0214                     	;# 
  1797  0214                     	;# 
  1798  0215                     	;# 
  1799  0215                     	;# 
  1800  0215                     	;# 
  1801  0216                     	;# 
  1802  0216                     	;# 
  1803  0217                     	;# 
  1804  0217                     	;# 
  1805  0219                     	;# 
  1806  021A                     	;# 
  1807  021B                     	;# 
  1808  021C                     	;# 
  1809  021D                     	;# 
  1810  021E                     	;# 
  1811  021F                     	;# 
  1812  0291                     	;# 
  1813  0291                     	;# 
  1814  0292                     	;# 
  1815  0293                     	;# 
  1816  0294                     	;# 
  1817  0295                     	;# 
  1818  0295                     	;# 
  1819  0296                     	;# 
  1820  0298                     	;# 
  1821  0298                     	;# 
  1822  0299                     	;# 
  1823  029A                     	;# 
  1824  029B                     	;# 
  1825  029C                     	;# 
  1826  029C                     	;# 
  1827  029D                     	;# 
  1828  029E                     	;# 
  1829  029E                     	;# 
  1830  0311                     	;# 
  1831  0311                     	;# 
  1832  0312                     	;# 
  1833  0313                     	;# 
  1834  0318                     	;# 
  1835  0318                     	;# 
  1836  0319                     	;# 
  1837  031A                     	;# 
  1838  0394                     	;# 
  1839  0395                     	;# 
  1840  0396                     	;# 
  1841  039A                     	;# 
  1842  039C                     	;# 
  1843  039D                     	;# 
  1844  039E                     	;# 
  1845  039F                     	;# 
  1846  0415                     	;# 
  1847  0416                     	;# 
  1848  0417                     	;# 
  1849  041C                     	;# 
  1850  041D                     	;# 
  1851  041E                     	;# 
  1852  0FE4                     	;# 
  1853  0FE5                     	;# 
  1854  0FE6                     	;# 
  1855  0FE7                     	;# 
  1856  0FE8                     	;# 
  1857  0FE9                     	;# 
  1858  0FEA                     	;# 
  1859  0FEB                     	;# 
  1860  0FED                     	;# 
  1861  0FEE                     	;# 
  1862  0FEF                     	;# 
  1863  0000                     	;# 
  1864  0001                     	;# 
  1865  0002                     	;# 
  1866  0003                     	;# 
  1867  0004                     	;# 
  1868  0005                     	;# 
  1869  0006                     	;# 
  1870  0007                     	;# 
  1871  0008                     	;# 
  1872  0009                     	;# 
  1873  000A                     	;# 
  1874  000B                     	;# 
  1875  000C                     	;# 
  1876  000D                     	;# 
  1877  0011                     	;# 
  1878  0012                     	;# 
  1879  0013                     	;# 
  1880  0014                     	;# 
  1881  0015                     	;# 
  1882  0016                     	;# 
  1883  0016                     	;# 
  1884  0017                     	;# 
  1885  0018                     	;# 
  1886  0019                     	;# 
  1887  001A                     	;# 
  1888  001B                     	;# 
  1889  001C                     	;# 
  1890  001E                     	;# 
  1891  001F                     	;# 
  1892  008C                     	;# 
  1893  008D                     	;# 
  1894  0091                     	;# 
  1895  0092                     	;# 
  1896  0093                     	;# 
  1897  0094                     	;# 
  1898  0095                     	;# 
  1899  0096                     	;# 
  1900  0097                     	;# 
  1901  0098                     	;# 
  1902  0099                     	;# 
  1903  009A                     	;# 
  1904  009B                     	;# 
  1905  009B                     	;# 
  1906  009C                     	;# 
  1907  009D                     	;# 
  1908  009E                     	;# 
  1909  010C                     	;# 
  1910  010D                     	;# 
  1911  0111                     	;# 
  1912  0112                     	;# 
  1913  0113                     	;# 
  1914  0114                     	;# 
  1915  0115                     	;# 
  1916  0116                     	;# 
  1917  0117                     	;# 
  1918  0118                     	;# 
  1919  0119                     	;# 
  1920  011A                     	;# 
  1921  011B                     	;# 
  1922  011D                     	;# 
  1923  011E                     	;# 
  1924  018C                     	;# 
  1925  018D                     	;# 
  1926  0191                     	;# 
  1927  0191                     	;# 
  1928  0192                     	;# 
  1929  0193                     	;# 
  1930  0193                     	;# 
  1931  0193                     	;# 
  1932  0194                     	;# 
  1933  0195                     	;# 
  1934  0196                     	;# 
  1935  0199                     	;# 
  1936  019A                     	;# 
  1937  019B                     	;# 
  1938  019B                     	;# 
  1939  019B                     	;# 
  1940  019B                     	;# 
  1941  019C                     	;# 
  1942  019C                     	;# 
  1943  019D                     	;# 
  1944  019E                     	;# 
  1945  019F                     	;# 
  1946  020C                     	;# 
  1947  020D                     	;# 
  1948  0211                     	;# 
  1949  0211                     	;# 
  1950  0212                     	;# 
  1951  0212                     	;# 
  1952  0213                     	;# 
  1953  0213                     	;# 
  1954  0214                     	;# 
  1955  0214                     	;# 
  1956  0215                     	;# 
  1957  0215                     	;# 
  1958  0215                     	;# 
  1959  0216                     	;# 
  1960  0216                     	;# 
  1961  0217                     	;# 
  1962  0217                     	;# 
  1963  0219                     	;# 
  1964  021A                     	;# 
  1965  021B                     	;# 
  1966  021C                     	;# 
  1967  021D                     	;# 
  1968  021E                     	;# 
  1969  021F                     	;# 
  1970  0291                     	;# 
  1971  0291                     	;# 
  1972  0292                     	;# 
  1973  0293                     	;# 
  1974  0294                     	;# 
  1975  0295                     	;# 
  1976  0295                     	;# 
  1977  0296                     	;# 
  1978  0298                     	;# 
  1979  0298                     	;# 
  1980  0299                     	;# 
  1981  029A                     	;# 
  1982  029B                     	;# 
  1983  029C                     	;# 
  1984  029C                     	;# 
  1985  029D                     	;# 
  1986  029E                     	;# 
  1987  029E                     	;# 
  1988  0311                     	;# 
  1989  0311                     	;# 
  1990  0312                     	;# 
  1991  0313                     	;# 
  1992  0318                     	;# 
  1993  0318                     	;# 
  1994  0319                     	;# 
  1995  031A                     	;# 
  1996  0394                     	;# 
  1997  0395                     	;# 
  1998  0396                     	;# 
  1999  039A                     	;# 
  2000  039C                     	;# 
  2001  039D                     	;# 
  2002  039E                     	;# 
  2003  039F                     	;# 
  2004  0415                     	;# 
  2005  0416                     	;# 
  2006  0417                     	;# 
  2007  041C                     	;# 
  2008  041D                     	;# 
  2009  041E                     	;# 
  2010  0FE4                     	;# 
  2011  0FE5                     	;# 
  2012  0FE6                     	;# 
  2013  0FE7                     	;# 
  2014  0FE8                     	;# 
  2015  0FE9                     	;# 
  2016  0FEA                     	;# 
  2017  0FEB                     	;# 
  2018  0FED                     	;# 
  2019  0FEE                     	;# 
  2020  0FEF                     	;# 
  2021  0000                     	;# 
  2022  0001                     	;# 
  2023  0002                     	;# 
  2024  0003                     	;# 
  2025  0004                     	;# 
  2026  0005                     	;# 
  2027  0006                     	;# 
  2028  0007                     	;# 
  2029  0008                     	;# 
  2030  0009                     	;# 
  2031  000A                     	;# 
  2032  000B                     	;# 
  2033  000C                     	;# 
  2034  000D                     	;# 
  2035  0011                     	;# 
  2036  0012                     	;# 
  2037  0013                     	;# 
  2038  0014                     	;# 
  2039  0015                     	;# 
  2040  0016                     	;# 
  2041  0016                     	;# 
  2042  0017                     	;# 
  2043  0018                     	;# 
  2044  0019                     	;# 
  2045  001A                     	;# 
  2046  001B                     	;# 
  2047  001C                     	;# 
  2048  001E                     	;# 
  2049  001F                     	;# 
  2050  008C                     	;# 
  2051  008D                     	;# 
  2052  0091                     	;# 
  2053  0092                     	;# 
  2054  0093                     	;# 
  2055  0094                     	;# 
  2056  0095                     	;# 
  2057  0096                     	;# 
  2058  0097                     	;# 
  2059  0098                     	;# 
  2060  0099                     	;# 
  2061  009A                     	;# 
  2062  009B                     	;# 
  2063  009B                     	;# 
  2064  009C                     	;# 
  2065  009D                     	;# 
  2066  009E                     	;# 
  2067  010C                     	;# 
  2068  010D                     	;# 
  2069  0111                     	;# 
  2070  0112                     	;# 
  2071  0113                     	;# 
  2072  0114                     	;# 
  2073  0115                     	;# 
  2074  0116                     	;# 
  2075  0117                     	;# 
  2076  0118                     	;# 
  2077  0119                     	;# 
  2078  011A                     	;# 
  2079  011B                     	;# 
  2080  011D                     	;# 
  2081  011E                     	;# 
  2082  018C                     	;# 
  2083  018D                     	;# 
  2084  0191                     	;# 
  2085  0191                     	;# 
  2086  0192                     	;# 
  2087  0193                     	;# 
  2088  0193                     	;# 
  2089  0193                     	;# 
  2090  0194                     	;# 
  2091  0195                     	;# 
  2092  0196                     	;# 
  2093  0199                     	;# 
  2094  019A                     	;# 
  2095  019B                     	;# 
  2096  019B                     	;# 
  2097  019B                     	;# 
  2098  019B                     	;# 
  2099  019C                     	;# 
  2100  019C                     	;# 
  2101  019D                     	;# 
  2102  019E                     	;# 
  2103  019F                     	;# 
  2104  020C                     	;# 
  2105  020D                     	;# 
  2106  0211                     	;# 
  2107  0211                     	;# 
  2108  0212                     	;# 
  2109  0212                     	;# 
  2110  0213                     	;# 
  2111  0213                     	;# 
  2112  0214                     	;# 
  2113  0214                     	;# 
  2114  0215                     	;# 
  2115  0215                     	;# 
  2116  0215                     	;# 
  2117  0216                     	;# 
  2118  0216                     	;# 
  2119  0217                     	;# 
  2120  0217                     	;# 
  2121  0219                     	;# 
  2122  021A                     	;# 
  2123  021B                     	;# 
  2124  021C                     	;# 
  2125  021D                     	;# 
  2126  021E                     	;# 
  2127  021F                     	;# 
  2128  0291                     	;# 
  2129  0291                     	;# 
  2130  0292                     	;# 
  2131  0293                     	;# 
  2132  0294                     	;# 
  2133  0295                     	;# 
  2134  0295                     	;# 
  2135  0296                     	;# 
  2136  0298                     	;# 
  2137  0298                     	;# 
  2138  0299                     	;# 
  2139  029A                     	;# 
  2140  029B                     	;# 
  2141  029C                     	;# 
  2142  029C                     	;# 
  2143  029D                     	;# 
  2144  029E                     	;# 
  2145  029E                     	;# 
  2146  0311                     	;# 
  2147  0311                     	;# 
  2148  0312                     	;# 
  2149  0313                     	;# 
  2150  0318                     	;# 
  2151  0318                     	;# 
  2152  0319                     	;# 
  2153  031A                     	;# 
  2154  0394                     	;# 
  2155  0395                     	;# 
  2156  0396                     	;# 
  2157  039A                     	;# 
  2158  039C                     	;# 
  2159  039D                     	;# 
  2160  039E                     	;# 
  2161  039F                     	;# 
  2162  0415                     	;# 
  2163  0416                     	;# 
  2164  0417                     	;# 
  2165  041C                     	;# 
  2166  041D                     	;# 
  2167  041E                     	;# 
  2168  0FE4                     	;# 
  2169  0FE5                     	;# 
  2170  0FE6                     	;# 
  2171  0FE7                     	;# 
  2172  0FE8                     	;# 
  2173  0FE9                     	;# 
  2174  0FEA                     	;# 
  2175  0FEB                     	;# 
  2176  0FED                     	;# 
  2177  0FEE                     	;# 
  2178  0FEF                     	;# 
  2179  0000                     	;# 
  2180  0001                     	;# 
  2181  0002                     	;# 
  2182  0003                     	;# 
  2183  0004                     	;# 
  2184  0005                     	;# 
  2185  0006                     	;# 
  2186  0007                     	;# 
  2187  0008                     	;# 
  2188  0009                     	;# 
  2189  000A                     	;# 
  2190  000B                     	;# 
  2191  000C                     	;# 
  2192  000D                     	;# 
  2193  0011                     	;# 
  2194  0012                     	;# 
  2195  0013                     	;# 
  2196  0014                     	;# 
  2197  0015                     	;# 
  2198  0016                     	;# 
  2199  0016                     	;# 
  2200  0017                     	;# 
  2201  0018                     	;# 
  2202  0019                     	;# 
  2203  001A                     	;# 
  2204  001B                     	;# 
  2205  001C                     	;# 
  2206  001E                     	;# 
  2207  001F                     	;# 
  2208  008C                     	;# 
  2209  008D                     	;# 
  2210  0091                     	;# 
  2211  0092                     	;# 
  2212  0093                     	;# 
  2213  0094                     	;# 
  2214  0095                     	;# 
  2215  0096                     	;# 
  2216  0097                     	;# 
  2217  0098                     	;# 
  2218  0099                     	;# 
  2219  009A                     	;# 
  2220  009B                     	;# 
  2221  009B                     	;# 
  2222  009C                     	;# 
  2223  009D                     	;# 
  2224  009E                     	;# 
  2225  010C                     	;# 
  2226  010D                     	;# 
  2227  0111                     	;# 
  2228  0112                     	;# 
  2229  0113                     	;# 
  2230  0114                     	;# 
  2231  0115                     	;# 
  2232  0116                     	;# 
  2233  0117                     	;# 
  2234  0118                     	;# 
  2235  0119                     	;# 
  2236  011A                     	;# 
  2237  011B                     	;# 
  2238  011D                     	;# 
  2239  011E                     	;# 
  2240  018C                     	;# 
  2241  018D                     	;# 
  2242  0191                     	;# 
  2243  0191                     	;# 
  2244  0192                     	;# 
  2245  0193                     	;# 
  2246  0193                     	;# 
  2247  0193                     	;# 
  2248  0194                     	;# 
  2249  0195                     	;# 
  2250  0196                     	;# 
  2251  0199                     	;# 
  2252  019A                     	;# 
  2253  019B                     	;# 
  2254  019B                     	;# 
  2255  019B                     	;# 
  2256  019B                     	;# 
  2257  019C                     	;# 
  2258  019C                     	;# 
  2259  019D                     	;# 
  2260  019E                     	;# 
  2261  019F                     	;# 
  2262  020C                     	;# 
  2263  020D                     	;# 
  2264  0211                     	;# 
  2265  0211                     	;# 
  2266  0212                     	;# 
  2267  0212                     	;# 
  2268  0213                     	;# 
  2269  0213                     	;# 
  2270  0214                     	;# 
  2271  0214                     	;# 
  2272  0215                     	;# 
  2273  0215                     	;# 
  2274  0215                     	;# 
  2275  0216                     	;# 
  2276  0216                     	;# 
  2277  0217                     	;# 
  2278  0217                     	;# 
  2279  0219                     	;# 
  2280  021A                     	;# 
  2281  021B                     	;# 
  2282  021C                     	;# 
  2283  021D                     	;# 
  2284  021E                     	;# 
  2285  021F                     	;# 
  2286  0291                     	;# 
  2287  0291                     	;# 
  2288  0292                     	;# 
  2289  0293                     	;# 
  2290  0294                     	;# 
  2291  0295                     	;# 
  2292  0295                     	;# 
  2293  0296                     	;# 
  2294  0298                     	;# 
  2295  0298                     	;# 
  2296  0299                     	;# 
  2297  029A                     	;# 
  2298  029B                     	;# 
  2299  029C                     	;# 
  2300  029C                     	;# 
  2301  029D                     	;# 
  2302  029E                     	;# 
  2303  029E                     	;# 
  2304  0311                     	;# 
  2305  0311                     	;# 
  2306  0312                     	;# 
  2307  0313                     	;# 
  2308  0318                     	;# 
  2309  0318                     	;# 
  2310  0319                     	;# 
  2311  031A                     	;# 
  2312  0394                     	;# 
  2313  0395                     	;# 
  2314  0396                     	;# 
  2315  039A                     	;# 
  2316  039C                     	;# 
  2317  039D                     	;# 
  2318  039E                     	;# 
  2319  039F                     	;# 
  2320  0415                     	;# 
  2321  0416                     	;# 
  2322  0417                     	;# 
  2323  041C                     	;# 
  2324  041D                     	;# 
  2325  041E                     	;# 
  2326  0FE4                     	;# 
  2327  0FE5                     	;# 
  2328  0FE6                     	;# 
  2329  0FE7                     	;# 
  2330  0FE8                     	;# 
  2331  0FE9                     	;# 
  2332  0FEA                     	;# 
  2333  0FEB                     	;# 
  2334  0FED                     	;# 
  2335  0FEE                     	;# 
  2336  0FEF                     	;# 
  2337  0000                     	;# 
  2338  0001                     	;# 
  2339  0002                     	;# 
  2340  0003                     	;# 
  2341  0004                     	;# 
  2342  0005                     	;# 
  2343  0006                     	;# 
  2344  0007                     	;# 
  2345  0008                     	;# 
  2346  0009                     	;# 
  2347  000A                     	;# 
  2348  000B                     	;# 
  2349  000C                     	;# 
  2350  000D                     	;# 
  2351  0011                     	;# 
  2352  0012                     	;# 
  2353  0013                     	;# 
  2354  0014                     	;# 
  2355  0015                     	;# 
  2356  0016                     	;# 
  2357  0016                     	;# 
  2358  0017                     	;# 
  2359  0018                     	;# 
  2360  0019                     	;# 
  2361  001A                     	;# 
  2362  001B                     	;# 
  2363  001C                     	;# 
  2364  001E                     	;# 
  2365  001F                     	;# 
  2366  008C                     	;# 
  2367  008D                     	;# 
  2368  0091                     	;# 
  2369  0092                     	;# 
  2370  0093                     	;# 
  2371  0094                     	;# 
  2372  0095                     	;# 
  2373  0096                     	;# 
  2374  0097                     	;# 
  2375  0098                     	;# 
  2376  0099                     	;# 
  2377  009A                     	;# 
  2378  009B                     	;# 
  2379  009B                     	;# 
  2380  009C                     	;# 
  2381  009D                     	;# 
  2382  009E                     	;# 
  2383  010C                     	;# 
  2384  010D                     	;# 
  2385  0111                     	;# 
  2386  0112                     	;# 
  2387  0113                     	;# 
  2388  0114                     	;# 
  2389  0115                     	;# 
  2390  0116                     	;# 
  2391  0117                     	;# 
  2392  0118                     	;# 
  2393  0119                     	;# 
  2394  011A                     	;# 
  2395  011B                     	;# 
  2396  011D                     	;# 
  2397  011E                     	;# 
  2398  018C                     	;# 
  2399  018D                     	;# 
  2400  0191                     	;# 
  2401  0191                     	;# 
  2402  0192                     	;# 
  2403  0193                     	;# 
  2404  0193                     	;# 
  2405  0193                     	;# 
  2406  0194                     	;# 
  2407  0195                     	;# 
  2408  0196                     	;# 
  2409  0199                     	;# 
  2410  019A                     	;# 
  2411  019B                     	;# 
  2412  019B                     	;# 
  2413  019B                     	;# 
  2414  019B                     	;# 
  2415  019C                     	;# 
  2416  019C                     	;# 
  2417  019D                     	;# 
  2418  019E                     	;# 
  2419  019F                     	;# 
  2420  020C                     	;# 
  2421  020D                     	;# 
  2422  0211                     	;# 
  2423  0211                     	;# 
  2424  0212                     	;# 
  2425  0212                     	;# 
  2426  0213                     	;# 
  2427  0213                     	;# 
  2428  0214                     	;# 
  2429  0214                     	;# 
  2430  0215                     	;# 
  2431  0215                     	;# 
  2432  0215                     	;# 
  2433  0216                     	;# 
  2434  0216                     	;# 
  2435  0217                     	;# 
  2436  0217                     	;# 
  2437  0219                     	;# 
  2438  021A                     	;# 
  2439  021B                     	;# 
  2440  021C                     	;# 
  2441  021D                     	;# 
  2442  021E                     	;# 
  2443  021F                     	;# 
  2444  0291                     	;# 
  2445  0291                     	;# 
  2446  0292                     	;# 
  2447  0293                     	;# 
  2448  0294                     	;# 
  2449  0295                     	;# 
  2450  0295                     	;# 
  2451  0296                     	;# 
  2452  0298                     	;# 
  2453  0298                     	;# 
  2454  0299                     	;# 
  2455  029A                     	;# 
  2456  029B                     	;# 
  2457  029C                     	;# 
  2458  029C                     	;# 
  2459  029D                     	;# 
  2460  029E                     	;# 
  2461  029E                     	;# 
  2462  0311                     	;# 
  2463  0311                     	;# 
  2464  0312                     	;# 
  2465  0313                     	;# 
  2466  0318                     	;# 
  2467  0318                     	;# 
  2468  0319                     	;# 
  2469  031A                     	;# 
  2470  0394                     	;# 
  2471  0395                     	;# 
  2472  0396                     	;# 
  2473  039A                     	;# 
  2474  039C                     	;# 
  2475  039D                     	;# 
  2476  039E                     	;# 
  2477  039F                     	;# 
  2478  0415                     	;# 
  2479  0416                     	;# 
  2480  0417                     	;# 
  2481  041C                     	;# 
  2482  041D                     	;# 
  2483  041E                     	;# 
  2484  0FE4                     	;# 
  2485  0FE5                     	;# 
  2486  0FE6                     	;# 
  2487  0FE7                     	;# 
  2488  0FE8                     	;# 
  2489  0FE9                     	;# 
  2490  0FEA                     	;# 
  2491  0FEB                     	;# 
  2492  0FED                     	;# 
  2493  0FEE                     	;# 
  2494  0FEF                     	;# 
  2495  0000                     	;# 
  2496  0001                     	;# 
  2497  0002                     	;# 
  2498  0003                     	;# 
  2499  0004                     	;# 
  2500  0005                     	;# 
  2501  0006                     	;# 
  2502  0007                     	;# 
  2503  0008                     	;# 
  2504  0009                     	;# 
  2505  000A                     	;# 
  2506  000B                     	;# 
  2507  000C                     	;# 
  2508  000D                     	;# 
  2509  0011                     	;# 
  2510  0012                     	;# 
  2511  0013                     	;# 
  2512  0014                     	;# 
  2513  0015                     	;# 
  2514  0016                     	;# 
  2515  0016                     	;# 
  2516  0017                     	;# 
  2517  0018                     	;# 
  2518  0019                     	;# 
  2519  001A                     	;# 
  2520  001B                     	;# 
  2521  001C                     	;# 
  2522  001E                     	;# 
  2523  001F                     	;# 
  2524  008C                     	;# 
  2525  008D                     	;# 
  2526  0091                     	;# 
  2527  0092                     	;# 
  2528  0093                     	;# 
  2529  0094                     	;# 
  2530  0095                     	;# 
  2531  0096                     	;# 
  2532  0097                     	;# 
  2533  0098                     	;# 
  2534  0099                     	;# 
  2535  009A                     	;# 
  2536  009B                     	;# 
  2537  009B                     	;# 
  2538  009C                     	;# 
  2539  009D                     	;# 
  2540  009E                     	;# 
  2541  010C                     	;# 
  2542  010D                     	;# 
  2543  0111                     	;# 
  2544  0112                     	;# 
  2545  0113                     	;# 
  2546  0114                     	;# 
  2547  0115                     	;# 
  2548  0116                     	;# 
  2549  0117                     	;# 
  2550  0118                     	;# 
  2551  0119                     	;# 
  2552  011A                     	;# 
  2553  011B                     	;# 
  2554  011D                     	;# 
  2555  011E                     	;# 
  2556  018C                     	;# 
  2557  018D                     	;# 
  2558  0191                     	;# 
  2559  0191                     	;# 
  2560  0192                     	;# 
  2561  0193                     	;# 
  2562  0193                     	;# 
  2563  0193                     	;# 
  2564  0194                     	;# 
  2565  0195                     	;# 
  2566  0196                     	;# 
  2567  0199                     	;# 
  2568  019A                     	;# 
  2569  019B                     	;# 
  2570  019B                     	;# 
  2571  019B                     	;# 
  2572  019B                     	;# 
  2573  019C                     	;# 
  2574  019C                     	;# 
  2575  019D                     	;# 
  2576  019E                     	;# 
  2577  019F                     	;# 
  2578  020C                     	;# 
  2579  020D                     	;# 
  2580  0211                     	;# 
  2581  0211                     	;# 
  2582  0212                     	;# 
  2583  0212                     	;# 
  2584  0213                     	;# 
  2585  0213                     	;# 
  2586  0214                     	;# 
  2587  0214                     	;# 
  2588  0215                     	;# 
  2589  0215                     	;# 
  2590  0215                     	;# 
  2591  0216                     	;# 
  2592  0216                     	;# 
  2593  0217                     	;# 
  2594  0217                     	;# 
  2595  0219                     	;# 
  2596  021A                     	;# 
  2597  021B                     	;# 
  2598  021C                     	;# 
  2599  021D                     	;# 
  2600  021E                     	;# 
  2601  021F                     	;# 
  2602  0291                     	;# 
  2603  0291                     	;# 
  2604  0292                     	;# 
  2605  0293                     	;# 
  2606  0294                     	;# 
  2607  0295                     	;# 
  2608  0295                     	;# 
  2609  0296                     	;# 
  2610  0298                     	;# 
  2611  0298                     	;# 
  2612  0299                     	;# 
  2613  029A                     	;# 
  2614  029B                     	;# 
  2615  029C                     	;# 
  2616  029C                     	;# 
  2617  029D                     	;# 
  2618  029E                     	;# 
  2619  029E                     	;# 
  2620  0311                     	;# 
  2621  0311                     	;# 
  2622  0312                     	;# 
  2623  0313                     	;# 
  2624  0318                     	;# 
  2625  0318                     	;# 
  2626  0319                     	;# 
  2627  031A                     	;# 
  2628  0394                     	;# 
  2629  0395                     	;# 
  2630  0396                     	;# 
  2631  039A                     	;# 
  2632  039C                     	;# 
  2633  039D                     	;# 
  2634  039E                     	;# 
  2635  039F                     	;# 
  2636  0415                     	;# 
  2637  0416                     	;# 
  2638  0417                     	;# 
  2639  041C                     	;# 
  2640  041D                     	;# 
  2641  041E                     	;# 
  2642  0FE4                     	;# 
  2643  0FE5                     	;# 
  2644  0FE6                     	;# 
  2645  0FE7                     	;# 
  2646  0FE8                     	;# 
  2647  0FE9                     	;# 
  2648  0FEA                     	;# 
  2649  0FEB                     	;# 
  2650  0FED                     	;# 
  2651  0FEE                     	;# 
  2652  0FEF                     	;# 
  2653  0000                     	;# 
  2654  0001                     	;# 
  2655  0002                     	;# 
  2656  0003                     	;# 
  2657  0004                     	;# 
  2658  0005                     	;# 
  2659  0006                     	;# 
  2660  0007                     	;# 
  2661  0008                     	;# 
  2662  0009                     	;# 
  2663  000A                     	;# 
  2664  000B                     	;# 
  2665  000C                     	;# 
  2666  000D                     	;# 
  2667  0011                     	;# 
  2668  0012                     	;# 
  2669  0013                     	;# 
  2670  0014                     	;# 
  2671  0015                     	;# 
  2672  0016                     	;# 
  2673  0016                     	;# 
  2674  0017                     	;# 
  2675  0018                     	;# 
  2676  0019                     	;# 
  2677  001A                     	;# 
  2678  001B                     	;# 
  2679  001C                     	;# 
  2680  001E                     	;# 
  2681  001F                     	;# 
  2682  008C                     	;# 
  2683  008D                     	;# 
  2684  0091                     	;# 
  2685  0092                     	;# 
  2686  0093                     	;# 
  2687  0094                     	;# 
  2688  0095                     	;# 
  2689  0096                     	;# 
  2690  0097                     	;# 
  2691  0098                     	;# 
  2692  0099                     	;# 
  2693  009A                     	;# 
  2694  009B                     	;# 
  2695  009B                     	;# 
  2696  009C                     	;# 
  2697  009D                     	;# 
  2698  009E                     	;# 
  2699  010C                     	;# 
  2700  010D                     	;# 
  2701  0111                     	;# 
  2702  0112                     	;# 
  2703  0113                     	;# 
  2704  0114                     	;# 
  2705  0115                     	;# 
  2706  0116                     	;# 
  2707  0117                     	;# 
  2708  0118                     	;# 
  2709  0119                     	;# 
  2710  011A                     	;# 
  2711  011B                     	;# 
  2712  011D                     	;# 
  2713  011E                     	;# 
  2714  018C                     	;# 
  2715  018D                     	;# 
  2716  0191                     	;# 
  2717  0191                     	;# 
  2718  0192                     	;# 
  2719  0193                     	;# 
  2720  0193                     	;# 
  2721  0193                     	;# 
  2722  0194                     	;# 
  2723  0195                     	;# 
  2724  0196                     	;# 
  2725  0199                     	;# 
  2726  019A                     	;# 
  2727  019B                     	;# 
  2728  019B                     	;# 
  2729  019B                     	;# 
  2730  019B                     	;# 
  2731  019C                     	;# 
  2732  019C                     	;# 
  2733  019D                     	;# 
  2734  019E                     	;# 
  2735  019F                     	;# 
  2736  020C                     	;# 
  2737  020D                     	;# 
  2738  0211                     	;# 
  2739  0211                     	;# 
  2740  0212                     	;# 
  2741  0212                     	;# 
  2742  0213                     	;# 
  2743  0213                     	;# 
  2744  0214                     	;# 
  2745  0214                     	;# 
  2746  0215                     	;# 
  2747  0215                     	;# 
  2748  0215                     	;# 
  2749  0216                     	;# 
  2750  0216                     	;# 
  2751  0217                     	;# 
  2752  0217                     	;# 
  2753  0219                     	;# 
  2754  021A                     	;# 
  2755  021B                     	;# 
  2756  021C                     	;# 
  2757  021D                     	;# 
  2758  021E                     	;# 
  2759  021F                     	;# 
  2760  0291                     	;# 
  2761  0291                     	;# 
  2762  0292                     	;# 
  2763  0293                     	;# 
  2764  0294                     	;# 
  2765  0295                     	;# 
  2766  0295                     	;# 
  2767  0296                     	;# 
  2768  0298                     	;# 
  2769  0298                     	;# 
  2770  0299                     	;# 
  2771  029A                     	;# 
  2772  029B                     	;# 
  2773  029C                     	;# 
  2774  029C                     	;# 
  2775  029D                     	;# 
  2776  029E                     	;# 
  2777  029E                     	;# 
  2778  0311                     	;# 
  2779  0311                     	;# 
  2780  0312                     	;# 
  2781  0313                     	;# 
  2782  0318                     	;# 
  2783  0318                     	;# 
  2784  0319                     	;# 
  2785  031A                     	;# 
  2786  0394                     	;# 
  2787  0395                     	;# 
  2788  0396                     	;# 
  2789  039A                     	;# 
  2790  039C                     	;# 
  2791  039D                     	;# 
  2792  039E                     	;# 
  2793  039F                     	;# 
  2794  0415                     	;# 
  2795  0416                     	;# 
  2796  0417                     	;# 
  2797  041C                     	;# 
  2798  041D                     	;# 
  2799  041E                     	;# 
  2800  0FE4                     	;# 
  2801  0FE5                     	;# 
  2802  0FE6                     	;# 
  2803  0FE7                     	;# 
  2804  0FE8                     	;# 
  2805  0FE9                     	;# 
  2806  0FEA                     	;# 
  2807  0FEB                     	;# 
  2808  0FED                     	;# 
  2809  0FEE                     	;# 
  2810  0FEF                     	;# 
  2811  0000                     	;# 
  2812  0001                     	;# 
  2813  0002                     	;# 
  2814  0003                     	;# 
  2815  0004                     	;# 
  2816  0005                     	;# 
  2817  0006                     	;# 
  2818  0007                     	;# 
  2819  0008                     	;# 
  2820  0009                     	;# 
  2821  000A                     	;# 
  2822  000B                     	;# 
  2823  000C                     	;# 
  2824  000D                     	;# 
  2825  0011                     	;# 
  2826  0012                     	;# 
  2827  0013                     	;# 
  2828  0014                     	;# 
  2829  0015                     	;# 
  2830  0016                     	;# 
  2831  0016                     	;# 
  2832  0017                     	;# 
  2833  0018                     	;# 
  2834  0019                     	;# 
  2835  001A                     	;# 
  2836  001B                     	;# 
  2837  001C                     	;# 
  2838  001E                     	;# 
  2839  001F                     	;# 
  2840  008C                     	;# 
  2841  008D                     	;# 
  2842  0091                     	;# 
  2843  0092                     	;# 
  2844  0093                     	;# 
  2845  0094                     	;# 
  2846  0095                     	;# 
  2847  0096                     	;# 
  2848  0097                     	;# 
  2849  0098                     	;# 
  2850  0099                     	;# 
  2851  009A                     	;# 
  2852  009B                     	;# 
  2853  009B                     	;# 
  2854  009C                     	;# 
  2855  009D                     	;# 
  2856  009E                     	;# 
  2857  010C                     	;# 
  2858  010D                     	;# 
  2859  0111                     	;# 
  2860  0112                     	;# 
  2861  0113                     	;# 
  2862  0114                     	;# 
  2863  0115                     	;# 
  2864  0116                     	;# 
  2865  0117                     	;# 
  2866  0118                     	;# 
  2867  0119                     	;# 
  2868  011A                     	;# 
  2869  011B                     	;# 
  2870  011D                     	;# 
  2871  011E                     	;# 
  2872  018C                     	;# 
  2873  018D                     	;# 
  2874  0191                     	;# 
  2875  0191                     	;# 
  2876  0192                     	;# 
  2877  0193                     	;# 
  2878  0193                     	;# 
  2879  0193                     	;# 
  2880  0194                     	;# 
  2881  0195                     	;# 
  2882  0196                     	;# 
  2883  0199                     	;# 
  2884  019A                     	;# 
  2885  019B                     	;# 
  2886  019B                     	;# 
  2887  019B                     	;# 
  2888  019B                     	;# 
  2889  019C                     	;# 
  2890  019C                     	;# 
  2891  019D                     	;# 
  2892  019E                     	;# 
  2893  019F                     	;# 
  2894  020C                     	;# 
  2895  020D                     	;# 
  2896  0211                     	;# 
  2897  0211                     	;# 
  2898  0212                     	;# 
  2899  0212                     	;# 
  2900  0213                     	;# 
  2901  0213                     	;# 
  2902  0214                     	;# 
  2903  0214                     	;# 
  2904  0215                     	;# 
  2905  0215                     	;# 
  2906  0215                     	;# 
  2907  0216                     	;# 
  2908  0216                     	;# 
  2909  0217                     	;# 
  2910  0217                     	;# 
  2911  0219                     	;# 
  2912  021A                     	;# 
  2913  021B                     	;# 
  2914  021C                     	;# 
  2915  021D                     	;# 
  2916  021E                     	;# 
  2917  021F                     	;# 
  2918  0291                     	;# 
  2919  0291                     	;# 
  2920  0292                     	;# 
  2921  0293                     	;# 
  2922  0294                     	;# 
  2923  0295                     	;# 
  2924  0295                     	;# 
  2925  0296                     	;# 
  2926  0298                     	;# 
  2927  0298                     	;# 
  2928  0299                     	;# 
  2929  029A                     	;# 
  2930  029B                     	;# 
  2931  029C                     	;# 
  2932  029C                     	;# 
  2933  029D                     	;# 
  2934  029E                     	;# 
  2935  029E                     	;# 
  2936  0311                     	;# 
  2937  0311                     	;# 
  2938  0312                     	;# 
  2939  0313                     	;# 
  2940  0318                     	;# 
  2941  0318                     	;# 
  2942  0319                     	;# 
  2943  031A                     	;# 
  2944  0394                     	;# 
  2945  0395                     	;# 
  2946  0396                     	;# 
  2947  039A                     	;# 
  2948  039C                     	;# 
  2949  039D                     	;# 
  2950  039E                     	;# 
  2951  039F                     	;# 
  2952  0415                     	;# 
  2953  0416                     	;# 
  2954  0417                     	;# 
  2955  041C                     	;# 
  2956  041D                     	;# 
  2957  041E                     	;# 
  2958  0FE4                     	;# 
  2959  0FE5                     	;# 
  2960  0FE6                     	;# 
  2961  0FE7                     	;# 
  2962  0FE8                     	;# 
  2963  0FE9                     	;# 
  2964  0FEA                     	;# 
  2965  0FEB                     	;# 
  2966  0FED                     	;# 
  2967  0FEE                     	;# 
  2968  0FEF                     	;# 
  2969                           
  2970                           	psect	eeprom_data
  2971  0000  00FF 0081 0081 00FF 0000 0000 0000 00FF 	db	255,129,129,255,0,0,0,255	;# 
  2972  0008  00C2 00A1 0091 008E 0042 0089 0089 0076 	db	194,161,145,142,66,137,137,118	;# 
  2973  0010  001F 0010 0010 00FF 008F 0089 0089 0071 	db	31,16,16,255,143,137,137,113	;# 
  2974  0018  007E 0089 0089 0072 0000 0008 0008 0008 	db	126,137,137,114,0,8,8,8	;# 
  2975  0020  0000 0030 000C 0030 0000 000C 0030 000C 	db	0,48,12,48,0,12,48,12	;# 
  2976  0000                     	;# 
  2977  0001                     	;# 
  2978  0002                     	;# 
  2979  0003                     	;# 
  2980  0004                     	;# 
  2981  0005                     	;# 
  2982  0006                     	;# 
  2983  0007                     	;# 
  2984  0008                     	;# 
  2985  0009                     	;# 
  2986  000A                     	;# 
  2987  000B                     	;# 
  2988  000C                     	;# 
  2989  000D                     	;# 
  2990  0011                     	;# 
  2991  0012                     	;# 
  2992  0013                     	;# 
  2993  0014                     	;# 
  2994  0015                     	;# 
  2995  0016                     	;# 
  2996  0016                     	;# 
  2997  0017                     	;# 
  2998  0018                     	;# 
  2999  0019                     	;# 
  3000  001A                     	;# 
  3001  001B                     	;# 
  3002  001C                     	;# 
  3003  001E                     	;# 
  3004  001F                     	;# 
  3005  008C                     	;# 
  3006  008D                     	;# 
  3007  0091                     	;# 
  3008  0092                     	;# 
  3009  0093                     	;# 
  3010  0094                     	;# 
  3011  0095                     	;# 
  3012  0096                     	;# 
  3013  0097                     	;# 
  3014  0098                     	;# 
  3015  0099                     	;# 
  3016  009A                     	;# 
  3017  009B                     	;# 
  3018  009B                     	;# 
  3019  009C                     	;# 
  3020  009D                     	;# 
  3021  009E                     	;# 
  3022  010C                     	;# 
  3023  010D                     	;# 
  3024  0111                     	;# 
  3025  0112                     	;# 
  3026  0113                     	;# 
  3027  0114                     	;# 
  3028  0115                     	;# 
  3029  0116                     	;# 
  3030  0117                     	;# 
  3031  0118                     	;# 
  3032  0119                     	;# 
  3033  011A                     	;# 
  3034  011B                     	;# 
  3035  011D                     	;# 
  3036  011E                     	;# 
  3037  018C                     	;# 
  3038  018D                     	;# 
  3039  0191                     	;# 
  3040  0191                     	;# 
  3041  0192                     	;# 
  3042  0193                     	;# 
  3043  0193                     	;# 
  3044  0193                     	;# 
  3045  0194                     	;# 
  3046  0195                     	;# 
  3047  0196                     	;# 
  3048  0199                     	;# 
  3049  019A                     	;# 
  3050  019B                     	;# 
  3051  019B                     	;# 
  3052  019B                     	;# 
  3053  019B                     	;# 
  3054  019C                     	;# 
  3055  019C                     	;# 
  3056  019D                     	;# 
  3057  019E                     	;# 
  3058  019F                     	;# 
  3059  020C                     	;# 
  3060  020D                     	;# 
  3061  0211                     	;# 
  3062  0211                     	;# 
  3063  0212                     	;# 
  3064  0212                     	;# 
  3065  0213                     	;# 
  3066  0213                     	;# 
  3067  0214                     	;# 
  3068  0214                     	;# 
  3069  0215                     	;# 
  3070  0215                     	;# 
  3071  0215                     	;# 
  3072  0216                     	;# 
  3073  0216                     	;# 
  3074  0217                     	;# 
  3075  0217                     	;# 
  3076  0219                     	;# 
  3077  021A                     	;# 
  3078  021B                     	;# 
  3079  021C                     	;# 
  3080  021D                     	;# 
  3081  021E                     	;# 
  3082  021F                     	;# 
  3083  0291                     	;# 
  3084  0291                     	;# 
  3085  0292                     	;# 
  3086  0293                     	;# 
  3087  0294                     	;# 
  3088  0295                     	;# 
  3089  0295                     	;# 
  3090  0296                     	;# 
  3091  0298                     	;# 
  3092  0298                     	;# 
  3093  0299                     	;# 
  3094  029A                     	;# 
  3095  029B                     	;# 
  3096  029C                     	;# 
  3097  029C                     	;# 
  3098  029D                     	;# 
  3099  029E                     	;# 
  3100  029E                     	;# 
  3101  0311                     	;# 
  3102  0311                     	;# 
  3103  0312                     	;# 
  3104  0313                     	;# 
  3105  0318                     	;# 
  3106  0318                     	;# 
  3107  0319                     	;# 
  3108  031A                     	;# 
  3109  0394                     	;# 
  3110  0395                     	;# 
  3111  0396                     	;# 
  3112  039A                     	;# 
  3113  039C                     	;# 
  3114  039D                     	;# 
  3115  039E                     	;# 
  3116  039F                     	;# 
  3117  0415                     	;# 
  3118  0416                     	;# 
  3119  0417                     	;# 
  3120  041C                     	;# 
  3121  041D                     	;# 
  3122  041E                     	;# 
  3123  0FE4                     	;# 
  3124  0FE5                     	;# 
  3125  0FE6                     	;# 
  3126  0FE7                     	;# 
  3127  0FE8                     	;# 
  3128  0FE9                     	;# 
  3129  0FEA                     	;# 
  3130  0FEB                     	;# 
  3131  0FED                     	;# 
  3132  0FEE                     	;# 
  3133  0FEF                     	;# 
  3134                           
  3135 ;; Function _EUSART_DefaultFramingErrorHandler is unused but had its address taken
  3136  0000                     
  3137 ;; Function _EUSART_DefaultOverrunErrorHandler is unused but had its address taken
  3138  0000                     
  3139 ;; Function _EUSART_DefaultErrorHandler is unused but had its address taken
  3140  0000                     
  3141                           	psect	idataBANK1
  3142  0AD9                     __pidataBANK1:
  3143                           
  3144                           ;initializer for _count
  3145  0AD9  340A               	retlw	10
  3146  0ADA  3400               	retlw	0
  3147                           
  3148                           	psect	stringtext1
  3149  07FF                     __pstringtext1:
  3150  07FF                     _spi1_configuration:
  3151  07FF  3400               	retlw	0
  3152  0800  3440               	retlw	64
  3153  0801  3401               	retlw	1
  3154  0802  3400               	retlw	0
  3155  0803                     __end_of_spi1_configuration:
  3156                           
  3157                           	psect	nvBANK1
  3158  00C8                     __pnvBANK1:
  3159  00C8                     _CCP4_CallBack:
  3160  00C8                     	ds	2
  3161  00CA                     _TMR4_InterruptHandler:
  3162  00CA                     	ds	2
  3163  00CC                     _TMR1_InterruptHandler:
  3164  00CC                     	ds	2
  3165  00CE                     _timer1ReloadVal:
  3166  00CE                     	ds	2
  3167  00D0                     _EUSART_ErrorHandler:
  3168  00D0                     	ds	2
  3169  00D2                     _EUSART_OverrunErrorHandler:
  3170  00D2                     	ds	2
  3171  00D4                     _EUSART_FramingErrorHandler:
  3172  00D4                     	ds	2
  3173  00D6                     _IOCBF3_InterruptHandler:
  3174  00D6                     	ds	2
  3175  00D8                     _IOCBF0_InterruptHandler:
  3176  00D8                     	ds	2
  3177  000C                     _PORTAbits	set	12
  3178  0013                     _PIR3bits	set	19
  3179  0012                     _PIR2bits	set	18
  3180  001C                     _T2CONbits	set	28
  3181  001C                     _T2CON	set	28
  3182  001A                     _TMR2	set	26
  3183  001B                     _PR2	set	27
  3184  0019                     _T1GCONbits	set	25
  3185  0018                     _T1CONbits	set	24
  3186  0018                     _T1CON	set	24
  3187  0016                     _TMR1L	set	22
  3188  0017                     _TMR1H	set	23
  3189  0019                     _T1GCON	set	25
  3190  0011                     _PIR1bits	set	17
  3191  000B                     _INTCONbits	set	11
  3192  0093                     _PIE3bits	set	147
  3193  0092                     _PIE2bits	set	146
  3194  009D                     _ADCON0bits	set	157
  3195  009D                     _ADCON0	set	157
  3196  009C                     _ADRESH	set	156
  3197  009B                     _ADRESL	set	155
  3198  009E                     _ADCON1	set	158
  3199  0091                     _PIE1bits	set	145
  3200  008D                     _TRISBbits	set	141
  3201  0095                     _OPTION_REGbits	set	149
  3202  008D                     _TRISB	set	141
  3203  008C                     _TRISA	set	140
  3204  0097                     _WDTCON	set	151
  3205  0098                     _OSCTUNE	set	152
  3206  0099                     _OSCCON	set	153
  3207  010D                     _LATBbits	set	269
  3208  010C                     _LATAbits	set	268
  3209  0119                     _DACCON1	set	281
  3210  0118                     _DACCON0	set	280
  3211  0114                     _CM2CON1	set	276
  3212  0113                     _CM2CON0	set	275
  3213  0115                     _CMOUTbits	set	277
  3214  0112                     _CM1CON1	set	274
  3215  0111                     _CM1CON0	set	273
  3216  0117                     _FVRCONbits	set	279
  3217  0117                     _FVRCON	set	279
  3218  011E                     _APFCON1	set	286
  3219  011D                     _APFCON0	set	285
  3220  010D                     _LATB	set	269
  3221  010C                     _LATA	set	268
  3222  0116                     _BORCON	set	278
  3223  019A                     _TXREG	set	410
  3224  0199                     _RCREG	set	409
  3225  019D                     _RCSTAbits	set	413
  3226  019E                     _TXSTAbits	set	414
  3227  019C                     _SPBRGH	set	412
  3228  019B                     _SPBRGL	set	411
  3229  019E                     _TXSTA	set	414
  3230  019D                     _RCSTA	set	413
  3231  019F                     _BAUDCON	set	415
  3232  0196                     _EECON2	set	406
  3233  0193                     _EEDATL	set	403
  3234  0194                     _EEDATH	set	404
  3235  0195                     _EECON1bits	set	405
  3236  0192                     _EEADRH	set	402
  3237  0191                     _EEADRL	set	401
  3238  018C                     _ANSELA	set	396
  3239  018D                     _ANSELB	set	397
  3240  0211                     _SSP1BUF	set	529
  3241  0216                     _SSP1CON2	set	534
  3242  0215                     _SSP1CON1bits	set	533
  3243  0212                     _SSP1ADD	set	530
  3244  0215                     _SSP1CON1	set	533
  3245  0214                     _SSP1STAT	set	532
  3246  020C                     _WPUA	set	524
  3247  020D                     _WPUB	set	525
  3248  029E                     _CCPTMRS0bits	set	670
  3249  0319                     _CCPR4H	set	793
  3250  0318                     _CCPR4L	set	792
  3251  031A                     _CCP4CON	set	794
  3252  0312                     _CCPR3H	set	786
  3253  0311                     _CCPR3L	set	785
  3254  0313                     _CCP3CON	set	787
  3255  0394                     _IOCBPbits	set	916
  3256  0395                     _IOCBNbits	set	917
  3257  0396                     _IOCBFbits	set	918
  3258  0417                     _T4CONbits	set	1047
  3259  0417                     _T4CON	set	1047
  3260  0415                     _TMR4	set	1045
  3261  0416                     _PR4	set	1046
  3262                           
  3263                           	psect	cinit
  3264  0060                     start_initialization:	
  3265                           ; #config settings
  3266                           
  3267  0060                     __initialization:
  3268                           
  3269                           ; Initialize objects allocated to BANK1
  3270  0060  0021               	movlb	1	; select bank1
  3271  0061  318A  22D9  3180   	fcall	__pidataBANK1	;fetch initializer
  3272  0064  00E9               	movwf	__pdataBANK1& (0+127)
  3273  0065  318A  22DA  3180   	fcall	__pidataBANK1+1	;fetch initializer
  3274  0068  00EA               	movwf	(__pdataBANK1+1)& (0+127)
  3275                           
  3276                           ; Clear objects allocated to BANK0
  3277  0069  0020               	movlb	0	; select bank0
  3278  006A  01E9               	clrf	__pbssBANK0& (0+127)
  3279  006B  01EA               	clrf	(__pbssBANK0+1)& (0+127)
  3280  006C  01EB               	clrf	(__pbssBANK0+2)& (0+127)
  3281                           
  3282                           ; Clear objects allocated to BANK1
  3283  006D  30A0               	movlw	low __pbssBANK1
  3284  006E  0084               	movwf	4
  3285  006F  3000               	movlw	high __pbssBANK1
  3286  0070  0085               	movwf	5
  3287  0071  3028               	movlw	40
  3288  0072  318B  2311  3180   	fcall	clear_ram0
  3289                           
  3290                           ; Clear objects allocated to BANK2
  3291  0075  3020               	movlw	low __pbssBANK2
  3292  0076  0084               	movwf	4
  3293  0077  3001               	movlw	high __pbssBANK2
  3294  0078  0085               	movwf	5
  3295  0079  3010               	movlw	16
  3296  007A  318B  2311  3180   	fcall	clear_ram0
  3297  007D                     end_of_initialization:	
  3298                           ;End of C runtime variable initialization code
  3299                           
  3300  007D                     __end_of__initialization:
  3301  007D  107E               	bcf	int$flags,0	;clear compiler interrupt flag (level 1)
  3302  007E  0020               	movlb	0
  3303  007F  3184  2C8C         	ljmp	_main	;jump to C main() function
  3304                           
  3305                           	psect	bssBANK0
  3306  0069                     __pbssBANK0:
  3307  0069                     _pos_atual:
  3308  0069                     	ds	2
  3309  006B                     _rxByte:
  3310  006B                     	ds	1
  3311                           
  3312                           	psect	bssBANK1
  3313  00A0                     __pbssBANK1:
  3314  00A0                     _LED:
  3315  00A0                     	ds	8
  3316  00A8                     _txByte:
  3317  00A8                     	ds	4
  3318  00AC                     _iRx:
  3319  00AC                     	ds	2
  3320  00AE                     _pwm:
  3321  00AE                     	ds	2
  3322  00B0                     _BCD:
  3323  00B0                     	ds	2
  3324  00B2                     _u:
  3325  00B2                     	ds	2
  3326  00B4                     _pos_final:
  3327  00B4                     	ds	2
  3328  00B6                     _ADC_InterruptHandler:
  3329  00B6                     	ds	2
  3330  00B8                     _enviarDados:
  3331  00B8                     	ds	1
  3332  00B9                     _eusartRxLastError:
  3333  00B9                     	ds	1
  3334  00BA                     _position:
  3335  00BA                     	ds	4
  3336  00BE                     _colect_value:
  3337  00BE                     	ds	2
  3338  00C0                     _pulsos:
  3339  00C0                     	ds	2
  3340  00C2                     _motor:
  3341  00C2                     	ds	2
  3342  00C4                     _speed:
  3343  00C4                     	ds	2
  3344  00C6                     _temp:
  3345  00C6                     	ds	2
  3346                           
  3347                           	psect	dataBANK1
  3348  00E9                     __pdataBANK1:
  3349  00E9                     _count:
  3350  00E9                     	ds	2
  3351                           
  3352                           	psect	bssBANK2
  3353  0120                     __pbssBANK2:
  3354  0120                     _matrix:
  3355  0120                     	ds	16
  3356                           
  3357                           	psect	clrtext
  3358  0B11                     clear_ram0:	
  3359                           ;	Called with FSR0 containing the base address, and
  3360                           ;	WREG with the size to clear
  3361                           
  3362  0B11  0064               	clrwdt	;clear the watchdog before getting into this loop
  3363  0B12                     clrloop0:
  3364  0B12  0180               	clrf	0	;clear RAM location pointed to by FSR
  3365  0B13  3101               	addfsr 0,1
  3366  0B14  0B89               	decfsz	9,f	;Have we reached the end of clearing yet?
  3367  0B15  2B12               	goto	clrloop0	;have we reached the end yet?
  3368  0B16  3400               	retlw	0	;all done for this memory range, return
  3369                           
  3370                           	psect	cstackBANK1
  3371  00DA                     __pcstackBANK1:
  3372  00DA                     ?___fltol:
  3373  00DA                     ___fltol@f1:	
  3374                           ; 4 bytes @ 0x0
  3375                           
  3376                           
  3377                           ; 4 bytes @ 0x0
  3378  00DA                     	ds	4
  3379  00DE                     ??___fltol:
  3380                           
  3381                           ; 1 bytes @ 0x4
  3382  00DE                     	ds	5
  3383  00E3                     ___fltol@sign1:
  3384                           
  3385                           ; 1 bytes @ 0x9
  3386  00E3                     	ds	1
  3387  00E4                     ___fltol@exp1:
  3388                           
  3389                           ; 1 bytes @ 0xA
  3390  00E4                     	ds	1
  3391  00E5                     ??_main:
  3392                           
  3393                           ; 1 bytes @ 0xB
  3394  00E5                     	ds	4
  3395                           
  3396                           	psect	cstackCOMMON
  3397  0070                     __pcstackCOMMON:
  3398  0070                     ?_SPI1_Initialize:
  3399  0070                     ?_PIN_MANAGER_Initialize:	
  3400                           ; 1 bytes @ 0x0
  3401                           
  3402  0070                     ?_OSCILLATOR_Initialize:	
  3403                           ; 1 bytes @ 0x0
  3404                           
  3405  0070                     ?_WDT_Initialize:	
  3406                           ; 1 bytes @ 0x0
  3407                           
  3408  0070                     ?_CMP2_Initialize:	
  3409                           ; 1 bytes @ 0x0
  3410                           
  3411  0070                     ?_DAC_Initialize:	
  3412                           ; 1 bytes @ 0x0
  3413                           
  3414  0070                     ?_FVR_Initialize:	
  3415                           ; 1 bytes @ 0x0
  3416                           
  3417  0070                     ?_TMR4_Initialize:	
  3418                           ; 1 bytes @ 0x0
  3419                           
  3420  0070                     ?_TMR2_Initialize:	
  3421                           ; 1 bytes @ 0x0
  3422                           
  3423  0070                     ?_CMP1_Initialize:	
  3424                           ; 1 bytes @ 0x0
  3425                           
  3426  0070                     ?_CCP4_Initialize:	
  3427                           ; 1 bytes @ 0x0
  3428                           
  3429  0070                     ?_ADC_Initialize:	
  3430                           ; 1 bytes @ 0x0
  3431                           
  3432  0070                     ?_PWM3_Initialize:	
  3433                           ; 1 bytes @ 0x0
  3434                           
  3435  0070                     ?_TMR1_Initialize:	
  3436                           ; 1 bytes @ 0x0
  3437                           
  3438  0070                     ?_EUSART_Initialize:	
  3439                           ; 1 bytes @ 0x0
  3440                           
  3441  0070                     ?_IOCBF0_DefaultInterruptHandler:	
  3442                           ; 1 bytes @ 0x0
  3443                           
  3444  0070                     ??_IOCBF0_DefaultInterruptHandler:	
  3445                           ; 1 bytes @ 0x0
  3446                           
  3447  0070                     ?_IOCBF3_DefaultInterruptHandler:	
  3448                           ; 1 bytes @ 0x0
  3449                           
  3450  0070                     ??_IOCBF3_DefaultInterruptHandler:	
  3451                           ; 1 bytes @ 0x0
  3452                           
  3453  0070                     ?_IOCBF0_ISR:	
  3454                           ; 1 bytes @ 0x0
  3455                           
  3456  0070                     ?_IOCBF3_ISR:	
  3457                           ; 1 bytes @ 0x0
  3458                           
  3459  0070                     ??_IOCBF3_ISR:	
  3460                           ; 1 bytes @ 0x0
  3461                           
  3462  0070                     ?_TMR1_DefaultInterruptHandler:	
  3463                           ; 1 bytes @ 0x0
  3464                           
  3465  0070                     ??_TMR1_DefaultInterruptHandler:	
  3466                           ; 1 bytes @ 0x0
  3467                           
  3468  0070                     ?_CMP2_ISR:	
  3469                           ; 1 bytes @ 0x0
  3470                           
  3471  0070                     ?_CMP1_ISR:	
  3472                           ; 1 bytes @ 0x0
  3473                           
  3474  0070                     ??_CMP1_ISR:	
  3475                           ; 1 bytes @ 0x0
  3476                           
  3477  0070                     ?_CCP4_CaptureISR:	
  3478                           ; 1 bytes @ 0x0
  3479                           
  3480  0070                     ?_TMR4_ISR:	
  3481                           ; 1 bytes @ 0x0
  3482                           
  3483  0070                     ?_TMR4_DefaultInterruptHandler:	
  3484                           ; 1 bytes @ 0x0
  3485                           
  3486  0070                     ??_TMR4_DefaultInterruptHandler:	
  3487                           ; 1 bytes @ 0x0
  3488                           
  3489  0070                     ?_initMAX7219:	
  3490                           ; 1 bytes @ 0x0
  3491                           
  3492  0070                     ?_SYSTEM_Initialize:	
  3493                           ; 1 bytes @ 0x0
  3494                           
  3495  0070                     ?_PIN_MANAGER_IOC:	
  3496                           ; 1 bytes @ 0x0
  3497                           
  3498  0070                     ?_DATAEE_ReadByte:	
  3499                           ; 1 bytes @ 0x0
  3500                           
  3501  0070                     ?_SPI1_Open:	
  3502                           ; 1 bytes @ 0x0
  3503                           
  3504  0070                     ?_SPI1_WriteByte:	
  3505                           ; 1 bytes @ 0x0
  3506                           
  3507  0070                     ?_EUSART_is_rx_ready:	
  3508                           ; 1 bytes @ 0x0
  3509                           
  3510  0070                     ??_EUSART_is_rx_ready:	
  3511                           ; 1 bytes @ 0x0
  3512                           
  3513  0070                     ?_EUSART_Read:	
  3514                           ; 1 bytes @ 0x0
  3515                           
  3516  0070                     ??_EUSART_Read:	
  3517                           ; 1 bytes @ 0x0
  3518                           
  3519  0070                     ?_EUSART_Write:	
  3520                           ; 1 bytes @ 0x0
  3521                           
  3522  0070                     ??_EUSART_Write:	
  3523                           ; 1 bytes @ 0x0
  3524                           
  3525  0070                     ?_TMR1_WriteTimer:	
  3526                           ; 1 bytes @ 0x0
  3527                           
  3528  0070                     ?_TMR1_ISR:	
  3529                           ; 1 bytes @ 0x0
  3530                           
  3531  0070                     ?_INTERRUPT_InterruptManager:	
  3532                           ; 1 bytes @ 0x0
  3533                           
  3534  0070                     ?_leds:	
  3535                           ; 1 bytes @ 0x0
  3536                           
  3537  0070                     ?_comm:	
  3538                           ; 1 bytes @ 0x0
  3539                           
  3540  0070                     ?_andar:	
  3541                           ; 1 bytes @ 0x0
  3542                           
  3543  0070                     ?_deslocamento:	
  3544                           ; 1 bytes @ 0x0
  3545                           
  3546  0070                     ?_controle:	
  3547                           ; 1 bytes @ 0x0
  3548                           
  3549  0070                     ?_S1:	
  3550                           ; 1 bytes @ 0x0
  3551                           
  3552  0070                     ?_S2:	
  3553                           ; 1 bytes @ 0x0
  3554                           
  3555  0070                     ??_S2:	
  3556                           ; 1 bytes @ 0x0
  3557                           
  3558  0070                     ?_S3:	
  3559                           ; 1 bytes @ 0x0
  3560                           
  3561  0070                     ??_S3:	
  3562                           ; 1 bytes @ 0x0
  3563                           
  3564  0070                     ?_S4:	
  3565                           ; 1 bytes @ 0x0
  3566                           
  3567  0070                     ?_main:	
  3568                           ; 1 bytes @ 0x0
  3569                           
  3570  0070                     ?i1_SPI1_WriteByte:	
  3571                           ; 1 bytes @ 0x0
  3572                           
  3573  0070                     ??i1_SPI1_WriteByte:	
  3574                           ; 1 bytes @ 0x0
  3575                           
  3576  0070                     ?i1_PWM3_LoadDutyValue:	
  3577                           ; 1 bytes @ 0x0
  3578                           
  3579  0070                     ?i1___fltol:	
  3580                           ; 1 bytes @ 0x0
  3581                           
  3582  0070                     EUSART_Write@txData:	
  3583                           ; 4 bytes @ 0x0
  3584                           
  3585  0070                     i1SPI1_WriteByte@byte:	
  3586                           ; 1 bytes @ 0x0
  3587                           
  3588  0070                     TMR1_WriteTimer@timerVal:	
  3589                           ; 1 bytes @ 0x0
  3590                           
  3591  0070                     i1PWM3_LoadDutyValue@dutyValue:	
  3592                           ; 2 bytes @ 0x0
  3593                           
  3594  0070                     i1___fltol@f1:	
  3595                           ; 2 bytes @ 0x0
  3596                           
  3597                           
  3598                           ; 4 bytes @ 0x0
  3599  0070                     	ds	1
  3600  0071                     ?i1_txMAX7219:
  3601  0071                     i1txMAX7219@dat0:	
  3602                           ; 1 bytes @ 0x1
  3603                           
  3604                           
  3605                           ; 1 bytes @ 0x1
  3606  0071                     	ds	1
  3607  0072                     ??_TMR1_WriteTimer:
  3608  0072                     ??_TMR1_ISR:	
  3609                           ; 1 bytes @ 0x2
  3610                           
  3611  0072                     ??i1_PWM3_LoadDutyValue:	
  3612                           ; 1 bytes @ 0x2
  3613                           
  3614  0072                     i1txMAX7219@addr1:	
  3615                           ; 1 bytes @ 0x2
  3616                           
  3617                           
  3618                           ; 1 bytes @ 0x2
  3619  0072                     	ds	1
  3620  0073                     i1txMAX7219@dat1:
  3621                           
  3622                           ; 1 bytes @ 0x3
  3623  0073                     	ds	1
  3624  0074                     ??_IOCBF0_ISR:
  3625  0074                     ??_CMP2_ISR:	
  3626                           ; 1 bytes @ 0x4
  3627                           
  3628  0074                     ??_PIN_MANAGER_IOC:	
  3629                           ; 1 bytes @ 0x4
  3630                           
  3631  0074                     ?_CCP4_DefaultCallBack:	
  3632                           ; 1 bytes @ 0x4
  3633                           
  3634  0074                     ?_Enc:	
  3635                           ; 1 bytes @ 0x4
  3636                           
  3637  0074                     ??_S1:	
  3638                           ; 1 bytes @ 0x4
  3639                           
  3640  0074                     ??_S4:	
  3641                           ; 1 bytes @ 0x4
  3642                           
  3643  0074                     ??i1_txMAX7219:	
  3644                           ; 1 bytes @ 0x4
  3645                           
  3646  0074                     ??i1___fltol:	
  3647                           ; 1 bytes @ 0x4
  3648                           
  3649  0074                     i1txMAX7219@addr0:	
  3650                           ; 1 bytes @ 0x4
  3651                           
  3652  0074                     CCP4_DefaultCallBack@capturedValue:	
  3653                           ; 1 bytes @ 0x4
  3654                           
  3655  0074                     Enc@colect_value:	
  3656                           ; 2 bytes @ 0x4
  3657                           
  3658                           
  3659                           ; 2 bytes @ 0x4
  3660  0074                     	ds	1
  3661  0075                     ??_leds:
  3662                           
  3663                           ; 1 bytes @ 0x5
  3664  0075                     	ds	1
  3665  0076                     ??_CCP4_DefaultCallBack:
  3666  0076                     ??_Enc:	
  3667                           ; 1 bytes @ 0x6
  3668                           
  3669                           
  3670                           ; 1 bytes @ 0x6
  3671  0076                     	ds	1
  3672  0077                     ??_CCP4_CaptureISR:
  3673                           
  3674                           ; 1 bytes @ 0x7
  3675  0077                     	ds	1
  3676  0078                     CCP4_CaptureISR@module:
  3677                           
  3678                           ; 2 bytes @ 0x8
  3679  0078                     	ds	1
  3680  0079                     i1___fltol@sign1:
  3681                           
  3682                           ; 1 bytes @ 0x9
  3683  0079                     	ds	1
  3684  007A                     i1___fltol@exp1:
  3685  007A                     leds@i:	
  3686                           ; 1 bytes @ 0xA
  3687                           
  3688                           
  3689                           ; 2 bytes @ 0xA
  3690  007A                     	ds	2
  3691  007C                     comm@i:
  3692                           
  3693                           ; 2 bytes @ 0xC
  3694  007C                     	ds	2
  3695  007E                     ??_TMR4_ISR:
  3696  007E                     ??_INTERRUPT_InterruptManager:	
  3697                           ; 1 bytes @ 0xE
  3698                           
  3699                           
  3700                           	psect	cstackBANK0
  3701  0020                     __pcstackBANK0:	
  3702                           ; 1 bytes @ 0xE
  3703                           
  3704  0020                     ??_comm:
  3705                           
  3706                           ; 1 bytes @ 0x0
  3707  0020                     	ds	3
  3708  0023                     ??_SPI1_Initialize:
  3709  0023                     ??_OSCILLATOR_Initialize:	
  3710                           ; 1 bytes @ 0x3
  3711                           
  3712  0023                     ??_WDT_Initialize:	
  3713                           ; 1 bytes @ 0x3
  3714                           
  3715  0023                     ??_CMP2_Initialize:	
  3716                           ; 1 bytes @ 0x3
  3717                           
  3718  0023                     ??_DAC_Initialize:	
  3719                           ; 1 bytes @ 0x3
  3720                           
  3721  0023                     ??_FVR_Initialize:	
  3722                           ; 1 bytes @ 0x3
  3723                           
  3724  0023                     ??_TMR2_Initialize:	
  3725                           ; 1 bytes @ 0x3
  3726                           
  3727  0023                     ??_CMP1_Initialize:	
  3728                           ; 1 bytes @ 0x3
  3729                           
  3730  0023                     ??_ADC_Initialize:	
  3731                           ; 1 bytes @ 0x3
  3732                           
  3733  0023                     ??_PWM3_Initialize:	
  3734                           ; 1 bytes @ 0x3
  3735                           
  3736  0023                     ?_IOCBF0_SetInterruptHandler:	
  3737                           ; 1 bytes @ 0x3
  3738                           
  3739  0023                     ?_IOCBF3_SetInterruptHandler:	
  3740                           ; 1 bytes @ 0x3
  3741                           
  3742  0023                     ?_EUSART_SetFramingErrorHandler:	
  3743                           ; 1 bytes @ 0x3
  3744                           
  3745  0023                     ?_EUSART_SetOverrunErrorHandler:	
  3746                           ; 1 bytes @ 0x3
  3747                           
  3748  0023                     ?_EUSART_SetErrorHandler:	
  3749                           ; 1 bytes @ 0x3
  3750                           
  3751  0023                     ?_TMR1_SetInterruptHandler:	
  3752                           ; 1 bytes @ 0x3
  3753                           
  3754  0023                     ?_TMR4_SetInterruptHandler:	
  3755                           ; 1 bytes @ 0x3
  3756                           
  3757  0023                     ?_CCP4_SetCallBack:	
  3758                           ; 1 bytes @ 0x3
  3759                           
  3760  0023                     ??_DATAEE_ReadByte:	
  3761                           ; 1 bytes @ 0x3
  3762                           
  3763  0023                     ??_SPI1_Open:	
  3764                           ; 1 bytes @ 0x3
  3765                           
  3766  0023                     ??_SPI1_WriteByte:	
  3767                           ; 1 bytes @ 0x3
  3768                           
  3769  0023                     ?_PWM3_LoadDutyValue:	
  3770                           ; 1 bytes @ 0x3
  3771                           
  3772  0023                     ?__Umul8_16:	
  3773                           ; 1 bytes @ 0x3
  3774                           
  3775  0023                     ?_ADC_GetConversion:	
  3776                           ; 2 bytes @ 0x3
  3777                           
  3778  0023                     DATAEE_ReadByte@bAdd:	
  3779                           ; 2 bytes @ 0x3
  3780                           
  3781  0023                     SPI1_WriteByte@byte:	
  3782                           ; 1 bytes @ 0x3
  3783                           
  3784  0023                     __Umul8_16@multiplicand:	
  3785                           ; 1 bytes @ 0x3
  3786                           
  3787  0023                     IOCBF0_SetInterruptHandler@InterruptHandler:	
  3788                           ; 1 bytes @ 0x3
  3789                           
  3790  0023                     IOCBF3_SetInterruptHandler@InterruptHandler:	
  3791                           ; 2 bytes @ 0x3
  3792                           
  3793  0023                     EUSART_SetFramingErrorHandler@interruptHandler:	
  3794                           ; 2 bytes @ 0x3
  3795                           
  3796  0023                     EUSART_SetOverrunErrorHandler@interruptHandler:	
  3797                           ; 2 bytes @ 0x3
  3798                           
  3799  0023                     EUSART_SetErrorHandler@interruptHandler:	
  3800                           ; 2 bytes @ 0x3
  3801                           
  3802  0023                     TMR1_SetInterruptHandler@InterruptHandler:	
  3803                           ; 2 bytes @ 0x3
  3804                           
  3805  0023                     PWM3_LoadDutyValue@dutyValue:	
  3806                           ; 2 bytes @ 0x3
  3807                           
  3808  0023                     TMR4_SetInterruptHandler@InterruptHandler:	
  3809                           ; 2 bytes @ 0x3
  3810                           
  3811  0023                     CCP4_SetCallBack@customCallBack:	
  3812                           ; 2 bytes @ 0x3
  3813                           
  3814                           
  3815                           ; 2 bytes @ 0x3
  3816  0023                     	ds	1
  3817  0024                     ?_txMAX7219:
  3818  0024                     ??_andar:	
  3819                           ; 1 bytes @ 0x4
  3820                           
  3821  0024                     txMAX7219@dat0:	
  3822                           ; 1 bytes @ 0x4
  3823                           
  3824                           
  3825                           ; 1 bytes @ 0x4
  3826  0024                     	ds	1
  3827  0025                     ??_PIN_MANAGER_Initialize:
  3828  0025                     ??_TMR4_Initialize:	
  3829                           ; 1 bytes @ 0x5
  3830                           
  3831  0025                     ??_CCP4_Initialize:	
  3832                           ; 1 bytes @ 0x5
  3833                           
  3834  0025                     ??_TMR1_Initialize:	
  3835                           ; 1 bytes @ 0x5
  3836                           
  3837  0025                     ??_EUSART_Initialize:	
  3838                           ; 1 bytes @ 0x5
  3839                           
  3840  0025                     ??_IOCBF0_SetInterruptHandler:	
  3841                           ; 1 bytes @ 0x5
  3842                           
  3843  0025                     ??_IOCBF3_SetInterruptHandler:	
  3844                           ; 1 bytes @ 0x5
  3845                           
  3846  0025                     ??_EUSART_SetFramingErrorHandler:	
  3847                           ; 1 bytes @ 0x5
  3848                           
  3849  0025                     ??_EUSART_SetOverrunErrorHandler:	
  3850                           ; 1 bytes @ 0x5
  3851                           
  3852  0025                     ??_EUSART_SetErrorHandler:	
  3853                           ; 1 bytes @ 0x5
  3854                           
  3855  0025                     ??_TMR1_SetInterruptHandler:	
  3856                           ; 1 bytes @ 0x5
  3857                           
  3858  0025                     ??_TMR4_SetInterruptHandler:	
  3859                           ; 1 bytes @ 0x5
  3860                           
  3861  0025                     ??_CCP4_SetCallBack:	
  3862                           ; 1 bytes @ 0x5
  3863                           
  3864  0025                     ??__Umul8_16:	
  3865                           ; 1 bytes @ 0x5
  3866                           
  3867  0025                     ??_SYSTEM_Initialize:	
  3868                           ; 1 bytes @ 0x5
  3869                           
  3870  0025                     ??_PWM3_LoadDutyValue:	
  3871                           ; 1 bytes @ 0x5
  3872                           
  3873  0025                     ??_ADC_GetConversion:	
  3874                           ; 1 bytes @ 0x5
  3875                           
  3876  0025                     txMAX7219@addr1:	
  3877                           ; 1 bytes @ 0x5
  3878                           
  3879                           
  3880                           ; 1 bytes @ 0x5
  3881  0025                     	ds	1
  3882  0026                     SPI1_Open@spi1UniqueConfiguration:
  3883  0026                     ADC_GetConversion@channel:	
  3884                           ; 1 bytes @ 0x6
  3885                           
  3886  0026                     txMAX7219@dat1:	
  3887                           ; 1 bytes @ 0x6
  3888                           
  3889  0026                     andar@i:	
  3890                           ; 1 bytes @ 0x6
  3891                           
  3892                           
  3893                           ; 2 bytes @ 0x6
  3894  0026                     	ds	1
  3895  0027                     ??_txMAX7219:
  3896  0027                     ??_deslocamento:	
  3897                           ; 1 bytes @ 0x7
  3898                           
  3899  0027                     ?___xxtofl:	
  3900                           ; 1 bytes @ 0x7
  3901                           
  3902  0027                     txMAX7219@addr0:	
  3903                           ; 4 bytes @ 0x7
  3904                           
  3905  0027                     __Umul8_16@product:	
  3906                           ; 1 bytes @ 0x7
  3907                           
  3908  0027                     ___xxtofl@val:	
  3909                           ; 2 bytes @ 0x7
  3910                           
  3911                           
  3912                           ; 4 bytes @ 0x7
  3913  0027                     	ds	1
  3914  0028                     ??_initMAX7219:
  3915  0028                     andar@i_1609:	
  3916                           ; 1 bytes @ 0x8
  3917                           
  3918                           
  3919                           ; 2 bytes @ 0x8
  3920  0028                     	ds	1
  3921  0029                     ??_controle:
  3922  0029                     __Umul8_16@word_mpld:	
  3923                           ; 1 bytes @ 0x9
  3924                           
  3925                           
  3926                           ; 2 bytes @ 0x9
  3927  0029                     	ds	2
  3928  002B                     ??___xxtofl:
  3929  002B                     __Umul8_16@multiplier:	
  3930                           ; 1 bytes @ 0xB
  3931                           
  3932                           
  3933                           ; 1 bytes @ 0xB
  3934  002B                     	ds	4
  3935  002F                     ___xxtofl@sign:
  3936                           
  3937                           ; 1 bytes @ 0xF
  3938  002F                     	ds	1
  3939  0030                     ___xxtofl@exp:
  3940                           
  3941                           ; 1 bytes @ 0x10
  3942  0030                     	ds	1
  3943  0031                     ___xxtofl@arg:
  3944                           
  3945                           ; 4 bytes @ 0x11
  3946  0031                     	ds	4
  3947  0035                     ?___flmul:
  3948  0035                     ___flmul@b:	
  3949                           ; 4 bytes @ 0x15
  3950                           
  3951                           
  3952                           ; 4 bytes @ 0x15
  3953  0035                     	ds	4
  3954  0039                     ___flmul@a:
  3955                           
  3956                           ; 4 bytes @ 0x19
  3957  0039                     	ds	4
  3958  003D                     ??___flmul:
  3959                           
  3960                           ; 1 bytes @ 0x1D
  3961  003D                     	ds	5
  3962  0042                     ___flmul@sign:
  3963                           
  3964                           ; 1 bytes @ 0x22
  3965  0042                     	ds	1
  3966  0043                     ___flmul@grs:
  3967                           
  3968                           ; 4 bytes @ 0x23
  3969  0043                     	ds	4
  3970  0047                     ___flmul@aexp:
  3971                           
  3972                           ; 1 bytes @ 0x27
  3973  0047                     	ds	1
  3974  0048                     ___flmul@bexp:
  3975                           
  3976                           ; 1 bytes @ 0x28
  3977  0048                     	ds	1
  3978  0049                     ___flmul@prod:
  3979                           
  3980                           ; 4 bytes @ 0x29
  3981  0049                     	ds	4
  3982  004D                     ___flmul@temp:
  3983                           
  3984                           ; 2 bytes @ 0x2D
  3985  004D                     	ds	2
  3986  004F                     ?___fldiv:
  3987  004F                     ___fldiv@a:	
  3988                           ; 4 bytes @ 0x2F
  3989                           
  3990                           
  3991                           ; 4 bytes @ 0x2F
  3992  004F                     	ds	4
  3993  0053                     ___fldiv@b:
  3994                           
  3995                           ; 4 bytes @ 0x33
  3996  0053                     	ds	4
  3997  0057                     ??___fldiv:
  3998                           
  3999                           ; 1 bytes @ 0x37
  4000  0057                     	ds	5
  4001  005C                     ___fldiv@rem:
  4002                           
  4003                           ; 4 bytes @ 0x3C
  4004  005C                     	ds	4
  4005  0060                     ___fldiv@sign:
  4006                           
  4007                           ; 1 bytes @ 0x40
  4008  0060                     	ds	1
  4009  0061                     ___fldiv@new_exp:
  4010                           
  4011                           ; 2 bytes @ 0x41
  4012  0061                     	ds	2
  4013  0063                     ___fldiv@grs:
  4014                           
  4015                           ; 4 bytes @ 0x43
  4016  0063                     	ds	4
  4017  0067                     ___fldiv@bexp:
  4018                           
  4019                           ; 1 bytes @ 0x47
  4020  0067                     	ds	1
  4021  0068                     ___fldiv@aexp:
  4022                           
  4023                           ; 1 bytes @ 0x48
  4024  0068                     	ds	1
  4025                           
  4026                           	psect	maintext
  4027  048C                     __pmaintext:	
  4028 ;;
  4029 ;;Main: autosize = 0, tempsize = 4, incstack = 0, save=0
  4030 ;;
  4031 ;; *************** function _main *****************
  4032 ;; Defined at:
  4033 ;;		line 222 in file "main.c"
  4034 ;; Parameters:    Size  Location     Type
  4035 ;;		None
  4036 ;; Auto vars:     Size  Location     Type
  4037 ;;		None
  4038 ;; Return value:  Size  Location     Type
  4039 ;;                  1    wreg      void 
  4040 ;; Registers used:
  4041 ;;		wreg, fsr0l, fsr0h, fsr1l, fsr1h, status,2, status,0, pclath, cstack
  4042 ;; Tracked objects:
  4043 ;;		On entry : B1F/0
  4044 ;;		On exit  : 0/0
  4045 ;;		Unchanged: 0/0
  4046 ;; Data sizes:     COMMON   BANK0   BANK1   BANK2   BANK3   BANK4
  4047 ;;      Params:         0       0       0       0       0       0
  4048 ;;      Locals:         0       0       0       0       0       0
  4049 ;;      Temps:          0       0       4       0       0       0
  4050 ;;      Totals:         0       0       4       0       0       0
  4051 ;;Total ram usage:        4 bytes
  4052 ;; Hardware stack levels required when called: 9
  4053 ;; This function calls:
  4054 ;;		_ADC_GetConversion
  4055 ;;		_CCP4_SetCallBack
  4056 ;;		_IOCBF0_SetInterruptHandler
  4057 ;;		_IOCBF3_SetInterruptHandler
  4058 ;;		_PWM3_LoadDutyValue
  4059 ;;		_SPI1_Open
  4060 ;;		_SYSTEM_Initialize
  4061 ;;		_TMR4_SetInterruptHandler
  4062 ;;		___fldiv
  4063 ;;		___flmul
  4064 ;;		___fltol
  4065 ;;		___xxtofl
  4066 ;;		_andar
  4067 ;;		_controle
  4068 ;;		_initMAX7219
  4069 ;; This function is called by:
  4070 ;;		Startup code after reset
  4071 ;; This function uses a non-reentrant model
  4072 ;;
  4073                           
  4074                           
  4075                           ;psect for function _main
  4076  048C                     _main:
  4077  048C                     l3672:	
  4078                           ;incstack = 0
  4079                           ; Regs used in _main: [wreg-fsr1h+status,2+status,0+pclath+cstack]
  4080                           
  4081                           
  4082                           ;main.c: 225:     SYSTEM_Initialize();
  4083  048C  318D  2563  3184   	fcall	_SYSTEM_Initialize
  4084  048F                     l3674:
  4085                           
  4086                           ;main.c: 226:     SPI1_Open(SPI1_DEFAULT);
  4087  048F  3000               	movlw	0
  4088  0490  318E  2664  3184   	fcall	_SPI1_Open
  4089  0493                     l3676:
  4090                           
  4091                           ;main.c: 227:     initMAX7219();
  4092  0493  318F  271A  3184   	fcall	_initMAX7219
  4093  0496                     l3678:
  4094                           
  4095                           ;main.c: 229:     (INTCONbits.GIE = 1);
  4096  0496  178B               	bsf	11,7	;volatile
  4097  0497                     l3680:
  4098                           
  4099                           ;main.c: 231:     (INTCONbits.PEIE = 1);
  4100  0497  170B               	bsf	11,6	;volatile
  4101  0498                     l3682:
  4102                           
  4103                           ;main.c: 233:     TMR4_SetInterruptHandler(comm);
  4104  0498  30D3               	movlw	low _comm
  4105  0499  0020               	movlb	0	; select bank0
  4106  049A  00A3               	movwf	TMR4_SetInterruptHandler@InterruptHandler
  4107  049B  3006               	movlw	high _comm
  4108  049C  00A4               	movwf	TMR4_SetInterruptHandler@InterruptHandler+1
  4109  049D  318B  2376  3184   	fcall	_TMR4_SetInterruptHandler
  4110  04A0                     l3684:
  4111                           
  4112                           ;main.c: 234:  CCP4_SetCallBack(Enc);
  4113  04A0  3020               	movlw	low _Enc
  4114  04A1  0020               	movlb	0	; select bank0
  4115  04A2  00A3               	movwf	CCP4_SetCallBack@customCallBack
  4116  04A3  300E               	movlw	high _Enc
  4117  04A4  00A4               	movwf	CCP4_SetCallBack@customCallBack+1
  4118  04A5  318B  232E  3184   	fcall	_CCP4_SetCallBack
  4119  04A8                     l3686:
  4120                           
  4121                           ;main.c: 237:  IOCBF0_SetInterruptHandler(S1);
  4122  04A8  30AC               	movlw	low _S1
  4123  04A9  0020               	movlb	0	; select bank0
  4124  04AA  00A3               	movwf	IOCBF0_SetInterruptHandler@InterruptHandler
  4125  04AB  300B               	movlw	high _S1
  4126  04AC  00A4               	movwf	IOCBF0_SetInterruptHandler@InterruptHandler+1
  4127  04AD  318B  2352  3184   	fcall	_IOCBF0_SetInterruptHandler
  4128  04B0                     l3688:
  4129                           
  4130                           ;main.c: 238:     IOCBF3_SetInterruptHandler(S2);
  4131  04B0  30FF               	movlw	low _S2
  4132  04B1  0020               	movlb	0	; select bank0
  4133  04B2  00A3               	movwf	IOCBF3_SetInterruptHandler@InterruptHandler
  4134  04B3  300A               	movlw	high _S2
  4135  04B4  00A4               	movwf	IOCBF3_SetInterruptHandler@InterruptHandler+1
  4136  04B5  318B  235B  3184   	fcall	_IOCBF3_SetInterruptHandler
  4137  04B8                     l3690:
  4138                           
  4139                           ;main.c: 239:     PWM3_LoadDutyValue(500);
  4140  04B8  30F4               	movlw	244
  4141  04B9  0020               	movlb	0	; select bank0
  4142  04BA  00A3               	movwf	PWM3_LoadDutyValue@dutyValue
  4143  04BB  3001               	movlw	1
  4144  04BC  00A4               	movwf	PWM3_LoadDutyValue@dutyValue+1
  4145  04BD  318C  24B2  3184   	fcall	_PWM3_LoadDutyValue
  4146  04C0                     l3692:
  4147                           
  4148                           ;main.c: 241:         position = .83*pulsos;
  4149  04C0  303F               	movlw	63
  4150  04C1  0020               	movlb	0	; select bank0
  4151  04C2  00B8               	movwf	___flmul@b+3
  4152  04C3  3054               	movlw	84
  4153  04C4  00B7               	movwf	___flmul@b+2
  4154  04C5  307A               	movlw	122
  4155  04C6  00B6               	movwf	___flmul@b+1
  4156  04C7  30E1               	movlw	225
  4157  04C8  00B5               	movwf	___flmul@b
  4158  04C9  0021               	movlb	1	; select bank1
  4159  04CA  0840               	movf	_pulsos^(0+128),w
  4160  04CB  0020               	movlb	0	; select bank0
  4161  04CC  00A7               	movwf	___xxtofl@val
  4162  04CD  0021               	movlb	1	; select bank1
  4163  04CE  0841               	movf	(_pulsos+1)^(0+128),w
  4164  04CF  0020               	movlb	0	; select bank0
  4165  04D0  00A8               	movwf	___xxtofl@val+1
  4166  04D1  0D89               	rlf	9,f
  4167  04D2  3B89               	subwfb	9,f
  4168  04D3  0989               	comf	9,f
  4169  04D4  00A9               	movwf	___xxtofl@val+2
  4170  04D5  00AA               	movwf	___xxtofl@val+3
  4171  04D6  3001               	movlw	1
  4172  04D7  3185  25A3  3184   	fcall	___xxtofl
  4173  04DA  0020               	movlb	0	; select bank0
  4174  04DB  082A               	movf	?___xxtofl+3,w
  4175  04DC  00BC               	movwf	___flmul@a+3
  4176  04DD  0829               	movf	?___xxtofl+2,w
  4177  04DE  00BB               	movwf	___flmul@a+2
  4178  04DF  0828               	movf	?___xxtofl+1,w
  4179  04E0  00BA               	movwf	___flmul@a+1
  4180  04E1  0827               	movf	?___xxtofl,w
  4181  04E2  00B9               	movwf	___flmul@a
  4182  04E3  3180  2081  3184   	fcall	___flmul
  4183  04E6  0020               	movlb	0	; select bank0
  4184  04E7  0838               	movf	?___flmul+3,w
  4185  04E8  0021               	movlb	1	; select bank1
  4186  04E9  00BD               	movwf	(_position+3)^(0+128)
  4187  04EA  0020               	movlb	0	; select bank0
  4188  04EB  0837               	movf	?___flmul+2,w
  4189  04EC  0021               	movlb	1	; select bank1
  4190  04ED  00BC               	movwf	(_position+2)^(0+128)
  4191  04EE  0020               	movlb	0	; select bank0
  4192  04EF  0836               	movf	?___flmul+1,w
  4193  04F0  0021               	movlb	1	; select bank1
  4194  04F1  00BB               	movwf	(_position+1)^(0+128)
  4195  04F2  0020               	movlb	0	; select bank0
  4196  04F3  0835               	movf	?___flmul,w
  4197  04F4  0021               	movlb	1	; select bank1
  4198  04F5  00BA               	movwf	_position^(0+128)
  4199  04F6                     l3694:
  4200                           
  4201                           ;main.c: 242:         andar();
  4202  04F6  318E  26BB  3184   	fcall	_andar
  4203  04F9                     l3696:
  4204                           
  4205                           ;main.c: 243:         controle();
  4206  04F9  3186  2650  3184   	fcall	_controle
  4207  04FC                     l3698:
  4208                           
  4209                           ;main.c: 244:         temp = (ADC_GetConversion(TEMP)*0.48);
  4210  04FC  3002               	movlw	2
  4211  04FD  318C  24CE  3184   	fcall	_ADC_GetConversion
  4212  0500  0020               	movlb	0	; select bank0
  4213  0501  0823               	movf	?_ADC_GetConversion,w
  4214  0502  0021               	movlb	1	; select bank1
  4215  0503  00E5               	movwf	??_main^(0+128)
  4216  0504  0020               	movlb	0	; select bank0
  4217  0505  0824               	movf	?_ADC_GetConversion+1,w
  4218  0506  0021               	movlb	1	; select bank1
  4219  0507  00E6               	movwf	(??_main^(0+128)+1)
  4220  0508  01E7               	clrf	(??_main^(0+128)+2)
  4221  0509  01E8               	clrf	(??_main^(0+128)+3)
  4222  050A  0868               	movf	(??_main+3)^(0+128),w
  4223  050B  0020               	movlb	0	; select bank0
  4224  050C  00AA               	movwf	___xxtofl@val+3
  4225  050D  0021               	movlb	1	; select bank1
  4226  050E  0867               	movf	(??_main+2)^(0+128),w
  4227  050F  0020               	movlb	0	; select bank0
  4228  0510  00A9               	movwf	___xxtofl@val+2
  4229  0511  0021               	movlb	1	; select bank1
  4230  0512  0866               	movf	(??_main+1)^(0+128),w
  4231  0513  0020               	movlb	0	; select bank0
  4232  0514  00A8               	movwf	___xxtofl@val+1
  4233  0515  0021               	movlb	1	; select bank1
  4234  0516  0865               	movf	??_main^(0+128),w
  4235  0517  0020               	movlb	0	; select bank0
  4236  0518  00A7               	movwf	___xxtofl@val
  4237  0519  3000               	movlw	0
  4238  051A  3185  25A3  3184   	fcall	___xxtofl
  4239  051D  0020               	movlb	0	; select bank0
  4240  051E  082A               	movf	?___xxtofl+3,w
  4241  051F  00BC               	movwf	___flmul@a+3
  4242  0520  0829               	movf	?___xxtofl+2,w
  4243  0521  00BB               	movwf	___flmul@a+2
  4244  0522  0828               	movf	?___xxtofl+1,w
  4245  0523  00BA               	movwf	___flmul@a+1
  4246  0524  0827               	movf	?___xxtofl,w
  4247  0525  00B9               	movwf	___flmul@a
  4248  0526  303E               	movlw	62
  4249  0527  00B8               	movwf	___flmul@b+3
  4250  0528  30F5               	movlw	245
  4251  0529  00B7               	movwf	___flmul@b+2
  4252  052A  30C2               	movlw	194
  4253  052B  00B6               	movwf	___flmul@b+1
  4254  052C  308F               	movlw	143
  4255  052D  00B5               	movwf	___flmul@b
  4256  052E  3180  2081  3184   	fcall	___flmul
  4257  0531  0020               	movlb	0	; select bank0
  4258  0532  0838               	movf	?___flmul+3,w
  4259  0533  0021               	movlb	1	; select bank1
  4260  0534  00DD               	movwf	(___fltol@f1+3)^(0+128)
  4261  0535  0020               	movlb	0	; select bank0
  4262  0536  0837               	movf	?___flmul+2,w
  4263  0537  0021               	movlb	1	; select bank1
  4264  0538  00DC               	movwf	(___fltol@f1+2)^(0+128)
  4265  0539  0020               	movlb	0	; select bank0
  4266  053A  0836               	movf	?___flmul+1,w
  4267  053B  0021               	movlb	1	; select bank1
  4268  053C  00DB               	movwf	(___fltol@f1+1)^(0+128)
  4269  053D  0020               	movlb	0	; select bank0
  4270  053E  0835               	movf	?___flmul,w
  4271  053F  0021               	movlb	1	; select bank1
  4272  0540  00DA               	movwf	___fltol@f1^(0+128)
  4273  0541  3187  2749  3184   	fcall	___fltol
  4274  0544  0021               	movlb	1	; select bank1
  4275  0545  085B               	movf	(?___fltol+1)^(0+128),w
  4276  0546  00C7               	movwf	(_temp+1)^(0+128)
  4277  0547  085A               	movf	?___fltol^(0+128),w
  4278  0548  00C6               	movwf	_temp^(0+128)
  4279  0549                     l3700:
  4280                           
  4281                           ;main.c: 245:         speed = (int)(.83/(((float)colect_value)*.000002))*4;
  4282  0549  303F               	movlw	63
  4283  054A  0020               	movlb	0	; select bank0
  4284  054B  00D6               	movwf	___fldiv@b+3
  4285  054C  3054               	movlw	84
  4286  054D  00D5               	movwf	___fldiv@b+2
  4287  054E  307A               	movlw	122
  4288  054F  00D4               	movwf	___fldiv@b+1
  4289  0550  30E1               	movlw	225
  4290  0551  00D3               	movwf	___fldiv@b
  4291  0552  0021               	movlb	1	; select bank1
  4292  0553  083E               	movf	_colect_value^(0+128),w
  4293  0554  0020               	movlb	0	; select bank0
  4294  0555  00A7               	movwf	___xxtofl@val
  4295  0556  0021               	movlb	1	; select bank1
  4296  0557  083F               	movf	(_colect_value+1)^(0+128),w
  4297  0558  0020               	movlb	0	; select bank0
  4298  0559  00A8               	movwf	___xxtofl@val+1
  4299  055A  01A9               	clrf	___xxtofl@val+2
  4300  055B  01AA               	clrf	___xxtofl@val+3
  4301  055C  3000               	movlw	0
  4302  055D  3185  25A3  3184   	fcall	___xxtofl
  4303  0560  0020               	movlb	0	; select bank0
  4304  0561  082A               	movf	?___xxtofl+3,w
  4305  0562  00BC               	movwf	___flmul@a+3
  4306  0563  0829               	movf	?___xxtofl+2,w
  4307  0564  00BB               	movwf	___flmul@a+2
  4308  0565  0828               	movf	?___xxtofl+1,w
  4309  0566  00BA               	movwf	___flmul@a+1
  4310  0567  0827               	movf	?___xxtofl,w
  4311  0568  00B9               	movwf	___flmul@a
  4312  0569  3036               	movlw	54
  4313  056A  00B8               	movwf	___flmul@b+3
  4314  056B  3006               	movlw	6
  4315  056C  00B7               	movwf	___flmul@b+2
  4316  056D  3037               	movlw	55
  4317  056E  00B6               	movwf	___flmul@b+1
  4318  056F  30BD               	movlw	189
  4319  0570  00B5               	movwf	___flmul@b
  4320  0571  3180  2081  3184   	fcall	___flmul
  4321  0574  0020               	movlb	0	; select bank0
  4322  0575  0838               	movf	?___flmul+3,w
  4323  0576  00D2               	movwf	___fldiv@a+3
  4324  0577  0837               	movf	?___flmul+2,w
  4325  0578  00D1               	movwf	___fldiv@a+2
  4326  0579  0836               	movf	?___flmul+1,w
  4327  057A  00D0               	movwf	___fldiv@a+1
  4328  057B  0835               	movf	?___flmul,w
  4329  057C  00CF               	movwf	___fldiv@a
  4330  057D  3182  22D8  3184   	fcall	___fldiv
  4331  0580  0020               	movlb	0	; select bank0
  4332  0581  0852               	movf	?___fldiv+3,w
  4333  0582  0021               	movlb	1	; select bank1
  4334  0583  00DD               	movwf	(___fltol@f1+3)^(0+128)
  4335  0584  0020               	movlb	0	; select bank0
  4336  0585  0851               	movf	?___fldiv+2,w
  4337  0586  0021               	movlb	1	; select bank1
  4338  0587  00DC               	movwf	(___fltol@f1+2)^(0+128)
  4339  0588  0020               	movlb	0	; select bank0
  4340  0589  0850               	movf	?___fldiv+1,w
  4341  058A  0021               	movlb	1	; select bank1
  4342  058B  00DB               	movwf	(___fltol@f1+1)^(0+128)
  4343  058C  0020               	movlb	0	; select bank0
  4344  058D  084F               	movf	?___fldiv,w
  4345  058E  0021               	movlb	1	; select bank1
  4346  058F  00DA               	movwf	___fltol@f1^(0+128)
  4347  0590  3187  2749  3184   	fcall	___fltol
  4348  0593  0021               	movlb	1	; select bank1
  4349  0594  085B               	movf	(?___fltol+1)^(0+128),w
  4350  0595  00E6               	movwf	(??_main^(0+128)+1)
  4351  0596  085A               	movf	?___fltol^(0+128),w
  4352  0597  00E5               	movwf	??_main^(0+128)
  4353  0598  35E5               	lslf	??_main^(0+128),f
  4354  0599  0DE6               	rlf	(??_main^(0+128)+1),f
  4355  059A  35E5               	lslf	??_main^(0+128),f
  4356  059B  0DE6               	rlf	(??_main^(0+128)+1),f
  4357  059C  0865               	movf	??_main^(0+128),w
  4358  059D  00C4               	movwf	_speed^(0+128)
  4359  059E  0866               	movf	(??_main+1)^(0+128),w
  4360  059F  00C5               	movwf	(_speed+1)^(0+128)
  4361  05A0  2CC0               	goto	l3692
  4362  05A1  3180  285E         	ljmp	start
  4363  05A3                     __end_of_main:
  4364                           
  4365                           	psect	text1
  4366  0F1A                     __ptext1:	
  4367 ;; *************** function _initMAX7219 *****************
  4368 ;; Defined at:
  4369 ;;		line 74 in file "ledMatrix.c"
  4370 ;; Parameters:    Size  Location     Type
  4371 ;;		None
  4372 ;; Auto vars:     Size  Location     Type
  4373 ;;		None
  4374 ;; Return value:  Size  Location     Type
  4375 ;;                  1    wreg      void 
  4376 ;; Registers used:
  4377 ;;		wreg, status,2, status,0, pclath, cstack
  4378 ;; Tracked objects:
  4379 ;;		On entry : 0/0
  4380 ;;		On exit  : 0/0
  4381 ;;		Unchanged: 0/0
  4382 ;; Data sizes:     COMMON   BANK0   BANK1   BANK2   BANK3   BANK4
  4383 ;;      Params:         0       0       0       0       0       0
  4384 ;;      Locals:         0       0       0       0       0       0
  4385 ;;      Temps:          0       3       0       0       0       0
  4386 ;;      Totals:         0       3       0       0       0       0
  4387 ;;Total ram usage:        3 bytes
  4388 ;; Hardware stack levels used: 1
  4389 ;; Hardware stack levels required when called: 8
  4390 ;; This function calls:
  4391 ;;		_txMAX7219
  4392 ;; This function is called by:
  4393 ;;		_main
  4394 ;; This function uses a non-reentrant model
  4395 ;;
  4396                           
  4397                           
  4398                           ;psect for function _initMAX7219
  4399  0F1A                     _initMAX7219:
  4400  0F1A                     l3178:	
  4401                           ;incstack = 0
  4402                           ; Regs used in _initMAX7219: [wreg+status,2+status,0+pclath+cstack]
  4403                           
  4404                           
  4405                           ;ledMatrix.c: 76:     txMAX7219(0x09,0x00,0x09,0x00);
  4406  0F1A  0020               	movlb	0	; select bank0
  4407  0F1B  01A4               	clrf	txMAX7219@dat0
  4408  0F1C  3009               	movlw	9
  4409  0F1D  00A8               	movwf	??_initMAX7219
  4410  0F1E  0828               	movf	??_initMAX7219,w
  4411  0F1F  00A5               	movwf	txMAX7219@addr1
  4412  0F20  01A6               	clrf	txMAX7219@dat1
  4413  0F21  3009               	movlw	9
  4414  0F22  318D  25F0  318F   	fcall	_txMAX7219
  4415                           
  4416                           ;ledMatrix.c: 78:     txMAX7219(0x0A,0x00,0x09,0x00);
  4417  0F25  0020               	movlb	0	; select bank0
  4418  0F26  01A4               	clrf	txMAX7219@dat0
  4419  0F27  3009               	movlw	9
  4420  0F28  00A8               	movwf	??_initMAX7219
  4421  0F29  0828               	movf	??_initMAX7219,w
  4422  0F2A  00A5               	movwf	txMAX7219@addr1
  4423  0F2B  01A6               	clrf	txMAX7219@dat1
  4424  0F2C  300A               	movlw	10
  4425  0F2D  318D  25F0  318F   	fcall	_txMAX7219
  4426                           
  4427                           ;ledMatrix.c: 80:     txMAX7219(0x0C,0x00,0x0C,0x00);
  4428  0F30  0020               	movlb	0	; select bank0
  4429  0F31  01A4               	clrf	txMAX7219@dat0
  4430  0F32  300C               	movlw	12
  4431  0F33  00A8               	movwf	??_initMAX7219
  4432  0F34  0828               	movf	??_initMAX7219,w
  4433  0F35  00A5               	movwf	txMAX7219@addr1
  4434  0F36  01A6               	clrf	txMAX7219@dat1
  4435  0F37  300C               	movlw	12
  4436  0F38  318D  25F0  318F   	fcall	_txMAX7219
  4437                           
  4438                           ;ledMatrix.c: 82:     txMAX7219(0x0B,0x07,0x0B,0x07);
  4439  0F3B  3007               	movlw	7
  4440  0F3C  0020               	movlb	0	; select bank0
  4441  0F3D  00A8               	movwf	??_initMAX7219
  4442  0F3E  0828               	movf	??_initMAX7219,w
  4443  0F3F  00A4               	movwf	txMAX7219@dat0
  4444  0F40  300B               	movlw	11
  4445  0F41  00A9               	movwf	??_initMAX7219+1
  4446  0F42  0829               	movf	??_initMAX7219+1,w
  4447  0F43  00A5               	movwf	txMAX7219@addr1
  4448  0F44  3007               	movlw	7
  4449  0F45  00AA               	movwf	??_initMAX7219+2
  4450  0F46  082A               	movf	??_initMAX7219+2,w
  4451  0F47  00A6               	movwf	txMAX7219@dat1
  4452  0F48  300B               	movlw	11
  4453  0F49  318D  25F0  318F   	fcall	_txMAX7219
  4454                           
  4455                           ;ledMatrix.c: 84:     txMAX7219(0x0C,0x01,0x0C,0x01);
  4456  0F4C  0020               	movlb	0	; select bank0
  4457  0F4D  01A4               	clrf	txMAX7219@dat0
  4458  0F4E  0AA4               	incf	txMAX7219@dat0,f
  4459  0F4F  300C               	movlw	12
  4460  0F50  00A8               	movwf	??_initMAX7219
  4461  0F51  0828               	movf	??_initMAX7219,w
  4462  0F52  00A5               	movwf	txMAX7219@addr1
  4463  0F53  01A6               	clrf	txMAX7219@dat1
  4464  0F54  0AA6               	incf	txMAX7219@dat1,f
  4465  0F55  300C               	movlw	12
  4466  0F56  318D  25F0  318F   	fcall	_txMAX7219
  4467                           
  4468                           ;ledMatrix.c: 86:     txMAX7219(0x0F,0x01,0x0F,0x01);
  4469  0F59  0020               	movlb	0	; select bank0
  4470  0F5A  01A4               	clrf	txMAX7219@dat0
  4471  0F5B  0AA4               	incf	txMAX7219@dat0,f
  4472  0F5C  300F               	movlw	15
  4473  0F5D  00A8               	movwf	??_initMAX7219
  4474  0F5E  0828               	movf	??_initMAX7219,w
  4475  0F5F  00A5               	movwf	txMAX7219@addr1
  4476  0F60  01A6               	clrf	txMAX7219@dat1
  4477  0F61  0AA6               	incf	txMAX7219@dat1,f
  4478  0F62  300F               	movlw	15
  4479  0F63  318D  25F0  318F   	fcall	_txMAX7219
  4480  0F66                     l3180:
  4481                           
  4482                           ;ledMatrix.c: 87:     _delay((unsigned long)((1000)*(2000000/4000.0)));
  4483  0F66  3003               	movlw	3
  4484  0F67  0020               	movlb	0	; select bank0
  4485  0F68  00A9               	movwf	??_initMAX7219+1
  4486  0F69  308A               	movlw	138
  4487  0F6A  00A8               	movwf	??_initMAX7219
  4488  0F6B  3055               	movlw	85
  4489  0F6C                     u3237:
  4490  0F6C  0B89               	decfsz	9,f
  4491  0F6D  2F6C               	goto	u3237
  4492  0F6E  0BA8               	decfsz	??_initMAX7219,f
  4493  0F6F  2F6C               	goto	u3237
  4494  0F70  0BA9               	decfsz	??_initMAX7219+1,f
  4495  0F71  2F6C               	goto	u3237
  4496  0F72  3200               	nop2
  4497  0F73                     l3182:
  4498                           
  4499                           ;ledMatrix.c: 89:     txMAX7219(0x0F,0x00,0x0F,0x00);
  4500  0F73  0020               	movlb	0	; select bank0
  4501  0F74  01A4               	clrf	txMAX7219@dat0
  4502  0F75  300F               	movlw	15
  4503  0F76  00A8               	movwf	??_initMAX7219
  4504  0F77  0828               	movf	??_initMAX7219,w
  4505  0F78  00A5               	movwf	txMAX7219@addr1
  4506  0F79  01A6               	clrf	txMAX7219@dat1
  4507  0F7A  300F               	movlw	15
  4508  0F7B  318D  25F0  318F   	fcall	_txMAX7219
  4509  0F7E                     l3184:
  4510                           
  4511                           ;ledMatrix.c: 91:     txMAX7219(0x0C,0x01,0x0C,0x01);
  4512  0F7E  0020               	movlb	0	; select bank0
  4513  0F7F  01A4               	clrf	txMAX7219@dat0
  4514  0F80  0AA4               	incf	txMAX7219@dat0,f
  4515  0F81  300C               	movlw	12
  4516  0F82  00A8               	movwf	??_initMAX7219
  4517  0F83  0828               	movf	??_initMAX7219,w
  4518  0F84  00A5               	movwf	txMAX7219@addr1
  4519  0F85  01A6               	clrf	txMAX7219@dat1
  4520  0F86  0AA6               	incf	txMAX7219@dat1,f
  4521  0F87  300C               	movlw	12
  4522  0F88  318D  25F0  318F   	fcall	_txMAX7219
  4523  0F8B                     l822:
  4524  0F8B  0008               	return
  4525  0F8C                     __end_of_initMAX7219:
  4526                           
  4527                           	psect	text2
  4528  0DF0                     __ptext2:	
  4529 ;; *************** function _txMAX7219 *****************
  4530 ;; Defined at:
  4531 ;;		line 56 in file "ledMatrix.c"
  4532 ;; Parameters:    Size  Location     Type
  4533 ;;  addr0           1    wreg     unsigned char 
  4534 ;;  dat0            1    4[BANK0 ] unsigned char 
  4535 ;;  addr1           1    5[BANK0 ] unsigned char 
  4536 ;;  dat1            1    6[BANK0 ] unsigned char 
  4537 ;; Auto vars:     Size  Location     Type
  4538 ;;  addr0           1    7[BANK0 ] unsigned char 
  4539 ;; Return value:  Size  Location     Type
  4540 ;;                  1    wreg      void 
  4541 ;; Registers used:
  4542 ;;		wreg, status,2, status,0, pclath, cstack
  4543 ;; Tracked objects:
  4544 ;;		On entry : 0/0
  4545 ;;		On exit  : 0/0
  4546 ;;		Unchanged: 0/0
  4547 ;; Data sizes:     COMMON   BANK0   BANK1   BANK2   BANK3   BANK4
  4548 ;;      Params:         0       3       0       0       0       0
  4549 ;;      Locals:         0       1       0       0       0       0
  4550 ;;      Temps:          0       0       0       0       0       0
  4551 ;;      Totals:         0       4       0       0       0       0
  4552 ;;Total ram usage:        4 bytes
  4553 ;; Hardware stack levels used: 1
  4554 ;; Hardware stack levels required when called: 7
  4555 ;; This function calls:
  4556 ;;		_SPI1_WriteByte
  4557 ;; This function is called by:
  4558 ;;		_initMAX7219
  4559 ;;		_sendMatrix
  4560 ;; This function uses a non-reentrant model
  4561 ;;
  4562                           
  4563                           
  4564                           ;psect for function _txMAX7219
  4565  0DF0                     _txMAX7219:
  4566                           
  4567                           ;incstack = 0
  4568                           ; Regs used in _txMAX7219: [wreg+status,2+status,0+pclath+cstack]
  4569                           ;txMAX7219@addr0 stored from wreg
  4570  0DF0  0020               	movlb	0	; select bank0
  4571  0DF1  00A7               	movwf	txMAX7219@addr0
  4572  0DF2                     l803:	
  4573                           ;ledMatrix.c: 58:     do { LATBbits.LATB1 = 0; } while(0);
  4574                           
  4575  0DF2  0022               	movlb	2	; select bank2
  4576  0DF3  108D               	bcf	13,1	;volatile
  4577  0DF4                     l2966:
  4578                           
  4579                           ;ledMatrix.c: 59:     SPI1_WriteByte(addr0);
  4580  0DF4  0020               	movlb	0	; select bank0
  4581  0DF5  0827               	movf	txMAX7219@addr0,w
  4582  0DF6  318B  230B  318D   	fcall	_SPI1_WriteByte
  4583  0DF9                     l805:	
  4584                           ;ledMatrix.c: 60:     while(!PIR1bits.SSP1IF);
  4585                           
  4586  0DF9  0020               	movlb	0	; select bank0
  4587  0DFA  1D91               	btfss	17,3	;volatile
  4588  0DFB  2DFD               	goto	u1871
  4589  0DFC  2DFE               	goto	u1870
  4590  0DFD                     u1871:
  4591  0DFD  2DF9               	goto	l805
  4592  0DFE                     u1870:
  4593  0DFE                     l807:
  4594                           
  4595                           ;ledMatrix.c: 61:     PIR1bits.SSP1IF = 0;
  4596  0DFE  1191               	bcf	17,3	;volatile
  4597  0DFF                     l2968:
  4598                           
  4599                           ;ledMatrix.c: 62:     SPI1_WriteByte(dat0);
  4600  0DFF  0824               	movf	txMAX7219@dat0,w
  4601  0E00  318B  230B  318D   	fcall	_SPI1_WriteByte
  4602  0E03                     l808:	
  4603                           ;ledMatrix.c: 63:     while(!PIR1bits.SSP1IF);
  4604                           
  4605  0E03  0020               	movlb	0	; select bank0
  4606  0E04  1D91               	btfss	17,3	;volatile
  4607  0E05  2E07               	goto	u1881
  4608  0E06  2E08               	goto	u1880
  4609  0E07                     u1881:
  4610  0E07  2E03               	goto	l808
  4611  0E08                     u1880:
  4612  0E08                     l810:
  4613                           
  4614                           ;ledMatrix.c: 64:     PIR1bits.SSP1IF = 0;
  4615  0E08  1191               	bcf	17,3	;volatile
  4616  0E09                     l2970:
  4617                           
  4618                           ;ledMatrix.c: 65:     SPI1_WriteByte(addr1);
  4619  0E09  0825               	movf	txMAX7219@addr1,w
  4620  0E0A  318B  230B  318D   	fcall	_SPI1_WriteByte
  4621  0E0D                     l811:	
  4622                           ;ledMatrix.c: 66:     while(!PIR1bits.SSP1IF);
  4623                           
  4624  0E0D  0020               	movlb	0	; select bank0
  4625  0E0E  1D91               	btfss	17,3	;volatile
  4626  0E0F  2E11               	goto	u1891
  4627  0E10  2E12               	goto	u1890
  4628  0E11                     u1891:
  4629  0E11  2E0D               	goto	l811
  4630  0E12                     u1890:
  4631  0E12                     l813:
  4632                           
  4633                           ;ledMatrix.c: 67:     PIR1bits.SSP1IF = 0;
  4634  0E12  1191               	bcf	17,3	;volatile
  4635  0E13                     l2972:
  4636                           
  4637                           ;ledMatrix.c: 68:     SPI1_WriteByte(dat1);
  4638  0E13  0826               	movf	txMAX7219@dat1,w
  4639  0E14  318B  230B  318D   	fcall	_SPI1_WriteByte
  4640  0E17                     l814:	
  4641                           ;ledMatrix.c: 69:     while(!PIR1bits.SSP1IF);
  4642                           
  4643  0E17  0020               	movlb	0	; select bank0
  4644  0E18  1D91               	btfss	17,3	;volatile
  4645  0E19  2E1B               	goto	u1901
  4646  0E1A  2E1C               	goto	u1900
  4647  0E1B                     u1901:
  4648  0E1B  2E17               	goto	l814
  4649  0E1C                     u1900:
  4650  0E1C                     l816:
  4651                           
  4652                           ;ledMatrix.c: 70:     PIR1bits.SSP1IF = 0;
  4653  0E1C  1191               	bcf	17,3	;volatile
  4654  0E1D                     l817:	
  4655                           ;ledMatrix.c: 71:     do { LATBbits.LATB1 = 1; } while(0);
  4656                           
  4657  0E1D  0022               	movlb	2	; select bank2
  4658  0E1E  148D               	bsf	13,1	;volatile
  4659  0E1F                     l819:
  4660  0E1F  0008               	return
  4661  0E20                     __end_of_txMAX7219:
  4662                           
  4663                           	psect	text3
  4664  0B0B                     __ptext3:	
  4665 ;; *************** function _SPI1_WriteByte *****************
  4666 ;; Defined at:
  4667 ;;		line 131 in file "mcc_generated_files/spi1.c"
  4668 ;; Parameters:    Size  Location     Type
  4669 ;;  byte            1    wreg     unsigned char 
  4670 ;; Auto vars:     Size  Location     Type
  4671 ;;  byte            1    3[BANK0 ] unsigned char 
  4672 ;; Return value:  Size  Location     Type
  4673 ;;                  1    wreg      void 
  4674 ;; Registers used:
  4675 ;;		wreg
  4676 ;; Tracked objects:
  4677 ;;		On entry : 0/0
  4678 ;;		On exit  : 0/0
  4679 ;;		Unchanged: 0/0
  4680 ;; Data sizes:     COMMON   BANK0   BANK1   BANK2   BANK3   BANK4
  4681 ;;      Params:         0       0       0       0       0       0
  4682 ;;      Locals:         0       1       0       0       0       0
  4683 ;;      Temps:          0       0       0       0       0       0
  4684 ;;      Totals:         0       1       0       0       0       0
  4685 ;;Total ram usage:        1 bytes
  4686 ;; Hardware stack levels used: 1
  4687 ;; Hardware stack levels required when called: 6
  4688 ;; This function calls:
  4689 ;;		Nothing
  4690 ;; This function is called by:
  4691 ;;		_txMAX7219
  4692 ;; This function uses a non-reentrant model
  4693 ;;
  4694                           
  4695                           
  4696                           ;psect for function _SPI1_WriteByte
  4697  0B0B                     _SPI1_WriteByte:
  4698                           
  4699                           ;incstack = 0
  4700                           ; Regs used in _SPI1_WriteByte: [wreg]
  4701                           ;SPI1_WriteByte@byte stored from wreg
  4702  0B0B  0020               	movlb	0	; select bank0
  4703  0B0C  00A3               	movwf	SPI1_WriteByte@byte
  4704  0B0D                     l2690:
  4705                           
  4706                           ;mcc_generated_files/spi1.c: 131: void SPI1_WriteByte(uint8_t byte);mcc_generated_files/
      +                          spi1.c: 132: {;mcc_generated_files/spi1.c: 133:     SSP1BUF = byte;
  4707  0B0D  0823               	movf	SPI1_WriteByte@byte,w
  4708  0B0E  0024               	movlb	4	; select bank4
  4709  0B0F  0091               	movwf	17	;volatile
  4710  0B10                     l229:
  4711  0B10  0008               	return
  4712  0B11                     __end_of_SPI1_WriteByte:
  4713                           
  4714                           	psect	text4
  4715  0650                     __ptext4:	
  4716 ;; *************** function _controle *****************
  4717 ;; Defined at:
  4718 ;;		line 126 in file "main.c"
  4719 ;; Parameters:    Size  Location     Type
  4720 ;;		None
  4721 ;; Auto vars:     Size  Location     Type
  4722 ;;		None
  4723 ;; Return value:  Size  Location     Type
  4724 ;;                  1    wreg      void 
  4725 ;; Registers used:
  4726 ;;		wreg, status,2, status,0, pclath, cstack
  4727 ;; Tracked objects:
  4728 ;;		On entry : 0/0
  4729 ;;		On exit  : 0/0
  4730 ;;		Unchanged: 0/0
  4731 ;; Data sizes:     COMMON   BANK0   BANK1   BANK2   BANK3   BANK4
  4732 ;;      Params:         0       0       0       0       0       0
  4733 ;;      Locals:         0       0       0       0       0       0
  4734 ;;      Temps:          0       2       0       0       0       0
  4735 ;;      Totals:         0       2       0       0       0       0
  4736 ;;Total ram usage:        2 bytes
  4737 ;; Hardware stack levels used: 1
  4738 ;; Hardware stack levels required when called: 8
  4739 ;; This function calls:
  4740 ;;		_PWM3_LoadDutyValue
  4741 ;;		_deslocamento
  4742 ;; This function is called by:
  4743 ;;		_main
  4744 ;; This function uses a non-reentrant model
  4745 ;;
  4746                           
  4747                           
  4748                           ;psect for function _controle
  4749  0650                     _controle:
  4750  0650                     l3148:	
  4751                           ;incstack = 0
  4752                           ; Regs used in _controle: [wreg+status,2+status,0+pclath+cstack]
  4753                           
  4754                           
  4755                           ;main.c: 130:     if(pos_final>pos_atual){
  4756  0650  0020               	movlb	0	; select bank0
  4757  0651  086A               	movf	_pos_atual+1,w
  4758  0652  3A80               	xorlw	128
  4759  0653  00A9               	movwf	??_controle
  4760  0654  0021               	movlb	1	; select bank1
  4761  0655  0835               	movf	(_pos_final+1)^(0+128),w
  4762  0656  3A80               	xorlw	128
  4763  0657  0020               	movlb	0	; select bank0
  4764  0658  0229               	subwf	??_controle,w
  4765  0659  1D03               	skipz
  4766  065A  2E5F               	goto	u2135
  4767  065B  0021               	movlb	1	; select bank1
  4768  065C  0834               	movf	_pos_final^(0+128),w
  4769  065D  0020               	movlb	0	; select bank0
  4770  065E  0269               	subwf	_pos_atual,w
  4771  065F                     u2135:
  4772  065F  1803               	skipnc
  4773  0660  2E62               	goto	u2131
  4774  0661  2E63               	goto	u2130
  4775  0662                     u2131:
  4776  0662  2E86               	goto	l3160
  4777  0663                     u2130:
  4778  0663                     l3150:
  4779                           
  4780                           ;main.c: 131:         if(PORTAbits.RA7==0){
  4781  0663  0020               	movlb	0	; select bank0
  4782  0664  1B8C               	btfsc	12,7	;volatile
  4783  0665  2E67               	goto	u2141
  4784  0666  2E68               	goto	u2140
  4785  0667                     u2141:
  4786  0667  2E7B               	goto	l3156
  4787  0668                     u2140:
  4788  0668                     l3152:
  4789                           
  4790                           ;main.c: 132:             PWM3_LoadDutyValue(0);
  4791  0668  3000               	movlw	0
  4792  0669  00A3               	movwf	PWM3_LoadDutyValue@dutyValue
  4793  066A  00A4               	movwf	PWM3_LoadDutyValue@dutyValue+1
  4794  066B  318C  24B2  3186   	fcall	_PWM3_LoadDutyValue
  4795  066E                     l3154:
  4796                           
  4797                           ;main.c: 133:             _delay((unsigned long)((500)*(2000000/4000.0)));
  4798  066E  3002               	movlw	2
  4799  066F  0020               	movlb	0	; select bank0
  4800  0670  00AA               	movwf	??_controle+1
  4801  0671  3045               	movlw	69
  4802  0672  00A9               	movwf	??_controle
  4803  0673  30A9               	movlw	169
  4804  0674                     u3247:
  4805  0674  0B89               	decfsz	9,f
  4806  0675  2E74               	goto	u3247
  4807  0676  0BA9               	decfsz	??_controle,f
  4808  0677  2E74               	goto	u3247
  4809  0678  0BAA               	decfsz	??_controle+1,f
  4810  0679  2E74               	goto	u3247
  4811  067A  3200               	nop2
  4812  067B                     l3156:
  4813  067B  0022               	movlb	2	; select bank2
  4814  067C  178C               	bsf	12,7	;volatile
  4815  067D                     l3158:
  4816                           
  4817                           ;main.c: 137:         motor = 1;
  4818  067D  3001               	movlw	1
  4819  067E  0021               	movlb	1	; select bank1
  4820  067F  00C2               	movwf	_motor^(0+128)
  4821  0680  3000               	movlw	0
  4822  0681  00C3               	movwf	(_motor^(0+128)+1)
  4823                           
  4824                           ;main.c: 138:         deslocamento();
  4825  0682  318D  2591  3186   	fcall	_deslocamento
  4826                           
  4827                           ;main.c: 140:     } else if(pos_final<pos_atual){
  4828  0685  2ED2               	goto	l751
  4829  0686                     l3160:
  4830  0686  0021               	movlb	1	; select bank1
  4831  0687  0835               	movf	(_pos_final+1)^(0+128),w
  4832  0688  3A80               	xorlw	128
  4833  0689  0020               	movlb	0	; select bank0
  4834  068A  00A9               	movwf	??_controle
  4835  068B  086A               	movf	_pos_atual+1,w
  4836  068C  3A80               	xorlw	128
  4837  068D  0229               	subwf	??_controle,w
  4838  068E  1D03               	skipz
  4839  068F  2E93               	goto	u2155
  4840  0690  0869               	movf	_pos_atual,w
  4841  0691  0021               	movlb	1	; select bank1
  4842  0692  0234               	subwf	_pos_final^(0+128),w
  4843  0693                     u2155:
  4844  0693  1803               	skipnc
  4845  0694  2E96               	goto	u2151
  4846  0695  2E97               	goto	u2150
  4847  0696                     u2151:
  4848  0696  2EBA               	goto	l3172
  4849  0697                     u2150:
  4850  0697                     l3162:
  4851                           
  4852                           ;main.c: 141:         if(PORTAbits.RA7==1){
  4853  0697  0020               	movlb	0	; select bank0
  4854  0698  1F8C               	btfss	12,7	;volatile
  4855  0699  2E9B               	goto	u2161
  4856  069A  2E9C               	goto	u2160
  4857  069B                     u2161:
  4858  069B  2EAF               	goto	l3168
  4859  069C                     u2160:
  4860  069C                     l3164:
  4861                           
  4862                           ;main.c: 142:             PWM3_LoadDutyValue(0);
  4863  069C  3000               	movlw	0
  4864  069D  00A3               	movwf	PWM3_LoadDutyValue@dutyValue
  4865  069E  00A4               	movwf	PWM3_LoadDutyValue@dutyValue+1
  4866  069F  318C  24B2  3186   	fcall	_PWM3_LoadDutyValue
  4867  06A2                     l3166:
  4868                           
  4869                           ;main.c: 143:             _delay((unsigned long)((500)*(2000000/4000.0)));
  4870  06A2  3002               	movlw	2
  4871  06A3  0020               	movlb	0	; select bank0
  4872  06A4  00AA               	movwf	??_controle+1
  4873  06A5  3045               	movlw	69
  4874  06A6  00A9               	movwf	??_controle
  4875  06A7  30A9               	movlw	169
  4876  06A8                     u3257:
  4877  06A8  0B89               	decfsz	9,f
  4878  06A9  2EA8               	goto	u3257
  4879  06AA  0BA9               	decfsz	??_controle,f
  4880  06AB  2EA8               	goto	u3257
  4881  06AC  0BAA               	decfsz	??_controle+1,f
  4882  06AD  2EA8               	goto	u3257
  4883  06AE  3200               	nop2
  4884  06AF                     l3168:
  4885  06AF  0022               	movlb	2	; select bank2
  4886  06B0  138C               	bcf	12,7	;volatile
  4887  06B1                     l3170:
  4888                           
  4889                           ;main.c: 147:         motor = 2;
  4890  06B1  3002               	movlw	2
  4891  06B2  0021               	movlb	1	; select bank1
  4892  06B3  00C2               	movwf	_motor^(0+128)
  4893  06B4  3000               	movlw	0
  4894  06B5  00C3               	movwf	(_motor^(0+128)+1)
  4895                           
  4896                           ;main.c: 148:         deslocamento();
  4897  06B6  318D  2591  3186   	fcall	_deslocamento
  4898                           
  4899                           ;main.c: 149:     } else if(pos_final==pos_atual){
  4900  06B9  2ED2               	goto	l751
  4901  06BA                     l3172:
  4902  06BA  0020               	movlb	0	; select bank0
  4903  06BB  086A               	movf	_pos_atual+1,w
  4904  06BC  0021               	movlb	1	; select bank1
  4905  06BD  0635               	xorwf	(_pos_final+1)^(0+128),w
  4906  06BE  1D03               	skipz
  4907  06BF  2EC4               	goto	u2175
  4908  06C0  0020               	movlb	0	; select bank0
  4909  06C1  0869               	movf	_pos_atual,w
  4910  06C2  0021               	movlb	1	; select bank1
  4911  06C3  0634               	xorwf	_pos_final^(0+128),w
  4912  06C4                     u2175:
  4913  06C4  1D03               	skipz
  4914  06C5  2EC7               	goto	u2171
  4915  06C6  2EC8               	goto	u2170
  4916  06C7                     u2171:
  4917  06C7  2ECB               	goto	l3176
  4918  06C8                     u2170:
  4919  06C8                     l3174:
  4920                           
  4921                           ;main.c: 150:         motor = 0;
  4922  06C8  01C2               	clrf	_motor^(0+128)
  4923  06C9  01C3               	clrf	(_motor+1)^(0+128)
  4924                           
  4925                           ;main.c: 152:     } else{
  4926  06CA  2ED2               	goto	l751
  4927  06CB                     l3176:
  4928                           
  4929                           ;main.c: 153:         PWM3_LoadDutyValue(0);
  4930  06CB  3000               	movlw	0
  4931  06CC  0020               	movlb	0	; select bank0
  4932  06CD  00A3               	movwf	PWM3_LoadDutyValue@dutyValue
  4933  06CE  00A4               	movwf	PWM3_LoadDutyValue@dutyValue+1
  4934  06CF  318C  24B2  3186   	fcall	_PWM3_LoadDutyValue
  4935  06D2                     l751:
  4936  06D2  0008               	return
  4937  06D3                     __end_of_controle:
  4938                           
  4939                           	psect	text5
  4940  0D91                     __ptext5:	
  4941 ;; *************** function _deslocamento *****************
  4942 ;; Defined at:
  4943 ;;		line 111 in file "main.c"
  4944 ;; Parameters:    Size  Location     Type
  4945 ;;		None
  4946 ;; Auto vars:     Size  Location     Type
  4947 ;;		None
  4948 ;; Return value:  Size  Location     Type
  4949 ;;                  1    wreg      void 
  4950 ;; Registers used:
  4951 ;;		wreg, status,2, status,0, pclath, cstack
  4952 ;; Tracked objects:
  4953 ;;		On entry : 0/0
  4954 ;;		On exit  : 0/0
  4955 ;;		Unchanged: 0/0
  4956 ;; Data sizes:     COMMON   BANK0   BANK1   BANK2   BANK3   BANK4
  4957 ;;      Params:         0       0       0       0       0       0
  4958 ;;      Locals:         0       0       0       0       0       0
  4959 ;;      Temps:          0       2       0       0       0       0
  4960 ;;      Totals:         0       2       0       0       0       0
  4961 ;;Total ram usage:        2 bytes
  4962 ;; Hardware stack levels used: 1
  4963 ;; Hardware stack levels required when called: 7
  4964 ;; This function calls:
  4965 ;;		_PWM3_LoadDutyValue
  4966 ;; This function is called by:
  4967 ;;		_controle
  4968 ;; This function uses a non-reentrant model
  4969 ;;
  4970                           
  4971                           
  4972                           ;psect for function _deslocamento
  4973  0D91                     _deslocamento:
  4974  0D91                     l3002:	
  4975                           ;incstack = 0
  4976                           ; Regs used in _deslocamento: [wreg+status,2+status,0+pclath+cstack]
  4977                           
  4978                           
  4979                           ;main.c: 114:     while(pos_final!=pos_atual){
  4980  0D91  2D9A               	goto	l3006
  4981  0D92                     l3004:
  4982                           
  4983                           ;main.c: 116:         PWM3_LoadDutyValue(510);
  4984  0D92  30FE               	movlw	254
  4985  0D93  0020               	movlb	0	; select bank0
  4986  0D94  00A3               	movwf	PWM3_LoadDutyValue@dutyValue
  4987  0D95  3001               	movlw	1
  4988  0D96  00A4               	movwf	PWM3_LoadDutyValue@dutyValue+1
  4989  0D97  318C  24B2  318D   	fcall	_PWM3_LoadDutyValue
  4990  0D9A                     l3006:
  4991                           
  4992                           ;main.c: 114:     while(pos_final!=pos_atual){
  4993  0D9A  0020               	movlb	0	; select bank0
  4994  0D9B  086A               	movf	_pos_atual+1,w
  4995  0D9C  0021               	movlb	1	; select bank1
  4996  0D9D  0635               	xorwf	(_pos_final+1)^(0+128),w
  4997  0D9E  1D03               	skipz
  4998  0D9F  2DA4               	goto	u1955
  4999  0DA0  0020               	movlb	0	; select bank0
  5000  0DA1  0869               	movf	_pos_atual,w
  5001  0DA2  0021               	movlb	1	; select bank1
  5002  0DA3  0634               	xorwf	_pos_final^(0+128),w
  5003  0DA4                     u1955:
  5004  0DA4  1D03               	skipz
  5005  0DA5  2DA7               	goto	u1951
  5006  0DA6  2DA8               	goto	u1950
  5007  0DA7                     u1951:
  5008  0DA7  2D92               	goto	l3004
  5009  0DA8                     u1950:
  5010  0DA8                     l3008:
  5011                           
  5012                           ;main.c: 119:     PWM3_LoadDutyValue(0);
  5013  0DA8  3000               	movlw	0
  5014  0DA9  0020               	movlb	0	; select bank0
  5015  0DAA  00A3               	movwf	PWM3_LoadDutyValue@dutyValue
  5016  0DAB  00A4               	movwf	PWM3_LoadDutyValue@dutyValue+1
  5017  0DAC  318C  24B2  318D   	fcall	_PWM3_LoadDutyValue
  5018  0DAF                     l3010:
  5019                           
  5020                           ;main.c: 120:     motor = 0;
  5021  0DAF  0021               	movlb	1	; select bank1
  5022  0DB0  01C2               	clrf	_motor^(0+128)
  5023  0DB1  01C3               	clrf	(_motor+1)^(0+128)
  5024  0DB2                     l3012:
  5025                           
  5026                           ;main.c: 121:     _delay((unsigned long)((2000)*(2000000/4000.0)));
  5027  0DB2  3006               	movlw	6
  5028  0DB3  0020               	movlb	0	; select bank0
  5029  0DB4  00A8               	movwf	??_deslocamento+1
  5030  0DB5  3013               	movlw	19
  5031  0DB6  00A7               	movwf	??_deslocamento
  5032  0DB7  30AD               	movlw	173
  5033  0DB8                     u3267:
  5034  0DB8  0B89               	decfsz	9,f
  5035  0DB9  2DB8               	goto	u3267
  5036  0DBA  0BA7               	decfsz	??_deslocamento,f
  5037  0DBB  2DB8               	goto	u3267
  5038  0DBC  0BA8               	decfsz	??_deslocamento+1,f
  5039  0DBD  2DB8               	goto	u3267
  5040  0DBE  3200               	nop2
  5041  0DBF                     l736:
  5042  0DBF  0008               	return
  5043  0DC0                     __end_of_deslocamento:
  5044                           
  5045                           	psect	text6
  5046  0CB2                     __ptext6:	
  5047 ;; *************** function _PWM3_LoadDutyValue *****************
  5048 ;; Defined at:
  5049 ;;		line 82 in file "mcc_generated_files/pwm3.c"
  5050 ;; Parameters:    Size  Location     Type
  5051 ;;  dutyValue       2    3[BANK0 ] unsigned short 
  5052 ;; Auto vars:     Size  Location     Type
  5053 ;;		None
  5054 ;; Return value:  Size  Location     Type
  5055 ;;                  1    wreg      void 
  5056 ;; Registers used:
  5057 ;;		wreg, status,2, status,0
  5058 ;; Tracked objects:
  5059 ;;		On entry : 0/0
  5060 ;;		On exit  : 0/0
  5061 ;;		Unchanged: 0/0
  5062 ;; Data sizes:     COMMON   BANK0   BANK1   BANK2   BANK3   BANK4
  5063 ;;      Params:         0       2       0       0       0       0
  5064 ;;      Locals:         0       0       0       0       0       0
  5065 ;;      Temps:          0       2       0       0       0       0
  5066 ;;      Totals:         0       4       0       0       0       0
  5067 ;;Total ram usage:        4 bytes
  5068 ;; Hardware stack levels used: 1
  5069 ;; Hardware stack levels required when called: 6
  5070 ;; This function calls:
  5071 ;;		Nothing
  5072 ;; This function is called by:
  5073 ;;		_deslocamento
  5074 ;;		_controle
  5075 ;;		_main
  5076 ;; This function uses a non-reentrant model
  5077 ;;
  5078                           
  5079                           
  5080                           ;psect for function _PWM3_LoadDutyValue
  5081  0CB2                     _PWM3_LoadDutyValue:
  5082  0CB2                     l2734:	
  5083                           ;incstack = 0
  5084                           ; Regs used in _PWM3_LoadDutyValue: [wreg+status,2+status,0]
  5085                           
  5086                           
  5087                           ;mcc_generated_files/pwm3.c: 82: void PWM3_LoadDutyValue(uint16_t dutyValue);mcc_generat
      +                          ed_files/pwm3.c: 83: {;mcc_generated_files/pwm3.c: 85:     CCPR3L = ((dutyValue & 0x03FC
      +                          )>>2);
  5088  0CB2  0020               	movlb	0	; select bank0
  5089  0CB3  0824               	movf	PWM3_LoadDutyValue@dutyValue+1,w
  5090  0CB4  00A6               	movwf	??_PWM3_LoadDutyValue+1
  5091  0CB5  0823               	movf	PWM3_LoadDutyValue@dutyValue,w
  5092  0CB6  00A5               	movwf	??_PWM3_LoadDutyValue
  5093  0CB7  36A6               	lsrf	??_PWM3_LoadDutyValue+1,f
  5094  0CB8  0CA5               	rrf	??_PWM3_LoadDutyValue,f
  5095  0CB9  36A6               	lsrf	??_PWM3_LoadDutyValue+1,f
  5096  0CBA  0CA5               	rrf	??_PWM3_LoadDutyValue,f
  5097  0CBB  0825               	movf	??_PWM3_LoadDutyValue,w
  5098  0CBC  0026               	movlb	6	; select bank6
  5099  0CBD  0091               	movwf	17	;volatile
  5100                           
  5101                           ;mcc_generated_files/pwm3.c: 88:     CCP3CON = ((uint8_t)(CCP3CON & 0xCF) | ((dutyValue 
      +                          & 0x0003)<<4));
  5102  0CBE  0020               	movlb	0	; select bank0
  5103  0CBF  0823               	movf	PWM3_LoadDutyValue@dutyValue,w
  5104  0CC0  3903               	andlw	3
  5105  0CC1  00A5               	movwf	??_PWM3_LoadDutyValue
  5106  0CC2  3004               	movlw	4
  5107  0CC3                     u1735:
  5108  0CC3  35A5               	lslf	??_PWM3_LoadDutyValue,f
  5109  0CC4  0B89               	decfsz	9,f
  5110  0CC5  2CC3               	goto	u1735
  5111  0CC6  0026               	movlb	6	; select bank6
  5112  0CC7  0813               	movf	19,w	;volatile
  5113  0CC8  39CF               	andlw	207
  5114  0CC9  0020               	movlb	0	; select bank0
  5115  0CCA  0425               	iorwf	??_PWM3_LoadDutyValue,w
  5116  0CCB  0026               	movlb	6	; select bank6
  5117  0CCC  0093               	movwf	19	;volatile
  5118  0CCD                     l426:
  5119  0CCD  0008               	return
  5120  0CCE                     __end_of_PWM3_LoadDutyValue:
  5121                           
  5122                           	psect	text7
  5123  0EBB                     __ptext7:	
  5124 ;; *************** function _andar *****************
  5125 ;; Defined at:
  5126 ;;		line 95 in file "main.c"
  5127 ;; Parameters:    Size  Location     Type
  5128 ;;		None
  5129 ;; Auto vars:     Size  Location     Type
  5130 ;;  i               2    8[BANK0 ] int 
  5131 ;;  i               2    6[BANK0 ] int 
  5132 ;; Return value:  Size  Location     Type
  5133 ;;                  1    wreg      void 
  5134 ;; Registers used:
  5135 ;;		wreg, fsr1l, fsr1h, status,2, status,0, pclath, cstack
  5136 ;; Tracked objects:
  5137 ;;		On entry : 0/0
  5138 ;;		On exit  : 0/0
  5139 ;;		Unchanged: 0/0
  5140 ;; Data sizes:     COMMON   BANK0   BANK1   BANK2   BANK3   BANK4
  5141 ;;      Params:         0       0       0       0       0       0
  5142 ;;      Locals:         0       4       0       0       0       0
  5143 ;;      Temps:          0       2       0       0       0       0
  5144 ;;      Totals:         0       6       0       0       0       0
  5145 ;;Total ram usage:        6 bytes
  5146 ;; Hardware stack levels used: 1
  5147 ;; Hardware stack levels required when called: 7
  5148 ;; This function calls:
  5149 ;;		_DATAEE_ReadByte
  5150 ;; This function is called by:
  5151 ;;		_main
  5152 ;; This function uses a non-reentrant model
  5153 ;;
  5154                           
  5155                           
  5156                           ;psect for function _andar
  5157  0EBB                     _andar:
  5158  0EBB                     l3122:	
  5159                           ;incstack = 0
  5160                           ; Regs used in _andar: [wreg+fsr1l+fsr1h+status,2+status,0+pclath+cstack]
  5161                           
  5162                           
  5163                           ;main.c: 96:     u = pos_atual;
  5164  0EBB  0020               	movlb	0	; select bank0
  5165  0EBC  086A               	movf	_pos_atual+1,w
  5166  0EBD  0021               	movlb	1	; select bank1
  5167  0EBE  00B3               	movwf	(_u+1)^(0+128)
  5168  0EBF  0020               	movlb	0	; select bank0
  5169  0EC0  0869               	movf	_pos_atual,w
  5170  0EC1  0021               	movlb	1	; select bank1
  5171  0EC2  00B2               	movwf	_u^(0+128)
  5172  0EC3                     l3124:
  5173                           
  5174                           ;main.c: 97:     for (int i =0;i<4;i++)
  5175  0EC3  0020               	movlb	0	; select bank0
  5176  0EC4  01A6               	clrf	andar@i
  5177  0EC5  01A7               	clrf	andar@i+1
  5178  0EC6                     l3130:
  5179                           
  5180                           ;main.c: 98:     {;main.c: 99:         LED[i]= DATAEE_ReadByte(i+((1+u)*4));
  5181  0EC6  0021               	movlb	1	; select bank1
  5182  0EC7  0832               	movf	_u^(0+128),w
  5183  0EC8  0020               	movlb	0	; select bank0
  5184  0EC9  00A4               	movwf	??_andar
  5185  0ECA  3001               	movlw	1
  5186  0ECB                     u2095:
  5187  0ECB  35A4               	lslf	??_andar,f
  5188  0ECC  3EFF               	addlw	-1
  5189  0ECD  1D03               	skipz
  5190  0ECE  2ECB               	goto	u2095
  5191  0ECF  3524               	lslf	??_andar,w
  5192  0ED0  0726               	addwf	andar@i,w
  5193  0ED1  3E04               	addlw	4
  5194  0ED2  3187  27F2  318E   	fcall	_DATAEE_ReadByte
  5195  0ED5  0020               	movlb	0	; select bank0
  5196  0ED6  00A5               	movwf	??_andar+1
  5197  0ED7  0826               	movf	andar@i,w
  5198  0ED8  3EA0               	addlw	(low (_LED| 0))& (0+255)
  5199  0ED9  0086               	movwf	6
  5200  0EDA  0187               	clrf	7
  5201  0EDB  0825               	movf	??_andar+1,w
  5202  0EDC  0081               	movwf	1
  5203  0EDD                     l3132:
  5204                           
  5205                           ;main.c: 100:     }
  5206  0EDD  3001               	movlw	1
  5207  0EDE  07A6               	addwf	andar@i,f
  5208  0EDF  3000               	movlw	0
  5209  0EE0  3DA7               	addwfc	andar@i+1,f
  5210  0EE1                     l3134:
  5211  0EE1  0827               	movf	andar@i+1,w
  5212  0EE2  3A80               	xorlw	128
  5213  0EE3  00A4               	movwf	??_andar
  5214  0EE4  3080               	movlw	128
  5215  0EE5  0224               	subwf	??_andar,w
  5216  0EE6  1D03               	skipz
  5217  0EE7  2EEA               	goto	u2105
  5218  0EE8  3004               	movlw	4
  5219  0EE9  0226               	subwf	andar@i,w
  5220  0EEA                     u2105:
  5221  0EEA  1C03               	skipc
  5222  0EEB  2EED               	goto	u2101
  5223  0EEC  2EEE               	goto	u2100
  5224  0EED                     u2101:
  5225  0EED  2EC6               	goto	l3130
  5226  0EEE                     u2100:
  5227  0EEE                     l3136:
  5228                           
  5229                           ;main.c: 105:     for (int i =0;i<4;i++)
  5230  0EEE  0020               	movlb	0	; select bank0
  5231  0EEF  01A8               	clrf	andar@i_1609
  5232  0EF0  01A9               	clrf	andar@i_1609+1
  5233  0EF1                     l3142:
  5234                           
  5235                           ;main.c: 106:     {;main.c: 107:         LED[4+i]= DATAEE_ReadByte(i+((7+motor)*4));
  5236  0EF1  0021               	movlb	1	; select bank1
  5237  0EF2  0842               	movf	_motor^(0+128),w
  5238  0EF3  0020               	movlb	0	; select bank0
  5239  0EF4  00A4               	movwf	??_andar
  5240  0EF5  3001               	movlw	1
  5241  0EF6                     u2115:
  5242  0EF6  35A4               	lslf	??_andar,f
  5243  0EF7  3EFF               	addlw	-1
  5244  0EF8  1D03               	skipz
  5245  0EF9  2EF6               	goto	u2115
  5246  0EFA  3524               	lslf	??_andar,w
  5247  0EFB  0728               	addwf	andar@i_1609,w
  5248  0EFC  3E1C               	addlw	28
  5249  0EFD  3187  27F2  318E   	fcall	_DATAEE_ReadByte
  5250  0F00  0020               	movlb	0	; select bank0
  5251  0F01  00A5               	movwf	??_andar+1
  5252  0F02  0828               	movf	andar@i_1609,w
  5253  0F03  3EA4               	addlw	(low ((_LED| 0+4)))& (0+255)
  5254  0F04  0086               	movwf	6
  5255  0F05  0187               	clrf	7
  5256  0F06  0825               	movf	??_andar+1,w
  5257  0F07  0081               	movwf	1
  5258  0F08                     l3144:
  5259                           
  5260                           ;main.c: 108:     }
  5261  0F08  3001               	movlw	1
  5262  0F09  07A8               	addwf	andar@i_1609,f
  5263  0F0A  3000               	movlw	0
  5264  0F0B  3DA9               	addwfc	andar@i_1609+1,f
  5265  0F0C                     l3146:
  5266  0F0C  0829               	movf	andar@i_1609+1,w
  5267  0F0D  3A80               	xorlw	128
  5268  0F0E  00A4               	movwf	??_andar
  5269  0F0F  3080               	movlw	128
  5270  0F10  0224               	subwf	??_andar,w
  5271  0F11  1D03               	skipz
  5272  0F12  2F15               	goto	u2125
  5273  0F13  3004               	movlw	4
  5274  0F14  0228               	subwf	andar@i_1609,w
  5275  0F15                     u2125:
  5276  0F15  1C03               	skipc
  5277  0F16  2F18               	goto	u2121
  5278  0F17  2F19               	goto	u2120
  5279  0F18                     u2121:
  5280  0F18  2EF1               	goto	l3142
  5281  0F19                     u2120:
  5282  0F19                     l730:
  5283  0F19  0008               	return
  5284  0F1A                     __end_of_andar:
  5285                           
  5286                           	psect	text8
  5287  07F2                     __ptext8:	
  5288 ;; *************** function _DATAEE_ReadByte *****************
  5289 ;; Defined at:
  5290 ;;		line 211 in file "mcc_generated_files/memory.c"
  5291 ;; Parameters:    Size  Location     Type
  5292 ;;  bAdd            1    wreg     unsigned char 
  5293 ;; Auto vars:     Size  Location     Type
  5294 ;;  bAdd            1    3[BANK0 ] unsigned char 
  5295 ;; Return value:  Size  Location     Type
  5296 ;;                  1    wreg      unsigned char 
  5297 ;; Registers used:
  5298 ;;		wreg
  5299 ;; Tracked objects:
  5300 ;;		On entry : 0/0
  5301 ;;		On exit  : 0/0
  5302 ;;		Unchanged: 0/0
  5303 ;; Data sizes:     COMMON   BANK0   BANK1   BANK2   BANK3   BANK4
  5304 ;;      Params:         0       0       0       0       0       0
  5305 ;;      Locals:         0       1       0       0       0       0
  5306 ;;      Temps:          0       0       0       0       0       0
  5307 ;;      Totals:         0       1       0       0       0       0
  5308 ;;Total ram usage:        1 bytes
  5309 ;; Hardware stack levels used: 1
  5310 ;; Hardware stack levels required when called: 6
  5311 ;; This function calls:
  5312 ;;		Nothing
  5313 ;; This function is called by:
  5314 ;;		_andar
  5315 ;;		_updateMatrix
  5316 ;; This function uses a non-reentrant model
  5317 ;;
  5318                           
  5319                           
  5320                           ;psect for function _DATAEE_ReadByte
  5321  07F2                     _DATAEE_ReadByte:
  5322                           
  5323                           ;incstack = 0
  5324                           ; Regs used in _DATAEE_ReadByte: [wreg]
  5325                           ;DATAEE_ReadByte@bAdd stored from wreg
  5326  07F2  0020               	movlb	0	; select bank0
  5327  07F3  00A3               	movwf	DATAEE_ReadByte@bAdd
  5328  07F4                     l2952:
  5329                           
  5330                           ;mcc_generated_files/memory.c: 211: uint8_t DATAEE_ReadByte(uint8_t bAdd);mcc_generated_
      +                          files/memory.c: 212: {;mcc_generated_files/memory.c: 213:     EEADRL = (uint8_t)(bAdd & 
      +                          0x0ff);
  5331  07F4  0823               	movf	DATAEE_ReadByte@bAdd,w
  5332  07F5  0023               	movlb	3	; select bank3
  5333  07F6  0091               	movwf	17	;volatile
  5334  07F7                     l2954:
  5335                           
  5336                           ;mcc_generated_files/memory.c: 214:     EECON1bits.CFGS = 0;
  5337  07F7  1315               	bcf	21,6	;volsfr
  5338  07F8                     l2956:
  5339                           
  5340                           ;mcc_generated_files/memory.c: 215:     EECON1bits.EEPGD = 0;
  5341  07F8  1395               	bcf	21,7	;volsfr
  5342  07F9                     l2958:
  5343                           
  5344                           ;mcc_generated_files/memory.c: 216:     EECON1bits.RD = 1;
  5345  07F9  1415               	bsf	21,0	;volsfr
  5346  07FA                     l2960:
  5347                           
  5348                           ;mcc_generated_files/memory.c: 217:     __nop();
  5349  07FA  0000               	nop
  5350  07FB                     l2962:
  5351                           
  5352                           ;mcc_generated_files/memory.c: 218:     __nop();
  5353  07FB  0000               	nop
  5354                           
  5355                           ;mcc_generated_files/memory.c: 220:     return (EEDATL);
  5356  07FC  0023               	movlb	3	; select bank3
  5357  07FD  0813               	movf	19,w	;volatile
  5358  07FE                     l171:
  5359  07FE  0008               	return
  5360  07FF                     __end_of_DATAEE_ReadByte:
  5361                           
  5362                           	psect	text9
  5363  05A3                     __ptext9:	
  5364 ;; *************** function ___xxtofl *****************
  5365 ;; Defined at:
  5366 ;;		line 10 in file "C:\Program Files\Microchip\xc8\v2.32\pic\sources\c99\common\xxtofl.c"
  5367 ;; Parameters:    Size  Location     Type
  5368 ;;  sign            1    wreg     unsigned char 
  5369 ;;  val             4    7[BANK0 ] long 
  5370 ;; Auto vars:     Size  Location     Type
  5371 ;;  sign            1   15[BANK0 ] unsigned char 
  5372 ;;  arg             4   17[BANK0 ] unsigned long 
  5373 ;;  exp             1   16[BANK0 ] unsigned char 
  5374 ;; Return value:  Size  Location     Type
  5375 ;;                  4    7[BANK0 ] unsigned char 
  5376 ;; Registers used:
  5377 ;;		wreg, status,2, status,0
  5378 ;; Tracked objects:
  5379 ;;		On entry : 0/0
  5380 ;;		On exit  : 0/0
  5381 ;;		Unchanged: 0/0
  5382 ;; Data sizes:     COMMON   BANK0   BANK1   BANK2   BANK3   BANK4
  5383 ;;      Params:         0       4       0       0       0       0
  5384 ;;      Locals:         0       6       0       0       0       0
  5385 ;;      Temps:          0       4       0       0       0       0
  5386 ;;      Totals:         0      14       0       0       0       0
  5387 ;;Total ram usage:       14 bytes
  5388 ;; Hardware stack levels used: 1
  5389 ;; Hardware stack levels required when called: 6
  5390 ;; This function calls:
  5391 ;;		Nothing
  5392 ;; This function is called by:
  5393 ;;		_main
  5394 ;; This function uses a non-reentrant model
  5395 ;;
  5396                           
  5397                           
  5398                           ;psect for function ___xxtofl
  5399  05A3                     ___xxtofl:
  5400                           
  5401                           ;incstack = 0
  5402                           ; Regs used in ___xxtofl: [wreg+status,2+status,0]
  5403                           ;___xxtofl@sign stored from wreg
  5404  05A3  0020               	movlb	0	; select bank0
  5405  05A4  00AF               	movwf	___xxtofl@sign
  5406  05A5                     l3502:
  5407  05A5  082F               	movf	___xxtofl@sign,w
  5408  05A6  1903               	btfsc	3,2
  5409  05A7  2DA9               	goto	u2831
  5410  05A8  2DAA               	goto	u2830
  5411  05A9                     u2831:
  5412  05A9  2DBE               	goto	l3508
  5413  05AA                     u2830:
  5414  05AA                     l3504:
  5415  05AA  1FAA               	btfss	___xxtofl@val+3,7
  5416  05AB  2DAD               	goto	u2841
  5417  05AC  2DAE               	goto	u2840
  5418  05AD                     u2841:
  5419  05AD  2DBE               	goto	l3508
  5420  05AE                     u2840:
  5421  05AE                     l3506:
  5422  05AE  0927               	comf	___xxtofl@val,w
  5423  05AF  00B1               	movwf	___xxtofl@arg
  5424  05B0  0928               	comf	___xxtofl@val+1,w
  5425  05B1  00B2               	movwf	___xxtofl@arg+1
  5426  05B2  0929               	comf	___xxtofl@val+2,w
  5427  05B3  00B3               	movwf	___xxtofl@arg+2
  5428  05B4  092A               	comf	___xxtofl@val+3,w
  5429  05B5  00B4               	movwf	___xxtofl@arg+3
  5430  05B6  0AB1               	incf	___xxtofl@arg,f
  5431  05B7  1903               	skipnz
  5432  05B8  0AB2               	incf	___xxtofl@arg+1,f
  5433  05B9  1903               	skipnz
  5434  05BA  0AB3               	incf	___xxtofl@arg+2,f
  5435  05BB  1903               	skipnz
  5436  05BC  0AB4               	incf	___xxtofl@arg+3,f
  5437  05BD  2DC6               	goto	l1423
  5438  05BE                     l3508:
  5439  05BE  082A               	movf	___xxtofl@val+3,w
  5440  05BF  00B4               	movwf	___xxtofl@arg+3
  5441  05C0  0829               	movf	___xxtofl@val+2,w
  5442  05C1  00B3               	movwf	___xxtofl@arg+2
  5443  05C2  0828               	movf	___xxtofl@val+1,w
  5444  05C3  00B2               	movwf	___xxtofl@arg+1
  5445  05C4  0827               	movf	___xxtofl@val,w
  5446  05C5  00B1               	movwf	___xxtofl@arg
  5447  05C6                     l1423:
  5448  05C6  082A               	movf	___xxtofl@val+3,w
  5449  05C7  0429               	iorwf	___xxtofl@val+2,w
  5450  05C8  0428               	iorwf	___xxtofl@val+1,w
  5451  05C9  0427               	iorwf	___xxtofl@val,w
  5452  05CA  1D03               	skipz
  5453  05CB  2DCD               	goto	u2851
  5454  05CC  2DCE               	goto	u2850
  5455  05CD                     u2851:
  5456  05CD  2DD7               	goto	l3514
  5457  05CE                     u2850:
  5458  05CE                     l3510:
  5459  05CE  3000               	movlw	0
  5460  05CF  00AA               	movwf	?___xxtofl+3
  5461  05D0  3000               	movlw	0
  5462  05D1  00A9               	movwf	?___xxtofl+2
  5463  05D2  3000               	movlw	0
  5464  05D3  00A8               	movwf	?___xxtofl+1
  5465  05D4  3000               	movlw	0
  5466  05D5  00A7               	movwf	?___xxtofl
  5467  05D6  2E4F               	goto	l1425
  5468  05D7                     l3514:
  5469  05D7  3096               	movlw	150
  5470  05D8  00AB               	movwf	??___xxtofl
  5471  05D9  082B               	movf	??___xxtofl,w
  5472  05DA  00B0               	movwf	___xxtofl@exp
  5473  05DB  2DE7               	goto	l3518
  5474  05DC                     l3516:
  5475  05DC  3001               	movlw	1
  5476  05DD  00AB               	movwf	??___xxtofl
  5477  05DE  082B               	movf	??___xxtofl,w
  5478  05DF  07B0               	addwf	___xxtofl@exp,f
  5479  05E0  3001               	movlw	1
  5480  05E1                     u2865:
  5481  05E1  36B4               	lsrf	___xxtofl@arg+3,f
  5482  05E2  0CB3               	rrf	___xxtofl@arg+2,f
  5483  05E3  0CB2               	rrf	___xxtofl@arg+1,f
  5484  05E4  0CB1               	rrf	___xxtofl@arg,f
  5485  05E5  0B89               	decfsz	9,f
  5486  05E6  2DE1               	goto	u2865
  5487  05E7                     l3518:
  5488  05E7  30FE               	movlw	254
  5489  05E8  0534               	andwf	___xxtofl@arg+3,w
  5490  05E9  1D03               	btfss	3,2
  5491  05EA  2DEC               	goto	u2871
  5492  05EB  2DED               	goto	u2870
  5493  05EC                     u2871:
  5494  05EC  2DDC               	goto	l3516
  5495  05ED                     u2870:
  5496  05ED  2E01               	goto	l1429
  5497  05EE                     l3520:
  5498  05EE  3001               	movlw	1
  5499  05EF  00AB               	movwf	??___xxtofl
  5500  05F0  082B               	movf	??___xxtofl,w
  5501  05F1  07B0               	addwf	___xxtofl@exp,f
  5502  05F2                     l3522:
  5503  05F2  3001               	movlw	1
  5504  05F3  07B1               	addwf	___xxtofl@arg,f
  5505  05F4  3000               	movlw	0
  5506  05F5  3DB2               	addwfc	___xxtofl@arg+1,f
  5507  05F6  3000               	movlw	0
  5508  05F7  3DB3               	addwfc	___xxtofl@arg+2,f
  5509  05F8  3000               	movlw	0
  5510  05F9  3DB4               	addwfc	___xxtofl@arg+3,f
  5511  05FA                     l3524:
  5512  05FA  3001               	movlw	1
  5513  05FB                     u2885:
  5514  05FB  36B4               	lsrf	___xxtofl@arg+3,f
  5515  05FC  0CB3               	rrf	___xxtofl@arg+2,f
  5516  05FD  0CB2               	rrf	___xxtofl@arg+1,f
  5517  05FE  0CB1               	rrf	___xxtofl@arg,f
  5518  05FF  0B89               	decfsz	9,f
  5519  0600  2DFB               	goto	u2885
  5520  0601                     l1429:
  5521  0601  30FF               	movlw	255
  5522  0602  0534               	andwf	___xxtofl@arg+3,w
  5523  0603  1D03               	btfss	3,2
  5524  0604  2E06               	goto	u2891
  5525  0605  2E07               	goto	u2890
  5526  0606                     u2891:
  5527  0606  2DEE               	goto	l3520
  5528  0607                     u2890:
  5529  0607  2E11               	goto	l3528
  5530  0608                     l3526:
  5531  0608  3001               	movlw	1
  5532  0609  02B0               	subwf	___xxtofl@exp,f
  5533  060A  3001               	movlw	1
  5534  060B                     u2905:
  5535  060B  35B1               	lslf	___xxtofl@arg,f
  5536  060C  0DB2               	rlf	___xxtofl@arg+1,f
  5537  060D  0DB3               	rlf	___xxtofl@arg+2,f
  5538  060E  0DB4               	rlf	___xxtofl@arg+3,f
  5539  060F  0B89               	decfsz	9,f
  5540  0610  2E0B               	goto	u2905
  5541  0611                     l3528:
  5542  0611  1BB3               	btfsc	___xxtofl@arg+2,7
  5543  0612  2E14               	goto	u2911
  5544  0613  2E15               	goto	u2910
  5545  0614                     u2911:
  5546  0614  2E1B               	goto	l1436
  5547  0615                     u2910:
  5548  0615                     l3530:
  5549  0615  3002               	movlw	2
  5550  0616  0230               	subwf	___xxtofl@exp,w
  5551  0617  1803               	skipnc
  5552  0618  2E1A               	goto	u2921
  5553  0619  2E1B               	goto	u2920
  5554  061A                     u2921:
  5555  061A  2E08               	goto	l3526
  5556  061B                     u2920:
  5557  061B                     l1436:
  5558  061B  1830               	btfsc	___xxtofl@exp,0
  5559  061C  2E1E               	goto	u2931
  5560  061D  2E1F               	goto	u2930
  5561  061E                     u2931:
  5562  061E  2E27               	goto	l1437
  5563  061F                     u2930:
  5564  061F                     l3532:
  5565  061F  30FF               	movlw	255
  5566  0620  05B1               	andwf	___xxtofl@arg,f
  5567  0621  30FF               	movlw	255
  5568  0622  05B2               	andwf	___xxtofl@arg+1,f
  5569  0623  307F               	movlw	127
  5570  0624  05B3               	andwf	___xxtofl@arg+2,f
  5571  0625  30FF               	movlw	255
  5572  0626  05B4               	andwf	___xxtofl@arg+3,f
  5573  0627                     l1437:
  5574  0627  1003               	clrc
  5575  0628  0CB0               	rrf	___xxtofl@exp,f
  5576  0629                     l3534:
  5577  0629  0830               	movf	___xxtofl@exp,w
  5578  062A  00AB               	movwf	??___xxtofl
  5579  062B  01AC               	clrf	??___xxtofl+1
  5580  062C  01AD               	clrf	??___xxtofl+2
  5581  062D  01AE               	clrf	??___xxtofl+3
  5582  062E  3018               	movlw	24
  5583  062F                     u2945:
  5584  062F  35AB               	lslf	??___xxtofl,f
  5585  0630  0DAC               	rlf	??___xxtofl+1,f
  5586  0631  0DAD               	rlf	??___xxtofl+2,f
  5587  0632  0DAE               	rlf	??___xxtofl+3,f
  5588  0633                     u2940:
  5589  0633  0B89               	decfsz	9,f
  5590  0634  2E2F               	goto	u2945
  5591  0635  082B               	movf	??___xxtofl,w
  5592  0636  04B1               	iorwf	___xxtofl@arg,f
  5593  0637  082C               	movf	??___xxtofl+1,w
  5594  0638  04B2               	iorwf	___xxtofl@arg+1,f
  5595  0639  082D               	movf	??___xxtofl+2,w
  5596  063A  04B3               	iorwf	___xxtofl@arg+2,f
  5597  063B  082E               	movf	??___xxtofl+3,w
  5598  063C  04B4               	iorwf	___xxtofl@arg+3,f
  5599  063D                     l3536:
  5600  063D  082F               	movf	___xxtofl@sign,w
  5601  063E  1903               	btfsc	3,2
  5602  063F  2E41               	goto	u2951
  5603  0640  2E42               	goto	u2950
  5604  0641                     u2951:
  5605  0641  2E47               	goto	l3542
  5606  0642                     u2950:
  5607  0642                     l3538:
  5608  0642  1FAA               	btfss	___xxtofl@val+3,7
  5609  0643  2E45               	goto	u2961
  5610  0644  2E46               	goto	u2960
  5611  0645                     u2961:
  5612  0645  2E47               	goto	l3542
  5613  0646                     u2960:
  5614  0646                     l3540:
  5615  0646  17B4               	bsf	___xxtofl@arg+3,7
  5616  0647                     l3542:
  5617  0647  0834               	movf	___xxtofl@arg+3,w
  5618  0648  00AA               	movwf	?___xxtofl+3
  5619  0649  0833               	movf	___xxtofl@arg+2,w
  5620  064A  00A9               	movwf	?___xxtofl+2
  5621  064B  0832               	movf	___xxtofl@arg+1,w
  5622  064C  00A8               	movwf	?___xxtofl+1
  5623  064D  0831               	movf	___xxtofl@arg,w
  5624  064E  00A7               	movwf	?___xxtofl
  5625  064F                     l1425:
  5626  064F  0008               	return
  5627  0650                     __end_of___xxtofl:
  5628                           
  5629                           	psect	text10
  5630  0749                     __ptext10:	
  5631 ;; *************** function ___fltol *****************
  5632 ;; Defined at:
  5633 ;;		line 43 in file "C:\Program Files\Microchip\xc8\v2.32\pic\sources\c99\common\fltol.c"
  5634 ;; Parameters:    Size  Location     Type
  5635 ;;  f1              4    0[BANK1 ] unsigned char 
  5636 ;; Auto vars:     Size  Location     Type
  5637 ;;  exp1            1   10[BANK1 ] unsigned char 
  5638 ;;  sign1           1    9[BANK1 ] unsigned char 
  5639 ;; Return value:  Size  Location     Type
  5640 ;;                  4    0[BANK1 ] long 
  5641 ;; Registers used:
  5642 ;;		wreg, status,2, status,0
  5643 ;; Tracked objects:
  5644 ;;		On entry : 0/0
  5645 ;;		On exit  : 0/0
  5646 ;;		Unchanged: 0/0
  5647 ;; Data sizes:     COMMON   BANK0   BANK1   BANK2   BANK3   BANK4
  5648 ;;      Params:         0       0       4       0       0       0
  5649 ;;      Locals:         0       0       2       0       0       0
  5650 ;;      Temps:          0       0       5       0       0       0
  5651 ;;      Totals:         0       0      11       0       0       0
  5652 ;;Total ram usage:       11 bytes
  5653 ;; Hardware stack levels used: 1
  5654 ;; Hardware stack levels required when called: 6
  5655 ;; This function calls:
  5656 ;;		Nothing
  5657 ;; This function is called by:
  5658 ;;		_main
  5659 ;; This function uses a non-reentrant model
  5660 ;;
  5661                           
  5662                           
  5663                           ;psect for function ___fltol
  5664  0749                     ___fltol:
  5665  0749                     l3636:	
  5666                           ;incstack = 0
  5667                           ; Regs used in ___fltol: [wreg+status,2+status,0]
  5668                           
  5669  0749  1003               	clrc
  5670  074A  0021               	movlb	1	; select bank1
  5671  074B  0D5C               	rlf	(___fltol@f1+2)^(0+128),w
  5672  074C  0D5D               	rlf	(___fltol@f1+3)^(0+128),w
  5673  074D  00DE               	movwf	??___fltol^(0+128)
  5674  074E  085E               	movf	??___fltol^(0+128),w
  5675  074F  00E4               	movwf	___fltol@exp1^(0+128)
  5676  0750  0864               	movf	___fltol@exp1^(0+128),w
  5677  0751  1D03               	btfss	3,2
  5678  0752  2F54               	goto	u3131
  5679  0753  2F55               	goto	u3130
  5680  0754                     u3131:
  5681  0754  2F5E               	goto	l3642
  5682  0755                     u3130:
  5683  0755                     l3638:
  5684  0755  3000               	movlw	0
  5685  0756  00DD               	movwf	(?___fltol+3)^(0+128)
  5686  0757  3000               	movlw	0
  5687  0758  00DC               	movwf	(?___fltol+2)^(0+128)
  5688  0759  3000               	movlw	0
  5689  075A  00DB               	movwf	(?___fltol+1)^(0+128)
  5690  075B  3000               	movlw	0
  5691  075C  00DA               	movwf	?___fltol^(0+128)
  5692  075D  2FBD               	goto	l1176
  5693  075E                     l3642:
  5694  075E  085A               	movf	___fltol@f1^(0+128),w
  5695  075F  00DE               	movwf	??___fltol^(0+128)
  5696  0760  085B               	movf	(___fltol@f1+1)^(0+128),w
  5697  0761  00DF               	movwf	(??___fltol^(0+128)+1)
  5698  0762  085C               	movf	(___fltol@f1+2)^(0+128),w
  5699  0763  00E0               	movwf	(??___fltol^(0+128)+2)
  5700  0764  085D               	movf	(___fltol@f1+3)^(0+128),w
  5701  0765  00E1               	movwf	(??___fltol^(0+128)+3)
  5702  0766  301F               	movlw	31
  5703  0767                     u3145:
  5704  0767  36E1               	lsrf	(??___fltol^(0+128)+3),f
  5705  0768  0CE0               	rrf	(??___fltol^(0+128)+2),f
  5706  0769  0CDF               	rrf	(??___fltol^(0+128)+1),f
  5707  076A  0CDE               	rrf	??___fltol^(0+128),f
  5708  076B                     u3140:
  5709  076B  0B89               	decfsz	9,f
  5710  076C  2F67               	goto	u3145
  5711  076D  085E               	movf	??___fltol^(0+128),w
  5712  076E  00E2               	movwf	(??___fltol+4)^(0+128)
  5713  076F  0862               	movf	(??___fltol+4)^(0+128),w
  5714  0770  00E3               	movwf	___fltol@sign1^(0+128)
  5715  0771                     l3644:
  5716  0771  17DC               	bsf	(___fltol@f1^(0+128)+2),7
  5717  0772                     l3646:
  5718  0772  30FF               	movlw	255
  5719  0773  05DA               	andwf	___fltol@f1^(0+128),f
  5720  0774  30FF               	movlw	255
  5721  0775  05DB               	andwf	(___fltol@f1+1)^(0+128),f
  5722  0776  30FF               	movlw	255
  5723  0777  05DC               	andwf	(___fltol@f1+2)^(0+128),f
  5724  0778  3000               	movlw	0
  5725  0779  05DD               	andwf	(___fltol@f1+3)^(0+128),f
  5726  077A                     l3648:
  5727  077A  3096               	movlw	150
  5728  077B  02E4               	subwf	___fltol@exp1^(0+128),f
  5729  077C                     l3650:
  5730  077C  1FE4               	btfss	___fltol@exp1^(0+128),7
  5731  077D  2F7F               	goto	u3151
  5732  077E  2F80               	goto	u3150
  5733  077F                     u3151:
  5734  077F  2F98               	goto	l3660
  5735  0780                     u3150:
  5736  0780                     l3652:
  5737  0780  0864               	movf	___fltol@exp1^(0+128),w
  5738  0781  3A80               	xorlw	128
  5739  0782  3E97               	addlw	151
  5740  0783  1803               	skipnc
  5741  0784  2F86               	goto	u3161
  5742  0785  2F87               	goto	u3160
  5743  0786                     u3161:
  5744  0786  2F88               	goto	l3658
  5745  0787                     u3160:
  5746  0787  2F55               	goto	l3638
  5747  0788                     l3658:
  5748  0788  3001               	movlw	1
  5749  0789                     u3175:
  5750  0789  36DD               	lsrf	(___fltol@f1+3)^(0+128),f
  5751  078A  0CDC               	rrf	(___fltol@f1+2)^(0+128),f
  5752  078B  0CDB               	rrf	(___fltol@f1+1)^(0+128),f
  5753  078C  0CDA               	rrf	___fltol@f1^(0+128),f
  5754  078D  0B89               	decfsz	9,f
  5755  078E  2F89               	goto	u3175
  5756  078F  3001               	movlw	1
  5757  0790  00DE               	movwf	??___fltol^(0+128)
  5758  0791  085E               	movf	??___fltol^(0+128),w
  5759  0792  07E4               	addwf	___fltol@exp1^(0+128),f
  5760  0793  1D03               	btfss	3,2
  5761  0794  2F96               	goto	u3181
  5762  0795  2F97               	goto	u3180
  5763  0796                     u3181:
  5764  0796  2F88               	goto	l3658
  5765  0797                     u3180:
  5766  0797  2FAD               	goto	l3668
  5767  0798                     l3660:
  5768  0798  3020               	movlw	32
  5769  0799  0264               	subwf	___fltol@exp1^(0+128),w
  5770  079A  1C03               	skipc
  5771  079B  2F9D               	goto	u3191
  5772  079C  2F9E               	goto	u3190
  5773  079D                     u3191:
  5774  079D  2FA8               	goto	l1183
  5775  079E                     u3190:
  5776  079E  2F55               	goto	l3638
  5777  079F                     l3666:
  5778  079F  3001               	movlw	1
  5779  07A0                     u3205:
  5780  07A0  35DA               	lslf	___fltol@f1^(0+128),f
  5781  07A1  0DDB               	rlf	(___fltol@f1+1)^(0+128),f
  5782  07A2  0DDC               	rlf	(___fltol@f1+2)^(0+128),f
  5783  07A3  0DDD               	rlf	(___fltol@f1+3)^(0+128),f
  5784  07A4  0B89               	decfsz	9,f
  5785  07A5  2FA0               	goto	u3205
  5786  07A6  3001               	movlw	1
  5787  07A7  02E4               	subwf	___fltol@exp1^(0+128),f
  5788  07A8                     l1183:
  5789  07A8  0864               	movf	___fltol@exp1^(0+128),w
  5790  07A9  1D03               	btfss	3,2
  5791  07AA  2FAC               	goto	u3211
  5792  07AB  2FAD               	goto	u3210
  5793  07AC                     u3211:
  5794  07AC  2F9F               	goto	l3666
  5795  07AD                     u3210:
  5796  07AD                     l3668:
  5797  07AD  0863               	movf	___fltol@sign1^(0+128),w
  5798  07AE  1903               	btfsc	3,2
  5799  07AF  2FB1               	goto	u3221
  5800  07B0  2FB2               	goto	u3220
  5801  07B1                     u3221:
  5802  07B1  2FBD               	goto	l1186
  5803  07B2                     u3220:
  5804  07B2                     l3670:
  5805  07B2  09DA               	comf	___fltol@f1^(0+128),f
  5806  07B3  09DB               	comf	(___fltol@f1+1)^(0+128),f
  5807  07B4  09DC               	comf	(___fltol@f1+2)^(0+128),f
  5808  07B5  09DD               	comf	(___fltol@f1+3)^(0+128),f
  5809  07B6  0ADA               	incf	___fltol@f1^(0+128),f
  5810  07B7  1903               	skipnz
  5811  07B8  0ADB               	incf	(___fltol@f1+1)^(0+128),f
  5812  07B9  1903               	skipnz
  5813  07BA  0ADC               	incf	(___fltol@f1+2)^(0+128),f
  5814  07BB  1903               	skipnz
  5815  07BC  0ADD               	incf	(___fltol@f1+3)^(0+128),f
  5816  07BD                     l1186:
  5817  07BD                     l1176:
  5818  07BD  0008               	return
  5819  07BE                     __end_of___fltol:
  5820                           
  5821                           	psect	text11
  5822  0081                     __ptext11:	
  5823 ;; *************** function ___flmul *****************
  5824 ;; Defined at:
  5825 ;;		line 8 in file "C:\Program Files\Microchip\xc8\v2.32\pic\sources\c99\common\sprcmul.c"
  5826 ;; Parameters:    Size  Location     Type
  5827 ;;  b               4   21[BANK0 ] long 
  5828 ;;  a               4   25[BANK0 ] long 
  5829 ;; Auto vars:     Size  Location     Type
  5830 ;;  prod            4   41[BANK0 ] struct .
  5831 ;;  grs             4   35[BANK0 ] unsigned long 
  5832 ;;  temp            2   45[BANK0 ] struct .
  5833 ;;  bexp            1   40[BANK0 ] unsigned char 
  5834 ;;  aexp            1   39[BANK0 ] unsigned char 
  5835 ;;  sign            1   34[BANK0 ] unsigned char 
  5836 ;; Return value:  Size  Location     Type
  5837 ;;                  4   21[BANK0 ] unsigned char 
  5838 ;; Registers used:
  5839 ;;		wreg, status,2, status,0, pclath, cstack
  5840 ;; Tracked objects:
  5841 ;;		On entry : 0/0
  5842 ;;		On exit  : 0/0
  5843 ;;		Unchanged: 0/0
  5844 ;; Data sizes:     COMMON   BANK0   BANK1   BANK2   BANK3   BANK4
  5845 ;;      Params:         0       8       0       0       0       0
  5846 ;;      Locals:         0      13       0       0       0       0
  5847 ;;      Temps:          0       5       0       0       0       0
  5848 ;;      Totals:         0      26       0       0       0       0
  5849 ;;Total ram usage:       26 bytes
  5850 ;; Hardware stack levels used: 1
  5851 ;; Hardware stack levels required when called: 7
  5852 ;; This function calls:
  5853 ;;		__Umul8_16
  5854 ;; This function is called by:
  5855 ;;		_main
  5856 ;; This function uses a non-reentrant model
  5857 ;;
  5858                           
  5859                           
  5860                           ;psect for function ___flmul
  5861  0081                     ___flmul:
  5862  0081                     l3362:	
  5863                           ;incstack = 0
  5864                           ; Regs used in ___flmul: [wreg+status,2+status,0+pclath+cstack]
  5865                           
  5866  0081  0020               	movlb	0	; select bank0
  5867  0082  0838               	movf	___flmul@b+3,w
  5868  0083  3980               	andlw	128
  5869  0084  00BD               	movwf	??___flmul
  5870  0085  083D               	movf	??___flmul,w
  5871  0086  00C2               	movwf	___flmul@sign
  5872  0087                     l3364:
  5873  0087  3538               	lslf	___flmul@b+3,w
  5874  0088  00BD               	movwf	??___flmul
  5875  0089  083D               	movf	??___flmul,w
  5876  008A  00C8               	movwf	___flmul@bexp
  5877  008B                     l3366:
  5878  008B  1FB7               	btfss	___flmul@b+2,7
  5879  008C  288E               	goto	u2571
  5880  008D  288F               	goto	u2570
  5881  008E                     u2571:
  5882  008E  2890               	goto	l3370
  5883  008F                     u2570:
  5884  008F                     l3368:
  5885  008F  1448               	bsf	___flmul@bexp,0
  5886  0090                     l3370:
  5887  0090  0848               	movf	___flmul@bexp,w
  5888  0091  1903               	btfsc	3,2
  5889  0092  2894               	goto	u2581
  5890  0093  2895               	goto	u2580
  5891  0094                     u2581:
  5892  0094  28A4               	goto	l3378
  5893  0095                     u2580:
  5894  0095                     l3372:
  5895  0095  0A48               	incf	___flmul@bexp,w
  5896  0096  1D03               	btfss	3,2
  5897  0097  2899               	goto	u2591
  5898  0098  289A               	goto	u2590
  5899  0099                     u2591:
  5900  0099  28A2               	goto	l3376
  5901  009A                     u2590:
  5902  009A                     l3374:
  5903  009A  3000               	movlw	0
  5904  009B  00B8               	movwf	___flmul@b+3
  5905  009C  3000               	movlw	0
  5906  009D  00B7               	movwf	___flmul@b+2
  5907  009E  3000               	movlw	0
  5908  009F  00B6               	movwf	___flmul@b+1
  5909  00A0  3000               	movlw	0
  5910  00A1  00B5               	movwf	___flmul@b
  5911  00A2                     l3376:
  5912  00A2  17B7               	bsf	___flmul@b+2,7
  5913  00A3  28AC               	goto	l3380
  5914  00A4                     l3378:
  5915  00A4  3000               	movlw	0
  5916  00A5  00B8               	movwf	___flmul@b+3
  5917  00A6  3000               	movlw	0
  5918  00A7  00B7               	movwf	___flmul@b+2
  5919  00A8  3000               	movlw	0
  5920  00A9  00B6               	movwf	___flmul@b+1
  5921  00AA  3000               	movlw	0
  5922  00AB  00B5               	movwf	___flmul@b
  5923  00AC                     l3380:
  5924  00AC  083C               	movf	___flmul@a+3,w
  5925  00AD  3980               	andlw	128
  5926  00AE  00BD               	movwf	??___flmul
  5927  00AF  083D               	movf	??___flmul,w
  5928  00B0  06C2               	xorwf	___flmul@sign,f
  5929  00B1                     l3382:
  5930  00B1  353C               	lslf	___flmul@a+3,w
  5931  00B2  00BD               	movwf	??___flmul
  5932  00B3  083D               	movf	??___flmul,w
  5933  00B4  00C7               	movwf	___flmul@aexp
  5934  00B5                     l3384:
  5935  00B5  1FBB               	btfss	___flmul@a+2,7
  5936  00B6  28B8               	goto	u2601
  5937  00B7  28B9               	goto	u2600
  5938  00B8                     u2601:
  5939  00B8  28BA               	goto	l3388
  5940  00B9                     u2600:
  5941  00B9                     l3386:
  5942  00B9  1447               	bsf	___flmul@aexp,0
  5943  00BA                     l3388:
  5944  00BA  0847               	movf	___flmul@aexp,w
  5945  00BB  1903               	btfsc	3,2
  5946  00BC  28BE               	goto	u2611
  5947  00BD  28BF               	goto	u2610
  5948  00BE                     u2611:
  5949  00BE  28CE               	goto	l3396
  5950  00BF                     u2610:
  5951  00BF                     l3390:
  5952  00BF  0A47               	incf	___flmul@aexp,w
  5953  00C0  1D03               	btfss	3,2
  5954  00C1  28C3               	goto	u2621
  5955  00C2  28C4               	goto	u2620
  5956  00C3                     u2621:
  5957  00C3  28CC               	goto	l3394
  5958  00C4                     u2620:
  5959  00C4                     l3392:
  5960  00C4  3000               	movlw	0
  5961  00C5  00BC               	movwf	___flmul@a+3
  5962  00C6  3000               	movlw	0
  5963  00C7  00BB               	movwf	___flmul@a+2
  5964  00C8  3000               	movlw	0
  5965  00C9  00BA               	movwf	___flmul@a+1
  5966  00CA  3000               	movlw	0
  5967  00CB  00B9               	movwf	___flmul@a
  5968  00CC                     l3394:
  5969  00CC  17BB               	bsf	___flmul@a+2,7
  5970  00CD  28D6               	goto	l3398
  5971  00CE                     l3396:
  5972  00CE  3000               	movlw	0
  5973  00CF  00BC               	movwf	___flmul@a+3
  5974  00D0  3000               	movlw	0
  5975  00D1  00BB               	movwf	___flmul@a+2
  5976  00D2  3000               	movlw	0
  5977  00D3  00BA               	movwf	___flmul@a+1
  5978  00D4  3000               	movlw	0
  5979  00D5  00B9               	movwf	___flmul@a
  5980  00D6                     l3398:
  5981  00D6  0847               	movf	___flmul@aexp,w
  5982  00D7  1903               	btfsc	3,2
  5983  00D8  28DA               	goto	u2631
  5984  00D9  28DB               	goto	u2630
  5985  00DA                     u2631:
  5986  00DA  28E0               	goto	l3402
  5987  00DB                     u2630:
  5988  00DB                     l3400:
  5989  00DB  0848               	movf	___flmul@bexp,w
  5990  00DC  1D03               	btfss	3,2
  5991  00DD  28DF               	goto	u2641
  5992  00DE  28E0               	goto	u2640
  5993  00DF                     u2641:
  5994  00DF  28E9               	goto	l3406
  5995  00E0                     u2640:
  5996  00E0                     l3402:
  5997  00E0  3000               	movlw	0
  5998  00E1  00B8               	movwf	?___flmul+3
  5999  00E2  3000               	movlw	0
  6000  00E3  00B7               	movwf	?___flmul+2
  6001  00E4  3000               	movlw	0
  6002  00E5  00B6               	movwf	?___flmul+1
  6003  00E6  3000               	movlw	0
  6004  00E7  00B5               	movwf	?___flmul
  6005  00E8  2AD7               	goto	l1379
  6006  00E9                     l3406:
  6007  00E9  0835               	movf	___flmul@b,w
  6008  00EA  00BD               	movwf	??___flmul
  6009  00EB  083D               	movf	??___flmul,w
  6010  00EC  00A3               	movwf	__Umul8_16@multiplicand
  6011  00ED  083B               	movf	___flmul@a+2,w
  6012  00EE  318C  24EC  3180   	fcall	__Umul8_16
  6013  00F1  0020               	movlb	0	; select bank0
  6014  00F2  0824               	movf	?__Umul8_16+1,w
  6015  00F3  00CE               	movwf	___flmul@temp+1
  6016  00F4  0823               	movf	?__Umul8_16,w
  6017  00F5  00CD               	movwf	___flmul@temp
  6018  00F6                     l3408:
  6019  00F6  084D               	movf	___flmul@temp,w
  6020  00F7  00BD               	movwf	??___flmul
  6021  00F8  01BE               	clrf	??___flmul+1
  6022  00F9  01BF               	clrf	??___flmul+2
  6023  00FA  01C0               	clrf	??___flmul+3
  6024  00FB  0840               	movf	??___flmul+3,w
  6025  00FC  00C6               	movwf	___flmul@grs+3
  6026  00FD  083F               	movf	??___flmul+2,w
  6027  00FE  00C5               	movwf	___flmul@grs+2
  6028  00FF  083E               	movf	??___flmul+1,w
  6029  0100  00C4               	movwf	___flmul@grs+1
  6030  0101  083D               	movf	??___flmul,w
  6031  0102  00C3               	movwf	___flmul@grs
  6032  0103                     l3410:
  6033  0103  084E               	movf	___flmul@temp+1,w
  6034  0104  00BD               	movwf	??___flmul
  6035  0105  01BE               	clrf	??___flmul+1
  6036  0106  01BF               	clrf	??___flmul+2
  6037  0107  01C0               	clrf	??___flmul+3
  6038  0108  0840               	movf	??___flmul+3,w
  6039  0109  00CC               	movwf	___flmul@prod+3
  6040  010A  083F               	movf	??___flmul+2,w
  6041  010B  00CB               	movwf	___flmul@prod+2
  6042  010C  083E               	movf	??___flmul+1,w
  6043  010D  00CA               	movwf	___flmul@prod+1
  6044  010E  083D               	movf	??___flmul,w
  6045  010F  00C9               	movwf	___flmul@prod
  6046  0110  0836               	movf	___flmul@b+1,w
  6047  0111  00BD               	movwf	??___flmul
  6048  0112  083D               	movf	??___flmul,w
  6049  0113  00A3               	movwf	__Umul8_16@multiplicand
  6050  0114  083A               	movf	___flmul@a+1,w
  6051  0115  318C  24EC  3180   	fcall	__Umul8_16
  6052  0118  0020               	movlb	0	; select bank0
  6053  0119  0824               	movf	?__Umul8_16+1,w
  6054  011A  00CE               	movwf	___flmul@temp+1
  6055  011B  0823               	movf	?__Umul8_16,w
  6056  011C  00CD               	movwf	___flmul@temp
  6057  011D                     l3412:
  6058  011D  084D               	movf	___flmul@temp,w
  6059  011E  00BD               	movwf	??___flmul
  6060  011F  01BE               	clrf	??___flmul+1
  6061  0120  01BF               	clrf	??___flmul+2
  6062  0121  01C0               	clrf	??___flmul+3
  6063  0122  083D               	movf	??___flmul,w
  6064  0123  07C3               	addwf	___flmul@grs,f
  6065  0124  083E               	movf	??___flmul+1,w
  6066  0125  3DC4               	addwfc	___flmul@grs+1,f
  6067  0126  083F               	movf	??___flmul+2,w
  6068  0127  3DC5               	addwfc	___flmul@grs+2,f
  6069  0128  0840               	movf	??___flmul+3,w
  6070  0129  3DC6               	addwfc	___flmul@grs+3,f
  6071  012A                     l3414:
  6072  012A  084E               	movf	___flmul@temp+1,w
  6073  012B  00BD               	movwf	??___flmul
  6074  012C  01BE               	clrf	??___flmul+1
  6075  012D  01BF               	clrf	??___flmul+2
  6076  012E  01C0               	clrf	??___flmul+3
  6077  012F  083D               	movf	??___flmul,w
  6078  0130  07C9               	addwf	___flmul@prod,f
  6079  0131  083E               	movf	??___flmul+1,w
  6080  0132  3DCA               	addwfc	___flmul@prod+1,f
  6081  0133  083F               	movf	??___flmul+2,w
  6082  0134  3DCB               	addwfc	___flmul@prod+2,f
  6083  0135  0840               	movf	??___flmul+3,w
  6084  0136  3DCC               	addwfc	___flmul@prod+3,f
  6085  0137  0837               	movf	___flmul@b+2,w
  6086  0138  00BD               	movwf	??___flmul
  6087  0139  083D               	movf	??___flmul,w
  6088  013A  00A3               	movwf	__Umul8_16@multiplicand
  6089  013B  0839               	movf	___flmul@a,w
  6090  013C  318C  24EC  3180   	fcall	__Umul8_16
  6091  013F  0020               	movlb	0	; select bank0
  6092  0140  0824               	movf	?__Umul8_16+1,w
  6093  0141  00CE               	movwf	___flmul@temp+1
  6094  0142  0823               	movf	?__Umul8_16,w
  6095  0143  00CD               	movwf	___flmul@temp
  6096  0144                     l3416:
  6097  0144  084D               	movf	___flmul@temp,w
  6098  0145  00BD               	movwf	??___flmul
  6099  0146  01BE               	clrf	??___flmul+1
  6100  0147  01BF               	clrf	??___flmul+2
  6101  0148  01C0               	clrf	??___flmul+3
  6102  0149  083D               	movf	??___flmul,w
  6103  014A  07C3               	addwf	___flmul@grs,f
  6104  014B  083E               	movf	??___flmul+1,w
  6105  014C  3DC4               	addwfc	___flmul@grs+1,f
  6106  014D  083F               	movf	??___flmul+2,w
  6107  014E  3DC5               	addwfc	___flmul@grs+2,f
  6108  014F  0840               	movf	??___flmul+3,w
  6109  0150  3DC6               	addwfc	___flmul@grs+3,f
  6110  0151                     l3418:
  6111  0151  084E               	movf	___flmul@temp+1,w
  6112  0152  00BD               	movwf	??___flmul
  6113  0153  01BE               	clrf	??___flmul+1
  6114  0154  01BF               	clrf	??___flmul+2
  6115  0155  01C0               	clrf	??___flmul+3
  6116  0156  083D               	movf	??___flmul,w
  6117  0157  07C9               	addwf	___flmul@prod,f
  6118  0158  083E               	movf	??___flmul+1,w
  6119  0159  3DCA               	addwfc	___flmul@prod+1,f
  6120  015A  083F               	movf	??___flmul+2,w
  6121  015B  3DCB               	addwfc	___flmul@prod+2,f
  6122  015C  0840               	movf	??___flmul+3,w
  6123  015D  3DCC               	addwfc	___flmul@prod+3,f
  6124  015E                     l3420:
  6125  015E  3008               	movlw	8
  6126  015F                     u2655:
  6127  015F  35C3               	lslf	___flmul@grs,f
  6128  0160  0DC4               	rlf	___flmul@grs+1,f
  6129  0161  0DC5               	rlf	___flmul@grs+2,f
  6130  0162  0DC6               	rlf	___flmul@grs+3,f
  6131  0163  0B89               	decfsz	9,f
  6132  0164  295F               	goto	u2655
  6133  0165                     l3422:
  6134  0165  0836               	movf	___flmul@b+1,w
  6135  0166  00BD               	movwf	??___flmul
  6136  0167  083D               	movf	??___flmul,w
  6137  0168  00A3               	movwf	__Umul8_16@multiplicand
  6138  0169  0839               	movf	___flmul@a,w
  6139  016A  318C  24EC  3180   	fcall	__Umul8_16
  6140  016D  0020               	movlb	0	; select bank0
  6141  016E  0824               	movf	?__Umul8_16+1,w
  6142  016F  00CE               	movwf	___flmul@temp+1
  6143  0170  0823               	movf	?__Umul8_16,w
  6144  0171  00CD               	movwf	___flmul@temp
  6145  0172                     l3424:
  6146  0172  084D               	movf	___flmul@temp,w
  6147  0173  07C3               	addwf	___flmul@grs,f
  6148  0174  084E               	movf	___flmul@temp+1,w
  6149  0175  3DC4               	addwfc	___flmul@grs+1,f
  6150  0176  3000               	movlw	0
  6151  0177  3DC5               	addwfc	___flmul@grs+2,f
  6152  0178  3DC6               	addwfc	___flmul@grs+3,f
  6153  0179                     l3426:
  6154  0179  0835               	movf	___flmul@b,w
  6155  017A  00BD               	movwf	??___flmul
  6156  017B  083D               	movf	??___flmul,w
  6157  017C  00A3               	movwf	__Umul8_16@multiplicand
  6158  017D  083A               	movf	___flmul@a+1,w
  6159  017E  318C  24EC  3180   	fcall	__Umul8_16
  6160  0181  0020               	movlb	0	; select bank0
  6161  0182  0824               	movf	?__Umul8_16+1,w
  6162  0183  00CE               	movwf	___flmul@temp+1
  6163  0184  0823               	movf	?__Umul8_16,w
  6164  0185  00CD               	movwf	___flmul@temp
  6165  0186                     l3428:
  6166  0186  084D               	movf	___flmul@temp,w
  6167  0187  07C3               	addwf	___flmul@grs,f
  6168  0188  084E               	movf	___flmul@temp+1,w
  6169  0189  3DC4               	addwfc	___flmul@grs+1,f
  6170  018A  3000               	movlw	0
  6171  018B  3DC5               	addwfc	___flmul@grs+2,f
  6172  018C  3DC6               	addwfc	___flmul@grs+3,f
  6173  018D                     l3430:
  6174  018D  3008               	movlw	8
  6175  018E                     u2665:
  6176  018E  35C3               	lslf	___flmul@grs,f
  6177  018F  0DC4               	rlf	___flmul@grs+1,f
  6178  0190  0DC5               	rlf	___flmul@grs+2,f
  6179  0191  0DC6               	rlf	___flmul@grs+3,f
  6180  0192  0B89               	decfsz	9,f
  6181  0193  298E               	goto	u2665
  6182  0194  0835               	movf	___flmul@b,w
  6183  0195  00BD               	movwf	??___flmul
  6184  0196  083D               	movf	??___flmul,w
  6185  0197  00A3               	movwf	__Umul8_16@multiplicand
  6186  0198  0839               	movf	___flmul@a,w
  6187  0199  318C  24EC  3180   	fcall	__Umul8_16
  6188  019C  0020               	movlb	0	; select bank0
  6189  019D  0824               	movf	?__Umul8_16+1,w
  6190  019E  00CE               	movwf	___flmul@temp+1
  6191  019F  0823               	movf	?__Umul8_16,w
  6192  01A0  00CD               	movwf	___flmul@temp
  6193  01A1                     l3432:
  6194  01A1  084D               	movf	___flmul@temp,w
  6195  01A2  07C3               	addwf	___flmul@grs,f
  6196  01A3  084E               	movf	___flmul@temp+1,w
  6197  01A4  3DC4               	addwfc	___flmul@grs+1,f
  6198  01A5  3000               	movlw	0
  6199  01A6  3DC5               	addwfc	___flmul@grs+2,f
  6200  01A7  3DC6               	addwfc	___flmul@grs+3,f
  6201  01A8                     l3434:
  6202  01A8  0836               	movf	___flmul@b+1,w
  6203  01A9  00BD               	movwf	??___flmul
  6204  01AA  083D               	movf	??___flmul,w
  6205  01AB  00A3               	movwf	__Umul8_16@multiplicand
  6206  01AC  083B               	movf	___flmul@a+2,w
  6207  01AD  318C  24EC  3180   	fcall	__Umul8_16
  6208  01B0  0020               	movlb	0	; select bank0
  6209  01B1  0824               	movf	?__Umul8_16+1,w
  6210  01B2  00CE               	movwf	___flmul@temp+1
  6211  01B3  0823               	movf	?__Umul8_16,w
  6212  01B4  00CD               	movwf	___flmul@temp
  6213  01B5  084D               	movf	___flmul@temp,w
  6214  01B6  07C9               	addwf	___flmul@prod,f
  6215  01B7  084E               	movf	___flmul@temp+1,w
  6216  01B8  3DCA               	addwfc	___flmul@prod+1,f
  6217  01B9  3000               	movlw	0
  6218  01BA  3DCB               	addwfc	___flmul@prod+2,f
  6219  01BB  3DCC               	addwfc	___flmul@prod+3,f
  6220  01BC                     l3436:
  6221  01BC  0837               	movf	___flmul@b+2,w
  6222  01BD  00BD               	movwf	??___flmul
  6223  01BE  083D               	movf	??___flmul,w
  6224  01BF  00A3               	movwf	__Umul8_16@multiplicand
  6225  01C0  083A               	movf	___flmul@a+1,w
  6226  01C1  318C  24EC  3180   	fcall	__Umul8_16
  6227  01C4  0020               	movlb	0	; select bank0
  6228  01C5  0824               	movf	?__Umul8_16+1,w
  6229  01C6  00CE               	movwf	___flmul@temp+1
  6230  01C7  0823               	movf	?__Umul8_16,w
  6231  01C8  00CD               	movwf	___flmul@temp
  6232  01C9                     l3438:
  6233  01C9  084D               	movf	___flmul@temp,w
  6234  01CA  07C9               	addwf	___flmul@prod,f
  6235  01CB  084E               	movf	___flmul@temp+1,w
  6236  01CC  3DCA               	addwfc	___flmul@prod+1,f
  6237  01CD  3000               	movlw	0
  6238  01CE  3DCB               	addwfc	___flmul@prod+2,f
  6239  01CF  3DCC               	addwfc	___flmul@prod+3,f
  6240  01D0  0837               	movf	___flmul@b+2,w
  6241  01D1  00BD               	movwf	??___flmul
  6242  01D2  083D               	movf	??___flmul,w
  6243  01D3  00A3               	movwf	__Umul8_16@multiplicand
  6244  01D4  083B               	movf	___flmul@a+2,w
  6245  01D5  318C  24EC  3180   	fcall	__Umul8_16
  6246  01D8  0020               	movlb	0	; select bank0
  6247  01D9  0824               	movf	?__Umul8_16+1,w
  6248  01DA  00CE               	movwf	___flmul@temp+1
  6249  01DB  0823               	movf	?__Umul8_16,w
  6250  01DC  00CD               	movwf	___flmul@temp
  6251  01DD                     l3440:
  6252  01DD  084D               	movf	___flmul@temp,w
  6253  01DE  00BD               	movwf	??___flmul
  6254  01DF  084E               	movf	___flmul@temp+1,w
  6255  01E0  00BE               	movwf	??___flmul+1
  6256  01E1  01BF               	clrf	??___flmul+2
  6257  01E2  01C0               	clrf	??___flmul+3
  6258  01E3  3008               	movlw	8
  6259  01E4                     u2675:
  6260  01E4  35BD               	lslf	??___flmul,f
  6261  01E5  0DBE               	rlf	??___flmul+1,f
  6262  01E6  0DBF               	rlf	??___flmul+2,f
  6263  01E7  0DC0               	rlf	??___flmul+3,f
  6264  01E8                     u2670:
  6265  01E8  0B89               	decfsz	9,f
  6266  01E9  29E4               	goto	u2675
  6267  01EA  083D               	movf	??___flmul,w
  6268  01EB  07C9               	addwf	___flmul@prod,f
  6269  01EC  083E               	movf	??___flmul+1,w
  6270  01ED  3DCA               	addwfc	___flmul@prod+1,f
  6271  01EE  083F               	movf	??___flmul+2,w
  6272  01EF  3DCB               	addwfc	___flmul@prod+2,f
  6273  01F0  0840               	movf	??___flmul+3,w
  6274  01F1  3DCC               	addwfc	___flmul@prod+3,f
  6275  01F2                     l3442:
  6276  01F2  0843               	movf	___flmul@grs,w
  6277  01F3  00BD               	movwf	??___flmul
  6278  01F4  0844               	movf	___flmul@grs+1,w
  6279  01F5  00BE               	movwf	??___flmul+1
  6280  01F6  0845               	movf	___flmul@grs+2,w
  6281  01F7  00BF               	movwf	??___flmul+2
  6282  01F8  0846               	movf	___flmul@grs+3,w
  6283  01F9  00C0               	movwf	??___flmul+3
  6284  01FA  3018               	movlw	24
  6285  01FB                     u2685:
  6286  01FB  36C0               	lsrf	??___flmul+3,f
  6287  01FC  0CBF               	rrf	??___flmul+2,f
  6288  01FD  0CBE               	rrf	??___flmul+1,f
  6289  01FE  0CBD               	rrf	??___flmul,f
  6290  01FF                     u2680:
  6291  01FF  0B89               	decfsz	9,f
  6292  0200  29FB               	goto	u2685
  6293  0201  083D               	movf	??___flmul,w
  6294  0202  07C9               	addwf	___flmul@prod,f
  6295  0203  083E               	movf	??___flmul+1,w
  6296  0204  3DCA               	addwfc	___flmul@prod+1,f
  6297  0205  083F               	movf	??___flmul+2,w
  6298  0206  3DCB               	addwfc	___flmul@prod+2,f
  6299  0207  0840               	movf	??___flmul+3,w
  6300  0208  3DCC               	addwfc	___flmul@prod+3,f
  6301  0209                     l3444:
  6302  0209  3008               	movlw	8
  6303  020A                     u2695:
  6304  020A  35C3               	lslf	___flmul@grs,f
  6305  020B  0DC4               	rlf	___flmul@grs+1,f
  6306  020C  0DC5               	rlf	___flmul@grs+2,f
  6307  020D  0DC6               	rlf	___flmul@grs+3,f
  6308  020E  0B89               	decfsz	9,f
  6309  020F  2A0A               	goto	u2695
  6310  0210                     l3446:
  6311  0210  0848               	movf	___flmul@bexp,w
  6312  0211  0747               	addwf	___flmul@aexp,w
  6313  0212  00BD               	movwf	??___flmul
  6314  0213  01BE               	clrf	??___flmul+1
  6315  0214  0DBE               	rlf	??___flmul+1,f
  6316  0215  083D               	movf	??___flmul,w
  6317  0216  3E82               	addlw	130
  6318  0217  00CD               	movwf	___flmul@temp
  6319  0218  30FF               	movlw	255
  6320  0219  3D3E               	addwfc	??___flmul+1,w
  6321  021A  00CE               	movwf	___flmul@temp+1
  6322  021B  2A33               	goto	l3458
  6323  021C                     l3448:
  6324  021C  3001               	movlw	1
  6325  021D                     u2705:
  6326  021D  35C9               	lslf	___flmul@prod,f
  6327  021E  0DCA               	rlf	___flmul@prod+1,f
  6328  021F  0DCB               	rlf	___flmul@prod+2,f
  6329  0220  0DCC               	rlf	___flmul@prod+3,f
  6330  0221  0B89               	decfsz	9,f
  6331  0222  2A1D               	goto	u2705
  6332  0223                     l3450:
  6333  0223  1FC6               	btfss	___flmul@grs+3,7
  6334  0224  2A26               	goto	u2711
  6335  0225  2A27               	goto	u2710
  6336  0226                     u2711:
  6337  0226  2A28               	goto	l3454
  6338  0227                     u2710:
  6339  0227                     l3452:
  6340  0227  1449               	bsf	___flmul@prod,0
  6341  0228                     l3454:
  6342  0228  3001               	movlw	1
  6343  0229                     u2725:
  6344  0229  35C3               	lslf	___flmul@grs,f
  6345  022A  0DC4               	rlf	___flmul@grs+1,f
  6346  022B  0DC5               	rlf	___flmul@grs+2,f
  6347  022C  0DC6               	rlf	___flmul@grs+3,f
  6348  022D  0B89               	decfsz	9,f
  6349  022E  2A29               	goto	u2725
  6350  022F                     l3456:
  6351  022F  30FF               	movlw	255
  6352  0230  07CD               	addwf	___flmul@temp,f
  6353  0231  30FF               	movlw	255
  6354  0232  3DCE               	addwfc	___flmul@temp+1,f
  6355  0233                     l3458:
  6356  0233  1FCB               	btfss	___flmul@prod+2,7
  6357  0234  2A36               	goto	u2731
  6358  0235  2A37               	goto	u2730
  6359  0236                     u2731:
  6360  0236  2A1C               	goto	l3448
  6361  0237                     u2730:
  6362  0237                     l3460:
  6363  0237  01C7               	clrf	___flmul@aexp
  6364  0238                     l3462:
  6365  0238  1FC6               	btfss	___flmul@grs+3,7
  6366  0239  2A3B               	goto	u2741
  6367  023A  2A3C               	goto	u2740
  6368  023B                     u2741:
  6369  023B  2A58               	goto	l3470
  6370  023C                     u2740:
  6371  023C                     l3464:
  6372  023C  30FF               	movlw	255
  6373  023D  0543               	andwf	___flmul@grs,w
  6374  023E  00BD               	movwf	??___flmul
  6375  023F  30FF               	movlw	255
  6376  0240  0544               	andwf	___flmul@grs+1,w
  6377  0241  00BE               	movwf	??___flmul+1
  6378  0242  30FF               	movlw	255
  6379  0243  0545               	andwf	___flmul@grs+2,w
  6380  0244  00BF               	movwf	??___flmul+2
  6381  0245  307F               	movlw	127
  6382  0246  0546               	andwf	___flmul@grs+3,w
  6383  0247  00C0               	movwf	??___flmul+3
  6384  0248  0840               	movf	??___flmul+3,w
  6385  0249  043F               	iorwf	??___flmul+2,w
  6386  024A  043E               	iorwf	??___flmul+1,w
  6387  024B  043D               	iorwf	??___flmul,w
  6388  024C  1903               	skipnz
  6389  024D  2A4F               	goto	u2751
  6390  024E  2A50               	goto	u2750
  6391  024F                     u2751:
  6392  024F  2A53               	goto	l1385
  6393  0250                     u2750:
  6394  0250                     l3466:
  6395  0250  01C7               	clrf	___flmul@aexp
  6396  0251  0AC7               	incf	___flmul@aexp,f
  6397  0252  2A58               	goto	l3470
  6398  0253                     l1385:
  6399  0253  1C49               	btfss	___flmul@prod,0
  6400  0254  2A56               	goto	u2761
  6401  0255  2A57               	goto	u2760
  6402  0256                     u2761:
  6403  0256  2A58               	goto	l3470
  6404  0257                     u2760:
  6405  0257  2A50               	goto	l3466
  6406  0258                     l3470:
  6407  0258  0847               	movf	___flmul@aexp,w
  6408  0259  1903               	btfsc	3,2
  6409  025A  2A5C               	goto	u2771
  6410  025B  2A5D               	goto	u2770
  6411  025C                     u2771:
  6412  025C  2A85               	goto	l3480
  6413  025D                     u2770:
  6414  025D                     l3472:
  6415  025D  3001               	movlw	1
  6416  025E  07C9               	addwf	___flmul@prod,f
  6417  025F  3000               	movlw	0
  6418  0260  3DCA               	addwfc	___flmul@prod+1,f
  6419  0261  3000               	movlw	0
  6420  0262  3DCB               	addwfc	___flmul@prod+2,f
  6421  0263  3000               	movlw	0
  6422  0264  3DCC               	addwfc	___flmul@prod+3,f
  6423  0265                     l3474:
  6424  0265  1C4C               	btfss	___flmul@prod+3,0
  6425  0266  2A68               	goto	u2781
  6426  0267  2A69               	goto	u2780
  6427  0268                     u2781:
  6428  0268  2A85               	goto	l3480
  6429  0269                     u2780:
  6430  0269                     l3476:
  6431  0269  0849               	movf	___flmul@prod,w
  6432  026A  00BD               	movwf	??___flmul
  6433  026B  084A               	movf	___flmul@prod+1,w
  6434  026C  00BE               	movwf	??___flmul+1
  6435  026D  084B               	movf	___flmul@prod+2,w
  6436  026E  00BF               	movwf	??___flmul+2
  6437  026F  084C               	movf	___flmul@prod+3,w
  6438  0270  00C0               	movwf	??___flmul+3
  6439  0271  3001               	movlw	1
  6440  0272  00C1               	movwf	??___flmul+4
  6441  0273                     u2795:
  6442  0273  37C0               	asrf	??___flmul+3,f
  6443  0274  0CBF               	rrf	??___flmul+2,f
  6444  0275  0CBE               	rrf	??___flmul+1,f
  6445  0276  0CBD               	rrf	??___flmul,f
  6446  0277                     u2790:
  6447  0277  0BC1               	decfsz	??___flmul+4,f
  6448  0278  2A73               	goto	u2795
  6449  0279  0840               	movf	??___flmul+3,w
  6450  027A  00CC               	movwf	___flmul@prod+3
  6451  027B  083F               	movf	??___flmul+2,w
  6452  027C  00CB               	movwf	___flmul@prod+2
  6453  027D  083E               	movf	??___flmul+1,w
  6454  027E  00CA               	movwf	___flmul@prod+1
  6455  027F  083D               	movf	??___flmul,w
  6456  0280  00C9               	movwf	___flmul@prod
  6457  0281                     l3478:
  6458  0281  3001               	movlw	1
  6459  0282  07CD               	addwf	___flmul@temp,f
  6460  0283  3000               	movlw	0
  6461  0284  3DCE               	addwfc	___flmul@temp+1,f
  6462  0285                     l3480:
  6463  0285  084E               	movf	___flmul@temp+1,w
  6464  0286  3A80               	xorlw	128
  6465  0287  00BD               	movwf	??___flmul
  6466  0288  3080               	movlw	128
  6467  0289  023D               	subwf	??___flmul,w
  6468  028A  1D03               	skipz
  6469  028B  2A8E               	goto	u2805
  6470  028C  30FF               	movlw	255
  6471  028D  024D               	subwf	___flmul@temp,w
  6472  028E                     u2805:
  6473  028E  1C03               	skipc
  6474  028F  2A91               	goto	u2801
  6475  0290  2A92               	goto	u2800
  6476  0291                     u2801:
  6477  0291  2A9C               	goto	l3484
  6478  0292                     u2800:
  6479  0292                     l3482:
  6480  0292  307F               	movlw	127
  6481  0293  0020               	movlb	0	; select bank0
  6482  0294  00CC               	movwf	___flmul@prod+3
  6483  0295  3080               	movlw	128
  6484  0296  00CB               	movwf	___flmul@prod+2
  6485  0297  3000               	movlw	0
  6486  0298  00CA               	movwf	___flmul@prod+1
  6487  0299  3000               	movlw	0
  6488  029A  00C9               	movwf	___flmul@prod
  6489  029B  2ACB               	goto	l1391
  6490  029C                     l3484:
  6491  029C  0020               	movlb	0	; select bank0
  6492  029D  084E               	movf	___flmul@temp+1,w
  6493  029E  3A80               	xorlw	128
  6494  029F  00BD               	movwf	??___flmul
  6495  02A0  3080               	movlw	128
  6496  02A1  023D               	subwf	??___flmul,w
  6497  02A2  1D03               	skipz
  6498  02A3  2AA6               	goto	u2815
  6499  02A4  3001               	movlw	1
  6500  02A5  024D               	subwf	___flmul@temp,w
  6501  02A6                     u2815:
  6502  02A6  1803               	skipnc
  6503  02A7  2AA9               	goto	u2811
  6504  02A8  2AAA               	goto	u2810
  6505  02A9                     u2811:
  6506  02A9  2AB5               	goto	l3490
  6507  02AA                     u2810:
  6508  02AA                     l3486:
  6509  02AA  3000               	movlw	0
  6510  02AB  0020               	movlb	0	; select bank0
  6511  02AC  00CC               	movwf	___flmul@prod+3
  6512  02AD  3000               	movlw	0
  6513  02AE  00CB               	movwf	___flmul@prod+2
  6514  02AF  3000               	movlw	0
  6515  02B0  00CA               	movwf	___flmul@prod+1
  6516  02B1  3000               	movlw	0
  6517  02B2  00C9               	movwf	___flmul@prod
  6518  02B3                     l3488:
  6519  02B3  01C2               	clrf	___flmul@sign
  6520  02B4  2ACB               	goto	l1391
  6521  02B5                     l3490:
  6522  02B5  0020               	movlb	0	; select bank0
  6523  02B6  084D               	movf	___flmul@temp,w
  6524  02B7  00BD               	movwf	??___flmul
  6525  02B8  083D               	movf	??___flmul,w
  6526  02B9  00C8               	movwf	___flmul@bexp
  6527  02BA  30FF               	movlw	255
  6528  02BB  05C9               	andwf	___flmul@prod,f
  6529  02BC  30FF               	movlw	255
  6530  02BD  05CA               	andwf	___flmul@prod+1,f
  6531  02BE  307F               	movlw	127
  6532  02BF  05CB               	andwf	___flmul@prod+2,f
  6533  02C0  3000               	movlw	0
  6534  02C1  05CC               	andwf	___flmul@prod+3,f
  6535  02C2                     l3492:
  6536  02C2  1C48               	btfss	___flmul@bexp,0
  6537  02C3  2AC5               	goto	u2821
  6538  02C4  2AC6               	goto	u2820
  6539  02C5                     u2821:
  6540  02C5  2AC7               	goto	l3496
  6541  02C6                     u2820:
  6542  02C6                     l3494:
  6543  02C6  17CB               	bsf	___flmul@prod+2,7
  6544  02C7                     l3496:
  6545  02C7  3648               	lsrf	___flmul@bexp,w
  6546  02C8  00BD               	movwf	??___flmul
  6547  02C9  083D               	movf	??___flmul,w
  6548  02CA  00CC               	movwf	___flmul@prod+3
  6549  02CB                     l1391:
  6550  02CB  0842               	movf	___flmul@sign,w
  6551  02CC  00BD               	movwf	??___flmul
  6552  02CD  083D               	movf	??___flmul,w
  6553  02CE  04CC               	iorwf	___flmul@prod+3,f
  6554  02CF                     l3498:
  6555  02CF  084C               	movf	___flmul@prod+3,w
  6556  02D0  00B8               	movwf	?___flmul+3
  6557  02D1  084B               	movf	___flmul@prod+2,w
  6558  02D2  00B7               	movwf	?___flmul+2
  6559  02D3  084A               	movf	___flmul@prod+1,w
  6560  02D4  00B6               	movwf	?___flmul+1
  6561  02D5  0849               	movf	___flmul@prod,w
  6562  02D6  00B5               	movwf	?___flmul
  6563  02D7                     l1379:
  6564  02D7  0008               	return
  6565  02D8                     __end_of___flmul:
  6566                           
  6567                           	psect	text12
  6568  0CEC                     __ptext12:	
  6569 ;; *************** function __Umul8_16 *****************
  6570 ;; Defined at:
  6571 ;;		line 4 in file "C:\Program Files\Microchip\xc8\v2.32\pic\sources\c99\common\Umul8_16.c"
  6572 ;; Parameters:    Size  Location     Type
  6573 ;;  multiplier      1    wreg     unsigned char 
  6574 ;;  multiplicand    1    3[BANK0 ] unsigned char 
  6575 ;; Auto vars:     Size  Location     Type
  6576 ;;  multiplier      1   11[BANK0 ] unsigned char 
  6577 ;;  word_mpld       2    9[BANK0 ] unsigned int 
  6578 ;;  product         2    7[BANK0 ] unsigned int 
  6579 ;; Return value:  Size  Location     Type
  6580 ;;                  2    3[BANK0 ] unsigned int 
  6581 ;; Registers used:
  6582 ;;		wreg, status,2, status,0
  6583 ;; Tracked objects:
  6584 ;;		On entry : 0/0
  6585 ;;		On exit  : 0/0
  6586 ;;		Unchanged: 0/0
  6587 ;; Data sizes:     COMMON   BANK0   BANK1   BANK2   BANK3   BANK4
  6588 ;;      Params:         0       2       0       0       0       0
  6589 ;;      Locals:         0       5       0       0       0       0
  6590 ;;      Temps:          0       2       0       0       0       0
  6591 ;;      Totals:         0       9       0       0       0       0
  6592 ;;Total ram usage:        9 bytes
  6593 ;; Hardware stack levels used: 1
  6594 ;; Hardware stack levels required when called: 6
  6595 ;; This function calls:
  6596 ;;		Nothing
  6597 ;; This function is called by:
  6598 ;;		___flmul
  6599 ;; This function uses a non-reentrant model
  6600 ;;
  6601                           
  6602                           
  6603                           ;psect for function __Umul8_16
  6604  0CEC                     __Umul8_16:
  6605                           
  6606                           ;incstack = 0
  6607                           ; Regs used in __Umul8_16: [wreg+status,2+status,0]
  6608                           ;__Umul8_16@multiplier stored from wreg
  6609  0CEC  0020               	movlb	0	; select bank0
  6610  0CED  00AB               	movwf	__Umul8_16@multiplier
  6611  0CEE                     l3044:
  6612  0CEE  01A7               	clrf	__Umul8_16@product
  6613  0CEF  01A8               	clrf	__Umul8_16@product+1
  6614  0CF0                     l3046:
  6615  0CF0  0823               	movf	__Umul8_16@multiplicand,w
  6616  0CF1  00A5               	movwf	??__Umul8_16
  6617  0CF2  01A6               	clrf	??__Umul8_16+1
  6618  0CF3  0825               	movf	??__Umul8_16,w
  6619  0CF4  00A9               	movwf	__Umul8_16@word_mpld
  6620  0CF5  0826               	movf	??__Umul8_16+1,w
  6621  0CF6  00AA               	movwf	__Umul8_16@word_mpld+1
  6622  0CF7                     l3048:
  6623  0CF7  1C2B               	btfss	__Umul8_16@multiplier,0
  6624  0CF8  2CFA               	goto	u2001
  6625  0CF9  2CFB               	goto	u2000
  6626  0CFA                     u2001:
  6627  0CFA  2CFF               	goto	l1398
  6628  0CFB                     u2000:
  6629  0CFB                     l3050:
  6630  0CFB  0829               	movf	__Umul8_16@word_mpld,w
  6631  0CFC  07A7               	addwf	__Umul8_16@product,f
  6632  0CFD  082A               	movf	__Umul8_16@word_mpld+1,w
  6633  0CFE  3DA8               	addwfc	__Umul8_16@product+1,f
  6634  0CFF                     l1398:
  6635  0CFF  3001               	movlw	1
  6636  0D00                     u2015:
  6637  0D00  35A9               	lslf	__Umul8_16@word_mpld,f
  6638  0D01  0DAA               	rlf	__Umul8_16@word_mpld+1,f
  6639  0D02  0B89               	decfsz	9,f
  6640  0D03  2D00               	goto	u2015
  6641  0D04  1003               	clrc
  6642  0D05  0CAB               	rrf	__Umul8_16@multiplier,f
  6643  0D06                     l3052:
  6644  0D06  082B               	movf	__Umul8_16@multiplier,w
  6645  0D07  1D03               	btfss	3,2
  6646  0D08  2D0A               	goto	u2021
  6647  0D09  2D0B               	goto	u2020
  6648  0D0A                     u2021:
  6649  0D0A  2CF7               	goto	l3048
  6650  0D0B                     u2020:
  6651  0D0B                     l3054:
  6652  0D0B  0828               	movf	__Umul8_16@product+1,w
  6653  0D0C  00A4               	movwf	?__Umul8_16+1
  6654  0D0D  0827               	movf	__Umul8_16@product,w
  6655  0D0E  00A3               	movwf	?__Umul8_16
  6656  0D0F                     l1400:
  6657  0D0F  0008               	return
  6658  0D10                     __end_of__Umul8_16:
  6659                           
  6660                           	psect	text13
  6661  02D8                     __ptext13:	
  6662 ;; *************** function ___fldiv *****************
  6663 ;; Defined at:
  6664 ;;		line 8 in file "C:\Program Files\Microchip\xc8\v2.32\pic\sources\c99\common\sprcdiv.c"
  6665 ;; Parameters:    Size  Location     Type
  6666 ;;  a               4   47[BANK0 ] unsigned int 
  6667 ;;  b               4   51[BANK0 ] unsigned int 
  6668 ;; Auto vars:     Size  Location     Type
  6669 ;;  grs             4   67[BANK0 ] unsigned long 
  6670 ;;  rem             4   60[BANK0 ] unsigned long 
  6671 ;;  new_exp         2   65[BANK0 ] int 
  6672 ;;  aexp            1   72[BANK0 ] unsigned char 
  6673 ;;  bexp            1   71[BANK0 ] unsigned char 
  6674 ;;  sign            1   64[BANK0 ] unsigned char 
  6675 ;; Return value:  Size  Location     Type
  6676 ;;                  4   47[BANK0 ] unsigned char 
  6677 ;; Registers used:
  6678 ;;		wreg, status,2, status,0
  6679 ;; Tracked objects:
  6680 ;;		On entry : 0/0
  6681 ;;		On exit  : 0/0
  6682 ;;		Unchanged: 0/0
  6683 ;; Data sizes:     COMMON   BANK0   BANK1   BANK2   BANK3   BANK4
  6684 ;;      Params:         0       8       0       0       0       0
  6685 ;;      Locals:         0      13       0       0       0       0
  6686 ;;      Temps:          0       5       0       0       0       0
  6687 ;;      Totals:         0      26       0       0       0       0
  6688 ;;Total ram usage:       26 bytes
  6689 ;; Hardware stack levels used: 1
  6690 ;; Hardware stack levels required when called: 6
  6691 ;; This function calls:
  6692 ;;		Nothing
  6693 ;; This function is called by:
  6694 ;;		_main
  6695 ;; This function uses a non-reentrant model
  6696 ;;
  6697                           
  6698                           
  6699                           ;psect for function ___fldiv
  6700  02D8                     ___fldiv:
  6701  02D8                     l3222:	
  6702                           ;incstack = 0
  6703                           ; Regs used in ___fldiv: [wreg+status,2+status,0]
  6704                           
  6705  02D8  0020               	movlb	0	; select bank0
  6706  02D9  0856               	movf	___fldiv@b+3,w
  6707  02DA  3980               	andlw	128
  6708  02DB  00D7               	movwf	??___fldiv
  6709  02DC  0857               	movf	??___fldiv,w
  6710  02DD  00E0               	movwf	___fldiv@sign
  6711  02DE                     l3224:
  6712  02DE  3556               	lslf	___fldiv@b+3,w
  6713  02DF  00D7               	movwf	??___fldiv
  6714  02E0  0857               	movf	??___fldiv,w
  6715  02E1  00E7               	movwf	___fldiv@bexp
  6716  02E2                     l3226:
  6717  02E2  1FD5               	btfss	___fldiv@b+2,7
  6718  02E3  2AE5               	goto	u2281
  6719  02E4  2AE6               	goto	u2280
  6720  02E5                     u2281:
  6721  02E5  2AE7               	goto	l3230
  6722  02E6                     u2280:
  6723  02E6                     l3228:
  6724  02E6  1467               	bsf	___fldiv@bexp,0
  6725  02E7                     l3230:
  6726  02E7  0867               	movf	___fldiv@bexp,w
  6727  02E8  1903               	btfsc	3,2
  6728  02E9  2AEB               	goto	u2291
  6729  02EA  2AEC               	goto	u2290
  6730  02EB                     u2291:
  6731  02EB  2AFC               	goto	l3240
  6732  02EC                     u2290:
  6733  02EC                     l3232:
  6734  02EC  0A67               	incf	___fldiv@bexp,w
  6735  02ED  1D03               	btfss	3,2
  6736  02EE  2AF0               	goto	u2301
  6737  02EF  2AF1               	goto	u2300
  6738  02F0                     u2301:
  6739  02F0  2AF9               	goto	l3236
  6740  02F1                     u2300:
  6741  02F1                     l3234:
  6742  02F1  3000               	movlw	0
  6743  02F2  00D6               	movwf	___fldiv@b+3
  6744  02F3  3000               	movlw	0
  6745  02F4  00D5               	movwf	___fldiv@b+2
  6746  02F5  3000               	movlw	0
  6747  02F6  00D4               	movwf	___fldiv@b+1
  6748  02F7  3000               	movlw	0
  6749  02F8  00D3               	movwf	___fldiv@b
  6750  02F9                     l3236:
  6751  02F9  17D5               	bsf	___fldiv@b+2,7
  6752  02FA                     l3238:
  6753  02FA  01D6               	clrf	___fldiv@b+3
  6754  02FB  2B04               	goto	l3242
  6755  02FC                     l3240:
  6756  02FC  3000               	movlw	0
  6757  02FD  00D6               	movwf	___fldiv@b+3
  6758  02FE  3000               	movlw	0
  6759  02FF  00D5               	movwf	___fldiv@b+2
  6760  0300  3000               	movlw	0
  6761  0301  00D4               	movwf	___fldiv@b+1
  6762  0302  3000               	movlw	0
  6763  0303  00D3               	movwf	___fldiv@b
  6764  0304                     l3242:
  6765  0304  0852               	movf	___fldiv@a+3,w
  6766  0305  3980               	andlw	128
  6767  0306  00D7               	movwf	??___fldiv
  6768  0307  0857               	movf	??___fldiv,w
  6769  0308  06E0               	xorwf	___fldiv@sign,f
  6770  0309                     l3244:
  6771  0309  3552               	lslf	___fldiv@a+3,w
  6772  030A  00D7               	movwf	??___fldiv
  6773  030B  0857               	movf	??___fldiv,w
  6774  030C  00E8               	movwf	___fldiv@aexp
  6775  030D                     l3246:
  6776  030D  1FD1               	btfss	___fldiv@a+2,7
  6777  030E  2B10               	goto	u2311
  6778  030F  2B11               	goto	u2310
  6779  0310                     u2311:
  6780  0310  2B12               	goto	l3250
  6781  0311                     u2310:
  6782  0311                     l3248:
  6783  0311  1468               	bsf	___fldiv@aexp,0
  6784  0312                     l3250:
  6785  0312  0868               	movf	___fldiv@aexp,w
  6786  0313  1903               	btfsc	3,2
  6787  0314  2B16               	goto	u2321
  6788  0315  2B17               	goto	u2320
  6789  0316                     u2321:
  6790  0316  2B27               	goto	l3260
  6791  0317                     u2320:
  6792  0317                     l3252:
  6793  0317  0A68               	incf	___fldiv@aexp,w
  6794  0318  1D03               	btfss	3,2
  6795  0319  2B1B               	goto	u2331
  6796  031A  2B1C               	goto	u2330
  6797  031B                     u2331:
  6798  031B  2B24               	goto	l3256
  6799  031C                     u2330:
  6800  031C                     l3254:
  6801  031C  3000               	movlw	0
  6802  031D  00D2               	movwf	___fldiv@a+3
  6803  031E  3000               	movlw	0
  6804  031F  00D1               	movwf	___fldiv@a+2
  6805  0320  3000               	movlw	0
  6806  0321  00D0               	movwf	___fldiv@a+1
  6807  0322  3000               	movlw	0
  6808  0323  00CF               	movwf	___fldiv@a
  6809  0324                     l3256:
  6810  0324  17D1               	bsf	___fldiv@a+2,7
  6811  0325                     l3258:
  6812  0325  01D2               	clrf	___fldiv@a+3
  6813  0326  2B2F               	goto	l1339
  6814  0327                     l3260:
  6815  0327  3000               	movlw	0
  6816  0328  00D2               	movwf	___fldiv@a+3
  6817  0329  3000               	movlw	0
  6818  032A  00D1               	movwf	___fldiv@a+2
  6819  032B  3000               	movlw	0
  6820  032C  00D0               	movwf	___fldiv@a+1
  6821  032D  3000               	movlw	0
  6822  032E  00CF               	movwf	___fldiv@a
  6823  032F                     l1339:
  6824  032F  0852               	movf	___fldiv@a+3,w
  6825  0330  0451               	iorwf	___fldiv@a+2,w
  6826  0331  0450               	iorwf	___fldiv@a+1,w
  6827  0332  044F               	iorwf	___fldiv@a,w
  6828  0333  1D03               	skipz
  6829  0334  2B36               	goto	u2341
  6830  0335  2B37               	goto	u2340
  6831  0336                     u2341:
  6832  0336  2B50               	goto	l3270
  6833  0337                     u2340:
  6834  0337                     l3262:
  6835  0337  3000               	movlw	0
  6836  0338  00D6               	movwf	___fldiv@b+3
  6837  0339  3000               	movlw	0
  6838  033A  00D5               	movwf	___fldiv@b+2
  6839  033B  3000               	movlw	0
  6840  033C  00D4               	movwf	___fldiv@b+1
  6841  033D  3000               	movlw	0
  6842  033E  00D3               	movwf	___fldiv@b
  6843  033F  3080               	movlw	128
  6844  0340  04D5               	iorwf	___fldiv@b+2,f
  6845  0341  307F               	movlw	127
  6846  0342  04D6               	iorwf	___fldiv@b+3,f
  6847  0343                     l3264:
  6848  0343  0860               	movf	___fldiv@sign,w
  6849  0344  00D7               	movwf	??___fldiv
  6850  0345  0857               	movf	??___fldiv,w
  6851  0346  04D6               	iorwf	___fldiv@b+3,f
  6852  0347                     l3266:
  6853  0347  0856               	movf	___fldiv@b+3,w
  6854  0348  00D2               	movwf	?___fldiv+3
  6855  0349  0855               	movf	___fldiv@b+2,w
  6856  034A  00D1               	movwf	?___fldiv+2
  6857  034B  0854               	movf	___fldiv@b+1,w
  6858  034C  00D0               	movwf	?___fldiv+1
  6859  034D  0853               	movf	___fldiv@b,w
  6860  034E  00CF               	movwf	?___fldiv
  6861  034F  2C8B               	goto	l1341
  6862  0350                     l3270:
  6863  0350  0867               	movf	___fldiv@bexp,w
  6864  0351  1D03               	btfss	3,2
  6865  0352  2B54               	goto	u2351
  6866  0353  2B55               	goto	u2350
  6867  0354                     u2351:
  6868  0354  2B5E               	goto	l3276
  6869  0355                     u2350:
  6870  0355                     l3272:
  6871  0355  3000               	movlw	0
  6872  0356  00D2               	movwf	?___fldiv+3
  6873  0357  3000               	movlw	0
  6874  0358  00D1               	movwf	?___fldiv+2
  6875  0359  3000               	movlw	0
  6876  035A  00D0               	movwf	?___fldiv+1
  6877  035B  3000               	movlw	0
  6878  035C  00CF               	movwf	?___fldiv
  6879  035D  2C8B               	goto	l1341
  6880  035E                     l3276:
  6881  035E  0867               	movf	___fldiv@bexp,w
  6882  035F  00D7               	movwf	??___fldiv
  6883  0360  01D8               	clrf	??___fldiv+1
  6884  0361  0858               	movf	??___fldiv+1,w
  6885  0362  00DA               	movwf	??___fldiv+3
  6886  0363  0868               	movf	___fldiv@aexp,w
  6887  0364  0257               	subwf	??___fldiv,w
  6888  0365  00D9               	movwf	??___fldiv+2
  6889  0366  1C03               	skipc
  6890  0367  03DA               	decf	??___fldiv+3,f
  6891  0368  0859               	movf	??___fldiv+2,w
  6892  0369  3E7F               	addlw	127
  6893  036A  00E1               	movwf	___fldiv@new_exp
  6894  036B  3000               	movlw	0
  6895  036C  3D5A               	addwfc	??___fldiv+3,w
  6896  036D  00E2               	movwf	___fldiv@new_exp+1
  6897  036E                     l3278:
  6898  036E  0856               	movf	___fldiv@b+3,w
  6899  036F  00DF               	movwf	___fldiv@rem+3
  6900  0370  0855               	movf	___fldiv@b+2,w
  6901  0371  00DE               	movwf	___fldiv@rem+2
  6902  0372  0854               	movf	___fldiv@b+1,w
  6903  0373  00DD               	movwf	___fldiv@rem+1
  6904  0374  0853               	movf	___fldiv@b,w
  6905  0375  00DC               	movwf	___fldiv@rem
  6906  0376                     l3280:
  6907  0376  3000               	movlw	0
  6908  0377  00D6               	movwf	___fldiv@b+3
  6909  0378  3000               	movlw	0
  6910  0379  00D5               	movwf	___fldiv@b+2
  6911  037A  3000               	movlw	0
  6912  037B  00D4               	movwf	___fldiv@b+1
  6913  037C  3000               	movlw	0
  6914  037D  00D3               	movwf	___fldiv@b
  6915  037E                     l3282:
  6916  037E  3000               	movlw	0
  6917  037F  00E6               	movwf	___fldiv@grs+3
  6918  0380  3000               	movlw	0
  6919  0381  00E5               	movwf	___fldiv@grs+2
  6920  0382  3000               	movlw	0
  6921  0383  00E4               	movwf	___fldiv@grs+1
  6922  0384  3000               	movlw	0
  6923  0385  00E3               	movwf	___fldiv@grs
  6924  0386                     l3284:
  6925  0386  01E8               	clrf	___fldiv@aexp
  6926  0387  2BC6               	goto	l3304
  6927  0388                     l3286:
  6928  0388  0868               	movf	___fldiv@aexp,w
  6929  0389  1903               	btfsc	3,2
  6930  038A  2B8C               	goto	u2361
  6931  038B  2B8D               	goto	u2360
  6932  038C                     u2361:
  6933  038C  2BA7               	goto	l3296
  6934  038D                     u2360:
  6935  038D                     l3288:
  6936  038D  3001               	movlw	1
  6937  038E                     u2375:
  6938  038E  35DC               	lslf	___fldiv@rem,f
  6939  038F  0DDD               	rlf	___fldiv@rem+1,f
  6940  0390  0DDE               	rlf	___fldiv@rem+2,f
  6941  0391  0DDF               	rlf	___fldiv@rem+3,f
  6942  0392  0B89               	decfsz	9,f
  6943  0393  2B8E               	goto	u2375
  6944  0394  3001               	movlw	1
  6945  0395                     u2385:
  6946  0395  35D3               	lslf	___fldiv@b,f
  6947  0396  0DD4               	rlf	___fldiv@b+1,f
  6948  0397  0DD5               	rlf	___fldiv@b+2,f
  6949  0398  0DD6               	rlf	___fldiv@b+3,f
  6950  0399  0B89               	decfsz	9,f
  6951  039A  2B95               	goto	u2385
  6952  039B                     l3290:
  6953  039B  1FE6               	btfss	___fldiv@grs+3,7
  6954  039C  2B9E               	goto	u2391
  6955  039D  2B9F               	goto	u2390
  6956  039E                     u2391:
  6957  039E  2BA0               	goto	l3294
  6958  039F                     u2390:
  6959  039F                     l3292:
  6960  039F  1453               	bsf	___fldiv@b,0
  6961  03A0                     l3294:
  6962  03A0  3001               	movlw	1
  6963  03A1                     u2405:
  6964  03A1  35E3               	lslf	___fldiv@grs,f
  6965  03A2  0DE4               	rlf	___fldiv@grs+1,f
  6966  03A3  0DE5               	rlf	___fldiv@grs+2,f
  6967  03A4  0DE6               	rlf	___fldiv@grs+3,f
  6968  03A5  0B89               	decfsz	9,f
  6969  03A6  2BA1               	goto	u2405
  6970  03A7                     l3296:
  6971  03A7  0852               	movf	___fldiv@a+3,w
  6972  03A8  025F               	subwf	___fldiv@rem+3,w
  6973  03A9  1D03               	skipz
  6974  03AA  2BB5               	goto	u2415
  6975  03AB  0851               	movf	___fldiv@a+2,w
  6976  03AC  025E               	subwf	___fldiv@rem+2,w
  6977  03AD  1D03               	skipz
  6978  03AE  2BB5               	goto	u2415
  6979  03AF  0850               	movf	___fldiv@a+1,w
  6980  03B0  025D               	subwf	___fldiv@rem+1,w
  6981  03B1  1D03               	skipz
  6982  03B2  2BB5               	goto	u2415
  6983  03B3  084F               	movf	___fldiv@a,w
  6984  03B4  025C               	subwf	___fldiv@rem,w
  6985  03B5                     u2415:
  6986  03B5  1C03               	skipc
  6987  03B6  2BB8               	goto	u2411
  6988  03B7  2BB9               	goto	u2410
  6989  03B8                     u2411:
  6990  03B8  2BC2               	goto	l3302
  6991  03B9                     u2410:
  6992  03B9                     l3298:
  6993  03B9  1766               	bsf	___fldiv@grs+3,6
  6994  03BA                     l3300:
  6995  03BA  084F               	movf	___fldiv@a,w
  6996  03BB  02DC               	subwf	___fldiv@rem,f
  6997  03BC  0850               	movf	___fldiv@a+1,w
  6998  03BD  3BDD               	subwfb	___fldiv@rem+1,f
  6999  03BE  0851               	movf	___fldiv@a+2,w
  7000  03BF  3BDE               	subwfb	___fldiv@rem+2,f
  7001  03C0  0852               	movf	___fldiv@a+3,w
  7002  03C1  3BDF               	subwfb	___fldiv@rem+3,f
  7003  03C2                     l3302:
  7004  03C2  3001               	movlw	1
  7005  03C3  00D7               	movwf	??___fldiv
  7006  03C4  0857               	movf	??___fldiv,w
  7007  03C5  07E8               	addwf	___fldiv@aexp,f
  7008  03C6                     l3304:
  7009  03C6  301A               	movlw	26
  7010  03C7  0268               	subwf	___fldiv@aexp,w
  7011  03C8  1C03               	skipc
  7012  03C9  2BCB               	goto	u2421
  7013  03CA  2BCC               	goto	u2420
  7014  03CB                     u2421:
  7015  03CB  2B88               	goto	l3286
  7016  03CC                     u2420:
  7017  03CC                     l3306:
  7018  03CC  085F               	movf	___fldiv@rem+3,w
  7019  03CD  045E               	iorwf	___fldiv@rem+2,w
  7020  03CE  045D               	iorwf	___fldiv@rem+1,w
  7021  03CF  045C               	iorwf	___fldiv@rem,w
  7022  03D0  1903               	skipnz
  7023  03D1  2BD3               	goto	u2431
  7024  03D2  2BD4               	goto	u2430
  7025  03D3                     u2431:
  7026  03D3  2BED               	goto	l3320
  7027  03D4                     u2430:
  7028  03D4                     l3308:
  7029  03D4  1463               	bsf	___fldiv@grs,0
  7030  03D5  2BED               	goto	l3320
  7031  03D6                     l3310:
  7032  03D6  3001               	movlw	1
  7033  03D7                     u2445:
  7034  03D7  35D3               	lslf	___fldiv@b,f
  7035  03D8  0DD4               	rlf	___fldiv@b+1,f
  7036  03D9  0DD5               	rlf	___fldiv@b+2,f
  7037  03DA  0DD6               	rlf	___fldiv@b+3,f
  7038  03DB  0B89               	decfsz	9,f
  7039  03DC  2BD7               	goto	u2445
  7040  03DD                     l3312:
  7041  03DD  1FE6               	btfss	___fldiv@grs+3,7
  7042  03DE  2BE0               	goto	u2451
  7043  03DF  2BE1               	goto	u2450
  7044  03E0                     u2451:
  7045  03E0  2BE2               	goto	l3316
  7046  03E1                     u2450:
  7047  03E1                     l3314:
  7048  03E1  1453               	bsf	___fldiv@b,0
  7049  03E2                     l3316:
  7050  03E2  3001               	movlw	1
  7051  03E3                     u2465:
  7052  03E3  35E3               	lslf	___fldiv@grs,f
  7053  03E4  0DE4               	rlf	___fldiv@grs+1,f
  7054  03E5  0DE5               	rlf	___fldiv@grs+2,f
  7055  03E6  0DE6               	rlf	___fldiv@grs+3,f
  7056  03E7  0B89               	decfsz	9,f
  7057  03E8  2BE3               	goto	u2465
  7058  03E9                     l3318:
  7059  03E9  30FF               	movlw	255
  7060  03EA  07E1               	addwf	___fldiv@new_exp,f
  7061  03EB  30FF               	movlw	255
  7062  03EC  3DE2               	addwfc	___fldiv@new_exp+1,f
  7063  03ED                     l3320:
  7064  03ED  1FD5               	btfss	___fldiv@b+2,7
  7065  03EE  2BF0               	goto	u2471
  7066  03EF  2BF1               	goto	u2470
  7067  03F0                     u2471:
  7068  03F0  2BD6               	goto	l3310
  7069  03F1                     u2470:
  7070  03F1                     l3322:
  7071  03F1  01E8               	clrf	___fldiv@aexp
  7072  03F2                     l3324:
  7073  03F2  1FE6               	btfss	___fldiv@grs+3,7
  7074  03F3  2BF5               	goto	u2481
  7075  03F4  2BF6               	goto	u2480
  7076  03F5                     u2481:
  7077  03F5  2C12               	goto	l3332
  7078  03F6                     u2480:
  7079  03F6                     l3326:
  7080  03F6  30FF               	movlw	255
  7081  03F7  0563               	andwf	___fldiv@grs,w
  7082  03F8  00D7               	movwf	??___fldiv
  7083  03F9  30FF               	movlw	255
  7084  03FA  0564               	andwf	___fldiv@grs+1,w
  7085  03FB  00D8               	movwf	??___fldiv+1
  7086  03FC  30FF               	movlw	255
  7087  03FD  0565               	andwf	___fldiv@grs+2,w
  7088  03FE  00D9               	movwf	??___fldiv+2
  7089  03FF  307F               	movlw	127
  7090  0400  0566               	andwf	___fldiv@grs+3,w
  7091  0401  00DA               	movwf	??___fldiv+3
  7092  0402  085A               	movf	??___fldiv+3,w
  7093  0403  0459               	iorwf	??___fldiv+2,w
  7094  0404  0458               	iorwf	??___fldiv+1,w
  7095  0405  0457               	iorwf	??___fldiv,w
  7096  0406  1903               	skipnz
  7097  0407  2C09               	goto	u2491
  7098  0408  2C0A               	goto	u2490
  7099  0409                     u2491:
  7100  0409  2C0D               	goto	l1355
  7101  040A                     u2490:
  7102  040A                     l3328:
  7103  040A  01E8               	clrf	___fldiv@aexp
  7104  040B  0AE8               	incf	___fldiv@aexp,f
  7105  040C  2C12               	goto	l3332
  7106  040D                     l1355:
  7107  040D  1C53               	btfss	___fldiv@b,0
  7108  040E  2C10               	goto	u2501
  7109  040F  2C11               	goto	u2500
  7110  0410                     u2501:
  7111  0410  2C12               	goto	l3332
  7112  0411                     u2500:
  7113  0411  2C0A               	goto	l3328
  7114  0412                     l3332:
  7115  0412  0868               	movf	___fldiv@aexp,w
  7116  0413  1903               	btfsc	3,2
  7117  0414  2C16               	goto	u2511
  7118  0415  2C17               	goto	u2510
  7119  0416                     u2511:
  7120  0416  2C3F               	goto	l3342
  7121  0417                     u2510:
  7122  0417                     l3334:
  7123  0417  3001               	movlw	1
  7124  0418  07D3               	addwf	___fldiv@b,f
  7125  0419  3000               	movlw	0
  7126  041A  3DD4               	addwfc	___fldiv@b+1,f
  7127  041B  3000               	movlw	0
  7128  041C  3DD5               	addwfc	___fldiv@b+2,f
  7129  041D  3000               	movlw	0
  7130  041E  3DD6               	addwfc	___fldiv@b+3,f
  7131  041F                     l3336:
  7132  041F  1C56               	btfss	___fldiv@b+3,0
  7133  0420  2C22               	goto	u2521
  7134  0421  2C23               	goto	u2520
  7135  0422                     u2521:
  7136  0422  2C3F               	goto	l3342
  7137  0423                     u2520:
  7138  0423                     l3338:
  7139  0423  0853               	movf	___fldiv@b,w
  7140  0424  00D7               	movwf	??___fldiv
  7141  0425  0854               	movf	___fldiv@b+1,w
  7142  0426  00D8               	movwf	??___fldiv+1
  7143  0427  0855               	movf	___fldiv@b+2,w
  7144  0428  00D9               	movwf	??___fldiv+2
  7145  0429  0856               	movf	___fldiv@b+3,w
  7146  042A  00DA               	movwf	??___fldiv+3
  7147  042B  3001               	movlw	1
  7148  042C  00DB               	movwf	??___fldiv+4
  7149  042D                     u2535:
  7150  042D  37DA               	asrf	??___fldiv+3,f
  7151  042E  0CD9               	rrf	??___fldiv+2,f
  7152  042F  0CD8               	rrf	??___fldiv+1,f
  7153  0430  0CD7               	rrf	??___fldiv,f
  7154  0431                     u2530:
  7155  0431  0BDB               	decfsz	??___fldiv+4,f
  7156  0432  2C2D               	goto	u2535
  7157  0433  085A               	movf	??___fldiv+3,w
  7158  0434  00D6               	movwf	___fldiv@b+3
  7159  0435  0859               	movf	??___fldiv+2,w
  7160  0436  00D5               	movwf	___fldiv@b+2
  7161  0437  0858               	movf	??___fldiv+1,w
  7162  0438  00D4               	movwf	___fldiv@b+1
  7163  0439  0857               	movf	??___fldiv,w
  7164  043A  00D3               	movwf	___fldiv@b
  7165  043B                     l3340:
  7166  043B  3001               	movlw	1
  7167  043C  07E1               	addwf	___fldiv@new_exp,f
  7168  043D  3000               	movlw	0
  7169  043E  3DE2               	addwfc	___fldiv@new_exp+1,f
  7170  043F                     l3342:
  7171  043F  0862               	movf	___fldiv@new_exp+1,w
  7172  0440  3A80               	xorlw	128
  7173  0441  00D7               	movwf	??___fldiv
  7174  0442  3080               	movlw	128
  7175  0443  0257               	subwf	??___fldiv,w
  7176  0444  1D03               	skipz
  7177  0445  2C48               	goto	u2545
  7178  0446  30FF               	movlw	255
  7179  0447  0261               	subwf	___fldiv@new_exp,w
  7180  0448                     u2545:
  7181  0448  1C03               	skipc
  7182  0449  2C4B               	goto	u2541
  7183  044A  2C4C               	goto	u2540
  7184  044B                     u2541:
  7185  044B  2C59               	goto	l1360
  7186  044C                     u2540:
  7187  044C                     l3344:
  7188  044C  30FF               	movlw	255
  7189  044D  0020               	movlb	0	; select bank0
  7190  044E  00E1               	movwf	___fldiv@new_exp
  7191  044F  3000               	movlw	0
  7192  0450  00E2               	movwf	___fldiv@new_exp+1
  7193  0451  3000               	movlw	0
  7194  0452  00D6               	movwf	___fldiv@b+3
  7195  0453  3000               	movlw	0
  7196  0454  00D5               	movwf	___fldiv@b+2
  7197  0455  3000               	movlw	0
  7198  0456  00D4               	movwf	___fldiv@b+1
  7199  0457  3000               	movlw	0
  7200  0458  00D3               	movwf	___fldiv@b
  7201  0459                     l1360:
  7202  0459  0020               	movlb	0	; select bank0
  7203  045A  0862               	movf	___fldiv@new_exp+1,w
  7204  045B  3A80               	xorlw	128
  7205  045C  00D7               	movwf	??___fldiv
  7206  045D  3080               	movlw	128
  7207  045E  0257               	subwf	??___fldiv,w
  7208  045F  1D03               	skipz
  7209  0460  2C63               	goto	u2555
  7210  0461  3001               	movlw	1
  7211  0462  0261               	subwf	___fldiv@new_exp,w
  7212  0463                     u2555:
  7213  0463  1803               	skipnc
  7214  0464  2C66               	goto	u2551
  7215  0465  2C67               	goto	u2550
  7216  0466                     u2551:
  7217  0466  2C73               	goto	l1361
  7218  0467                     u2550:
  7219  0467                     l3346:
  7220  0467  0020               	movlb	0	; select bank0
  7221  0468  01E1               	clrf	___fldiv@new_exp
  7222  0469  01E2               	clrf	___fldiv@new_exp+1
  7223  046A                     l3348:
  7224  046A  3000               	movlw	0
  7225  046B  00D6               	movwf	___fldiv@b+3
  7226  046C  3000               	movlw	0
  7227  046D  00D5               	movwf	___fldiv@b+2
  7228  046E  3000               	movlw	0
  7229  046F  00D4               	movwf	___fldiv@b+1
  7230  0470  3000               	movlw	0
  7231  0471  00D3               	movwf	___fldiv@b
  7232  0472                     l3350:
  7233  0472  01E0               	clrf	___fldiv@sign
  7234  0473                     l1361:
  7235  0473  0020               	movlb	0	; select bank0
  7236  0474  0861               	movf	___fldiv@new_exp,w
  7237  0475  00D7               	movwf	??___fldiv
  7238  0476  0857               	movf	??___fldiv,w
  7239  0477  00E7               	movwf	___fldiv@bexp
  7240  0478                     l3352:
  7241  0478  1C67               	btfss	___fldiv@bexp,0
  7242  0479  2C7B               	goto	u2561
  7243  047A  2C7C               	goto	u2560
  7244  047B                     u2561:
  7245  047B  2C7E               	goto	l3356
  7246  047C                     u2560:
  7247  047C                     l3354:
  7248  047C  17D5               	bsf	___fldiv@b+2,7
  7249  047D  2C82               	goto	l1363
  7250  047E                     l3356:
  7251  047E  307F               	movlw	127
  7252  047F  00D7               	movwf	??___fldiv
  7253  0480  0857               	movf	??___fldiv,w
  7254  0481  05D5               	andwf	___fldiv@b+2,f
  7255  0482                     l1363:
  7256  0482  3667               	lsrf	___fldiv@bexp,w
  7257  0483  00D7               	movwf	??___fldiv
  7258  0484  0857               	movf	??___fldiv,w
  7259  0485  00D6               	movwf	___fldiv@b+3
  7260  0486  0860               	movf	___fldiv@sign,w
  7261  0487  00D7               	movwf	??___fldiv
  7262  0488  0857               	movf	??___fldiv,w
  7263  0489  04D6               	iorwf	___fldiv@b+3,f
  7264  048A  2B47               	goto	l3266
  7265  048B                     l1341:
  7266  048B  0008               	return
  7267  048C                     __end_of___fldiv:
  7268                           
  7269                           	psect	text14
  7270  0D63                     __ptext14:	
  7271 ;; *************** function _SYSTEM_Initialize *****************
  7272 ;; Defined at:
  7273 ;;		line 50 in file "mcc_generated_files/mcc.c"
  7274 ;; Parameters:    Size  Location     Type
  7275 ;;		None
  7276 ;; Auto vars:     Size  Location     Type
  7277 ;;		None
  7278 ;; Return value:  Size  Location     Type
  7279 ;;                  1    wreg      void 
  7280 ;; Registers used:
  7281 ;;		wreg, status,2, status,0, pclath, cstack
  7282 ;; Tracked objects:
  7283 ;;		On entry : 0/0
  7284 ;;		On exit  : 0/0
  7285 ;;		Unchanged: 0/0
  7286 ;; Data sizes:     COMMON   BANK0   BANK1   BANK2   BANK3   BANK4
  7287 ;;      Params:         0       0       0       0       0       0
  7288 ;;      Locals:         0       0       0       0       0       0
  7289 ;;      Temps:          0       0       0       0       0       0
  7290 ;;      Totals:         0       0       0       0       0       0
  7291 ;;Total ram usage:        0 bytes
  7292 ;; Hardware stack levels used: 1
  7293 ;; Hardware stack levels required when called: 8
  7294 ;; This function calls:
  7295 ;;		_ADC_Initialize
  7296 ;;		_CCP4_Initialize
  7297 ;;		_CMP1_Initialize
  7298 ;;		_CMP2_Initialize
  7299 ;;		_DAC_Initialize
  7300 ;;		_EUSART_Initialize
  7301 ;;		_FVR_Initialize
  7302 ;;		_OSCILLATOR_Initialize
  7303 ;;		_PIN_MANAGER_Initialize
  7304 ;;		_PWM3_Initialize
  7305 ;;		_SPI1_Initialize
  7306 ;;		_TMR1_Initialize
  7307 ;;		_TMR2_Initialize
  7308 ;;		_TMR4_Initialize
  7309 ;;		_WDT_Initialize
  7310 ;; This function is called by:
  7311 ;;		_main
  7312 ;; This function uses a non-reentrant model
  7313 ;;
  7314                           
  7315                           
  7316                           ;psect for function _SYSTEM_Initialize
  7317  0D63                     _SYSTEM_Initialize:
  7318  0D63                     l3058:	
  7319                           ;incstack = 0
  7320                           ; Regs used in _SYSTEM_Initialize: [wreg+status,2+status,0+pclath+cstack]
  7321                           
  7322                           
  7323                           ;mcc_generated_files/mcc.c: 53:     SPI1_Initialize();
  7324  0D63  318B  2389  318D   	fcall	_SPI1_Initialize
  7325                           
  7326                           ;mcc_generated_files/mcc.c: 54:     PIN_MANAGER_Initialize();
  7327  0D66  318D  25C0  318D   	fcall	_PIN_MANAGER_Initialize
  7328                           
  7329                           ;mcc_generated_files/mcc.c: 55:     OSCILLATOR_Initialize();
  7330  0D69  318B  2317  318D   	fcall	_OSCILLATOR_Initialize
  7331                           
  7332                           ;mcc_generated_files/mcc.c: 56:     WDT_Initialize();
  7333  0D6C  318A  22DF  318D   	fcall	_WDT_Initialize
  7334                           
  7335                           ;mcc_generated_files/mcc.c: 57:     CMP2_Initialize();
  7336  0D6F  318B  23A0  318D   	fcall	_CMP2_Initialize
  7337                           
  7338                           ;mcc_generated_files/mcc.c: 58:     DAC_Initialize();
  7339  0D72  318B  2305  318D   	fcall	_DAC_Initialize
  7340                           
  7341                           ;mcc_generated_files/mcc.c: 59:     FVR_Initialize();
  7342  0D75  318A  22DB  318D   	fcall	_FVR_Initialize
  7343                           
  7344                           ;mcc_generated_files/mcc.c: 60:     TMR4_Initialize();
  7345  0D78  318C  243F  318D   	fcall	_TMR4_Initialize
  7346                           
  7347                           ;mcc_generated_files/mcc.c: 61:     TMR2_Initialize();
  7348  0D7B  318B  2326  318D   	fcall	_TMR2_Initialize
  7349                           
  7350                           ;mcc_generated_files/mcc.c: 62:     CMP1_Initialize();
  7351  0D7E  318B  2394  318D   	fcall	_CMP1_Initialize
  7352                           
  7353                           ;mcc_generated_files/mcc.c: 63:     CCP4_Initialize();
  7354  0D81  318C  241A  318D   	fcall	_CCP4_Initialize
  7355                           
  7356                           ;mcc_generated_files/mcc.c: 64:     ADC_Initialize();
  7357  0D84  318B  231E  318D   	fcall	_ADC_Initialize
  7358                           
  7359                           ;mcc_generated_files/mcc.c: 65:     PWM3_Initialize();
  7360  0D87  318B  2364  318D   	fcall	_PWM3_Initialize
  7361                           
  7362                           ;mcc_generated_files/mcc.c: 66:     TMR1_Initialize();
  7363  0D8A  318C  2497  318D   	fcall	_TMR1_Initialize
  7364                           
  7365                           ;mcc_generated_files/mcc.c: 67:     EUSART_Initialize();
  7366  0D8D  318D  2510  318D   	fcall	_EUSART_Initialize
  7367  0D90                     l41:
  7368  0D90  0008               	return
  7369  0D91                     __end_of_SYSTEM_Initialize:
  7370                           
  7371                           	psect	text15
  7372  0ADF                     __ptext15:	
  7373 ;; *************** function _WDT_Initialize *****************
  7374 ;; Defined at:
  7375 ;;		line 80 in file "mcc_generated_files/mcc.c"
  7376 ;; Parameters:    Size  Location     Type
  7377 ;;		None
  7378 ;; Auto vars:     Size  Location     Type
  7379 ;;		None
  7380 ;; Return value:  Size  Location     Type
  7381 ;;                  1    wreg      void 
  7382 ;; Registers used:
  7383 ;;		wreg
  7384 ;; Tracked objects:
  7385 ;;		On entry : 0/0
  7386 ;;		On exit  : 0/0
  7387 ;;		Unchanged: 0/0
  7388 ;; Data sizes:     COMMON   BANK0   BANK1   BANK2   BANK3   BANK4
  7389 ;;      Params:         0       0       0       0       0       0
  7390 ;;      Locals:         0       0       0       0       0       0
  7391 ;;      Temps:          0       0       0       0       0       0
  7392 ;;      Totals:         0       0       0       0       0       0
  7393 ;;Total ram usage:        0 bytes
  7394 ;; Hardware stack levels used: 1
  7395 ;; Hardware stack levels required when called: 6
  7396 ;; This function calls:
  7397 ;;		Nothing
  7398 ;; This function is called by:
  7399 ;;		_SYSTEM_Initialize
  7400 ;; This function uses a non-reentrant model
  7401 ;;
  7402                           
  7403                           
  7404                           ;psect for function _WDT_Initialize
  7405  0ADF                     _WDT_Initialize:
  7406  0ADF                     l2844:	
  7407                           ;incstack = 0
  7408                           ; Regs used in _WDT_Initialize: [wreg]
  7409                           
  7410                           
  7411                           ;mcc_generated_files/mcc.c: 83:     WDTCON = 0x16;
  7412  0ADF  3016               	movlw	22
  7413  0AE0  0021               	movlb	1	; select bank1
  7414  0AE1  0097               	movwf	23	;volatile
  7415  0AE2                     l47:
  7416  0AE2  0008               	return
  7417  0AE3                     __end_of_WDT_Initialize:
  7418                           
  7419                           	psect	text16
  7420  0C3F                     __ptext16:	
  7421 ;; *************** function _TMR4_Initialize *****************
  7422 ;; Defined at:
  7423 ;;		line 64 in file "mcc_generated_files/tmr4.c"
  7424 ;; Parameters:    Size  Location     Type
  7425 ;;		None
  7426 ;; Auto vars:     Size  Location     Type
  7427 ;;		None
  7428 ;; Return value:  Size  Location     Type
  7429 ;;                  1    wreg      void 
  7430 ;; Registers used:
  7431 ;;		wreg, status,2, status,0, pclath, cstack
  7432 ;; Tracked objects:
  7433 ;;		On entry : 0/0
  7434 ;;		On exit  : 0/0
  7435 ;;		Unchanged: 0/0
  7436 ;; Data sizes:     COMMON   BANK0   BANK1   BANK2   BANK3   BANK4
  7437 ;;      Params:         0       0       0       0       0       0
  7438 ;;      Locals:         0       0       0       0       0       0
  7439 ;;      Temps:          0       0       0       0       0       0
  7440 ;;      Totals:         0       0       0       0       0       0
  7441 ;;Total ram usage:        0 bytes
  7442 ;; Hardware stack levels used: 1
  7443 ;; Hardware stack levels required when called: 7
  7444 ;; This function calls:
  7445 ;;		_TMR4_SetInterruptHandler
  7446 ;; This function is called by:
  7447 ;;		_SYSTEM_Initialize
  7448 ;; This function uses a non-reentrant model
  7449 ;;
  7450                           
  7451                           
  7452                           ;psect for function _TMR4_Initialize
  7453  0C3F                     _TMR4_Initialize:
  7454  0C3F                     l2858:	
  7455                           ;incstack = 0
  7456                           ; Regs used in _TMR4_Initialize: [wreg+status,2+status,0+pclath+cstack]
  7457                           
  7458                           
  7459                           ;mcc_generated_files/tmr4.c: 69:     PR4 = 0xC2;
  7460  0C3F  30C2               	movlw	194
  7461  0C40  0028               	movlb	8	; select bank8
  7462  0C41  0096               	movwf	22	;volatile
  7463  0C42                     l2860:
  7464                           
  7465                           ;mcc_generated_files/tmr4.c: 72:     TMR4 = 0x00;
  7466  0C42  0195               	clrf	21	;volatile
  7467  0C43                     l2862:
  7468                           
  7469                           ;mcc_generated_files/tmr4.c: 75:     PIR3bits.TMR4IF = 0;
  7470  0C43  0020               	movlb	0	; select bank0
  7471  0C44  1093               	bcf	19,1	;volatile
  7472  0C45                     l2864:
  7473                           
  7474                           ;mcc_generated_files/tmr4.c: 78:     PIE3bits.TMR4IE = 1;
  7475  0C45  0021               	movlb	1	; select bank1
  7476  0C46  1493               	bsf	19,1	;volatile
  7477  0C47                     l2866:
  7478                           
  7479                           ;mcc_generated_files/tmr4.c: 81:     TMR4_SetInterruptHandler(TMR4_DefaultInterruptHandl
      +                          er);
  7480  0C47  3003               	movlw	low _TMR4_DefaultInterruptHandler
  7481  0C48  0020               	movlb	0	; select bank0
  7482  0C49  00A3               	movwf	TMR4_SetInterruptHandler@InterruptHandler
  7483  0C4A  3000               	movlw	high _TMR4_DefaultInterruptHandler
  7484  0C4B  00A4               	movwf	TMR4_SetInterruptHandler@InterruptHandler+1
  7485  0C4C  318B  2376  318C   	fcall	_TMR4_SetInterruptHandler
  7486  0C4F                     l2868:
  7487                           
  7488                           ;mcc_generated_files/tmr4.c: 84:     T4CON = 0x1F;
  7489  0C4F  301F               	movlw	31
  7490  0C50  0028               	movlb	8	; select bank8
  7491  0C51  0097               	movwf	23	;volatile
  7492  0C52                     l530:
  7493  0C52  0008               	return
  7494  0C53                     __end_of_TMR4_Initialize:
  7495                           
  7496                           	psect	text17
  7497  0B76                     __ptext17:	
  7498 ;; *************** function _TMR4_SetInterruptHandler *****************
  7499 ;; Defined at:
  7500 ;;		line 132 in file "mcc_generated_files/tmr4.c"
  7501 ;; Parameters:    Size  Location     Type
  7502 ;;  InterruptHan    2    3[BANK0 ] PTR FTN()void 
  7503 ;;		 -> comm(1), TMR4_DefaultInterruptHandler(1), 
  7504 ;; Auto vars:     Size  Location     Type
  7505 ;;		None
  7506 ;; Return value:  Size  Location     Type
  7507 ;;                  1    wreg      void 
  7508 ;; Registers used:
  7509 ;;		wreg
  7510 ;; Tracked objects:
  7511 ;;		On entry : 0/0
  7512 ;;		On exit  : 0/0
  7513 ;;		Unchanged: 0/0
  7514 ;; Data sizes:     COMMON   BANK0   BANK1   BANK2   BANK3   BANK4
  7515 ;;      Params:         0       2       0       0       0       0
  7516 ;;      Locals:         0       0       0       0       0       0
  7517 ;;      Temps:          0       0       0       0       0       0
  7518 ;;      Totals:         0       2       0       0       0       0
  7519 ;;Total ram usage:        2 bytes
  7520 ;; Hardware stack levels used: 1
  7521 ;; Hardware stack levels required when called: 6
  7522 ;; This function calls:
  7523 ;;		Nothing
  7524 ;; This function is called by:
  7525 ;;		_TMR4_Initialize
  7526 ;;		_main
  7527 ;; This function uses a non-reentrant model
  7528 ;;
  7529                           
  7530                           
  7531                           ;psect for function _TMR4_SetInterruptHandler
  7532  0B76                     _TMR4_SetInterruptHandler:
  7533  0B76                     l2736:	
  7534                           ;incstack = 0
  7535                           ; Regs used in _TMR4_SetInterruptHandler: [wreg]
  7536                           
  7537                           
  7538                           ;mcc_generated_files/tmr4.c: 133:     TMR4_InterruptHandler = InterruptHandler;
  7539  0B76  0020               	movlb	0	; select bank0
  7540  0B77  0824               	movf	TMR4_SetInterruptHandler@InterruptHandler+1,w
  7541  0B78  0021               	movlb	1	; select bank1
  7542  0B79  00CB               	movwf	(_TMR4_InterruptHandler+1)^(0+128)
  7543  0B7A  0020               	movlb	0	; select bank0
  7544  0B7B  0823               	movf	TMR4_SetInterruptHandler@InterruptHandler,w
  7545  0B7C  0021               	movlb	1	; select bank1
  7546  0B7D  00CA               	movwf	_TMR4_InterruptHandler^(0+128)
  7547  0B7E                     l552:
  7548  0B7E  0008               	return
  7549  0B7F                     __end_of_TMR4_SetInterruptHandler:
  7550                           
  7551                           	psect	text18
  7552  0B26                     __ptext18:	
  7553 ;; *************** function _TMR2_Initialize *****************
  7554 ;; Defined at:
  7555 ;;		line 62 in file "mcc_generated_files/tmr2.c"
  7556 ;; Parameters:    Size  Location     Type
  7557 ;;		None
  7558 ;; Auto vars:     Size  Location     Type
  7559 ;;		None
  7560 ;; Return value:  Size  Location     Type
  7561 ;;                  1    wreg      void 
  7562 ;; Registers used:
  7563 ;;		wreg, status,2
  7564 ;; Tracked objects:
  7565 ;;		On entry : 0/0
  7566 ;;		On exit  : 0/0
  7567 ;;		Unchanged: 0/0
  7568 ;; Data sizes:     COMMON   BANK0   BANK1   BANK2   BANK3   BANK4
  7569 ;;      Params:         0       0       0       0       0       0
  7570 ;;      Locals:         0       0       0       0       0       0
  7571 ;;      Temps:          0       0       0       0       0       0
  7572 ;;      Totals:         0       0       0       0       0       0
  7573 ;;Total ram usage:        0 bytes
  7574 ;; Hardware stack levels used: 1
  7575 ;; Hardware stack levels required when called: 6
  7576 ;; This function calls:
  7577 ;;		Nothing
  7578 ;; This function is called by:
  7579 ;;		_SYSTEM_Initialize
  7580 ;; This function uses a non-reentrant model
  7581 ;;
  7582                           
  7583                           
  7584                           ;psect for function _TMR2_Initialize
  7585  0B26                     _TMR2_Initialize:
  7586  0B26                     l2870:	
  7587                           ;incstack = 0
  7588                           ; Regs used in _TMR2_Initialize: [wreg+status,2]
  7589                           
  7590                           
  7591                           ;mcc_generated_files/tmr2.c: 67:     PR2 = 0x07;
  7592  0B26  3007               	movlw	7
  7593  0B27  0020               	movlb	0	; select bank0
  7594  0B28  009B               	movwf	27	;volatile
  7595  0B29                     l2872:
  7596                           
  7597                           ;mcc_generated_files/tmr2.c: 70:     TMR2 = 0x00;
  7598  0B29  019A               	clrf	26	;volatile
  7599  0B2A                     l2874:
  7600                           
  7601                           ;mcc_generated_files/tmr2.c: 73:     PIR1bits.TMR2IF = 0;
  7602  0B2A  1091               	bcf	17,1	;volatile
  7603  0B2B                     l2876:
  7604                           
  7605                           ;mcc_generated_files/tmr2.c: 76:     T2CON = 0x07;
  7606  0B2B  3007               	movlw	7
  7607  0B2C  009C               	movwf	28	;volatile
  7608  0B2D                     l393:
  7609  0B2D  0008               	return
  7610  0B2E                     __end_of_TMR2_Initialize:
  7611                           
  7612                           	psect	text19
  7613  0C97                     __ptext19:	
  7614 ;; *************** function _TMR1_Initialize *****************
  7615 ;; Defined at:
  7616 ;;		line 64 in file "mcc_generated_files/tmr1.c"
  7617 ;; Parameters:    Size  Location     Type
  7618 ;;		None
  7619 ;; Auto vars:     Size  Location     Type
  7620 ;;		None
  7621 ;; Return value:  Size  Location     Type
  7622 ;;                  1    wreg      void 
  7623 ;; Registers used:
  7624 ;;		wreg, status,2, status,0, pclath, cstack
  7625 ;; Tracked objects:
  7626 ;;		On entry : 0/0
  7627 ;;		On exit  : 0/0
  7628 ;;		Unchanged: 0/0
  7629 ;; Data sizes:     COMMON   BANK0   BANK1   BANK2   BANK3   BANK4
  7630 ;;      Params:         0       0       0       0       0       0
  7631 ;;      Locals:         0       0       0       0       0       0
  7632 ;;      Temps:          0       0       0       0       0       0
  7633 ;;      Totals:         0       0       0       0       0       0
  7634 ;;Total ram usage:        0 bytes
  7635 ;; Hardware stack levels used: 1
  7636 ;; Hardware stack levels required when called: 7
  7637 ;; This function calls:
  7638 ;;		_TMR1_SetInterruptHandler
  7639 ;; This function is called by:
  7640 ;;		_SYSTEM_Initialize
  7641 ;; This function uses a non-reentrant model
  7642 ;;
  7643                           
  7644                           
  7645                           ;psect for function _TMR1_Initialize
  7646  0C97                     _TMR1_Initialize:
  7647  0C97                     l2912:	
  7648                           ;incstack = 0
  7649                           ; Regs used in _TMR1_Initialize: [wreg+status,2+status,0+pclath+cstack]
  7650                           
  7651                           
  7652                           ;mcc_generated_files/tmr1.c: 69:     T1GCON = 0x00;
  7653  0C97  0020               	movlb	0	; select bank0
  7654  0C98  0199               	clrf	25	;volatile
  7655  0C99                     l2914:
  7656                           
  7657                           ;mcc_generated_files/tmr1.c: 72:     TMR1H = 0x3C;
  7658  0C99  303C               	movlw	60
  7659  0C9A  0097               	movwf	23	;volatile
  7660  0C9B                     l2916:
  7661                           
  7662                           ;mcc_generated_files/tmr1.c: 75:     TMR1L = 0xB0;
  7663  0C9B  30B0               	movlw	176
  7664  0C9C  0096               	movwf	22	;volatile
  7665  0C9D                     l2918:
  7666                           
  7667                           ;mcc_generated_files/tmr1.c: 78:     PIR1bits.TMR1IF = 0;
  7668  0C9D  1011               	bcf	17,0	;volatile
  7669  0C9E                     l2920:
  7670                           
  7671                           ;mcc_generated_files/tmr1.c: 81:     timer1ReloadVal=(uint16_t)((TMR1H << 8) | TMR1L);
  7672  0C9E  0817               	movf	23,w	;volatile
  7673  0C9F  0021               	movlb	1	; select bank1
  7674  0CA0  00CF               	movwf	(_timer1ReloadVal+1)^(0+128)	;volatile
  7675  0CA1  0020               	movlb	0	; select bank0
  7676  0CA2  0816               	movf	22,w	;volatile
  7677  0CA3  0021               	movlb	1	; select bank1
  7678  0CA4  00CE               	movwf	_timer1ReloadVal^(0+128)	;volatile
  7679  0CA5                     l2922:
  7680                           
  7681                           ;mcc_generated_files/tmr1.c: 84:     PIE1bits.TMR1IE = 1;
  7682  0CA5  1411               	bsf	17,0	;volatile
  7683  0CA6                     l2924:
  7684                           
  7685                           ;mcc_generated_files/tmr1.c: 87:     TMR1_SetInterruptHandler(TMR1_DefaultInterruptHandl
      +                          er);
  7686  0CA6  30D8               	movlw	low _TMR1_DefaultInterruptHandler
  7687  0CA7  0020               	movlb	0	; select bank0
  7688  0CA8  00A3               	movwf	TMR1_SetInterruptHandler@InterruptHandler
  7689  0CA9  300A               	movlw	high _TMR1_DefaultInterruptHandler
  7690  0CAA  00A4               	movwf	TMR1_SetInterruptHandler@InterruptHandler+1
  7691  0CAB  318B  236D  318C   	fcall	_TMR1_SetInterruptHandler
  7692  0CAE                     l2926:
  7693                           
  7694                           ;mcc_generated_files/tmr1.c: 90:     T1CON = 0x01;
  7695  0CAE  3001               	movlw	1
  7696  0CAF  0020               	movlb	0	; select bank0
  7697  0CB0  0098               	movwf	24	;volatile
  7698  0CB1                     l347:
  7699  0CB1  0008               	return
  7700  0CB2                     __end_of_TMR1_Initialize:
  7701                           
  7702                           	psect	text20
  7703  0B6D                     __ptext20:	
  7704 ;; *************** function _TMR1_SetInterruptHandler *****************
  7705 ;; Defined at:
  7706 ;;		line 171 in file "mcc_generated_files/tmr1.c"
  7707 ;; Parameters:    Size  Location     Type
  7708 ;;  InterruptHan    2    3[BANK0 ] PTR FTN()void 
  7709 ;;		 -> TMR1_DefaultInterruptHandler(1), 
  7710 ;; Auto vars:     Size  Location     Type
  7711 ;;		None
  7712 ;; Return value:  Size  Location     Type
  7713 ;;                  1    wreg      void 
  7714 ;; Registers used:
  7715 ;;		wreg
  7716 ;; Tracked objects:
  7717 ;;		On entry : 0/0
  7718 ;;		On exit  : 0/0
  7719 ;;		Unchanged: 0/0
  7720 ;; Data sizes:     COMMON   BANK0   BANK1   BANK2   BANK3   BANK4
  7721 ;;      Params:         0       2       0       0       0       0
  7722 ;;      Locals:         0       0       0       0       0       0
  7723 ;;      Temps:          0       0       0       0       0       0
  7724 ;;      Totals:         0       2       0       0       0       0
  7725 ;;Total ram usage:        2 bytes
  7726 ;; Hardware stack levels used: 1
  7727 ;; Hardware stack levels required when called: 6
  7728 ;; This function calls:
  7729 ;;		Nothing
  7730 ;; This function is called by:
  7731 ;;		_TMR1_Initialize
  7732 ;; This function uses a non-reentrant model
  7733 ;;
  7734                           
  7735                           
  7736                           ;psect for function _TMR1_SetInterruptHandler
  7737  0B6D                     _TMR1_SetInterruptHandler:
  7738  0B6D                     l2718:	
  7739                           ;incstack = 0
  7740                           ; Regs used in _TMR1_SetInterruptHandler: [wreg]
  7741                           
  7742                           
  7743                           ;mcc_generated_files/tmr1.c: 172:     TMR1_InterruptHandler = InterruptHandler;
  7744  0B6D  0020               	movlb	0	; select bank0
  7745  0B6E  0824               	movf	TMR1_SetInterruptHandler@InterruptHandler+1,w
  7746  0B6F  0021               	movlb	1	; select bank1
  7747  0B70  00CD               	movwf	(_TMR1_InterruptHandler+1)^(0+128)
  7748  0B71  0020               	movlb	0	; select bank0
  7749  0B72  0823               	movf	TMR1_SetInterruptHandler@InterruptHandler,w
  7750  0B73  0021               	movlb	1	; select bank1
  7751  0B74  00CC               	movwf	_TMR1_InterruptHandler^(0+128)
  7752  0B75                     l377:
  7753  0B75  0008               	return
  7754  0B76                     __end_of_TMR1_SetInterruptHandler:
  7755                           
  7756                           	psect	text21
  7757  0B89                     __ptext21:	
  7758 ;; *************** function _SPI1_Initialize *****************
  7759 ;; Defined at:
  7760 ;;		line 62 in file "mcc_generated_files/spi1.c"
  7761 ;; Parameters:    Size  Location     Type
  7762 ;;		None
  7763 ;; Auto vars:     Size  Location     Type
  7764 ;;		None
  7765 ;; Return value:  Size  Location     Type
  7766 ;;                  1    wreg      void 
  7767 ;; Registers used:
  7768 ;;		wreg, status,2
  7769 ;; Tracked objects:
  7770 ;;		On entry : 0/0
  7771 ;;		On exit  : 0/0
  7772 ;;		Unchanged: 0/0
  7773 ;; Data sizes:     COMMON   BANK0   BANK1   BANK2   BANK3   BANK4
  7774 ;;      Params:         0       0       0       0       0       0
  7775 ;;      Locals:         0       0       0       0       0       0
  7776 ;;      Temps:          0       0       0       0       0       0
  7777 ;;      Totals:         0       0       0       0       0       0
  7778 ;;Total ram usage:        0 bytes
  7779 ;; Hardware stack levels used: 1
  7780 ;; Hardware stack levels required when called: 6
  7781 ;; This function calls:
  7782 ;;		Nothing
  7783 ;; This function is called by:
  7784 ;;		_SYSTEM_Initialize
  7785 ;; This function uses a non-reentrant model
  7786 ;;
  7787                           
  7788                           
  7789                           ;psect for function _SPI1_Initialize
  7790  0B89                     _SPI1_Initialize:
  7791  0B89                     l2794:	
  7792                           ;incstack = 0
  7793                           ; Regs used in _SPI1_Initialize: [wreg+status,2]
  7794                           
  7795                           
  7796                           ;mcc_generated_files/spi1.c: 65:     SSP1STAT = 0x40;
  7797  0B89  3040               	movlw	64
  7798  0B8A  0024               	movlb	4	; select bank4
  7799  0B8B  0094               	movwf	20	;volatile
  7800  0B8C                     l2796:
  7801                           
  7802                           ;mcc_generated_files/spi1.c: 66:     SSP1CON1 = 0x00;
  7803  0B8C  0195               	clrf	21	;volatile
  7804  0B8D                     l2798:
  7805                           
  7806                           ;mcc_generated_files/spi1.c: 67:     SSP1ADD = 0x01;
  7807  0B8D  3001               	movlw	1
  7808  0B8E  0092               	movwf	18	;volatile
  7809  0B8F                     l2800:
  7810                           
  7811                           ;mcc_generated_files/spi1.c: 68:     TRISBbits.TRISB4 = 0;
  7812  0B8F  0021               	movlb	1	; select bank1
  7813  0B90  120D               	bcf	13,4	;volatile
  7814  0B91                     l2802:
  7815                           
  7816                           ;mcc_generated_files/spi1.c: 69:     SSP1CON1bits.SSPEN = 0;
  7817  0B91  0024               	movlb	4	; select bank4
  7818  0B92  1295               	bcf	21,5	;volatile
  7819  0B93                     l192:
  7820  0B93  0008               	return
  7821  0B94                     __end_of_SPI1_Initialize:
  7822                           
  7823                           	psect	text22
  7824  0B64                     __ptext22:	
  7825 ;; *************** function _PWM3_Initialize *****************
  7826 ;; Defined at:
  7827 ;;		line 64 in file "mcc_generated_files/pwm3.c"
  7828 ;; Parameters:    Size  Location     Type
  7829 ;;		None
  7830 ;; Auto vars:     Size  Location     Type
  7831 ;;		None
  7832 ;; Return value:  Size  Location     Type
  7833 ;;                  1    wreg      void 
  7834 ;; Registers used:
  7835 ;;		wreg, status,2, status,0
  7836 ;; Tracked objects:
  7837 ;;		On entry : 0/0
  7838 ;;		On exit  : 0/0
  7839 ;;		Unchanged: 0/0
  7840 ;; Data sizes:     COMMON   BANK0   BANK1   BANK2   BANK3   BANK4
  7841 ;;      Params:         0       0       0       0       0       0
  7842 ;;      Locals:         0       0       0       0       0       0
  7843 ;;      Temps:          0       0       0       0       0       0
  7844 ;;      Totals:         0       0       0       0       0       0
  7845 ;;Total ram usage:        0 bytes
  7846 ;; Hardware stack levels used: 1
  7847 ;; Hardware stack levels required when called: 6
  7848 ;; This function calls:
  7849 ;;		Nothing
  7850 ;; This function is called by:
  7851 ;;		_SYSTEM_Initialize
  7852 ;; This function uses a non-reentrant model
  7853 ;;
  7854                           
  7855                           
  7856                           ;psect for function _PWM3_Initialize
  7857  0B64                     _PWM3_Initialize:
  7858  0B64                     l2904:	
  7859                           ;incstack = 0
  7860                           ; Regs used in _PWM3_Initialize: [wreg+status,2+status,0]
  7861                           
  7862                           
  7863                           ;mcc_generated_files/pwm3.c: 69:  CCP3CON = 0x0C;
  7864  0B64  300C               	movlw	12
  7865  0B65  0026               	movlb	6	; select bank6
  7866  0B66  0093               	movwf	19	;volatile
  7867  0B67                     l2906:
  7868                           
  7869                           ;mcc_generated_files/pwm3.c: 72:  CCPR3L = 0x00;
  7870  0B67  0191               	clrf	17	;volatile
  7871  0B68                     l2908:
  7872                           
  7873                           ;mcc_generated_files/pwm3.c: 75:  CCPR3H = 0x00;
  7874  0B68  0192               	clrf	18	;volatile
  7875  0B69                     l2910:
  7876                           
  7877                           ;mcc_generated_files/pwm3.c: 78:  CCPTMRS0bits.C3TSEL = 0x0;
  7878  0B69  30CF               	movlw	-49
  7879  0B6A  0025               	movlb	5	; select bank5
  7880  0B6B  059E               	andwf	30,f	;volatile
  7881  0B6C                     l423:
  7882  0B6C  0008               	return
  7883  0B6D                     __end_of_PWM3_Initialize:
  7884                           
  7885                           	psect	text23
  7886  0DC0                     __ptext23:	
  7887 ;; *************** function _PIN_MANAGER_Initialize *****************
  7888 ;; Defined at:
  7889 ;;		line 58 in file "mcc_generated_files/pin_manager.c"
  7890 ;; Parameters:    Size  Location     Type
  7891 ;;		None
  7892 ;; Auto vars:     Size  Location     Type
  7893 ;;		None
  7894 ;; Return value:  Size  Location     Type
  7895 ;;                  1    wreg      void 
  7896 ;; Registers used:
  7897 ;;		wreg, status,2, status,0, pclath, cstack
  7898 ;; Tracked objects:
  7899 ;;		On entry : 0/0
  7900 ;;		On exit  : 0/0
  7901 ;;		Unchanged: 0/0
  7902 ;; Data sizes:     COMMON   BANK0   BANK1   BANK2   BANK3   BANK4
  7903 ;;      Params:         0       0       0       0       0       0
  7904 ;;      Locals:         0       0       0       0       0       0
  7905 ;;      Temps:          0       0       0       0       0       0
  7906 ;;      Totals:         0       0       0       0       0       0
  7907 ;;Total ram usage:        0 bytes
  7908 ;; Hardware stack levels used: 1
  7909 ;; Hardware stack levels required when called: 7
  7910 ;; This function calls:
  7911 ;;		_IOCBF0_SetInterruptHandler
  7912 ;;		_IOCBF3_SetInterruptHandler
  7913 ;; This function is called by:
  7914 ;;		_SYSTEM_Initialize
  7915 ;; This function uses a non-reentrant model
  7916 ;;
  7917                           
  7918                           
  7919                           ;psect for function _PIN_MANAGER_Initialize
  7920  0DC0                     _PIN_MANAGER_Initialize:
  7921  0DC0                     l2804:	
  7922                           ;incstack = 0
  7923                           ; Regs used in _PIN_MANAGER_Initialize: [wreg+status,2+status,0+pclath+cstack]
  7924                           
  7925                           
  7926                           ;mcc_generated_files/pin_manager.c: 63:     LATA = 0x00;
  7927  0DC0  0022               	movlb	2	; select bank2
  7928  0DC1  018C               	clrf	12	;volatile
  7929                           
  7930                           ;mcc_generated_files/pin_manager.c: 64:     LATB = 0x00;
  7931  0DC2  018D               	clrf	13	;volatile
  7932  0DC3                     l2806:
  7933                           
  7934                           ;mcc_generated_files/pin_manager.c: 69:     TRISA = 0xB7;
  7935  0DC3  30B7               	movlw	183
  7936  0DC4  0021               	movlb	1	; select bank1
  7937  0DC5  008C               	movwf	12	;volatile
  7938  0DC6                     l2808:
  7939                           
  7940                           ;mcc_generated_files/pin_manager.c: 70:     TRISB = 0xEF;
  7941  0DC6  30EF               	movlw	239
  7942  0DC7  008D               	movwf	13	;volatile
  7943  0DC8                     l2810:
  7944                           
  7945                           ;mcc_generated_files/pin_manager.c: 75:     ANSELB = 0xC0;
  7946  0DC8  30C0               	movlw	192
  7947  0DC9  0023               	movlb	3	; select bank3
  7948  0DCA  008D               	movwf	13	;volatile
  7949  0DCB                     l2812:
  7950                           
  7951                           ;mcc_generated_files/pin_manager.c: 76:     ANSELA = 0x0F;
  7952  0DCB  300F               	movlw	15
  7953  0DCC  008C               	movwf	12	;volatile
  7954                           
  7955                           ;mcc_generated_files/pin_manager.c: 81:     WPUB = 0x00;
  7956  0DCD  0024               	movlb	4	; select bank4
  7957  0DCE  018D               	clrf	13	;volatile
  7958                           
  7959                           ;mcc_generated_files/pin_manager.c: 82:     WPUA = 0x00;
  7960  0DCF  018C               	clrf	12	;volatile
  7961  0DD0                     l2814:
  7962                           
  7963                           ;mcc_generated_files/pin_manager.c: 83:     OPTION_REGbits.nWPUEN = 1;
  7964  0DD0  0021               	movlb	1	; select bank1
  7965  0DD1  1795               	bsf	21,7	;volatile
  7966  0DD2                     l2816:
  7967                           
  7968                           ;mcc_generated_files/pin_manager.c: 89:     APFCON0 = 0xC8;
  7969  0DD2  30C8               	movlw	200
  7970  0DD3  0022               	movlb	2	; select bank2
  7971  0DD4  009D               	movwf	29	;volatile
  7972  0DD5                     l2818:
  7973                           
  7974                           ;mcc_generated_files/pin_manager.c: 90:     APFCON1 = 0x01;
  7975  0DD5  3001               	movlw	1
  7976  0DD6  009E               	movwf	30	;volatile
  7977  0DD7                     l2820:
  7978                           
  7979                           ;mcc_generated_files/pin_manager.c: 96:     IOCBFbits.IOCBF0 = 0;
  7980  0DD7  0027               	movlb	7	; select bank7
  7981  0DD8  1016               	bcf	22,0	;volatile
  7982  0DD9                     l2822:
  7983                           
  7984                           ;mcc_generated_files/pin_manager.c: 98:     IOCBFbits.IOCBF3 = 0;
  7985  0DD9  1196               	bcf	22,3	;volatile
  7986  0DDA                     l2824:
  7987                           
  7988                           ;mcc_generated_files/pin_manager.c: 100:     IOCBNbits.IOCBN0 = 1;
  7989  0DDA  1415               	bsf	21,0	;volatile
  7990  0DDB                     l2826:
  7991                           
  7992                           ;mcc_generated_files/pin_manager.c: 102:     IOCBNbits.IOCBN3 = 1;
  7993  0DDB  1595               	bsf	21,3	;volatile
  7994  0DDC                     l2828:
  7995                           
  7996                           ;mcc_generated_files/pin_manager.c: 104:     IOCBPbits.IOCBP0 = 0;
  7997  0DDC  1014               	bcf	20,0	;volatile
  7998  0DDD                     l2830:
  7999                           
  8000                           ;mcc_generated_files/pin_manager.c: 106:     IOCBPbits.IOCBP3 = 0;
  8001  0DDD  1194               	bcf	20,3	;volatile
  8002  0DDE                     l2832:
  8003                           
  8004                           ;mcc_generated_files/pin_manager.c: 111:     IOCBF0_SetInterruptHandler(IOCBF0_DefaultIn
      +                          terruptHandler);
  8005  0DDE  30D6               	movlw	low _IOCBF0_DefaultInterruptHandler
  8006  0DDF  0020               	movlb	0	; select bank0
  8007  0DE0  00A3               	movwf	IOCBF0_SetInterruptHandler@InterruptHandler
  8008  0DE1  300A               	movlw	high _IOCBF0_DefaultInterruptHandler
  8009  0DE2  00A4               	movwf	IOCBF0_SetInterruptHandler@InterruptHandler+1
  8010  0DE3  318B  2352  318D   	fcall	_IOCBF0_SetInterruptHandler
  8011  0DE6                     l2834:
  8012                           
  8013                           ;mcc_generated_files/pin_manager.c: 112:     IOCBF3_SetInterruptHandler(IOCBF3_DefaultIn
      +                          terruptHandler);
  8014  0DE6  30D7               	movlw	low _IOCBF3_DefaultInterruptHandler
  8015  0DE7  0020               	movlb	0	; select bank0
  8016  0DE8  00A3               	movwf	IOCBF3_SetInterruptHandler@InterruptHandler
  8017  0DE9  300A               	movlw	high _IOCBF3_DefaultInterruptHandler
  8018  0DEA  00A4               	movwf	IOCBF3_SetInterruptHandler@InterruptHandler+1
  8019  0DEB  318B  235B  318D   	fcall	_IOCBF3_SetInterruptHandler
  8020  0DEE                     l2836:
  8021                           
  8022                           ;mcc_generated_files/pin_manager.c: 115:     INTCONbits.IOCIE = 1;
  8023  0DEE  158B               	bsf	11,3	;volatile
  8024  0DEF                     l96:
  8025  0DEF  0008               	return
  8026  0DF0                     __end_of_PIN_MANAGER_Initialize:
  8027                           
  8028                           	psect	text24
  8029  0B5B                     __ptext24:	
  8030 ;; *************** function _IOCBF3_SetInterruptHandler *****************
  8031 ;; Defined at:
  8032 ;;		line 181 in file "mcc_generated_files/pin_manager.c"
  8033 ;; Parameters:    Size  Location     Type
  8034 ;;  InterruptHan    2    3[BANK0 ] PTR FTN()void 
  8035 ;;		 -> S2(1), IOCBF3_DefaultInterruptHandler(1), 
  8036 ;; Auto vars:     Size  Location     Type
  8037 ;;		None
  8038 ;; Return value:  Size  Location     Type
  8039 ;;                  1    wreg      void 
  8040 ;; Registers used:
  8041 ;;		wreg
  8042 ;; Tracked objects:
  8043 ;;		On entry : 0/0
  8044 ;;		On exit  : 0/0
  8045 ;;		Unchanged: 0/0
  8046 ;; Data sizes:     COMMON   BANK0   BANK1   BANK2   BANK3   BANK4
  8047 ;;      Params:         0       2       0       0       0       0
  8048 ;;      Locals:         0       0       0       0       0       0
  8049 ;;      Temps:          0       0       0       0       0       0
  8050 ;;      Totals:         0       2       0       0       0       0
  8051 ;;Total ram usage:        2 bytes
  8052 ;; Hardware stack levels used: 1
  8053 ;; Hardware stack levels required when called: 6
  8054 ;; This function calls:
  8055 ;;		Nothing
  8056 ;; This function is called by:
  8057 ;;		_PIN_MANAGER_Initialize
  8058 ;;		_main
  8059 ;; This function uses a non-reentrant model
  8060 ;;
  8061                           
  8062                           
  8063                           ;psect for function _IOCBF3_SetInterruptHandler
  8064  0B5B                     _IOCBF3_SetInterruptHandler:
  8065  0B5B                     l2688:	
  8066                           ;incstack = 0
  8067                           ; Regs used in _IOCBF3_SetInterruptHandler: [wreg]
  8068                           
  8069                           
  8070                           ;mcc_generated_files/pin_manager.c: 182:     IOCBF3_InterruptHandler = InterruptHandler;
  8071  0B5B  0020               	movlb	0	; select bank0
  8072  0B5C  0824               	movf	IOCBF3_SetInterruptHandler@InterruptHandler+1,w
  8073  0B5D  0021               	movlb	1	; select bank1
  8074  0B5E  00D7               	movwf	(_IOCBF3_InterruptHandler+1)^(0+128)
  8075  0B5F  0020               	movlb	0	; select bank0
  8076  0B60  0823               	movf	IOCBF3_SetInterruptHandler@InterruptHandler,w
  8077  0B61  0021               	movlb	1	; select bank1
  8078  0B62  00D6               	movwf	_IOCBF3_InterruptHandler^(0+128)
  8079  0B63                     l118:
  8080  0B63  0008               	return
  8081  0B64                     __end_of_IOCBF3_SetInterruptHandler:
  8082                           
  8083                           	psect	text25
  8084  0B52                     __ptext25:	
  8085 ;; *************** function _IOCBF0_SetInterruptHandler *****************
  8086 ;; Defined at:
  8087 ;;		line 151 in file "mcc_generated_files/pin_manager.c"
  8088 ;; Parameters:    Size  Location     Type
  8089 ;;  InterruptHan    2    3[BANK0 ] PTR FTN()void 
  8090 ;;		 -> S1(1), IOCBF0_DefaultInterruptHandler(1), 
  8091 ;; Auto vars:     Size  Location     Type
  8092 ;;		None
  8093 ;; Return value:  Size  Location     Type
  8094 ;;                  1    wreg      void 
  8095 ;; Registers used:
  8096 ;;		wreg
  8097 ;; Tracked objects:
  8098 ;;		On entry : 0/0
  8099 ;;		On exit  : 0/0
  8100 ;;		Unchanged: 0/0
  8101 ;; Data sizes:     COMMON   BANK0   BANK1   BANK2   BANK3   BANK4
  8102 ;;      Params:         0       2       0       0       0       0
  8103 ;;      Locals:         0       0       0       0       0       0
  8104 ;;      Temps:          0       0       0       0       0       0
  8105 ;;      Totals:         0       2       0       0       0       0
  8106 ;;Total ram usage:        2 bytes
  8107 ;; Hardware stack levels used: 1
  8108 ;; Hardware stack levels required when called: 6
  8109 ;; This function calls:
  8110 ;;		Nothing
  8111 ;; This function is called by:
  8112 ;;		_PIN_MANAGER_Initialize
  8113 ;;		_main
  8114 ;; This function uses a non-reentrant model
  8115 ;;
  8116                           
  8117                           
  8118                           ;psect for function _IOCBF0_SetInterruptHandler
  8119  0B52                     _IOCBF0_SetInterruptHandler:
  8120  0B52                     l2686:	
  8121                           ;incstack = 0
  8122                           ; Regs used in _IOCBF0_SetInterruptHandler: [wreg]
  8123                           
  8124                           
  8125                           ;mcc_generated_files/pin_manager.c: 152:     IOCBF0_InterruptHandler = InterruptHandler;
  8126  0B52  0020               	movlb	0	; select bank0
  8127  0B53  0824               	movf	IOCBF0_SetInterruptHandler@InterruptHandler+1,w
  8128  0B54  0021               	movlb	1	; select bank1
  8129  0B55  00D9               	movwf	(_IOCBF0_InterruptHandler+1)^(0+128)
  8130  0B56  0020               	movlb	0	; select bank0
  8131  0B57  0823               	movf	IOCBF0_SetInterruptHandler@InterruptHandler,w
  8132  0B58  0021               	movlb	1	; select bank1
  8133  0B59  00D8               	movwf	_IOCBF0_InterruptHandler^(0+128)
  8134  0B5A                     l108:
  8135  0B5A  0008               	return
  8136  0B5B                     __end_of_IOCBF0_SetInterruptHandler:
  8137                           
  8138                           	psect	text26
  8139  0B17                     __ptext26:	
  8140 ;; *************** function _OSCILLATOR_Initialize *****************
  8141 ;; Defined at:
  8142 ;;		line 70 in file "mcc_generated_files/mcc.c"
  8143 ;; Parameters:    Size  Location     Type
  8144 ;;		None
  8145 ;; Auto vars:     Size  Location     Type
  8146 ;;		None
  8147 ;; Return value:  Size  Location     Type
  8148 ;;                  1    wreg      void 
  8149 ;; Registers used:
  8150 ;;		wreg, status,2
  8151 ;; Tracked objects:
  8152 ;;		On entry : 0/0
  8153 ;;		On exit  : 0/0
  8154 ;;		Unchanged: 0/0
  8155 ;; Data sizes:     COMMON   BANK0   BANK1   BANK2   BANK3   BANK4
  8156 ;;      Params:         0       0       0       0       0       0
  8157 ;;      Locals:         0       0       0       0       0       0
  8158 ;;      Temps:          0       0       0       0       0       0
  8159 ;;      Totals:         0       0       0       0       0       0
  8160 ;;Total ram usage:        0 bytes
  8161 ;; Hardware stack levels used: 1
  8162 ;; Hardware stack levels required when called: 6
  8163 ;; This function calls:
  8164 ;;		Nothing
  8165 ;; This function is called by:
  8166 ;;		_SYSTEM_Initialize
  8167 ;; This function uses a non-reentrant model
  8168 ;;
  8169                           
  8170                           
  8171                           ;psect for function _OSCILLATOR_Initialize
  8172  0B17                     _OSCILLATOR_Initialize:
  8173  0B17                     l2838:	
  8174                           ;incstack = 0
  8175                           ; Regs used in _OSCILLATOR_Initialize: [wreg+status,2]
  8176                           
  8177                           
  8178                           ;mcc_generated_files/mcc.c: 73:     OSCCON = 0x60;
  8179  0B17  3060               	movlw	96
  8180  0B18  0021               	movlb	1	; select bank1
  8181  0B19  0099               	movwf	25	;volatile
  8182  0B1A                     l2840:
  8183                           
  8184                           ;mcc_generated_files/mcc.c: 75:     OSCTUNE = 0x00;
  8185  0B1A  0198               	clrf	24	;volatile
  8186  0B1B                     l2842:
  8187                           
  8188                           ;mcc_generated_files/mcc.c: 77:     BORCON = 0x00;
  8189  0B1B  0022               	movlb	2	; select bank2
  8190  0B1C  0196               	clrf	22	;volatile
  8191  0B1D                     l44:
  8192  0B1D  0008               	return
  8193  0B1E                     __end_of_OSCILLATOR_Initialize:
  8194                           
  8195                           	psect	text27
  8196  0ADB                     __ptext27:	
  8197 ;; *************** function _FVR_Initialize *****************
  8198 ;; Defined at:
  8199 ;;		line 58 in file "mcc_generated_files/fvr.c"
  8200 ;; Parameters:    Size  Location     Type
  8201 ;;		None
  8202 ;; Auto vars:     Size  Location     Type
  8203 ;;		None
  8204 ;; Return value:  Size  Location     Type
  8205 ;;                  1    wreg      void 
  8206 ;; Registers used:
  8207 ;;		wreg
  8208 ;; Tracked objects:
  8209 ;;		On entry : 0/0
  8210 ;;		On exit  : 0/0
  8211 ;;		Unchanged: 0/0
  8212 ;; Data sizes:     COMMON   BANK0   BANK1   BANK2   BANK3   BANK4
  8213 ;;      Params:         0       0       0       0       0       0
  8214 ;;      Locals:         0       0       0       0       0       0
  8215 ;;      Temps:          0       0       0       0       0       0
  8216 ;;      Totals:         0       0       0       0       0       0
  8217 ;;Total ram usage:        0 bytes
  8218 ;; Hardware stack levels used: 1
  8219 ;; Hardware stack levels required when called: 6
  8220 ;; This function calls:
  8221 ;;		Nothing
  8222 ;; This function is called by:
  8223 ;;		_SYSTEM_Initialize
  8224 ;; This function uses a non-reentrant model
  8225 ;;
  8226                           
  8227                           
  8228                           ;psect for function _FVR_Initialize
  8229  0ADB                     _FVR_Initialize:
  8230  0ADB                     l2856:	
  8231                           ;incstack = 0
  8232                           ; Regs used in _FVR_Initialize: [wreg]
  8233                           
  8234                           
  8235                           ;mcc_generated_files/fvr.c: 61:     FVRCON = 0x11;
  8236  0ADB  3011               	movlw	17
  8237  0ADC  0022               	movlb	2	; select bank2
  8238  0ADD  0097               	movwf	23	;volatile
  8239  0ADE                     l562:
  8240  0ADE  0008               	return
  8241  0ADF                     __end_of_FVR_Initialize:
  8242                           
  8243                           	psect	text28
  8244  0D10                     __ptext28:	
  8245 ;; *************** function _EUSART_Initialize *****************
  8246 ;; Defined at:
  8247 ;;		line 66 in file "mcc_generated_files/eusart.c"
  8248 ;; Parameters:    Size  Location     Type
  8249 ;;		None
  8250 ;; Auto vars:     Size  Location     Type
  8251 ;;		None
  8252 ;; Return value:  Size  Location     Type
  8253 ;;                  1    wreg      void 
  8254 ;; Registers used:
  8255 ;;		wreg, status,2, status,0, pclath, cstack
  8256 ;; Tracked objects:
  8257 ;;		On entry : 0/0
  8258 ;;		On exit  : 0/0
  8259 ;;		Unchanged: 0/0
  8260 ;; Data sizes:     COMMON   BANK0   BANK1   BANK2   BANK3   BANK4
  8261 ;;      Params:         0       0       0       0       0       0
  8262 ;;      Locals:         0       0       0       0       0       0
  8263 ;;      Temps:          0       0       0       0       0       0
  8264 ;;      Totals:         0       0       0       0       0       0
  8265 ;;Total ram usage:        0 bytes
  8266 ;; Hardware stack levels used: 1
  8267 ;; Hardware stack levels required when called: 7
  8268 ;; This function calls:
  8269 ;;		_EUSART_SetErrorHandler
  8270 ;;		_EUSART_SetFramingErrorHandler
  8271 ;;		_EUSART_SetOverrunErrorHandler
  8272 ;; This function is called by:
  8273 ;;		_SYSTEM_Initialize
  8274 ;; This function uses a non-reentrant model
  8275 ;;
  8276                           
  8277                           
  8278                           ;psect for function _EUSART_Initialize
  8279  0D10                     _EUSART_Initialize:
  8280  0D10                     l2928:	
  8281                           ;incstack = 0
  8282                           ; Regs used in _EUSART_Initialize: [wreg+status,2+status,0+pclath+cstack]
  8283                           
  8284                           
  8285                           ;mcc_generated_files/eusart.c: 71:     BAUDCON = 0x08;
  8286  0D10  3008               	movlw	8
  8287  0D11  0023               	movlb	3	; select bank3
  8288  0D12  009F               	movwf	31	;volatile
  8289                           
  8290                           ;mcc_generated_files/eusart.c: 74:     RCSTA = 0x90;
  8291  0D13  3090               	movlw	144
  8292  0D14  009D               	movwf	29	;volatile
  8293                           
  8294                           ;mcc_generated_files/eusart.c: 77:     TXSTA = 0x24;
  8295  0D15  3024               	movlw	36
  8296  0D16  009E               	movwf	30	;volatile
  8297                           
  8298                           ;mcc_generated_files/eusart.c: 80:     SPBRGL = 0x19;
  8299  0D17  3019               	movlw	25
  8300  0D18  009B               	movwf	27	;volatile
  8301  0D19                     l2930:
  8302                           
  8303                           ;mcc_generated_files/eusart.c: 83:     SPBRGH = 0x00;
  8304  0D19  019C               	clrf	28	;volatile
  8305  0D1A                     l2932:
  8306                           
  8307                           ;mcc_generated_files/eusart.c: 86:     EUSART_SetFramingErrorHandler(EUSART_DefaultFrami
      +                          ngErrorHandler);
  8308  0D1A  3000               	movlw	0
  8309  0D1B  0020               	movlb	0	; select bank0
  8310  0D1C  00A3               	movwf	EUSART_SetFramingErrorHandler@interruptHandler
  8311  0D1D  3000               	movlw	0
  8312  0D1E  00A4               	movwf	EUSART_SetFramingErrorHandler@interruptHandler+1
  8313  0D1F  318B  2340  318D   	fcall	_EUSART_SetFramingErrorHandler
  8314  0D22                     l2934:
  8315                           
  8316                           ;mcc_generated_files/eusart.c: 87:     EUSART_SetOverrunErrorHandler(EUSART_DefaultOverr
      +                          unErrorHandler);
  8317  0D22  3000               	movlw	0
  8318  0D23  0020               	movlb	0	; select bank0
  8319  0D24  00A3               	movwf	EUSART_SetOverrunErrorHandler@interruptHandler
  8320  0D25  3000               	movlw	0
  8321  0D26  00A4               	movwf	EUSART_SetOverrunErrorHandler@interruptHandler+1
  8322  0D27  318B  2349  318D   	fcall	_EUSART_SetOverrunErrorHandler
  8323  0D2A                     l2936:
  8324                           
  8325                           ;mcc_generated_files/eusart.c: 88:     EUSART_SetErrorHandler(EUSART_DefaultErrorHandler
      +                          );
  8326  0D2A  3000               	movlw	0
  8327  0D2B  0020               	movlb	0	; select bank0
  8328  0D2C  00A3               	movwf	EUSART_SetErrorHandler@interruptHandler
  8329  0D2D  3000               	movlw	0
  8330  0D2E  00A4               	movwf	EUSART_SetErrorHandler@interruptHandler+1
  8331  0D2F  318B  2337  318D   	fcall	_EUSART_SetErrorHandler
  8332  0D32                     l2938:
  8333                           
  8334                           ;mcc_generated_files/eusart.c: 90:     eusartRxLastError.status = 0;
  8335  0D32  0021               	movlb	1	; select bank1
  8336  0D33  01B9               	clrf	_eusartRxLastError^(0+128)	;volatile
  8337  0D34                     l275:
  8338  0D34  0008               	return
  8339  0D35                     __end_of_EUSART_Initialize:
  8340                           
  8341                           	psect	text29
  8342  0B49                     __ptext29:	
  8343 ;; *************** function _EUSART_SetOverrunErrorHandler *****************
  8344 ;; Defined at:
  8345 ;;		line 161 in file "mcc_generated_files/eusart.c"
  8346 ;; Parameters:    Size  Location     Type
  8347 ;;  interruptHan    2    3[BANK0 ] PTR FTN()void 
  8348 ;;		 -> EUSART_DefaultOverrunErrorHandler(1), 
  8349 ;; Auto vars:     Size  Location     Type
  8350 ;;		None
  8351 ;; Return value:  Size  Location     Type
  8352 ;;                  1    wreg      void 
  8353 ;; Registers used:
  8354 ;;		wreg
  8355 ;; Tracked objects:
  8356 ;;		On entry : 0/0
  8357 ;;		On exit  : 0/0
  8358 ;;		Unchanged: 0/0
  8359 ;; Data sizes:     COMMON   BANK0   BANK1   BANK2   BANK3   BANK4
  8360 ;;      Params:         0       2       0       0       0       0
  8361 ;;      Locals:         0       0       0       0       0       0
  8362 ;;      Temps:          0       0       0       0       0       0
  8363 ;;      Totals:         0       2       0       0       0       0
  8364 ;;Total ram usage:        2 bytes
  8365 ;; Hardware stack levels used: 1
  8366 ;; Hardware stack levels required when called: 6
  8367 ;; This function calls:
  8368 ;;		Nothing
  8369 ;; This function is called by:
  8370 ;;		_EUSART_Initialize
  8371 ;; This function uses a non-reentrant model
  8372 ;;
  8373                           
  8374                           
  8375                           ;psect for function _EUSART_SetOverrunErrorHandler
  8376  0B49                     _EUSART_SetOverrunErrorHandler:
  8377  0B49                     l2694:	
  8378                           ;incstack = 0
  8379                           ; Regs used in _EUSART_SetOverrunErrorHandler: [wreg]
  8380                           
  8381                           
  8382                           ;mcc_generated_files/eusart.c: 162:     EUSART_OverrunErrorHandler = interruptHandler;
  8383  0B49  0020               	movlb	0	; select bank0
  8384  0B4A  0824               	movf	EUSART_SetOverrunErrorHandler@interruptHandler+1,w
  8385  0B4B  0021               	movlb	1	; select bank1
  8386  0B4C  00D3               	movwf	(_EUSART_OverrunErrorHandler+1)^(0+128)
  8387  0B4D  0020               	movlb	0	; select bank0
  8388  0B4E  0823               	movf	EUSART_SetOverrunErrorHandler@interruptHandler,w
  8389  0B4F  0021               	movlb	1	; select bank1
  8390  0B50  00D2               	movwf	_EUSART_OverrunErrorHandler^(0+128)
  8391  0B51                     l317:
  8392  0B51  0008               	return
  8393  0B52                     __end_of_EUSART_SetOverrunErrorHandler:
  8394                           
  8395                           	psect	text30
  8396  0B40                     __ptext30:	
  8397 ;; *************** function _EUSART_SetFramingErrorHandler *****************
  8398 ;; Defined at:
  8399 ;;		line 157 in file "mcc_generated_files/eusart.c"
  8400 ;; Parameters:    Size  Location     Type
  8401 ;;  interruptHan    2    3[BANK0 ] PTR FTN()void 
  8402 ;;		 -> EUSART_DefaultFramingErrorHandler(1), 
  8403 ;; Auto vars:     Size  Location     Type
  8404 ;;		None
  8405 ;; Return value:  Size  Location     Type
  8406 ;;                  1    wreg      void 
  8407 ;; Registers used:
  8408 ;;		wreg
  8409 ;; Tracked objects:
  8410 ;;		On entry : 0/0
  8411 ;;		On exit  : 0/0
  8412 ;;		Unchanged: 0/0
  8413 ;; Data sizes:     COMMON   BANK0   BANK1   BANK2   BANK3   BANK4
  8414 ;;      Params:         0       2       0       0       0       0
  8415 ;;      Locals:         0       0       0       0       0       0
  8416 ;;      Temps:          0       0       0       0       0       0
  8417 ;;      Totals:         0       2       0       0       0       0
  8418 ;;Total ram usage:        2 bytes
  8419 ;; Hardware stack levels used: 1
  8420 ;; Hardware stack levels required when called: 6
  8421 ;; This function calls:
  8422 ;;		Nothing
  8423 ;; This function is called by:
  8424 ;;		_EUSART_Initialize
  8425 ;; This function uses a non-reentrant model
  8426 ;;
  8427                           
  8428                           
  8429                           ;psect for function _EUSART_SetFramingErrorHandler
  8430  0B40                     _EUSART_SetFramingErrorHandler:
  8431  0B40                     l2692:	
  8432                           ;incstack = 0
  8433                           ; Regs used in _EUSART_SetFramingErrorHandler: [wreg]
  8434                           
  8435                           
  8436                           ;mcc_generated_files/eusart.c: 158:     EUSART_FramingErrorHandler = interruptHandler;
  8437  0B40  0020               	movlb	0	; select bank0
  8438  0B41  0824               	movf	EUSART_SetFramingErrorHandler@interruptHandler+1,w
  8439  0B42  0021               	movlb	1	; select bank1
  8440  0B43  00D5               	movwf	(_EUSART_FramingErrorHandler+1)^(0+128)
  8441  0B44  0020               	movlb	0	; select bank0
  8442  0B45  0823               	movf	EUSART_SetFramingErrorHandler@interruptHandler,w
  8443  0B46  0021               	movlb	1	; select bank1
  8444  0B47  00D4               	movwf	_EUSART_FramingErrorHandler^(0+128)
  8445  0B48                     l314:
  8446  0B48  0008               	return
  8447  0B49                     __end_of_EUSART_SetFramingErrorHandler:
  8448                           
  8449                           	psect	text31
  8450  0B37                     __ptext31:	
  8451 ;; *************** function _EUSART_SetErrorHandler *****************
  8452 ;; Defined at:
  8453 ;;		line 165 in file "mcc_generated_files/eusart.c"
  8454 ;; Parameters:    Size  Location     Type
  8455 ;;  interruptHan    2    3[BANK0 ] PTR FTN()void 
  8456 ;;		 -> EUSART_DefaultErrorHandler(1), 
  8457 ;; Auto vars:     Size  Location     Type
  8458 ;;		None
  8459 ;; Return value:  Size  Location     Type
  8460 ;;                  1    wreg      void 
  8461 ;; Registers used:
  8462 ;;		wreg
  8463 ;; Tracked objects:
  8464 ;;		On entry : 0/0
  8465 ;;		On exit  : 0/0
  8466 ;;		Unchanged: 0/0
  8467 ;; Data sizes:     COMMON   BANK0   BANK1   BANK2   BANK3   BANK4
  8468 ;;      Params:         0       2       0       0       0       0
  8469 ;;      Locals:         0       0       0       0       0       0
  8470 ;;      Temps:          0       0       0       0       0       0
  8471 ;;      Totals:         0       2       0       0       0       0
  8472 ;;Total ram usage:        2 bytes
  8473 ;; Hardware stack levels used: 1
  8474 ;; Hardware stack levels required when called: 6
  8475 ;; This function calls:
  8476 ;;		Nothing
  8477 ;; This function is called by:
  8478 ;;		_EUSART_Initialize
  8479 ;; This function uses a non-reentrant model
  8480 ;;
  8481                           
  8482                           
  8483                           ;psect for function _EUSART_SetErrorHandler
  8484  0B37                     _EUSART_SetErrorHandler:
  8485  0B37                     l2696:	
  8486                           ;incstack = 0
  8487                           ; Regs used in _EUSART_SetErrorHandler: [wreg]
  8488                           
  8489                           
  8490                           ;mcc_generated_files/eusart.c: 166:     EUSART_ErrorHandler = interruptHandler;
  8491  0B37  0020               	movlb	0	; select bank0
  8492  0B38  0824               	movf	EUSART_SetErrorHandler@interruptHandler+1,w
  8493  0B39  0021               	movlb	1	; select bank1
  8494  0B3A  00D1               	movwf	(_EUSART_ErrorHandler+1)^(0+128)
  8495  0B3B  0020               	movlb	0	; select bank0
  8496  0B3C  0823               	movf	EUSART_SetErrorHandler@interruptHandler,w
  8497  0B3D  0021               	movlb	1	; select bank1
  8498  0B3E  00D0               	movwf	_EUSART_ErrorHandler^(0+128)
  8499  0B3F                     l320:
  8500  0B3F  0008               	return
  8501  0B40                     __end_of_EUSART_SetErrorHandler:
  8502                           
  8503                           	psect	text32
  8504  0B05                     __ptext32:	
  8505 ;; *************** function _DAC_Initialize *****************
  8506 ;; Defined at:
  8507 ;;		line 58 in file "mcc_generated_files/dac.c"
  8508 ;; Parameters:    Size  Location     Type
  8509 ;;		None
  8510 ;; Auto vars:     Size  Location     Type
  8511 ;;		None
  8512 ;; Return value:  Size  Location     Type
  8513 ;;                  1    wreg      void 
  8514 ;; Registers used:
  8515 ;;		wreg
  8516 ;; Tracked objects:
  8517 ;;		On entry : 0/0
  8518 ;;		On exit  : 0/0
  8519 ;;		Unchanged: 0/0
  8520 ;; Data sizes:     COMMON   BANK0   BANK1   BANK2   BANK3   BANK4
  8521 ;;      Params:         0       0       0       0       0       0
  8522 ;;      Locals:         0       0       0       0       0       0
  8523 ;;      Temps:          0       0       0       0       0       0
  8524 ;;      Totals:         0       0       0       0       0       0
  8525 ;;Total ram usage:        0 bytes
  8526 ;; Hardware stack levels used: 1
  8527 ;; Hardware stack levels required when called: 6
  8528 ;; This function calls:
  8529 ;;		Nothing
  8530 ;; This function is called by:
  8531 ;;		_SYSTEM_Initialize
  8532 ;; This function uses a non-reentrant model
  8533 ;;
  8534                           
  8535                           
  8536                           ;psect for function _DAC_Initialize
  8537  0B05                     _DAC_Initialize:
  8538  0B05                     l2854:	
  8539                           ;incstack = 0
  8540                           ; Regs used in _DAC_Initialize: [wreg]
  8541                           
  8542                           
  8543                           ;mcc_generated_files/dac.c: 61:     DACCON0 = 0x80;
  8544  0B05  3080               	movlw	128
  8545  0B06  0022               	movlb	2	; select bank2
  8546  0B07  0098               	movwf	24	;volatile
  8547                           
  8548                           ;mcc_generated_files/dac.c: 63:     DACCON1 = 0x06;
  8549  0B08  3006               	movlw	6
  8550  0B09  0099               	movwf	25	;volatile
  8551  0B0A                     l630:
  8552  0B0A  0008               	return
  8553  0B0B                     __end_of_DAC_Initialize:
  8554                           
  8555                           	psect	text33
  8556  0BA0                     __ptext33:	
  8557 ;; *************** function _CMP2_Initialize *****************
  8558 ;; Defined at:
  8559 ;;		line 58 in file "mcc_generated_files/cmp2.c"
  8560 ;; Parameters:    Size  Location     Type
  8561 ;;		None
  8562 ;; Auto vars:     Size  Location     Type
  8563 ;;		None
  8564 ;; Return value:  Size  Location     Type
  8565 ;;                  1    wreg      void 
  8566 ;; Registers used:
  8567 ;;		wreg
  8568 ;; Tracked objects:
  8569 ;;		On entry : 0/0
  8570 ;;		On exit  : 0/0
  8571 ;;		Unchanged: 0/0
  8572 ;; Data sizes:     COMMON   BANK0   BANK1   BANK2   BANK3   BANK4
  8573 ;;      Params:         0       0       0       0       0       0
  8574 ;;      Locals:         0       0       0       0       0       0
  8575 ;;      Temps:          0       0       0       0       0       0
  8576 ;;      Totals:         0       0       0       0       0       0
  8577 ;;Total ram usage:        0 bytes
  8578 ;; Hardware stack levels used: 1
  8579 ;; Hardware stack levels required when called: 6
  8580 ;; This function calls:
  8581 ;;		Nothing
  8582 ;; This function is called by:
  8583 ;;		_SYSTEM_Initialize
  8584 ;; This function uses a non-reentrant model
  8585 ;;
  8586                           
  8587                           
  8588                           ;psect for function _CMP2_Initialize
  8589  0BA0                     _CMP2_Initialize:
  8590  0BA0                     l2846:	
  8591                           ;incstack = 0
  8592                           ; Regs used in _CMP2_Initialize: [wreg]
  8593                           
  8594                           
  8595                           ;mcc_generated_files/cmp2.c: 65:     PIE2bits.C2IE = 0;
  8596  0BA0  0021               	movlb	1	; select bank1
  8597  0BA1  1312               	bcf	18,6	;volatile
  8598  0BA2                     l2848:
  8599                           
  8600                           ;mcc_generated_files/cmp2.c: 68:     CM2CON0 = 0x86;
  8601  0BA2  3086               	movlw	134
  8602  0BA3  0022               	movlb	2	; select bank2
  8603  0BA4  0093               	movwf	19	;volatile
  8604                           
  8605                           ;mcc_generated_files/cmp2.c: 71:     CM2CON1 = 0x91;
  8606  0BA5  3091               	movlw	145
  8607  0BA6  0094               	movwf	20	;volatile
  8608  0BA7                     l2850:
  8609                           
  8610                           ;mcc_generated_files/cmp2.c: 74:     PIR2bits.C2IF = 0;
  8611  0BA7  0020               	movlb	0	; select bank0
  8612  0BA8  1312               	bcf	18,6	;volatile
  8613  0BA9                     l2852:
  8614                           
  8615                           ;mcc_generated_files/cmp2.c: 77:     PIE2bits.C2IE = 1;
  8616  0BA9  0021               	movlb	1	; select bank1
  8617  0BAA  1712               	bsf	18,6	;volatile
  8618  0BAB                     l620:
  8619  0BAB  0008               	return
  8620  0BAC                     __end_of_CMP2_Initialize:
  8621                           
  8622                           	psect	text34
  8623  0B94                     __ptext34:	
  8624 ;; *************** function _CMP1_Initialize *****************
  8625 ;; Defined at:
  8626 ;;		line 58 in file "mcc_generated_files/cmp1.c"
  8627 ;; Parameters:    Size  Location     Type
  8628 ;;		None
  8629 ;; Auto vars:     Size  Location     Type
  8630 ;;		None
  8631 ;; Return value:  Size  Location     Type
  8632 ;;                  1    wreg      void 
  8633 ;; Registers used:
  8634 ;;		wreg
  8635 ;; Tracked objects:
  8636 ;;		On entry : 0/0
  8637 ;;		On exit  : 0/0
  8638 ;;		Unchanged: 0/0
  8639 ;; Data sizes:     COMMON   BANK0   BANK1   BANK2   BANK3   BANK4
  8640 ;;      Params:         0       0       0       0       0       0
  8641 ;;      Locals:         0       0       0       0       0       0
  8642 ;;      Temps:          0       0       0       0       0       0
  8643 ;;      Totals:         0       0       0       0       0       0
  8644 ;;Total ram usage:        0 bytes
  8645 ;; Hardware stack levels used: 1
  8646 ;; Hardware stack levels required when called: 6
  8647 ;; This function calls:
  8648 ;;		Nothing
  8649 ;; This function is called by:
  8650 ;;		_SYSTEM_Initialize
  8651 ;; This function uses a non-reentrant model
  8652 ;;
  8653                           
  8654                           
  8655                           ;psect for function _CMP1_Initialize
  8656  0B94                     _CMP1_Initialize:
  8657  0B94                     l2878:	
  8658                           ;incstack = 0
  8659                           ; Regs used in _CMP1_Initialize: [wreg]
  8660                           
  8661                           
  8662                           ;mcc_generated_files/cmp1.c: 65:     PIE2bits.C1IE = 0;
  8663  0B94  0021               	movlb	1	; select bank1
  8664  0B95  1292               	bcf	18,5	;volatile
  8665  0B96                     l2880:
  8666                           
  8667                           ;mcc_generated_files/cmp1.c: 68:     CM1CON0 = 0x86;
  8668  0B96  3086               	movlw	134
  8669  0B97  0022               	movlb	2	; select bank2
  8670  0B98  0091               	movwf	17	;volatile
  8671                           
  8672                           ;mcc_generated_files/cmp1.c: 71:     CM1CON1 = 0x90;
  8673  0B99  3090               	movlw	144
  8674  0B9A  0092               	movwf	18	;volatile
  8675  0B9B                     l2882:
  8676                           
  8677                           ;mcc_generated_files/cmp1.c: 74:     PIR2bits.C1IF = 0;
  8678  0B9B  0020               	movlb	0	; select bank0
  8679  0B9C  1292               	bcf	18,5	;volatile
  8680  0B9D                     l2884:
  8681                           
  8682                           ;mcc_generated_files/cmp1.c: 77:     PIE2bits.C1IE = 1;
  8683  0B9D  0021               	movlb	1	; select bank1
  8684  0B9E  1692               	bsf	18,5	;volatile
  8685  0B9F                     l604:
  8686  0B9F  0008               	return
  8687  0BA0                     __end_of_CMP1_Initialize:
  8688                           
  8689                           	psect	text35
  8690  0C1A                     __ptext35:	
  8691 ;; *************** function _CCP4_Initialize *****************
  8692 ;; Defined at:
  8693 ;;		line 65 in file "mcc_generated_files/ccp4.c"
  8694 ;; Parameters:    Size  Location     Type
  8695 ;;		None
  8696 ;; Auto vars:     Size  Location     Type
  8697 ;;		None
  8698 ;; Return value:  Size  Location     Type
  8699 ;;                  1    wreg      void 
  8700 ;; Registers used:
  8701 ;;		wreg, status,2, status,0, pclath, cstack
  8702 ;; Tracked objects:
  8703 ;;		On entry : 0/0
  8704 ;;		On exit  : 0/0
  8705 ;;		Unchanged: 0/0
  8706 ;; Data sizes:     COMMON   BANK0   BANK1   BANK2   BANK3   BANK4
  8707 ;;      Params:         0       0       0       0       0       0
  8708 ;;      Locals:         0       0       0       0       0       0
  8709 ;;      Temps:          0       0       0       0       0       0
  8710 ;;      Totals:         0       0       0       0       0       0
  8711 ;;Total ram usage:        0 bytes
  8712 ;; Hardware stack levels used: 1
  8713 ;; Hardware stack levels required when called: 7
  8714 ;; This function calls:
  8715 ;;		_CCP4_SetCallBack
  8716 ;; This function is called by:
  8717 ;;		_SYSTEM_Initialize
  8718 ;; This function uses a non-reentrant model
  8719 ;;
  8720                           
  8721                           
  8722                           ;psect for function _CCP4_Initialize
  8723  0C1A                     _CCP4_Initialize:
  8724  0C1A                     l2886:	
  8725                           ;incstack = 0
  8726                           ; Regs used in _CCP4_Initialize: [wreg+status,2+status,0+pclath+cstack]
  8727                           
  8728                           
  8729                           ;mcc_generated_files/ccp4.c: 70:  CCP4CON = 0x04;
  8730  0C1A  3004               	movlw	4
  8731  0C1B  0026               	movlb	6	; select bank6
  8732  0C1C  009A               	movwf	26	;volatile
  8733  0C1D                     l2888:
  8734                           
  8735                           ;mcc_generated_files/ccp4.c: 73:  CCPR4L = 0x00;
  8736  0C1D  0198               	clrf	24	;volatile
  8737  0C1E                     l2890:
  8738                           
  8739                           ;mcc_generated_files/ccp4.c: 76:  CCPR4H = 0x00;
  8740  0C1E  0199               	clrf	25	;volatile
  8741  0C1F                     l2892:
  8742                           
  8743                           ;mcc_generated_files/ccp4.c: 79:     CCP4_SetCallBack(CCP4_DefaultCallBack);
  8744  0C1F  30D5               	movlw	low _CCP4_DefaultCallBack
  8745  0C20  0020               	movlb	0	; select bank0
  8746  0C21  00A3               	movwf	CCP4_SetCallBack@customCallBack
  8747  0C22  300A               	movlw	high _CCP4_DefaultCallBack
  8748  0C23  00A4               	movwf	CCP4_SetCallBack@customCallBack+1
  8749  0C24  318B  232E  318C   	fcall	_CCP4_SetCallBack
  8750  0C27                     l2894:
  8751                           
  8752                           ;mcc_generated_files/ccp4.c: 83:     PIR3bits.CCP4IF = 0;
  8753  0C27  0020               	movlb	0	; select bank0
  8754  0C28  1293               	bcf	19,5	;volatile
  8755  0C29                     l2896:
  8756                           
  8757                           ;mcc_generated_files/ccp4.c: 86:     PIE3bits.CCP4IE = 1;
  8758  0C29  0021               	movlb	1	; select bank1
  8759  0C2A  1693               	bsf	19,5	;volatile
  8760  0C2B                     l585:
  8761  0C2B  0008               	return
  8762  0C2C                     __end_of_CCP4_Initialize:
  8763                           
  8764                           	psect	text36
  8765  0B2E                     __ptext36:	
  8766 ;; *************** function _CCP4_SetCallBack *****************
  8767 ;; Defined at:
  8768 ;;		line 104 in file "mcc_generated_files/ccp4.c"
  8769 ;; Parameters:    Size  Location     Type
  8770 ;;  customCallBa    2    3[BANK0 ] PTR FTN(unsigned short ,
  8771 ;;		 -> Enc(1), CCP4_DefaultCallBack(1), 
  8772 ;; Auto vars:     Size  Location     Type
  8773 ;;		None
  8774 ;; Return value:  Size  Location     Type
  8775 ;;                  1    wreg      void 
  8776 ;; Registers used:
  8777 ;;		wreg
  8778 ;; Tracked objects:
  8779 ;;		On entry : 0/0
  8780 ;;		On exit  : 0/0
  8781 ;;		Unchanged: 0/0
  8782 ;; Data sizes:     COMMON   BANK0   BANK1   BANK2   BANK3   BANK4
  8783 ;;      Params:         0       2       0       0       0       0
  8784 ;;      Locals:         0       0       0       0       0       0
  8785 ;;      Temps:          0       0       0       0       0       0
  8786 ;;      Totals:         0       2       0       0       0       0
  8787 ;;Total ram usage:        2 bytes
  8788 ;; Hardware stack levels used: 1
  8789 ;; Hardware stack levels required when called: 6
  8790 ;; This function calls:
  8791 ;;		Nothing
  8792 ;; This function is called by:
  8793 ;;		_CCP4_Initialize
  8794 ;;		_main
  8795 ;; This function uses a non-reentrant model
  8796 ;;
  8797                           
  8798                           
  8799                           ;psect for function _CCP4_SetCallBack
  8800  0B2E                     _CCP4_SetCallBack:
  8801  0B2E                     l2738:	
  8802                           ;incstack = 0
  8803                           ; Regs used in _CCP4_SetCallBack: [wreg]
  8804                           
  8805                           
  8806                           ;mcc_generated_files/ccp4.c: 105:     CCP4_CallBack = customCallBack;
  8807  0B2E  0020               	movlb	0	; select bank0
  8808  0B2F  0824               	movf	CCP4_SetCallBack@customCallBack+1,w
  8809  0B30  0021               	movlb	1	; select bank1
  8810  0B31  00C9               	movwf	(_CCP4_CallBack+1)^(0+128)
  8811  0B32  0020               	movlb	0	; select bank0
  8812  0B33  0823               	movf	CCP4_SetCallBack@customCallBack,w
  8813  0B34  0021               	movlb	1	; select bank1
  8814  0B35  00C8               	movwf	_CCP4_CallBack^(0+128)
  8815  0B36                     l591:
  8816  0B36  0008               	return
  8817  0B37                     __end_of_CCP4_SetCallBack:
  8818                           
  8819                           	psect	text37
  8820  0B1E                     __ptext37:	
  8821 ;; *************** function _ADC_Initialize *****************
  8822 ;; Defined at:
  8823 ;;		line 67 in file "mcc_generated_files/adc.c"
  8824 ;; Parameters:    Size  Location     Type
  8825 ;;		None
  8826 ;; Auto vars:     Size  Location     Type
  8827 ;;		None
  8828 ;; Return value:  Size  Location     Type
  8829 ;;                  1    wreg      void 
  8830 ;; Registers used:
  8831 ;;		wreg, status,2
  8832 ;; Tracked objects:
  8833 ;;		On entry : 0/0
  8834 ;;		On exit  : 0/0
  8835 ;;		Unchanged: 0/0
  8836 ;; Data sizes:     COMMON   BANK0   BANK1   BANK2   BANK3   BANK4
  8837 ;;      Params:         0       0       0       0       0       0
  8838 ;;      Locals:         0       0       0       0       0       0
  8839 ;;      Temps:          0       0       0       0       0       0
  8840 ;;      Totals:         0       0       0       0       0       0
  8841 ;;Total ram usage:        0 bytes
  8842 ;; Hardware stack levels used: 1
  8843 ;; Hardware stack levels required when called: 6
  8844 ;; This function calls:
  8845 ;;		Nothing
  8846 ;; This function is called by:
  8847 ;;		_SYSTEM_Initialize
  8848 ;; This function uses a non-reentrant model
  8849 ;;
  8850                           
  8851                           
  8852                           ;psect for function _ADC_Initialize
  8853  0B1E                     _ADC_Initialize:
  8854  0B1E                     l2898:	
  8855                           ;incstack = 0
  8856                           ; Regs used in _ADC_Initialize: [wreg+status,2]
  8857                           
  8858                           
  8859                           ;mcc_generated_files/adc.c: 72:     ADCON1 = 0x03;
  8860  0B1E  3003               	movlw	3
  8861  0B1F  0021               	movlb	1	; select bank1
  8862  0B20  009E               	movwf	30	;volatile
  8863  0B21                     l2900:
  8864                           
  8865                           ;mcc_generated_files/adc.c: 75:     ADRESL = 0x00;
  8866  0B21  019B               	clrf	27	;volatile
  8867  0B22                     l2902:
  8868                           
  8869                           ;mcc_generated_files/adc.c: 78:     ADRESH = 0x00;
  8870  0B22  019C               	clrf	28	;volatile
  8871                           
  8872                           ;mcc_generated_files/adc.c: 81:     ADCON0 = 0x01;
  8873  0B23  3001               	movlw	1
  8874  0B24  009D               	movwf	29	;volatile
  8875  0B25                     l443:
  8876  0B25  0008               	return
  8877  0B26                     __end_of_ADC_Initialize:
  8878                           
  8879                           	psect	text38
  8880  0E64                     __ptext38:	
  8881 ;; *************** function _SPI1_Open *****************
  8882 ;; Defined at:
  8883 ;;		line 72 in file "mcc_generated_files/spi1.c"
  8884 ;; Parameters:    Size  Location     Type
  8885 ;;  spi1UniqueCo    1    wreg     enum E355
  8886 ;; Auto vars:     Size  Location     Type
  8887 ;;  spi1UniqueCo    1    6[BANK0 ] enum E355
  8888 ;; Return value:  Size  Location     Type
  8889 ;;                  1    wreg      _Bool 
  8890 ;; Registers used:
  8891 ;;		wreg, fsr0l, fsr0h, status,2, status,0, pclath
  8892 ;; Tracked objects:
  8893 ;;		On entry : 0/0
  8894 ;;		On exit  : 0/0
  8895 ;;		Unchanged: 0/0
  8896 ;; Data sizes:     COMMON   BANK0   BANK1   BANK2   BANK3   BANK4
  8897 ;;      Params:         0       0       0       0       0       0
  8898 ;;      Locals:         0       1       0       0       0       0
  8899 ;;      Temps:          0       3       0       0       0       0
  8900 ;;      Totals:         0       4       0       0       0       0
  8901 ;;Total ram usage:        4 bytes
  8902 ;; Hardware stack levels used: 1
  8903 ;; Hardware stack levels required when called: 6
  8904 ;; This function calls:
  8905 ;;		Nothing
  8906 ;; This function is called by:
  8907 ;;		_main
  8908 ;; This function uses a non-reentrant model
  8909 ;;
  8910                           
  8911                           
  8912                           ;psect for function _SPI1_Open
  8913  0E64                     _SPI1_Open:
  8914                           
  8915                           ;incstack = 0
  8916                           ; Regs used in _SPI1_Open: [wreg-fsr0h+status,2+status,0+pclath]
  8917                           ;SPI1_Open@spi1UniqueConfiguration stored from wreg
  8918  0E64  0020               	movlb	0	; select bank0
  8919  0E65  00A6               	movwf	SPI1_Open@spi1UniqueConfiguration
  8920  0E66                     l3068:
  8921                           
  8922                           ;mcc_generated_files/spi1.c: 72: _Bool SPI1_Open(spi1_modes_t spi1UniqueConfiguration);m
      +                          cc_generated_files/spi1.c: 73: {;mcc_generated_files/spi1.c: 74:     if(!SSP1CON1bits.SS
      +                          PEN)
  8923  0E66  0024               	movlb	4	; select bank4
  8924  0E67  1A95               	btfsc	21,5	;volatile
  8925  0E68  2E6A               	goto	u2051
  8926  0E69  2E6B               	goto	u2050
  8927  0E6A                     u2051:
  8928  0E6A  2EBA               	goto	l196
  8929  0E6B                     u2050:
  8930  0E6B                     l3070:
  8931                           
  8932                           ;mcc_generated_files/spi1.c: 75:     {;mcc_generated_files/spi1.c: 76:         SSP1STAT 
      +                          = spi1_configuration[spi1UniqueConfiguration].stat;
  8933  0E6B  0020               	movlb	0	; select bank0
  8934  0E6C  0826               	movf	SPI1_Open@spi1UniqueConfiguration,w
  8935  0E6D  00A3               	movwf	??_SPI1_Open
  8936  0E6E  01A4               	clrf	??_SPI1_Open+1
  8937  0E6F  35A3               	lslf	??_SPI1_Open,f
  8938  0E70  0DA4               	rlf	??_SPI1_Open+1,f
  8939  0E71  35A3               	lslf	??_SPI1_Open,f
  8940  0E72  0DA4               	rlf	??_SPI1_Open+1,f
  8941  0E73  3000               	movlw	low ((_spi1_configuration+1)| (0+32768))
  8942  0E74  0723               	addwf	??_SPI1_Open,w
  8943  0E75  0084               	movwf	4
  8944  0E76  3088               	movlw	high ((_spi1_configuration+1)| (0+32768))
  8945  0E77  3D24               	addwfc	??_SPI1_Open+1,w
  8946  0E78  0085               	movwf	5
  8947  0E79  0800               	movf	0,w	;code access
  8948  0E7A  0024               	movlb	4	; select bank4
  8949  0E7B  0094               	movwf	20	;volatile
  8950                           
  8951                           ;mcc_generated_files/spi1.c: 77:         SSP1CON1 = spi1_configuration[spi1UniqueConfigu
      +                          ration].con1;
  8952  0E7C  0020               	movlb	0	; select bank0
  8953  0E7D  0826               	movf	SPI1_Open@spi1UniqueConfiguration,w
  8954  0E7E  00A3               	movwf	??_SPI1_Open
  8955  0E7F  01A4               	clrf	??_SPI1_Open+1
  8956  0E80  35A3               	lslf	??_SPI1_Open,f
  8957  0E81  0DA4               	rlf	??_SPI1_Open+1,f
  8958  0E82  35A3               	lslf	??_SPI1_Open,f
  8959  0E83  0DA4               	rlf	??_SPI1_Open+1,f
  8960  0E84  30FF               	movlw	low (_spi1_configuration| (0+32768))
  8961  0E85  0723               	addwf	??_SPI1_Open,w
  8962  0E86  0084               	movwf	4
  8963  0E87  3087               	movlw	high (_spi1_configuration| (0+32768))
  8964  0E88  3D24               	addwfc	??_SPI1_Open+1,w
  8965  0E89  0085               	movwf	5
  8966  0E8A  0800               	movf	0,w	;code access
  8967  0E8B  0024               	movlb	4	; select bank4
  8968  0E8C  0095               	movwf	21	;volatile
  8969  0E8D                     l3072:
  8970                           
  8971                           ;mcc_generated_files/spi1.c: 78:         SSP1CON2 = 0x00;
  8972  0E8D  0196               	clrf	22	;volatile
  8973  0E8E                     l3074:
  8974                           
  8975                           ;mcc_generated_files/spi1.c: 79:         SSP1ADD = spi1_configuration[spi1UniqueConfigur
      +                          ation].add;
  8976  0E8E  0020               	movlb	0	; select bank0
  8977  0E8F  0826               	movf	SPI1_Open@spi1UniqueConfiguration,w
  8978  0E90  00A3               	movwf	??_SPI1_Open
  8979  0E91  01A4               	clrf	??_SPI1_Open+1
  8980  0E92  35A3               	lslf	??_SPI1_Open,f
  8981  0E93  0DA4               	rlf	??_SPI1_Open+1,f
  8982  0E94  35A3               	lslf	??_SPI1_Open,f
  8983  0E95  0DA4               	rlf	??_SPI1_Open+1,f
  8984  0E96  3001               	movlw	low ((_spi1_configuration+2)| (0+32768))
  8985  0E97  0723               	addwf	??_SPI1_Open,w
  8986  0E98  0084               	movwf	4
  8987  0E99  3088               	movlw	high ((_spi1_configuration+2)| (0+32768))
  8988  0E9A  3D24               	addwfc	??_SPI1_Open+1,w
  8989  0E9B  0085               	movwf	5
  8990  0E9C  0800               	movf	0,w	;code access
  8991  0E9D  0024               	movlb	4	; select bank4
  8992  0E9E  0092               	movwf	18	;volatile
  8993  0E9F                     l3076:
  8994                           
  8995                           ;mcc_generated_files/spi1.c: 80:         TRISBbits.TRISB4 = spi1_configuration[spi1Uniqu
      +                          eConfiguration].operation;
  8996  0E9F  0020               	movlb	0	; select bank0
  8997  0EA0  0826               	movf	SPI1_Open@spi1UniqueConfiguration,w
  8998  0EA1  00A3               	movwf	??_SPI1_Open
  8999  0EA2  01A4               	clrf	??_SPI1_Open+1
  9000  0EA3  35A3               	lslf	??_SPI1_Open,f
  9001  0EA4  0DA4               	rlf	??_SPI1_Open+1,f
  9002  0EA5  35A3               	lslf	??_SPI1_Open,f
  9003  0EA6  0DA4               	rlf	??_SPI1_Open+1,f
  9004  0EA7  3002               	movlw	low ((_spi1_configuration+3)| (0+32768))
  9005  0EA8  0723               	addwf	??_SPI1_Open,w
  9006  0EA9  0084               	movwf	4
  9007  0EAA  3088               	movlw	high ((_spi1_configuration+3)| (0+32768))
  9008  0EAB  3D24               	addwfc	??_SPI1_Open+1,w
  9009  0EAC  0085               	movwf	5
  9010  0EAD  0800               	movf	0,w	;code access
  9011  0EAE  00A5               	movwf	??_SPI1_Open+2
  9012  0EAF  0EA5               	swapf	??_SPI1_Open+2,f
  9013  0EB0  0021               	movlb	1	; select bank1
  9014  0EB1  080D               	movf	13,w	;volatile
  9015  0EB2  0020               	movlb	0	; select bank0
  9016  0EB3  0625               	xorwf	??_SPI1_Open+2,w
  9017  0EB4  39EF               	andlw	-17
  9018  0EB5  0625               	xorwf	??_SPI1_Open+2,w
  9019  0EB6  0021               	movlb	1	; select bank1
  9020  0EB7  008D               	movwf	13	;volatile
  9021  0EB8                     l3078:
  9022                           
  9023                           ;mcc_generated_files/spi1.c: 81:         SSP1CON1bits.SSPEN = 1;
  9024  0EB8  0024               	movlb	4	; select bank4
  9025  0EB9  1695               	bsf	21,5	;volatile
  9026  0EBA                     l196:
  9027  0EBA  0008               	return
  9028  0EBB                     __end_of_SPI1_Open:
  9029                           
  9030                           	psect	text39
  9031  0CCE                     __ptext39:	
  9032 ;; *************** function _ADC_GetConversion *****************
  9033 ;; Defined at:
  9034 ;;		line 112 in file "mcc_generated_files/adc.c"
  9035 ;; Parameters:    Size  Location     Type
  9036 ;;  channel         1    wreg     enum E2476
  9037 ;; Auto vars:     Size  Location     Type
  9038 ;;  channel         1    6[BANK0 ] enum E2476
  9039 ;; Return value:  Size  Location     Type
  9040 ;;                  2    3[BANK0 ] unsigned short 
  9041 ;; Registers used:
  9042 ;;		wreg, status,2, status,0
  9043 ;; Tracked objects:
  9044 ;;		On entry : 0/0
  9045 ;;		On exit  : 0/0
  9046 ;;		Unchanged: 0/0
  9047 ;; Data sizes:     COMMON   BANK0   BANK1   BANK2   BANK3   BANK4
  9048 ;;      Params:         0       2       0       0       0       0
  9049 ;;      Locals:         0       1       0       0       0       0
  9050 ;;      Temps:          0       1       0       0       0       0
  9051 ;;      Totals:         0       4       0       0       0       0
  9052 ;;Total ram usage:        4 bytes
  9053 ;; Hardware stack levels used: 1
  9054 ;; Hardware stack levels required when called: 6
  9055 ;; This function calls:
  9056 ;;		Nothing
  9057 ;; This function is called by:
  9058 ;;		_main
  9059 ;; This function uses a non-reentrant model
  9060 ;;
  9061                           
  9062                           
  9063                           ;psect for function _ADC_GetConversion
  9064  0CCE                     _ADC_GetConversion:
  9065                           
  9066                           ;incstack = 0
  9067                           ; Regs used in _ADC_GetConversion: [wreg+status,2+status,0]
  9068                           ;ADC_GetConversion@channel stored from wreg
  9069  0CCE  0020               	movlb	0	; select bank0
  9070  0CCF  00A6               	movwf	ADC_GetConversion@channel
  9071  0CD0                     l3090:
  9072                           
  9073                           ;mcc_generated_files/adc.c: 112: adc_result_t ADC_GetConversion(adc_channel_t channel);m
      +                          cc_generated_files/adc.c: 113: {;mcc_generated_files/adc.c: 115:     ADCON0bits.CHS = ch
      +                          annel;
  9074  0CD0  0826               	movf	ADC_GetConversion@channel,w
  9075  0CD1  00A5               	movwf	??_ADC_GetConversion
  9076  0CD2  0DA5               	rlf	??_ADC_GetConversion,f
  9077  0CD3  0DA5               	rlf	??_ADC_GetConversion,f
  9078  0CD4  0021               	movlb	1	; select bank1
  9079  0CD5  081D               	movf	29,w	;volatile
  9080  0CD6  0020               	movlb	0	; select bank0
  9081  0CD7  0625               	xorwf	??_ADC_GetConversion,w
  9082  0CD8  3983               	andlw	-125
  9083  0CD9  0625               	xorwf	??_ADC_GetConversion,w
  9084  0CDA  0021               	movlb	1	; select bank1
  9085  0CDB  009D               	movwf	29	;volatile
  9086  0CDC                     l3092:
  9087                           
  9088                           ;mcc_generated_files/adc.c: 118:     ADCON0bits.ADON = 1;
  9089  0CDC  141D               	bsf	29,0	;volatile
  9090  0CDD                     l3094:
  9091                           
  9092                           ;mcc_generated_files/adc.c: 121:     _delay((unsigned long)((5)*(2000000/4000000.0)));
  9093  0CDD  3200               	nop2	;2 cycle nop
  9094  0CDE                     l3096:
  9095                           
  9096                           ;mcc_generated_files/adc.c: 124:     ADCON0bits.GO_nDONE = 1;
  9097  0CDE  0021               	movlb	1	; select bank1
  9098  0CDF  149D               	bsf	29,1	;volatile
  9099  0CE0                     l458:	
  9100                           ;mcc_generated_files/adc.c: 128:     {;mcc_generated_files/adc.c: 129:     }
  9101                           
  9102                           
  9103                           ;mcc_generated_files/adc.c: 127:     while (ADCON0bits.GO_nDONE)
  9104  0CE0  189D               	btfsc	29,1	;volatile
  9105  0CE1  2CE3               	goto	u2071
  9106  0CE2  2CE4               	goto	u2070
  9107  0CE3                     u2071:
  9108  0CE3  2CE0               	goto	l458
  9109  0CE4                     u2070:
  9110  0CE4                     l3098:
  9111                           
  9112                           ;mcc_generated_files/adc.c: 132:     return ((adc_result_t)((ADRESH << 8) + ADRESL));
  9113  0CE4  081C               	movf	28,w	;volatile
  9114  0CE5  0020               	movlb	0	; select bank0
  9115  0CE6  00A4               	movwf	?_ADC_GetConversion+1
  9116  0CE7  0021               	movlb	1	; select bank1
  9117  0CE8  081B               	movf	27,w	;volatile
  9118  0CE9  0020               	movlb	0	; select bank0
  9119  0CEA  00A3               	movwf	?_ADC_GetConversion
  9120  0CEB                     l461:
  9121  0CEB  0008               	return
  9122  0CEC                     __end_of_ADC_GetConversion:
  9123                           
  9124                           	psect	intentry
  9125  0004                     __pintentry:	
  9126 ;; *************** function _INTERRUPT_InterruptManager *****************
  9127 ;; Defined at:
  9128 ;;		line 52 in file "mcc_generated_files/interrupt_manager.c"
  9129 ;; Parameters:    Size  Location     Type
  9130 ;;		None
  9131 ;; Auto vars:     Size  Location     Type
  9132 ;;		None
  9133 ;; Return value:  Size  Location     Type
  9134 ;;                  1    wreg      void 
  9135 ;; Registers used:
  9136 ;;		wreg, fsr1l, fsr1h, status,2, status,0, pclath, cstack
  9137 ;; Tracked objects:
  9138 ;;		On entry : 0/0
  9139 ;;		On exit  : 0/0
  9140 ;;		Unchanged: 0/0
  9141 ;; Data sizes:     COMMON   BANK0   BANK1   BANK2   BANK3   BANK4
  9142 ;;      Params:         0       0       0       0       0       0
  9143 ;;      Locals:         0       0       0       0       0       0
  9144 ;;      Temps:          0       0       0       0       0       0
  9145 ;;      Totals:         0       0       0       0       0       0
  9146 ;;Total ram usage:        0 bytes
  9147 ;; Hardware stack levels used: 1
  9148 ;; Hardware stack levels required when called: 5
  9149 ;; This function calls:
  9150 ;;		_CCP4_CaptureISR
  9151 ;;		_CMP1_ISR
  9152 ;;		_CMP2_ISR
  9153 ;;		_PIN_MANAGER_IOC
  9154 ;;		_TMR1_ISR
  9155 ;;		_TMR4_ISR
  9156 ;; This function is called by:
  9157 ;;		Interrupt level 1
  9158 ;; This function uses a non-reentrant model
  9159 ;;
  9160                           
  9161  0004                     _INTERRUPT_InterruptManager:
  9162                           
  9163                           ;incstack = 0
  9164  0004  147E               	bsf	int$flags,0	;set compiler interrupt flag (level 1)
  9165                           
  9166                           ; Regs used in _INTERRUPT_InterruptManager: [wreg+fsr1l+fsr1h+status,2+status,0+pclath+c
      +                          stack]
  9167  0005  3180               	pagesel	$
  9168  0006                     i1l3548:
  9169                           
  9170                           ;mcc_generated_files/interrupt_manager.c: 55:     if(INTCONbits.IOCIE == 1 && INTCONbits
      +                          .IOCIF == 1)
  9171  0006  1D8B               	btfss	11,3	;volatile
  9172  0007  2809               	goto	u297_21
  9173  0008  280A               	goto	u297_20
  9174  0009                     u297_21:
  9175  0009  2812               	goto	i1l495
  9176  000A                     u297_20:
  9177  000A                     i1l3550:
  9178  000A  1C0B               	btfss	11,0	;volatile
  9179  000B  280D               	goto	u298_21
  9180  000C  280E               	goto	u298_20
  9181  000D                     u298_21:
  9182  000D  2812               	goto	i1l495
  9183  000E                     u298_20:
  9184  000E                     i1l3552:
  9185                           
  9186                           ;mcc_generated_files/interrupt_manager.c: 56:     {;mcc_generated_files/interrupt_manage
      +                          r.c: 57:         PIN_MANAGER_IOC();
  9187  000E  318C  2409  3180   	fcall	_PIN_MANAGER_IOC
  9188                           
  9189                           ;mcc_generated_files/interrupt_manager.c: 58:     }
  9190  0011  285C               	goto	i1l509
  9191  0012                     i1l495:	
  9192                           ;mcc_generated_files/interrupt_manager.c: 59:     else if(INTCONbits.PEIE == 1)
  9193                           
  9194  0012  1F0B               	btfss	11,6	;volatile
  9195  0013  2815               	goto	u299_21
  9196  0014  2816               	goto	u299_20
  9197  0015                     u299_21:
  9198  0015  285C               	goto	i1l509
  9199  0016                     u299_20:
  9200  0016                     i1l3554:
  9201                           
  9202                           ;mcc_generated_files/interrupt_manager.c: 60:     {;mcc_generated_files/interrupt_manage
      +                          r.c: 61:         if(PIE2bits.C2IE == 1 && PIR2bits.C2IF == 1)
  9203  0016  0021               	movlb	1	; select bank1
  9204  0017  1F12               	btfss	18,6	;volatile
  9205  0018  281A               	goto	u300_21
  9206  0019  281B               	goto	u300_20
  9207  001A                     u300_21:
  9208  001A  2824               	goto	i1l498
  9209  001B                     u300_20:
  9210  001B                     i1l3556:
  9211  001B  0020               	movlb	0	; select bank0
  9212  001C  1F12               	btfss	18,6	;volatile
  9213  001D  281F               	goto	u301_21
  9214  001E  2820               	goto	u301_20
  9215  001F                     u301_21:
  9216  001F  2824               	goto	i1l498
  9217  0020                     u301_20:
  9218  0020                     i1l3558:
  9219                           
  9220                           ;mcc_generated_files/interrupt_manager.c: 62:         {;mcc_generated_files/interrupt_ma
      +                          nager.c: 63:             CMP2_ISR();
  9221  0020  318A  22F9  3180   	fcall	_CMP2_ISR
  9222                           
  9223                           ;mcc_generated_files/interrupt_manager.c: 64:         }
  9224  0023  285C               	goto	i1l509
  9225  0024                     i1l498:	
  9226                           ;mcc_generated_files/interrupt_manager.c: 65:         else if(PIE2bits.C1IE == 1 && PIR2
      +                          bits.C1IF == 1)
  9227                           
  9228  0024  0021               	movlb	1	; select bank1
  9229  0025  1E92               	btfss	18,5	;volatile
  9230  0026  2828               	goto	u302_21
  9231  0027  2829               	goto	u302_20
  9232  0028                     u302_21:
  9233  0028  2832               	goto	i1l500
  9234  0029                     u302_20:
  9235  0029                     i1l3560:
  9236  0029  0020               	movlb	0	; select bank0
  9237  002A  1E92               	btfss	18,5	;volatile
  9238  002B  282D               	goto	u303_21
  9239  002C  282E               	goto	u303_20
  9240  002D                     u303_21:
  9241  002D  2832               	goto	i1l500
  9242  002E                     u303_20:
  9243  002E                     i1l3562:
  9244                           
  9245                           ;mcc_generated_files/interrupt_manager.c: 66:         {;mcc_generated_files/interrupt_ma
      +                          nager.c: 67:             CMP1_ISR();
  9246  002E  318A  22F3  3180   	fcall	_CMP1_ISR
  9247                           
  9248                           ;mcc_generated_files/interrupt_manager.c: 68:         }
  9249  0031  285C               	goto	i1l509
  9250  0032                     i1l500:	
  9251                           ;mcc_generated_files/interrupt_manager.c: 69:         else if(PIE3bits.CCP4IE == 1 && PI
      +                          R3bits.CCP4IF == 1)
  9252                           
  9253  0032  0021               	movlb	1	; select bank1
  9254  0033  1E93               	btfss	19,5	;volatile
  9255  0034  2836               	goto	u304_21
  9256  0035  2837               	goto	u304_20
  9257  0036                     u304_21:
  9258  0036  2840               	goto	i1l502
  9259  0037                     u304_20:
  9260  0037                     i1l3564:
  9261  0037  0020               	movlb	0	; select bank0
  9262  0038  1E93               	btfss	19,5	;volatile
  9263  0039  283B               	goto	u305_21
  9264  003A  283C               	goto	u305_20
  9265  003B                     u305_21:
  9266  003B  2840               	goto	i1l502
  9267  003C                     u305_20:
  9268  003C                     i1l3566:
  9269                           
  9270                           ;mcc_generated_files/interrupt_manager.c: 70:         {;mcc_generated_files/interrupt_ma
      +                          nager.c: 71:             CCP4_CaptureISR();
  9271  003C  318C  2453  3180   	fcall	_CCP4_CaptureISR
  9272                           
  9273                           ;mcc_generated_files/interrupt_manager.c: 72:         }
  9274  003F  285C               	goto	i1l509
  9275  0040                     i1l502:	
  9276                           ;mcc_generated_files/interrupt_manager.c: 73:         else if(PIE3bits.TMR4IE == 1 && PI
      +                          R3bits.TMR4IF == 1)
  9277                           
  9278  0040  0021               	movlb	1	; select bank1
  9279  0041  1C93               	btfss	19,1	;volatile
  9280  0042  2844               	goto	u306_21
  9281  0043  2845               	goto	u306_20
  9282  0044                     u306_21:
  9283  0044  284E               	goto	i1l504
  9284  0045                     u306_20:
  9285  0045                     i1l3568:
  9286  0045  0020               	movlb	0	; select bank0
  9287  0046  1C93               	btfss	19,1	;volatile
  9288  0047  2849               	goto	u307_21
  9289  0048  284A               	goto	u307_20
  9290  0049                     u307_21:
  9291  0049  284E               	goto	i1l504
  9292  004A                     u307_20:
  9293  004A                     i1l3570:
  9294                           
  9295                           ;mcc_generated_files/interrupt_manager.c: 74:         {;mcc_generated_files/interrupt_ma
      +                          nager.c: 75:             TMR4_ISR();
  9296  004A  318B  23D9  3180   	fcall	_TMR4_ISR
  9297                           
  9298                           ;mcc_generated_files/interrupt_manager.c: 76:         }
  9299  004D  285C               	goto	i1l509
  9300  004E                     i1l504:	
  9301                           ;mcc_generated_files/interrupt_manager.c: 77:         else if(PIE1bits.TMR1IE == 1 && PI
      +                          R1bits.TMR1IF == 1)
  9302                           
  9303  004E  0021               	movlb	1	; select bank1
  9304  004F  1C11               	btfss	17,0	;volatile
  9305  0050  2852               	goto	u308_21
  9306  0051  2853               	goto	u308_20
  9307  0052                     u308_21:
  9308  0052  285C               	goto	i1l503
  9309  0053                     u308_20:
  9310  0053                     i1l3572:
  9311  0053  0020               	movlb	0	; select bank0
  9312  0054  1C11               	btfss	17,0	;volatile
  9313  0055  2857               	goto	u309_21
  9314  0056  2858               	goto	u309_20
  9315  0057                     u309_21:
  9316  0057  285C               	goto	i1l503
  9317  0058                     u309_20:
  9318  0058                     i1l3574:
  9319                           
  9320                           ;mcc_generated_files/interrupt_manager.c: 78:         {;mcc_generated_files/interrupt_ma
      +                          nager.c: 79:             TMR1_ISR();
  9321  0058  318C  2480  3180   	fcall	_TMR1_ISR
  9322                           
  9323                           ;mcc_generated_files/interrupt_manager.c: 80:         }
  9324  005B  285C               	goto	i1l509
  9325  005C                     i1l503:
  9326  005C                     i1l509:
  9327  005C  107E               	bcf	int$flags,0	;clear compiler interrupt flag (level 1)
  9328  005D  0009               	retfie
  9329  005E                     __end_of_INTERRUPT_InterruptManager:
  9330                           
  9331                           	psect	text41
  9332  0BD9                     __ptext41:	
  9333 ;; *************** function _TMR4_ISR *****************
  9334 ;; Defined at:
  9335 ;;		line 119 in file "mcc_generated_files/tmr4.c"
  9336 ;; Parameters:    Size  Location     Type
  9337 ;;		None
  9338 ;; Auto vars:     Size  Location     Type
  9339 ;;		None
  9340 ;; Return value:  Size  Location     Type
  9341 ;;                  1    wreg      void 
  9342 ;; Registers used:
  9343 ;;		wreg, fsr1l, fsr1h, status,2, status,0, pclath, cstack
  9344 ;; Tracked objects:
  9345 ;;		On entry : 0/0
  9346 ;;		On exit  : 0/0
  9347 ;;		Unchanged: 0/0
  9348 ;; Data sizes:     COMMON   BANK0   BANK1   BANK2   BANK3   BANK4
  9349 ;;      Params:         0       0       0       0       0       0
  9350 ;;      Locals:         0       0       0       0       0       0
  9351 ;;      Temps:          0       0       0       0       0       0
  9352 ;;      Totals:         0       0       0       0       0       0
  9353 ;;Total ram usage:        0 bytes
  9354 ;; Hardware stack levels used: 1
  9355 ;; Hardware stack levels required when called: 4
  9356 ;; This function calls:
  9357 ;;		Absolute function
  9358 ;;		_TMR4_DefaultInterruptHandler
  9359 ;;		_comm
  9360 ;; This function is called by:
  9361 ;;		_INTERRUPT_InterruptManager
  9362 ;; This function uses a non-reentrant model
  9363 ;;
  9364                           
  9365                           
  9366                           ;psect for function _TMR4_ISR
  9367  0BD9                     _TMR4_ISR:
  9368  0BD9                     i1l3116:	
  9369                           ;incstack = 0
  9370                           ; Regs used in _TMR4_ISR: [wreg+fsr1l+fsr1h+status,2+status,0+pclath+cstack]
  9371                           
  9372                           
  9373                           ;mcc_generated_files/tmr4.c: 123:     PIR3bits.TMR4IF = 0;
  9374  0BD9  0020               	movlb	0	; select bank0
  9375  0BDA  1093               	bcf	19,1	;volatile
  9376  0BDB                     i1l3118:
  9377                           
  9378                           ;mcc_generated_files/tmr4.c: 125:     if(TMR4_InterruptHandler)
  9379  0BDB  0021               	movlb	1	; select bank1
  9380  0BDC  084A               	movf	_TMR4_InterruptHandler^(0+128),w
  9381  0BDD  044B               	iorwf	(_TMR4_InterruptHandler+1)^(0+128),w
  9382  0BDE  1903               	btfsc	3,2
  9383  0BDF  2BE1               	goto	u208_21
  9384  0BE0  2BE2               	goto	u208_20
  9385  0BE1                     u208_21:
  9386  0BE1  2BE7               	goto	i1l549
  9387  0BE2                     u208_20:
  9388  0BE2                     i1l3120:
  9389                           
  9390                           ;mcc_generated_files/tmr4.c: 126:     {;mcc_generated_files/tmr4.c: 127:         TMR4_In
      +                          terruptHandler();
  9391  0BE2  084B               	movf	(_TMR4_InterruptHandler+1)^(0+128),w
  9392  0BE3  008A               	movwf	10
  9393  0BE4  084A               	movf	_TMR4_InterruptHandler^(0+128),w
  9394  0BE5  000A               	callw
  9395  0BE6  318B               	pagesel	$
  9396  0BE7                     i1l549:
  9397  0BE7  0008               	return
  9398  0BE8                     __end_of_TMR4_ISR:
  9399                           
  9400                           	psect	text42
  9401  0003                     __ptext42:	
  9402 ;; *************** function _TMR4_DefaultInterruptHandler *****************
  9403 ;; Defined at:
  9404 ;;		line 136 in file "mcc_generated_files/tmr4.c"
  9405 ;; Parameters:    Size  Location     Type
  9406 ;;		None
  9407 ;; Auto vars:     Size  Location     Type
  9408 ;;		None
  9409 ;; Return value:  Size  Location     Type
  9410 ;;                  1    wreg      void 
  9411 ;; Registers used:
  9412 ;;		None
  9413 ;; Tracked objects:
  9414 ;;		On entry : 0/0
  9415 ;;		On exit  : 0/0
  9416 ;;		Unchanged: 0/0
  9417 ;; Data sizes:     COMMON   BANK0   BANK1   BANK2   BANK3   BANK4
  9418 ;;      Params:         0       0       0       0       0       0
  9419 ;;      Locals:         0       0       0       0       0       0
  9420 ;;      Temps:          0       0       0       0       0       0
  9421 ;;      Totals:         0       0       0       0       0       0
  9422 ;;Total ram usage:        0 bytes
  9423 ;; Hardware stack levels used: 1
  9424 ;; This function calls:
  9425 ;;		Nothing
  9426 ;; This function is called by:
  9427 ;;		_TMR4_Initialize
  9428 ;;		_TMR4_ISR
  9429 ;; This function uses a non-reentrant model
  9430 ;;
  9431                           
  9432                           
  9433                           ;psect for function _TMR4_DefaultInterruptHandler
  9434  0003                     _TMR4_DefaultInterruptHandler:
  9435  0003                     i1l555:	
  9436                           ;incstack = 0
  9437                           ; Regs used in _TMR4_DefaultInterruptHandler: []
  9438                           
  9439  0003  0008               	return
  9440  0004                     __end_of_TMR4_DefaultInterruptHandler:
  9441                           
  9442                           	psect	text43
  9443  06D3                     __ptext43:	
  9444 ;; *************** function _comm *****************
  9445 ;; Defined at:
  9446 ;;		line 76 in file "main.c"
  9447 ;; Parameters:    Size  Location     Type
  9448 ;;		None
  9449 ;; Auto vars:     Size  Location     Type
  9450 ;;  i               2   12[COMMON] int 
  9451 ;; Return value:  Size  Location     Type
  9452 ;;                  1    wreg      void 
  9453 ;; Registers used:
  9454 ;;		wreg, fsr1l, fsr1h, status,2, status,0, pclath, cstack
  9455 ;; Tracked objects:
  9456 ;;		On entry : 0/0
  9457 ;;		On exit  : 0/0
  9458 ;;		Unchanged: 0/0
  9459 ;; Data sizes:     COMMON   BANK0   BANK1   BANK2   BANK3   BANK4
  9460 ;;      Params:         0       0       0       0       0       0
  9461 ;;      Locals:         2       0       0       0       0       0
  9462 ;;      Temps:          0       3       0       0       0       0
  9463 ;;      Totals:         2       3       0       0       0       0
  9464 ;;Total ram usage:        5 bytes
  9465 ;; Hardware stack levels used: 1
  9466 ;; Hardware stack levels required when called: 3
  9467 ;; This function calls:
  9468 ;;		_EUSART_Read
  9469 ;;		_EUSART_Write
  9470 ;;		_EUSART_is_rx_ready
  9471 ;;		_leds
  9472 ;;		i1___fltol
  9473 ;; This function is called by:
  9474 ;;		_main
  9475 ;;		_TMR4_ISR
  9476 ;; This function uses a non-reentrant model
  9477 ;;
  9478                           
  9479                           
  9480                           ;psect for function _comm
  9481  06D3                     _comm:
  9482  06D3                     i1l2974:	
  9483                           ;incstack = 0
  9484                           ; Regs used in _comm: [wreg+fsr1l+fsr1h+status,2+status,0+pclath+cstack]
  9485                           
  9486                           
  9487                           ;main.c: 79:     txByte[0] = 0xBF & ((0b10000000) | ((uint8_t)motor<<4) | (pos_atual & 0
      +                          x03));
  9488  06D3  3003               	movlw	3
  9489  06D4  0020               	movlb	0	; select bank0
  9490  06D5  0569               	andwf	_pos_atual,w
  9491  06D6  00A0               	movwf	??_comm
  9492  06D7  0021               	movlb	1	; select bank1
  9493  06D8  0842               	movf	_motor^(0+128),w
  9494  06D9  0020               	movlb	0	; select bank0
  9495  06DA  00A1               	movwf	??_comm+1
  9496  06DB  3003               	movlw	3
  9497  06DC                     u191_25:
  9498  06DC  35A1               	lslf	??_comm+1,f
  9499  06DD  3EFF               	addlw	-1
  9500  06DE  1D03               	skipz
  9501  06DF  2EDC               	goto	u191_25
  9502  06E0  3521               	lslf	??_comm+1,w
  9503  06E1  0420               	iorwf	??_comm,w
  9504  06E2  3880               	iorlw	128
  9505  06E3  39BF               	andlw	191
  9506  06E4  00A2               	movwf	??_comm+2
  9507  06E5  0822               	movf	??_comm+2,w
  9508  06E6  0021               	movlb	1	; select bank1
  9509  06E7  00A8               	movwf	_txByte^(0+128)
  9510  06E8                     i1l2976:
  9511                           
  9512                           ;main.c: 80:     txByte[1] = 0x7F & (((uint8_t)position)>>1);
  9513  06E8  083D               	movf	(_position+3)^(0+128),w
  9514  06E9  00F3               	movwf	i1___fltol@f1+3
  9515  06EA  083C               	movf	(_position+2)^(0+128),w
  9516  06EB  00F2               	movwf	i1___fltol@f1+2
  9517  06EC  083B               	movf	(_position+1)^(0+128),w
  9518  06ED  00F1               	movwf	i1___fltol@f1+1
  9519  06EE  083A               	movf	_position^(0+128),w
  9520  06EF  00F0               	movwf	i1___fltol@f1
  9521  06F0  318F  278C  3186   	fcall	i1___fltol
  9522  06F3  3670               	lsrf	?i1___fltol,w
  9523  06F4  397F               	andlw	127
  9524  06F5  0020               	movlb	0	; select bank0
  9525  06F6  00A0               	movwf	??_comm
  9526  06F7  0820               	movf	??_comm,w
  9527  06F8  0021               	movlb	1	; select bank1
  9528  06F9  00A9               	movwf	(_txByte^(0+128)+1)
  9529  06FA                     i1l2978:
  9530                           
  9531                           ;main.c: 81:     txByte[2] = 0x7F & (((uint8_t)speed)<<2);
  9532  06FA  0844               	movf	_speed^(0+128),w
  9533  06FB  0020               	movlb	0	; select bank0
  9534  06FC  00A0               	movwf	??_comm
  9535  06FD  3001               	movlw	1
  9536  06FE                     u192_25:
  9537  06FE  35A0               	lslf	??_comm,f
  9538  06FF  3EFF               	addlw	-1
  9539  0700  1D03               	skipz
  9540  0701  2EFE               	goto	u192_25
  9541  0702  3520               	lslf	??_comm,w
  9542  0703  397F               	andlw	127
  9543  0704  00A1               	movwf	??_comm+1
  9544  0705  0821               	movf	??_comm+1,w
  9545  0706  0021               	movlb	1	; select bank1
  9546  0707  00AA               	movwf	(_txByte^(0+128)+2)
  9547  0708                     i1l2980:
  9548                           
  9549                           ;main.c: 82:     txByte[3] = 0x7F & ((temp)<<1);
  9550  0708  3546               	lslf	_temp^(0+128),w
  9551  0709  397F               	andlw	127
  9552  070A  0020               	movlb	0	; select bank0
  9553  070B  00A0               	movwf	??_comm
  9554  070C  0820               	movf	??_comm,w
  9555  070D  0021               	movlb	1	; select bank1
  9556  070E  00AB               	movwf	(_txByte^(0+128)+3)
  9557  070F                     i1l2982:
  9558                           
  9559                           ;main.c: 84:     if(EUSART_is_rx_ready()){
  9560  070F  318A  22E3  3186   	fcall	_EUSART_is_rx_ready
  9561  0712  3A00               	xorlw	0
  9562  0713  1903               	skipnz
  9563  0714  2F16               	goto	u193_21
  9564  0715  2F17               	goto	u193_20
  9565  0716                     u193_21:
  9566  0716  2F29               	goto	i1l2988
  9567  0717                     u193_20:
  9568  0717                     i1l2984:
  9569                           
  9570                           ;main.c: 85:         rxByte = EUSART_Read();
  9571  0717  318B  23E8  3186   	fcall	_EUSART_Read
  9572  071A  0020               	movlb	0	; select bank0
  9573  071B  00A0               	movwf	??_comm
  9574  071C  0820               	movf	??_comm,w
  9575  071D  00EB               	movwf	_rxByte
  9576  071E                     i1l2986:
  9577                           
  9578                           ;main.c: 86:         pos_final = (int)(rxByte & 0x03);
  9579  071E  086B               	movf	_rxByte,w
  9580  071F  3903               	andlw	3
  9581  0720  00A0               	movwf	??_comm
  9582  0721  01A1               	clrf	??_comm+1
  9583  0722  0820               	movf	??_comm,w
  9584  0723  0021               	movlb	1	; select bank1
  9585  0724  00B4               	movwf	_pos_final^(0+128)
  9586  0725  0020               	movlb	0	; select bank0
  9587  0726  0821               	movf	??_comm+1,w
  9588  0727  0021               	movlb	1	; select bank1
  9589  0728  00B5               	movwf	(_pos_final+1)^(0+128)
  9590  0729                     i1l2988:
  9591                           
  9592                           ;main.c: 89:     for (int i=0;i<4;i++){
  9593  0729  01FC               	clrf	comm@i
  9594  072A  01FD               	clrf	comm@i+1
  9595  072B                     i1l2994:
  9596                           
  9597                           ;main.c: 90:       EUSART_Write(txByte[i]);
  9598  072B  087C               	movf	comm@i,w
  9599  072C  3EA8               	addlw	(low (_txByte| 0))& (0+255)
  9600  072D  0086               	movwf	6
  9601  072E  0187               	clrf	7
  9602  072F  0801               	movf	1,w
  9603  0730  318B  237F  3186   	fcall	_EUSART_Write
  9604  0733                     i1l2996:
  9605                           
  9606                           ;main.c: 91:     }
  9607  0733  3001               	movlw	1
  9608  0734  07FC               	addwf	comm@i,f
  9609  0735  3000               	movlw	0
  9610  0736  3DFD               	addwfc	comm@i+1,f
  9611  0737                     i1l2998:
  9612  0737  087D               	movf	comm@i+1,w
  9613  0738  3A80               	xorlw	128
  9614  0739  0020               	movlb	0	; select bank0
  9615  073A  00A0               	movwf	??_comm
  9616  073B  3080               	movlw	128
  9617  073C  0220               	subwf	??_comm,w
  9618  073D  1D03               	skipz
  9619  073E  2F41               	goto	u194_25
  9620  073F  3004               	movlw	4
  9621  0740  027C               	subwf	comm@i,w
  9622  0741                     u194_25:
  9623  0741  1C03               	skipc
  9624  0742  2F44               	goto	u194_21
  9625  0743  2F45               	goto	u194_20
  9626  0744                     u194_21:
  9627  0744  2F2B               	goto	i1l2994
  9628  0745                     u194_20:
  9629  0745                     i1l3000:
  9630                           
  9631                           ;main.c: 92:     leds();
  9632  0745  3187  27BE  3186   	fcall	_leds
  9633  0748                     i1l723:
  9634  0748  0008               	return
  9635  0749                     __end_of_comm:
  9636                           
  9637                           	psect	text44
  9638  0F8C                     __ptext44:	
  9639 ;; *************** function i1___fltol *****************
  9640 ;; Defined at:
  9641 ;;		line 43 in file "C:\Program Files\Microchip\xc8\v2.32\pic\sources\c99\common\fltol.c"
  9642 ;; Parameters:    Size  Location     Type
  9643 ;;  f1              4    0[COMMON] void 
  9644 ;; Auto vars:     Size  Location     Type
  9645 ;;  exp1            1   10[COMMON] unsigned char 
  9646 ;;  sign1           1    9[COMMON] unsigned char 
  9647 ;; Return value:  Size  Location     Type
  9648 ;;                  4    0[COMMON] long 
  9649 ;; Registers used:
  9650 ;;		wreg, status,2, status,0
  9651 ;; Tracked objects:
  9652 ;;		On entry : 0/0
  9653 ;;		On exit  : 0/0
  9654 ;;		Unchanged: 0/0
  9655 ;; Data sizes:     COMMON   BANK0   BANK1   BANK2   BANK3   BANK4
  9656 ;;      Params:         4       0       0       0       0       0
  9657 ;;      Locals:         2       0       0       0       0       0
  9658 ;;      Temps:          5       0       0       0       0       0
  9659 ;;      Totals:        11       0       0       0       0       0
  9660 ;;Total ram usage:       11 bytes
  9661 ;; Hardware stack levels used: 1
  9662 ;; This function calls:
  9663 ;;		Nothing
  9664 ;; This function is called by:
  9665 ;;		_comm
  9666 ;; This function uses a non-reentrant model
  9667 ;;
  9668                           
  9669                           
  9670                           ;psect for function i1___fltol
  9671  0F8C                     i1___fltol:
  9672  0F8C                     i1l2758:	
  9673                           ;incstack = 0
  9674                           ; Regs used in i1___fltol: [wreg+status,2+status,0]
  9675                           
  9676  0F8C  1003               	clrc
  9677  0F8D  0D72               	rlf	i1___fltol@f1+2,w
  9678  0F8E  0D73               	rlf	i1___fltol@f1+3,w
  9679  0F8F  00F4               	movwf	??i1___fltol
  9680  0F90  0874               	movf	??i1___fltol,w
  9681  0F91  00FA               	movwf	i1___fltol@exp1
  9682  0F92  087A               	movf	i1___fltol@exp1,w
  9683  0F93  1D03               	btfss	3,2
  9684  0F94  2F96               	goto	u175_21
  9685  0F95  2F97               	goto	u175_20
  9686  0F96                     u175_21:
  9687  0F96  2FA0               	goto	i1l2764
  9688  0F97                     u175_20:
  9689  0F97                     i1l2760:
  9690  0F97  3000               	movlw	0
  9691  0F98  00F3               	movwf	?i1___fltol+3
  9692  0F99  3000               	movlw	0
  9693  0F9A  00F2               	movwf	?i1___fltol+2
  9694  0F9B  3000               	movlw	0
  9695  0F9C  00F1               	movwf	?i1___fltol+1
  9696  0F9D  3000               	movlw	0
  9697  0F9E  00F0               	movwf	?i1___fltol
  9698  0F9F  2FFF               	goto	i1l1176
  9699  0FA0                     i1l2764:
  9700  0FA0  0870               	movf	i1___fltol@f1,w
  9701  0FA1  00F4               	movwf	??i1___fltol
  9702  0FA2  0871               	movf	i1___fltol@f1+1,w
  9703  0FA3  00F5               	movwf	??i1___fltol+1
  9704  0FA4  0872               	movf	i1___fltol@f1+2,w
  9705  0FA5  00F6               	movwf	??i1___fltol+2
  9706  0FA6  0873               	movf	i1___fltol@f1+3,w
  9707  0FA7  00F7               	movwf	??i1___fltol+3
  9708  0FA8  301F               	movlw	31
  9709  0FA9                     u176_25:
  9710  0FA9  36F7               	lsrf	??i1___fltol+3,f
  9711  0FAA  0CF6               	rrf	??i1___fltol+2,f
  9712  0FAB  0CF5               	rrf	??i1___fltol+1,f
  9713  0FAC  0CF4               	rrf	??i1___fltol,f
  9714  0FAD                     u176_20:
  9715  0FAD  0B89               	decfsz	9,f
  9716  0FAE  2FA9               	goto	u176_25
  9717  0FAF  0874               	movf	??i1___fltol,w
  9718  0FB0  00F8               	movwf	??i1___fltol+4
  9719  0FB1  0878               	movf	??i1___fltol+4,w
  9720  0FB2  00F9               	movwf	i1___fltol@sign1
  9721  0FB3                     i1l2766:
  9722  0FB3  17F2               	bsf	i1___fltol@f1+2,7
  9723  0FB4                     i1l2768:
  9724  0FB4  30FF               	movlw	255
  9725  0FB5  05F0               	andwf	i1___fltol@f1,f
  9726  0FB6  30FF               	movlw	255
  9727  0FB7  05F1               	andwf	i1___fltol@f1+1,f
  9728  0FB8  30FF               	movlw	255
  9729  0FB9  05F2               	andwf	i1___fltol@f1+2,f
  9730  0FBA  3000               	movlw	0
  9731  0FBB  05F3               	andwf	i1___fltol@f1+3,f
  9732  0FBC                     i1l2770:
  9733  0FBC  3096               	movlw	150
  9734  0FBD  02FA               	subwf	i1___fltol@exp1,f
  9735  0FBE                     i1l2772:
  9736  0FBE  1FFA               	btfss	i1___fltol@exp1,7
  9737  0FBF  2FC1               	goto	u177_21
  9738  0FC0  2FC2               	goto	u177_20
  9739  0FC1                     u177_21:
  9740  0FC1  2FDA               	goto	i1l2782
  9741  0FC2                     u177_20:
  9742  0FC2                     i1l2774:
  9743  0FC2  087A               	movf	i1___fltol@exp1,w
  9744  0FC3  3A80               	xorlw	128
  9745  0FC4  3E97               	addlw	151
  9746  0FC5  1803               	skipnc
  9747  0FC6  2FC8               	goto	u178_21
  9748  0FC7  2FC9               	goto	u178_20
  9749  0FC8                     u178_21:
  9750  0FC8  2FCA               	goto	i1l2780
  9751  0FC9                     u178_20:
  9752  0FC9  2F97               	goto	i1l2760
  9753  0FCA                     i1l2780:
  9754  0FCA  3001               	movlw	1
  9755  0FCB                     u179_25:
  9756  0FCB  36F3               	lsrf	i1___fltol@f1+3,f
  9757  0FCC  0CF2               	rrf	i1___fltol@f1+2,f
  9758  0FCD  0CF1               	rrf	i1___fltol@f1+1,f
  9759  0FCE  0CF0               	rrf	i1___fltol@f1,f
  9760  0FCF  0B89               	decfsz	9,f
  9761  0FD0  2FCB               	goto	u179_25
  9762  0FD1  3001               	movlw	1
  9763  0FD2  00F4               	movwf	??i1___fltol
  9764  0FD3  0874               	movf	??i1___fltol,w
  9765  0FD4  07FA               	addwf	i1___fltol@exp1,f
  9766  0FD5  1D03               	btfss	3,2
  9767  0FD6  2FD8               	goto	u180_21
  9768  0FD7  2FD9               	goto	u180_20
  9769  0FD8                     u180_21:
  9770  0FD8  2FCA               	goto	i1l2780
  9771  0FD9                     u180_20:
  9772  0FD9  2FEF               	goto	i1l2790
  9773  0FDA                     i1l2782:
  9774  0FDA  3020               	movlw	32
  9775  0FDB  027A               	subwf	i1___fltol@exp1,w
  9776  0FDC  1C03               	skipc
  9777  0FDD  2FDF               	goto	u181_21
  9778  0FDE  2FE0               	goto	u181_20
  9779  0FDF                     u181_21:
  9780  0FDF  2FEA               	goto	i1l1183
  9781  0FE0                     u181_20:
  9782  0FE0  2F97               	goto	i1l2760
  9783  0FE1                     i1l2788:
  9784  0FE1  3001               	movlw	1
  9785  0FE2                     u182_25:
  9786  0FE2  35F0               	lslf	i1___fltol@f1,f
  9787  0FE3  0DF1               	rlf	i1___fltol@f1+1,f
  9788  0FE4  0DF2               	rlf	i1___fltol@f1+2,f
  9789  0FE5  0DF3               	rlf	i1___fltol@f1+3,f
  9790  0FE6  0B89               	decfsz	9,f
  9791  0FE7  2FE2               	goto	u182_25
  9792  0FE8  3001               	movlw	1
  9793  0FE9  02FA               	subwf	i1___fltol@exp1,f
  9794  0FEA                     i1l1183:
  9795  0FEA  087A               	movf	i1___fltol@exp1,w
  9796  0FEB  1D03               	btfss	3,2
  9797  0FEC  2FEE               	goto	u183_21
  9798  0FED  2FEF               	goto	u183_20
  9799  0FEE                     u183_21:
  9800  0FEE  2FE1               	goto	i1l2788
  9801  0FEF                     u183_20:
  9802  0FEF                     i1l2790:
  9803  0FEF  0879               	movf	i1___fltol@sign1,w
  9804  0FF0  1903               	btfsc	3,2
  9805  0FF1  2FF3               	goto	u184_21
  9806  0FF2  2FF4               	goto	u184_20
  9807  0FF3                     u184_21:
  9808  0FF3  2FFF               	goto	i1l1186
  9809  0FF4                     u184_20:
  9810  0FF4                     i1l2792:
  9811  0FF4  09F0               	comf	i1___fltol@f1,f
  9812  0FF5  09F1               	comf	i1___fltol@f1+1,f
  9813  0FF6  09F2               	comf	i1___fltol@f1+2,f
  9814  0FF7  09F3               	comf	i1___fltol@f1+3,f
  9815  0FF8  0AF0               	incf	i1___fltol@f1,f
  9816  0FF9  1903               	skipnz
  9817  0FFA  0AF1               	incf	i1___fltol@f1+1,f
  9818  0FFB  1903               	skipnz
  9819  0FFC  0AF2               	incf	i1___fltol@f1+2,f
  9820  0FFD  1903               	skipnz
  9821  0FFE  0AF3               	incf	i1___fltol@f1+3,f
  9822  0FFF                     i1l1186:
  9823  0FFF                     i1l1176:
  9824  0FFF  0008               	return
  9825  1000                     __end_ofi1___fltol:
  9826                           
  9827                           	psect	text45
  9828  07BE                     __ptext45:	
  9829 ;; *************** function _leds *****************
  9830 ;; Defined at:
  9831 ;;		line 67 in file "main.c"
  9832 ;; Parameters:    Size  Location     Type
  9833 ;;		None
  9834 ;; Auto vars:     Size  Location     Type
  9835 ;;  i               2   10[COMMON] int 
  9836 ;; Return value:  Size  Location     Type
  9837 ;;                  1    wreg      void 
  9838 ;; Registers used:
  9839 ;;		wreg, fsr1l, fsr1h, status,2, status,0, pclath, cstack
  9840 ;; Tracked objects:
  9841 ;;		On entry : 0/0
  9842 ;;		On exit  : 0/0
  9843 ;;		Unchanged: 0/0
  9844 ;; Data sizes:     COMMON   BANK0   BANK1   BANK2   BANK3   BANK4
  9845 ;;      Params:         0       0       0       0       0       0
  9846 ;;      Locals:         2       0       0       0       0       0
  9847 ;;      Temps:          5       0       0       0       0       0
  9848 ;;      Totals:         7       0       0       0       0       0
  9849 ;;Total ram usage:        7 bytes
  9850 ;; Hardware stack levels used: 1
  9851 ;; Hardware stack levels required when called: 2
  9852 ;; This function calls:
  9853 ;;		i1_txMAX7219
  9854 ;; This function is called by:
  9855 ;;		_comm
  9856 ;; This function uses a non-reentrant model
  9857 ;;
  9858                           
  9859                           
  9860                           ;psect for function _leds
  9861  07BE                     _leds:
  9862  07BE                     i1l2740:	
  9863                           ;incstack = 0
  9864                           ; Regs used in _leds: [wreg+fsr1l+fsr1h+status,2+status,0+pclath+cstack]
  9865                           
  9866                           
  9867                           ;main.c: 68:     for (int i =1;i<8;i++)
  9868  07BE  3001               	movlw	1
  9869  07BF  00FA               	movwf	leds@i
  9870  07C0  3000               	movlw	0
  9871  07C1  00FB               	movwf	leds@i+1
  9872  07C2                     i1l2744:
  9873                           
  9874                           ;main.c: 69:     {;main.c: 70:         txMAX7219(i, LED[8-i],i, LED[8-i]);
  9875  07C2  30A8               	movlw	(low ((_LED| 0+8)))& (0+255)
  9876  07C3  00F5               	movwf	??_leds
  9877  07C4  087A               	movf	leds@i,w
  9878  07C5  02F5               	subwf	??_leds,f
  9879  07C6  0875               	movf	??_leds,w
  9880  07C7  0086               	movwf	6
  9881  07C8  0187               	clrf	7
  9882  07C9  0801               	movf	1,w
  9883  07CA  00F6               	movwf	??_leds+1
  9884  07CB  0876               	movf	??_leds+1,w
  9885  07CC  00F1               	movwf	i1txMAX7219@dat0
  9886  07CD  087A               	movf	leds@i,w
  9887  07CE  00F7               	movwf	??_leds+2
  9888  07CF  0877               	movf	??_leds+2,w
  9889  07D0  00F2               	movwf	i1txMAX7219@addr1
  9890  07D1  30A8               	movlw	(low ((_LED| 0+8)))& (0+255)
  9891  07D2  00F8               	movwf	??_leds+3
  9892  07D3  087A               	movf	leds@i,w
  9893  07D4  02F8               	subwf	??_leds+3,f
  9894  07D5  0878               	movf	??_leds+3,w
  9895  07D6  0086               	movwf	6
  9896  07D7  0187               	clrf	7
  9897  07D8  0801               	movf	1,w
  9898  07D9  00F9               	movwf	??_leds+4
  9899  07DA  0879               	movf	??_leds+4,w
  9900  07DB  00F3               	movwf	i1txMAX7219@dat1
  9901  07DC  087A               	movf	leds@i,w
  9902  07DD  318D  2535  3187   	fcall	i1_txMAX7219
  9903  07E0                     i1l2746:
  9904                           
  9905                           ;main.c: 72:     }
  9906  07E0  3001               	movlw	1
  9907  07E1  07FA               	addwf	leds@i,f
  9908  07E2  3000               	movlw	0
  9909  07E3  3DFB               	addwfc	leds@i+1,f
  9910  07E4                     i1l2748:
  9911  07E4  087B               	movf	leds@i+1,w
  9912  07E5  3A80               	xorlw	128
  9913  07E6  00F5               	movwf	??_leds
  9914  07E7  3080               	movlw	128
  9915  07E8  0275               	subwf	??_leds,w
  9916  07E9  1D03               	skipz
  9917  07EA  2FED               	goto	u174_25
  9918  07EB  3008               	movlw	8
  9919  07EC  027A               	subwf	leds@i,w
  9920  07ED                     u174_25:
  9921  07ED  1C03               	skipc
  9922  07EE  2FF0               	goto	u174_21
  9923  07EF  2FF1               	goto	u174_20
  9924  07F0                     u174_21:
  9925  07F0  2FC2               	goto	i1l2744
  9926  07F1                     u174_20:
  9927  07F1                     i1l717:
  9928  07F1  0008               	return
  9929  07F2                     __end_of_leds:
  9930                           
  9931                           	psect	text46
  9932  0D35                     __ptext46:	
  9933 ;; *************** function i1_txMAX7219 *****************
  9934 ;; Defined at:
  9935 ;;		line 56 in file "ledMatrix.c"
  9936 ;; Parameters:    Size  Location     Type
  9937 ;;  addr0           1    wreg     unsigned char 
  9938 ;;  dat0            1    1[COMMON] unsigned char 
  9939 ;;  addr1           1    2[COMMON] unsigned char 
  9940 ;;  dat1            1    3[COMMON] unsigned char 
  9941 ;; Auto vars:     Size  Location     Type
  9942 ;;  addr0           1    4[COMMON] unsigned char 
  9943 ;; Return value:  Size  Location     Type
  9944 ;;                  1    wreg      void 
  9945 ;; Registers used:
  9946 ;;		wreg, status,2, status,0, pclath, cstack
  9947 ;; Tracked objects:
  9948 ;;		On entry : 0/0
  9949 ;;		On exit  : 0/0
  9950 ;;		Unchanged: 0/0
  9951 ;; Data sizes:     COMMON   BANK0   BANK1   BANK2   BANK3   BANK4
  9952 ;;      Params:         3       0       0       0       0       0
  9953 ;;      Locals:         1       0       0       0       0       0
  9954 ;;      Temps:          0       0       0       0       0       0
  9955 ;;      Totals:         4       0       0       0       0       0
  9956 ;;Total ram usage:        4 bytes
  9957 ;; Hardware stack levels used: 1
  9958 ;; Hardware stack levels required when called: 1
  9959 ;; This function calls:
  9960 ;;		i1_SPI1_WriteByte
  9961 ;; This function is called by:
  9962 ;;		_leds
  9963 ;; This function uses a non-reentrant model
  9964 ;;
  9965                           
  9966                           
  9967                           ;psect for function i1_txMAX7219
  9968  0D35                     i1_txMAX7219:
  9969                           
  9970                           ;incstack = 0
  9971                           ; Regs used in i1_txMAX7219: [wreg+status,2+status,0+pclath+cstack]
  9972                           ;i1txMAX7219@addr0 stored from wreg
  9973  0D35  00F4               	movwf	i1txMAX7219@addr0
  9974  0D36                     i1l803:	
  9975                           ;ledMatrix.c: 58:     do { LATBbits.LATB1 = 0; } while(0);
  9976                           
  9977  0D36  0022               	movlb	2	; select bank2
  9978  0D37  108D               	bcf	13,1	;volatile
  9979  0D38                     i1l2678:
  9980                           
  9981                           ;ledMatrix.c: 59:     SPI1_WriteByte(addr0);
  9982  0D38  0874               	movf	i1txMAX7219@addr0,w
  9983  0D39  318A  22E8  318D   	fcall	i1_SPI1_WriteByte
  9984  0D3C                     i1l805:	
  9985                           ;ledMatrix.c: 60:     while(!PIR1bits.SSP1IF);
  9986                           
  9987  0D3C  0020               	movlb	0	; select bank0
  9988  0D3D  1D91               	btfss	17,3	;volatile
  9989  0D3E  2D40               	goto	u165_21
  9990  0D3F  2D41               	goto	u165_20
  9991  0D40                     u165_21:
  9992  0D40  2D3C               	goto	i1l805
  9993  0D41                     u165_20:
  9994  0D41                     i1l807:
  9995                           
  9996                           ;ledMatrix.c: 61:     PIR1bits.SSP1IF = 0;
  9997  0D41  1191               	bcf	17,3	;volatile
  9998  0D42                     i1l2680:
  9999                           
 10000                           ;ledMatrix.c: 62:     SPI1_WriteByte(dat0);
 10001  0D42  0871               	movf	i1txMAX7219@dat0,w
 10002  0D43  318A  22E8  318D   	fcall	i1_SPI1_WriteByte
 10003  0D46                     i1l808:	
 10004                           ;ledMatrix.c: 63:     while(!PIR1bits.SSP1IF);
 10005                           
 10006  0D46  0020               	movlb	0	; select bank0
 10007  0D47  1D91               	btfss	17,3	;volatile
 10008  0D48  2D4A               	goto	u166_21
 10009  0D49  2D4B               	goto	u166_20
 10010  0D4A                     u166_21:
 10011  0D4A  2D46               	goto	i1l808
 10012  0D4B                     u166_20:
 10013  0D4B                     i1l810:
 10014                           
 10015                           ;ledMatrix.c: 64:     PIR1bits.SSP1IF = 0;
 10016  0D4B  1191               	bcf	17,3	;volatile
 10017  0D4C                     i1l2682:
 10018                           
 10019                           ;ledMatrix.c: 65:     SPI1_WriteByte(addr1);
 10020  0D4C  0872               	movf	i1txMAX7219@addr1,w
 10021  0D4D  318A  22E8  318D   	fcall	i1_SPI1_WriteByte
 10022  0D50                     i1l811:	
 10023                           ;ledMatrix.c: 66:     while(!PIR1bits.SSP1IF);
 10024                           
 10025  0D50  0020               	movlb	0	; select bank0
 10026  0D51  1D91               	btfss	17,3	;volatile
 10027  0D52  2D54               	goto	u167_21
 10028  0D53  2D55               	goto	u167_20
 10029  0D54                     u167_21:
 10030  0D54  2D50               	goto	i1l811
 10031  0D55                     u167_20:
 10032  0D55                     i1l813:
 10033                           
 10034                           ;ledMatrix.c: 67:     PIR1bits.SSP1IF = 0;
 10035  0D55  1191               	bcf	17,3	;volatile
 10036  0D56                     i1l2684:
 10037                           
 10038                           ;ledMatrix.c: 68:     SPI1_WriteByte(dat1);
 10039  0D56  0873               	movf	i1txMAX7219@dat1,w
 10040  0D57  318A  22E8  318D   	fcall	i1_SPI1_WriteByte
 10041  0D5A                     i1l814:	
 10042                           ;ledMatrix.c: 69:     while(!PIR1bits.SSP1IF);
 10043                           
 10044  0D5A  0020               	movlb	0	; select bank0
 10045  0D5B  1D91               	btfss	17,3	;volatile
 10046  0D5C  2D5E               	goto	u168_21
 10047  0D5D  2D5F               	goto	u168_20
 10048  0D5E                     u168_21:
 10049  0D5E  2D5A               	goto	i1l814
 10050  0D5F                     u168_20:
 10051  0D5F                     i1l816:
 10052                           
 10053                           ;ledMatrix.c: 70:     PIR1bits.SSP1IF = 0;
 10054  0D5F  1191               	bcf	17,3	;volatile
 10055  0D60                     i1l817:	
 10056                           ;ledMatrix.c: 71:     do { LATBbits.LATB1 = 1; } while(0);
 10057                           
 10058  0D60  0022               	movlb	2	; select bank2
 10059  0D61  148D               	bsf	13,1	;volatile
 10060  0D62                     i1l819:
 10061  0D62  0008               	return
 10062  0D63                     __end_ofi1_txMAX7219:
 10063                           
 10064                           	psect	text47
 10065  0AE8                     __ptext47:	
 10066 ;; *************** function i1_SPI1_WriteByte *****************
 10067 ;; Defined at:
 10068 ;;		line 131 in file "mcc_generated_files/spi1.c"
 10069 ;; Parameters:    Size  Location     Type
 10070 ;;  byte            1    wreg     unsigned char 
 10071 ;; Auto vars:     Size  Location     Type
 10072 ;;  byte            1    0[COMMON] unsigned char 
 10073 ;; Return value:  Size  Location     Type
 10074 ;;                  1    wreg      void 
 10075 ;; Registers used:
 10076 ;;		wreg
 10077 ;; Tracked objects:
 10078 ;;		On entry : 0/0
 10079 ;;		On exit  : 0/0
 10080 ;;		Unchanged: 0/0
 10081 ;; Data sizes:     COMMON   BANK0   BANK1   BANK2   BANK3   BANK4
 10082 ;;      Params:         0       0       0       0       0       0
 10083 ;;      Locals:         1       0       0       0       0       0
 10084 ;;      Temps:          0       0       0       0       0       0
 10085 ;;      Totals:         1       0       0       0       0       0
 10086 ;;Total ram usage:        1 bytes
 10087 ;; Hardware stack levels used: 1
 10088 ;; This function calls:
 10089 ;;		Nothing
 10090 ;; This function is called by:
 10091 ;;		i1_txMAX7219
 10092 ;; This function uses a non-reentrant model
 10093 ;;
 10094                           
 10095                           
 10096                           ;psect for function i1_SPI1_WriteByte
 10097  0AE8                     i1_SPI1_WriteByte:
 10098                           
 10099                           ;incstack = 0
 10100                           ; Regs used in i1_SPI1_WriteByte: [wreg]
 10101                           ;i1SPI1_WriteByte@byte stored from wreg
 10102  0AE8  00F0               	movwf	i1SPI1_WriteByte@byte
 10103  0AE9                     i1l2674:
 10104                           
 10105                           ;mcc_generated_files/spi1.c: 131: void SPI1_WriteByte(uint8_t byte);mcc_generated_files/
      +                          spi1.c: 132: {;mcc_generated_files/spi1.c: 133:     SSP1BUF = byte;
 10106  0AE9  0870               	movf	i1SPI1_WriteByte@byte,w
 10107  0AEA  0024               	movlb	4	; select bank4
 10108  0AEB  0091               	movwf	17	;volatile
 10109  0AEC                     i1l229:
 10110  0AEC  0008               	return
 10111  0AED                     __end_ofi1_SPI1_WriteByte:
 10112                           
 10113                           	psect	text48
 10114  0AE3                     __ptext48:	
 10115 ;; *************** function _EUSART_is_rx_ready *****************
 10116 ;; Defined at:
 10117 ;;		line 99 in file "mcc_generated_files/eusart.c"
 10118 ;; Parameters:    Size  Location     Type
 10119 ;;		None
 10120 ;; Auto vars:     Size  Location     Type
 10121 ;;		None
 10122 ;; Return value:  Size  Location     Type
 10123 ;;                  1    wreg      _Bool 
 10124 ;; Registers used:
 10125 ;;		wreg, status,2, status,0
 10126 ;; Tracked objects:
 10127 ;;		On entry : 0/0
 10128 ;;		On exit  : 0/0
 10129 ;;		Unchanged: 0/0
 10130 ;; Data sizes:     COMMON   BANK0   BANK1   BANK2   BANK3   BANK4
 10131 ;;      Params:         0       0       0       0       0       0
 10132 ;;      Locals:         0       0       0       0       0       0
 10133 ;;      Temps:          0       0       0       0       0       0
 10134 ;;      Totals:         0       0       0       0       0       0
 10135 ;;Total ram usage:        0 bytes
 10136 ;; Hardware stack levels used: 1
 10137 ;; This function calls:
 10138 ;;		Nothing
 10139 ;; This function is called by:
 10140 ;;		_comm
 10141 ;; This function uses a non-reentrant model
 10142 ;;
 10143                           
 10144                           
 10145                           ;psect for function _EUSART_is_rx_ready
 10146  0AE3                     _EUSART_is_rx_ready:
 10147  0AE3                     i1l2698:	
 10148                           ;incstack = 0
 10149                           ; Regs used in _EUSART_is_rx_ready: [wreg+status,2+status,0]
 10150                           
 10151                           
 10152                           ;mcc_generated_files/eusart.c: 101:     return (_Bool)(PIR1bits.RCIF);
 10153  0AE3  0020               	movlb	0	; select bank0
 10154  0AE4  0E11               	swapf	17,w	;volatile
 10155  0AE5  0C89               	rrf	9,f
 10156  0AE6  3901               	andlw	1
 10157  0AE7                     i1l283:
 10158  0AE7  0008               	return
 10159  0AE8                     __end_of_EUSART_is_rx_ready:
 10160                           
 10161                           	psect	text49
 10162  0B7F                     __ptext49:	
 10163 ;; *************** function _EUSART_Write *****************
 10164 ;; Defined at:
 10165 ;;		line 132 in file "mcc_generated_files/eusart.c"
 10166 ;; Parameters:    Size  Location     Type
 10167 ;;  txData          1    wreg     unsigned char 
 10168 ;; Auto vars:     Size  Location     Type
 10169 ;;  txData          1    0[COMMON] unsigned char 
 10170 ;; Return value:  Size  Location     Type
 10171 ;;                  1    wreg      void 
 10172 ;; Registers used:
 10173 ;;		wreg
 10174 ;; Tracked objects:
 10175 ;;		On entry : 0/0
 10176 ;;		On exit  : 0/0
 10177 ;;		Unchanged: 0/0
 10178 ;; Data sizes:     COMMON   BANK0   BANK1   BANK2   BANK3   BANK4
 10179 ;;      Params:         0       0       0       0       0       0
 10180 ;;      Locals:         1       0       0       0       0       0
 10181 ;;      Temps:          0       0       0       0       0       0
 10182 ;;      Totals:         1       0       0       0       0       0
 10183 ;;Total ram usage:        1 bytes
 10184 ;; Hardware stack levels used: 1
 10185 ;; This function calls:
 10186 ;;		Nothing
 10187 ;; This function is called by:
 10188 ;;		_comm
 10189 ;; This function uses a non-reentrant model
 10190 ;;
 10191                           
 10192                           
 10193                           ;psect for function _EUSART_Write
 10194  0B7F                     _EUSART_Write:
 10195                           
 10196                           ;incstack = 0
 10197                           ; Regs used in _EUSART_Write: [wreg]
 10198                           ;EUSART_Write@txData stored from wreg
 10199  0B7F  00F0               	movwf	EUSART_Write@txData
 10200  0B80                     i1l2714:
 10201  0B80                     i1l299:	
 10202                           ;mcc_generated_files/eusart.c: 135:     {;mcc_generated_files/eusart.c: 136:     }
 10203                           
 10204                           
 10205                           ;mcc_generated_files/eusart.c: 134:     while(0 == PIR1bits.TXIF)
 10206  0B80  0020               	movlb	0	; select bank0
 10207  0B81  1E11               	btfss	17,4	;volatile
 10208  0B82  2B84               	goto	u171_21
 10209  0B83  2B85               	goto	u171_20
 10210  0B84                     u171_21:
 10211  0B84  2B80               	goto	i1l299
 10212  0B85                     u171_20:
 10213  0B85                     i1l2716:
 10214                           
 10215                           ;mcc_generated_files/eusart.c: 138:     TXREG = txData;
 10216  0B85  0870               	movf	EUSART_Write@txData,w
 10217  0B86  0023               	movlb	3	; select bank3
 10218  0B87  009A               	movwf	26	;volatile
 10219  0B88                     i1l302:
 10220  0B88  0008               	return
 10221  0B89                     __end_of_EUSART_Write:
 10222                           
 10223                           	psect	text50
 10224  0BE8                     __ptext50:	
 10225 ;; *************** function _EUSART_Read *****************
 10226 ;; Defined at:
 10227 ;;		line 113 in file "mcc_generated_files/eusart.c"
 10228 ;; Parameters:    Size  Location     Type
 10229 ;;		None
 10230 ;; Auto vars:     Size  Location     Type
 10231 ;;		None
 10232 ;; Return value:  Size  Location     Type
 10233 ;;                  1    wreg      unsigned char 
 10234 ;; Registers used:
 10235 ;;		wreg, status,2
 10236 ;; Tracked objects:
 10237 ;;		On entry : 0/0
 10238 ;;		On exit  : 0/0
 10239 ;;		Unchanged: 0/0
 10240 ;; Data sizes:     COMMON   BANK0   BANK1   BANK2   BANK3   BANK4
 10241 ;;      Params:         0       0       0       0       0       0
 10242 ;;      Locals:         0       0       0       0       0       0
 10243 ;;      Temps:          0       0       0       0       0       0
 10244 ;;      Totals:         0       0       0       0       0       0
 10245 ;;Total ram usage:        0 bytes
 10246 ;; Hardware stack levels used: 1
 10247 ;; This function calls:
 10248 ;;		Nothing
 10249 ;; This function is called by:
 10250 ;;		_comm
 10251 ;; This function uses a non-reentrant model
 10252 ;;
 10253                           
 10254                           
 10255                           ;psect for function _EUSART_Read
 10256  0BE8                     _EUSART_Read:
 10257  0BE8                     i1l2702:	
 10258                           ;incstack = 0
 10259                           ; Regs used in _EUSART_Read: [wreg+status,2]
 10260                           
 10261  0BE8                     i1l292:	
 10262                           ;mcc_generated_files/eusart.c: 116:     {;mcc_generated_files/eusart.c: 117:     }
 10263                           
 10264                           
 10265                           ;mcc_generated_files/eusart.c: 115:     while(!PIR1bits.RCIF)
 10266  0BE8  0020               	movlb	0	; select bank0
 10267  0BE9  1E91               	btfss	17,5	;volatile
 10268  0BEA  2BEC               	goto	u169_21
 10269  0BEB  2BED               	goto	u169_20
 10270  0BEC                     u169_21:
 10271  0BEC  2BE8               	goto	i1l292
 10272  0BED                     u169_20:
 10273  0BED                     i1l2704:
 10274                           
 10275                           ;mcc_generated_files/eusart.c: 119:     eusartRxLastError.status = 0;
 10276  0BED  0021               	movlb	1	; select bank1
 10277  0BEE  01B9               	clrf	_eusartRxLastError^(0+128)	;volatile
 10278  0BEF                     i1l2706:
 10279                           
 10280                           ;mcc_generated_files/eusart.c: 121:     if(1 == RCSTAbits.OERR)
 10281  0BEF  0023               	movlb	3	; select bank3
 10282  0BF0  1C9D               	btfss	29,1	;volatile
 10283  0BF1  2BF3               	goto	u170_21
 10284  0BF2  2BF4               	goto	u170_20
 10285  0BF3                     u170_21:
 10286  0BF3  2BF6               	goto	i1l2710
 10287  0BF4                     u170_20:
 10288  0BF4                     i1l2708:
 10289                           
 10290                           ;mcc_generated_files/eusart.c: 122:     {;mcc_generated_files/eusart.c: 125:         RCS
      +                          TAbits.CREN = 0;
 10291  0BF4  121D               	bcf	29,4	;volatile
 10292                           
 10293                           ;mcc_generated_files/eusart.c: 126:         RCSTAbits.CREN = 1;
 10294  0BF5  161D               	bsf	29,4	;volatile
 10295  0BF6                     i1l2710:
 10296                           
 10297                           ;mcc_generated_files/eusart.c: 129:     return RCREG;
 10298  0BF6  0819               	movf	25,w	;volatile
 10299  0BF7                     i1l296:
 10300  0BF7  0008               	return
 10301  0BF8                     __end_of_EUSART_Read:
 10302                           
 10303                           	psect	text51
 10304  0C80                     __ptext51:	
 10305 ;; *************** function _TMR1_ISR *****************
 10306 ;; Defined at:
 10307 ;;		line 157 in file "mcc_generated_files/tmr1.c"
 10308 ;; Parameters:    Size  Location     Type
 10309 ;;		None
 10310 ;; Auto vars:     Size  Location     Type
 10311 ;;		None
 10312 ;; Return value:  Size  Location     Type
 10313 ;;                  1    wreg      void 
 10314 ;; Registers used:
 10315 ;;		wreg, status,2, status,0, pclath, cstack
 10316 ;; Tracked objects:
 10317 ;;		On entry : 0/0
 10318 ;;		On exit  : 0/0
 10319 ;;		Unchanged: 0/0
 10320 ;; Data sizes:     COMMON   BANK0   BANK1   BANK2   BANK3   BANK4
 10321 ;;      Params:         0       0       0       0       0       0
 10322 ;;      Locals:         0       0       0       0       0       0
 10323 ;;      Temps:          0       0       0       0       0       0
 10324 ;;      Totals:         0       0       0       0       0       0
 10325 ;;Total ram usage:        0 bytes
 10326 ;; Hardware stack levels used: 1
 10327 ;; Hardware stack levels required when called: 1
 10328 ;; This function calls:
 10329 ;;		Absolute function
 10330 ;;		_TMR1_DefaultInterruptHandler
 10331 ;;		_TMR1_WriteTimer
 10332 ;; This function is called by:
 10333 ;;		_INTERRUPT_InterruptManager
 10334 ;; This function uses a non-reentrant model
 10335 ;;
 10336                           
 10337                           
 10338                           ;psect for function _TMR1_ISR
 10339  0C80                     _TMR1_ISR:
 10340  0C80                     i1l3082:	
 10341                           ;incstack = 0
 10342                           ; Regs used in _TMR1_ISR: [wreg+status,2+status,0+pclath+cstack]
 10343                           
 10344                           
 10345                           ;mcc_generated_files/tmr1.c: 161:     PIR1bits.TMR1IF = 0;
 10346  0C80  0020               	movlb	0	; select bank0
 10347  0C81  1011               	bcf	17,0	;volatile
 10348  0C82                     i1l3084:
 10349                           
 10350                           ;mcc_generated_files/tmr1.c: 162:     TMR1_WriteTimer(timer1ReloadVal);
 10351  0C82  0021               	movlb	1	; select bank1
 10352  0C83  084F               	movf	(_timer1ReloadVal+1)^(0+128),w	;volatile
 10353  0C84  00F1               	movwf	TMR1_WriteTimer@timerVal+1
 10354  0C85  084E               	movf	_timer1ReloadVal^(0+128),w	;volatile
 10355  0C86  00F0               	movwf	TMR1_WriteTimer@timerVal
 10356  0C87  318B  23F8  318C   	fcall	_TMR1_WriteTimer
 10357  0C8A                     i1l3086:
 10358                           
 10359                           ;mcc_generated_files/tmr1.c: 164:     if(TMR1_InterruptHandler)
 10360  0C8A  0021               	movlb	1	; select bank1
 10361  0C8B  084C               	movf	_TMR1_InterruptHandler^(0+128),w
 10362  0C8C  044D               	iorwf	(_TMR1_InterruptHandler+1)^(0+128),w
 10363  0C8D  1903               	btfsc	3,2
 10364  0C8E  2C90               	goto	u206_21
 10365  0C8F  2C91               	goto	u206_20
 10366  0C90                     u206_21:
 10367  0C90  2C96               	goto	i1l374
 10368  0C91                     u206_20:
 10369  0C91                     i1l3088:
 10370                           
 10371                           ;mcc_generated_files/tmr1.c: 165:     {;mcc_generated_files/tmr1.c: 166:         TMR1_In
      +                          terruptHandler();
 10372  0C91  084D               	movf	(_TMR1_InterruptHandler+1)^(0+128),w
 10373  0C92  008A               	movwf	10
 10374  0C93  084C               	movf	_TMR1_InterruptHandler^(0+128),w
 10375  0C94  000A               	callw
 10376  0C95  318C               	pagesel	$
 10377  0C96                     i1l374:
 10378  0C96  0008               	return
 10379  0C97                     __end_of_TMR1_ISR:
 10380                           
 10381                           	psect	text52
 10382  0AD8                     __ptext52:	
 10383 ;; *************** function _TMR1_DefaultInterruptHandler *****************
 10384 ;; Defined at:
 10385 ;;		line 175 in file "mcc_generated_files/tmr1.c"
 10386 ;; Parameters:    Size  Location     Type
 10387 ;;		None
 10388 ;; Auto vars:     Size  Location     Type
 10389 ;;		None
 10390 ;; Return value:  Size  Location     Type
 10391 ;;                  1    wreg      void 
 10392 ;; Registers used:
 10393 ;;		None
 10394 ;; Tracked objects:
 10395 ;;		On entry : 0/0
 10396 ;;		On exit  : 0/0
 10397 ;;		Unchanged: 0/0
 10398 ;; Data sizes:     COMMON   BANK0   BANK1   BANK2   BANK3   BANK4
 10399 ;;      Params:         0       0       0       0       0       0
 10400 ;;      Locals:         0       0       0       0       0       0
 10401 ;;      Temps:          0       0       0       0       0       0
 10402 ;;      Totals:         0       0       0       0       0       0
 10403 ;;Total ram usage:        0 bytes
 10404 ;; Hardware stack levels used: 1
 10405 ;; This function calls:
 10406 ;;		Nothing
 10407 ;; This function is called by:
 10408 ;;		_TMR1_Initialize
 10409 ;;		_TMR1_ISR
 10410 ;; This function uses a non-reentrant model
 10411 ;;
 10412                           
 10413                           
 10414                           ;psect for function _TMR1_DefaultInterruptHandler
 10415  0AD8                     _TMR1_DefaultInterruptHandler:
 10416  0AD8                     i1l380:	
 10417                           ;incstack = 0
 10418                           ; Regs used in _TMR1_DefaultInterruptHandler: []
 10419                           
 10420  0AD8  0008               	return
 10421  0AD9                     __end_of_TMR1_DefaultInterruptHandler:
 10422                           
 10423                           	psect	text53
 10424  0C09                     __ptext53:	
 10425 ;; *************** function _PIN_MANAGER_IOC *****************
 10426 ;; Defined at:
 10427 ;;		line 119 in file "mcc_generated_files/pin_manager.c"
 10428 ;; Parameters:    Size  Location     Type
 10429 ;;		None
 10430 ;; Auto vars:     Size  Location     Type
 10431 ;;		None
 10432 ;; Return value:  Size  Location     Type
 10433 ;;                  1    wreg      void 
 10434 ;; Registers used:
 10435 ;;		wreg, status,2, status,0, pclath, cstack
 10436 ;; Tracked objects:
 10437 ;;		On entry : 0/0
 10438 ;;		On exit  : 0/0
 10439 ;;		Unchanged: 0/0
 10440 ;; Data sizes:     COMMON   BANK0   BANK1   BANK2   BANK3   BANK4
 10441 ;;      Params:         0       0       0       0       0       0
 10442 ;;      Locals:         0       0       0       0       0       0
 10443 ;;      Temps:          0       0       0       0       0       0
 10444 ;;      Totals:         0       0       0       0       0       0
 10445 ;;Total ram usage:        0 bytes
 10446 ;; Hardware stack levels used: 1
 10447 ;; Hardware stack levels required when called: 3
 10448 ;; This function calls:
 10449 ;;		_IOCBF0_ISR
 10450 ;;		_IOCBF3_ISR
 10451 ;; This function is called by:
 10452 ;;		_INTERRUPT_InterruptManager
 10453 ;; This function uses a non-reentrant model
 10454 ;;
 10455                           
 10456                           
 10457                           ;psect for function _PIN_MANAGER_IOC
 10458  0C09                     _PIN_MANAGER_IOC:
 10459  0C09                     i1l3060:	
 10460                           ;incstack = 0
 10461                           ; Regs used in _PIN_MANAGER_IOC: [wreg+status,2+status,0+pclath+cstack]
 10462                           
 10463                           
 10464                           ;mcc_generated_files/pin_manager.c: 122:     if(IOCBFbits.IOCBF0 == 1)
 10465  0C09  0027               	movlb	7	; select bank7
 10466  0C0A  1C16               	btfss	22,0	;volatile
 10467  0C0B  2C0D               	goto	u203_21
 10468  0C0C  2C0E               	goto	u203_20
 10469  0C0D                     u203_21:
 10470  0C0D  2C11               	goto	i1l3064
 10471  0C0E                     u203_20:
 10472  0C0E                     i1l3062:
 10473                           
 10474                           ;mcc_generated_files/pin_manager.c: 123:     {;mcc_generated_files/pin_manager.c: 124:  
      +                                 IOCBF0_ISR();
 10475  0C0E  318B  23BB  318C   	fcall	_IOCBF0_ISR
 10476  0C11                     i1l3064:
 10477                           
 10478                           ;mcc_generated_files/pin_manager.c: 127:     if(IOCBFbits.IOCBF3 == 1)
 10479  0C11  0027               	movlb	7	; select bank7
 10480  0C12  1D96               	btfss	22,3	;volatile
 10481  0C13  2C15               	goto	u204_21
 10482  0C14  2C16               	goto	u204_20
 10483  0C15                     u204_21:
 10484  0C15  2C19               	goto	i1l101
 10485  0C16                     u204_20:
 10486  0C16                     i1l3066:
 10487                           
 10488                           ;mcc_generated_files/pin_manager.c: 128:     {;mcc_generated_files/pin_manager.c: 129:  
      +                                 IOCBF3_ISR();
 10489  0C16  318B  23CA  318C   	fcall	_IOCBF3_ISR
 10490  0C19                     i1l101:
 10491  0C19  0008               	return
 10492  0C1A                     __end_of_PIN_MANAGER_IOC:
 10493                           
 10494                           	psect	text54
 10495  0BCA                     __ptext54:	
 10496 ;; *************** function _IOCBF3_ISR *****************
 10497 ;; Defined at:
 10498 ;;		line 166 in file "mcc_generated_files/pin_manager.c"
 10499 ;; Parameters:    Size  Location     Type
 10500 ;;		None
 10501 ;; Auto vars:     Size  Location     Type
 10502 ;;		None
 10503 ;; Return value:  Size  Location     Type
 10504 ;;                  1    wreg      void 
 10505 ;; Registers used:
 10506 ;;		wreg, status,2, status,0, pclath, cstack
 10507 ;; Tracked objects:
 10508 ;;		On entry : 0/0
 10509 ;;		On exit  : 0/0
 10510 ;;		Unchanged: 0/0
 10511 ;; Data sizes:     COMMON   BANK0   BANK1   BANK2   BANK3   BANK4
 10512 ;;      Params:         0       0       0       0       0       0
 10513 ;;      Locals:         0       0       0       0       0       0
 10514 ;;      Temps:          0       0       0       0       0       0
 10515 ;;      Totals:         0       0       0       0       0       0
 10516 ;;Total ram usage:        0 bytes
 10517 ;; Hardware stack levels used: 1
 10518 ;; Hardware stack levels required when called: 1
 10519 ;; This function calls:
 10520 ;;		Absolute function
 10521 ;;		_IOCBF3_DefaultInterruptHandler
 10522 ;;		_S2
 10523 ;; This function is called by:
 10524 ;;		_PIN_MANAGER_IOC
 10525 ;; This function uses a non-reentrant model
 10526 ;;
 10527                           
 10528                           
 10529                           ;psect for function _IOCBF3_ISR
 10530  0BCA                     _IOCBF3_ISR:
 10531  0BCA                     i1l2946:	
 10532                           ;incstack = 0
 10533                           ; Regs used in _IOCBF3_ISR: [wreg+status,2+status,0+pclath+cstack]
 10534                           
 10535                           
 10536                           ;mcc_generated_files/pin_manager.c: 171:     if(IOCBF3_InterruptHandler)
 10537  0BCA  0021               	movlb	1	; select bank1
 10538  0BCB  0856               	movf	_IOCBF3_InterruptHandler^(0+128),w
 10539  0BCC  0457               	iorwf	(_IOCBF3_InterruptHandler+1)^(0+128),w
 10540  0BCD  1903               	btfsc	3,2
 10541  0BCE  2BD0               	goto	u186_21
 10542  0BCF  2BD1               	goto	u186_20
 10543  0BD0                     u186_21:
 10544  0BD0  2BD6               	goto	i1l2950
 10545  0BD1                     u186_20:
 10546  0BD1                     i1l2948:
 10547                           
 10548                           ;mcc_generated_files/pin_manager.c: 172:     {;mcc_generated_files/pin_manager.c: 173:  
      +                                 IOCBF3_InterruptHandler();
 10549  0BD1  0857               	movf	(_IOCBF3_InterruptHandler+1)^(0+128),w
 10550  0BD2  008A               	movwf	10
 10551  0BD3  0856               	movf	_IOCBF3_InterruptHandler^(0+128),w
 10552  0BD4  000A               	callw
 10553  0BD5  318B               	pagesel	$
 10554  0BD6                     i1l2950:
 10555                           
 10556                           ;mcc_generated_files/pin_manager.c: 175:     IOCBFbits.IOCBF3 = 0;
 10557  0BD6  0027               	movlb	7	; select bank7
 10558  0BD7  1196               	bcf	22,3	;volatile
 10559  0BD8                     i1l115:
 10560  0BD8  0008               	return
 10561  0BD9                     __end_of_IOCBF3_ISR:
 10562                           
 10563                           	psect	text55
 10564  0AD7                     __ptext55:	
 10565 ;; *************** function _IOCBF3_DefaultInterruptHandler *****************
 10566 ;; Defined at:
 10567 ;;		line 188 in file "mcc_generated_files/pin_manager.c"
 10568 ;; Parameters:    Size  Location     Type
 10569 ;;		None
 10570 ;; Auto vars:     Size  Location     Type
 10571 ;;		None
 10572 ;; Return value:  Size  Location     Type
 10573 ;;                  1    wreg      void 
 10574 ;; Registers used:
 10575 ;;		None
 10576 ;; Tracked objects:
 10577 ;;		On entry : 0/0
 10578 ;;		On exit  : 0/0
 10579 ;;		Unchanged: 0/0
 10580 ;; Data sizes:     COMMON   BANK0   BANK1   BANK2   BANK3   BANK4
 10581 ;;      Params:         0       0       0       0       0       0
 10582 ;;      Locals:         0       0       0       0       0       0
 10583 ;;      Temps:          0       0       0       0       0       0
 10584 ;;      Totals:         0       0       0       0       0       0
 10585 ;;Total ram usage:        0 bytes
 10586 ;; Hardware stack levels used: 1
 10587 ;; This function calls:
 10588 ;;		Nothing
 10589 ;; This function is called by:
 10590 ;;		_PIN_MANAGER_Initialize
 10591 ;;		_IOCBF3_ISR
 10592 ;; This function uses a non-reentrant model
 10593 ;;
 10594                           
 10595                           
 10596                           ;psect for function _IOCBF3_DefaultInterruptHandler
 10597  0AD7                     _IOCBF3_DefaultInterruptHandler:
 10598  0AD7                     i1l121:	
 10599                           ;incstack = 0
 10600                           ; Regs used in _IOCBF3_DefaultInterruptHandler: []
 10601                           
 10602  0AD7  0008               	return
 10603  0AD8                     __end_of_IOCBF3_DefaultInterruptHandler:
 10604                           
 10605                           	psect	text56
 10606  0AFF                     __ptext56:	
 10607 ;; *************** function _S2 *****************
 10608 ;; Defined at:
 10609 ;;		line 187 in file "main.c"
 10610 ;; Parameters:    Size  Location     Type
 10611 ;;		None
 10612 ;; Auto vars:     Size  Location     Type
 10613 ;;		None
 10614 ;; Return value:  Size  Location     Type
 10615 ;;                  1    wreg      void 
 10616 ;; Registers used:
 10617 ;;		wreg
 10618 ;; Tracked objects:
 10619 ;;		On entry : 0/0
 10620 ;;		On exit  : 0/0
 10621 ;;		Unchanged: 0/0
 10622 ;; Data sizes:     COMMON   BANK0   BANK1   BANK2   BANK3   BANK4
 10623 ;;      Params:         0       0       0       0       0       0
 10624 ;;      Locals:         0       0       0       0       0       0
 10625 ;;      Temps:          0       0       0       0       0       0
 10626 ;;      Totals:         0       0       0       0       0       0
 10627 ;;Total ram usage:        0 bytes
 10628 ;; Hardware stack levels used: 1
 10629 ;; This function calls:
 10630 ;;		Nothing
 10631 ;; This function is called by:
 10632 ;;		_main
 10633 ;;		_IOCBF3_ISR
 10634 ;; This function uses a non-reentrant model
 10635 ;;
 10636                           
 10637                           
 10638                           ;psect for function _S2
 10639  0AFF                     _S2:
 10640  0AFF                     i1l2756:	
 10641                           ;incstack = 0
 10642                           ; Regs used in _S2: [wreg]
 10643                           
 10644                           
 10645                           ;main.c: 189:  pos_atual = 1;
 10646  0AFF  3001               	movlw	1
 10647  0B00  0020               	movlb	0	; select bank0
 10648  0B01  00E9               	movwf	_pos_atual
 10649  0B02  3000               	movlw	0
 10650  0B03  00EA               	movwf	_pos_atual+1
 10651  0B04                     i1l766:
 10652  0B04  0008               	return
 10653  0B05                     __end_of_S2:
 10654                           
 10655                           	psect	text57
 10656  0BBB                     __ptext57:	
 10657 ;; *************** function _IOCBF0_ISR *****************
 10658 ;; Defined at:
 10659 ;;		line 136 in file "mcc_generated_files/pin_manager.c"
 10660 ;; Parameters:    Size  Location     Type
 10661 ;;		None
 10662 ;; Auto vars:     Size  Location     Type
 10663 ;;		None
 10664 ;; Return value:  Size  Location     Type
 10665 ;;                  1    wreg      void 
 10666 ;; Registers used:
 10667 ;;		wreg, status,2, status,0, pclath, cstack
 10668 ;; Tracked objects:
 10669 ;;		On entry : 0/0
 10670 ;;		On exit  : 0/0
 10671 ;;		Unchanged: 0/0
 10672 ;; Data sizes:     COMMON   BANK0   BANK1   BANK2   BANK3   BANK4
 10673 ;;      Params:         0       0       0       0       0       0
 10674 ;;      Locals:         0       0       0       0       0       0
 10675 ;;      Temps:          0       0       0       0       0       0
 10676 ;;      Totals:         0       0       0       0       0       0
 10677 ;;Total ram usage:        0 bytes
 10678 ;; Hardware stack levels used: 1
 10679 ;; Hardware stack levels required when called: 2
 10680 ;; This function calls:
 10681 ;;		Absolute function
 10682 ;;		_IOCBF0_DefaultInterruptHandler
 10683 ;;		_S1
 10684 ;; This function is called by:
 10685 ;;		_PIN_MANAGER_IOC
 10686 ;; This function uses a non-reentrant model
 10687 ;;
 10688                           
 10689                           
 10690                           ;psect for function _IOCBF0_ISR
 10691  0BBB                     _IOCBF0_ISR:
 10692  0BBB                     i1l2940:	
 10693                           ;incstack = 0
 10694                           ; Regs used in _IOCBF0_ISR: [wreg+status,2+status,0+pclath+cstack]
 10695                           
 10696                           
 10697                           ;mcc_generated_files/pin_manager.c: 141:     if(IOCBF0_InterruptHandler)
 10698  0BBB  0021               	movlb	1	; select bank1
 10699  0BBC  0858               	movf	_IOCBF0_InterruptHandler^(0+128),w
 10700  0BBD  0459               	iorwf	(_IOCBF0_InterruptHandler+1)^(0+128),w
 10701  0BBE  1903               	btfsc	3,2
 10702  0BBF  2BC1               	goto	u185_21
 10703  0BC0  2BC2               	goto	u185_20
 10704  0BC1                     u185_21:
 10705  0BC1  2BC7               	goto	i1l2944
 10706  0BC2                     u185_20:
 10707  0BC2                     i1l2942:
 10708                           
 10709                           ;mcc_generated_files/pin_manager.c: 142:     {;mcc_generated_files/pin_manager.c: 143:  
      +                                 IOCBF0_InterruptHandler();
 10710  0BC2  0859               	movf	(_IOCBF0_InterruptHandler+1)^(0+128),w
 10711  0BC3  008A               	movwf	10
 10712  0BC4  0858               	movf	_IOCBF0_InterruptHandler^(0+128),w
 10713  0BC5  000A               	callw
 10714  0BC6  318B               	pagesel	$
 10715  0BC7                     i1l2944:
 10716                           
 10717                           ;mcc_generated_files/pin_manager.c: 145:     IOCBFbits.IOCBF0 = 0;
 10718  0BC7  0027               	movlb	7	; select bank7
 10719  0BC8  1016               	bcf	22,0	;volatile
 10720  0BC9                     i1l105:
 10721  0BC9  0008               	return
 10722  0BCA                     __end_of_IOCBF0_ISR:
 10723                           
 10724                           	psect	text58
 10725  0AD6                     __ptext58:	
 10726 ;; *************** function _IOCBF0_DefaultInterruptHandler *****************
 10727 ;; Defined at:
 10728 ;;		line 158 in file "mcc_generated_files/pin_manager.c"
 10729 ;; Parameters:    Size  Location     Type
 10730 ;;		None
 10731 ;; Auto vars:     Size  Location     Type
 10732 ;;		None
 10733 ;; Return value:  Size  Location     Type
 10734 ;;                  1    wreg      void 
 10735 ;; Registers used:
 10736 ;;		None
 10737 ;; Tracked objects:
 10738 ;;		On entry : 0/0
 10739 ;;		On exit  : 0/0
 10740 ;;		Unchanged: 0/0
 10741 ;; Data sizes:     COMMON   BANK0   BANK1   BANK2   BANK3   BANK4
 10742 ;;      Params:         0       0       0       0       0       0
 10743 ;;      Locals:         0       0       0       0       0       0
 10744 ;;      Temps:          0       0       0       0       0       0
 10745 ;;      Totals:         0       0       0       0       0       0
 10746 ;;Total ram usage:        0 bytes
 10747 ;; Hardware stack levels used: 1
 10748 ;; This function calls:
 10749 ;;		Nothing
 10750 ;; This function is called by:
 10751 ;;		_PIN_MANAGER_Initialize
 10752 ;;		_IOCBF0_ISR
 10753 ;; This function uses a non-reentrant model
 10754 ;;
 10755                           
 10756                           
 10757                           ;psect for function _IOCBF0_DefaultInterruptHandler
 10758  0AD6                     _IOCBF0_DefaultInterruptHandler:
 10759  0AD6                     i1l111:	
 10760                           ;incstack = 0
 10761                           ; Regs used in _IOCBF0_DefaultInterruptHandler: []
 10762                           
 10763  0AD6  0008               	return
 10764  0AD7                     __end_of_IOCBF0_DefaultInterruptHandler:
 10765                           
 10766                           	psect	text59
 10767  0BAC                     __ptext59:	
 10768 ;; *************** function _S1 *****************
 10769 ;; Defined at:
 10770 ;;		line 178 in file "main.c"
 10771 ;; Parameters:    Size  Location     Type
 10772 ;;		None
 10773 ;; Auto vars:     Size  Location     Type
 10774 ;;		None
 10775 ;; Return value:  Size  Location     Type
 10776 ;;                  1    wreg      void 
 10777 ;; Registers used:
 10778 ;;		wreg, status,2, status,0, pclath, cstack
 10779 ;; Tracked objects:
 10780 ;;		On entry : 0/0
 10781 ;;		On exit  : 0/0
 10782 ;;		Unchanged: 0/0
 10783 ;; Data sizes:     COMMON   BANK0   BANK1   BANK2   BANK3   BANK4
 10784 ;;      Params:         0       0       0       0       0       0
 10785 ;;      Locals:         0       0       0       0       0       0
 10786 ;;      Temps:          0       0       0       0       0       0
 10787 ;;      Totals:         0       0       0       0       0       0
 10788 ;;Total ram usage:        0 bytes
 10789 ;; Hardware stack levels used: 1
 10790 ;; Hardware stack levels required when called: 1
 10791 ;; This function calls:
 10792 ;;		i1_PWM3_LoadDutyValue
 10793 ;; This function is called by:
 10794 ;;		_main
 10795 ;;		_IOCBF0_ISR
 10796 ;; This function uses a non-reentrant model
 10797 ;;
 10798                           
 10799                           
 10800                           ;psect for function _S1
 10801  0BAC                     _S1:
 10802  0BAC                     i1l2750:	
 10803                           ;incstack = 0
 10804                           ; Regs used in _S1: [wreg+status,2+status,0+pclath+cstack]
 10805                           
 10806                           
 10807                           ;main.c: 180:  pos_atual = 0;
 10808  0BAC  0020               	movlb	0	; select bank0
 10809  0BAD  01E9               	clrf	_pos_atual
 10810  0BAE  01EA               	clrf	_pos_atual+1
 10811                           
 10812                           ;main.c: 181:  pulsos = 0;
 10813  0BAF  0021               	movlb	1	; select bank1
 10814  0BB0  01C0               	clrf	_pulsos^(0+128)
 10815  0BB1  01C1               	clrf	(_pulsos+1)^(0+128)
 10816  0BB2                     i1l2752:
 10817                           
 10818                           ;main.c: 182:     PWM3_LoadDutyValue(0);
 10819  0BB2  3000               	movlw	0
 10820  0BB3  00F0               	movwf	i1PWM3_LoadDutyValue@dutyValue
 10821  0BB4  00F1               	movwf	i1PWM3_LoadDutyValue@dutyValue+1
 10822  0BB5  318C  2469  318B   	fcall	i1_PWM3_LoadDutyValue
 10823  0BB8                     i1l2754:
 10824  0BB8  0022               	movlb	2	; select bank2
 10825  0BB9  178C               	bsf	12,7	;volatile
 10826  0BBA                     i1l763:
 10827  0BBA  0008               	return
 10828  0BBB                     __end_of_S1:
 10829                           
 10830                           	psect	text60
 10831  0AF9                     __ptext60:	
 10832 ;; *************** function _CMP2_ISR *****************
 10833 ;; Defined at:
 10834 ;;		line 215 in file "main.c"
 10835 ;; Parameters:    Size  Location     Type
 10836 ;;		None
 10837 ;; Auto vars:     Size  Location     Type
 10838 ;;		None
 10839 ;; Return value:  Size  Location     Type
 10840 ;;                  1    wreg      void 
 10841 ;; Registers used:
 10842 ;;		wreg, status,2, status,0, pclath, cstack
 10843 ;; Tracked objects:
 10844 ;;		On entry : 0/0
 10845 ;;		On exit  : 0/0
 10846 ;;		Unchanged: 0/0
 10847 ;; Data sizes:     COMMON   BANK0   BANK1   BANK2   BANK3   BANK4
 10848 ;;      Params:         0       0       0       0       0       0
 10849 ;;      Locals:         0       0       0       0       0       0
 10850 ;;      Temps:          0       0       0       0       0       0
 10851 ;;      Totals:         0       0       0       0       0       0
 10852 ;;Total ram usage:        0 bytes
 10853 ;; Hardware stack levels used: 1
 10854 ;; Hardware stack levels required when called: 2
 10855 ;; This function calls:
 10856 ;;		_S4
 10857 ;; This function is called by:
 10858 ;;		_INTERRUPT_InterruptManager
 10859 ;; This function uses a non-reentrant model
 10860 ;;
 10861                           
 10862                           
 10863                           ;psect for function _CMP2_ISR
 10864  0AF9                     _CMP2_ISR:
 10865  0AF9                     i1l3102:	
 10866                           ;incstack = 0
 10867                           ; Regs used in _CMP2_ISR: [wreg+status,2+status,0+pclath+cstack]
 10868                           
 10869                           
 10870                           ;main.c: 217:     S4();
 10871  0AF9  318C  242C  318A   	fcall	_S4
 10872  0AFC                     i1l3104:
 10873                           
 10874                           ;main.c: 219:     PIR2bits.C1IF = 0;
 10875  0AFC  0020               	movlb	0	; select bank0
 10876  0AFD  1292               	bcf	18,5	;volatile
 10877  0AFE                     i1l780:
 10878  0AFE  0008               	return
 10879  0AFF                     __end_of_CMP2_ISR:
 10880                           
 10881                           	psect	text61
 10882  0C2C                     __ptext61:	
 10883 ;; *************** function _S4 *****************
 10884 ;; Defined at:
 10885 ;;		line 206 in file "main.c"
 10886 ;; Parameters:    Size  Location     Type
 10887 ;;		None
 10888 ;; Auto vars:     Size  Location     Type
 10889 ;;		None
 10890 ;; Return value:  Size  Location     Type
 10891 ;;                  1    wreg      void 
 10892 ;; Registers used:
 10893 ;;		wreg, status,2, status,0, pclath, cstack
 10894 ;; Tracked objects:
 10895 ;;		On entry : 0/0
 10896 ;;		On exit  : 0/0
 10897 ;;		Unchanged: 0/0
 10898 ;; Data sizes:     COMMON   BANK0   BANK1   BANK2   BANK3   BANK4
 10899 ;;      Params:         0       0       0       0       0       0
 10900 ;;      Locals:         0       0       0       0       0       0
 10901 ;;      Temps:          0       0       0       0       0       0
 10902 ;;      Totals:         0       0       0       0       0       0
 10903 ;;Total ram usage:        0 bytes
 10904 ;; Hardware stack levels used: 1
 10905 ;; Hardware stack levels required when called: 1
 10906 ;; This function calls:
 10907 ;;		i1_PWM3_LoadDutyValue
 10908 ;; This function is called by:
 10909 ;;		_CMP2_ISR
 10910 ;; This function uses a non-reentrant model
 10911 ;;
 10912                           
 10913                           
 10914                           ;psect for function _S4
 10915  0C2C                     _S4:
 10916  0C2C                     i1l3038:	
 10917                           ;incstack = 0
 10918                           ; Regs used in _S4: [wreg+status,2+status,0+pclath+cstack]
 10919                           
 10920                           
 10921                           ;main.c: 208:  pos_atual = 3;
 10922  0C2C  3003               	movlw	3
 10923  0C2D  0020               	movlb	0	; select bank0
 10924  0C2E  00E9               	movwf	_pos_atual
 10925  0C2F  3000               	movlw	0
 10926  0C30  00EA               	movwf	_pos_atual+1
 10927                           
 10928                           ;main.c: 209:  pulsos = 215;
 10929  0C31  30D7               	movlw	215
 10930  0C32  0021               	movlb	1	; select bank1
 10931  0C33  00C0               	movwf	_pulsos^(0+128)
 10932  0C34  3000               	movlw	0
 10933  0C35  00C1               	movwf	(_pulsos^(0+128)+1)
 10934  0C36                     i1l3040:
 10935                           
 10936                           ;main.c: 210:     PWM3_LoadDutyValue(0);
 10937  0C36  3000               	movlw	0
 10938  0C37  00F0               	movwf	i1PWM3_LoadDutyValue@dutyValue
 10939  0C38  00F1               	movwf	i1PWM3_LoadDutyValue@dutyValue+1
 10940  0C39  318C  2469  318C   	fcall	i1_PWM3_LoadDutyValue
 10941  0C3C                     i1l3042:
 10942  0C3C  0022               	movlb	2	; select bank2
 10943  0C3D  138C               	bcf	12,7	;volatile
 10944  0C3E                     i1l777:
 10945  0C3E  0008               	return
 10946  0C3F                     __end_of_S4:
 10947                           
 10948                           	psect	text62
 10949  0AF3                     __ptext62:	
 10950 ;; *************** function _CMP1_ISR *****************
 10951 ;; Defined at:
 10952 ;;		line 199 in file "main.c"
 10953 ;; Parameters:    Size  Location     Type
 10954 ;;		None
 10955 ;; Auto vars:     Size  Location     Type
 10956 ;;		None
 10957 ;; Return value:  Size  Location     Type
 10958 ;;                  1    wreg      void 
 10959 ;; Registers used:
 10960 ;;		wreg, status,2, status,0, pclath, cstack
 10961 ;; Tracked objects:
 10962 ;;		On entry : 0/0
 10963 ;;		On exit  : 0/0
 10964 ;;		Unchanged: 0/0
 10965 ;; Data sizes:     COMMON   BANK0   BANK1   BANK2   BANK3   BANK4
 10966 ;;      Params:         0       0       0       0       0       0
 10967 ;;      Locals:         0       0       0       0       0       0
 10968 ;;      Temps:          0       0       0       0       0       0
 10969 ;;      Totals:         0       0       0       0       0       0
 10970 ;;Total ram usage:        0 bytes
 10971 ;; Hardware stack levels used: 1
 10972 ;; Hardware stack levels required when called: 1
 10973 ;; This function calls:
 10974 ;;		_S3
 10975 ;; This function is called by:
 10976 ;;		_INTERRUPT_InterruptManager
 10977 ;; This function uses a non-reentrant model
 10978 ;;
 10979                           
 10980                           
 10981                           ;psect for function _CMP1_ISR
 10982  0AF3                     _CMP1_ISR:
 10983  0AF3                     i1l3106:	
 10984                           ;incstack = 0
 10985                           ; Regs used in _CMP1_ISR: [wreg+status,2+status,0+pclath+cstack]
 10986                           
 10987                           
 10988                           ;main.c: 201:     S3();
 10989  0AF3  318A  22ED  318A   	fcall	_S3
 10990  0AF6                     i1l3108:
 10991                           
 10992                           ;main.c: 203:     PIR2bits.C1IF = 0;
 10993  0AF6  0020               	movlb	0	; select bank0
 10994  0AF7  1292               	bcf	18,5	;volatile
 10995  0AF8                     i1l772:
 10996  0AF8  0008               	return
 10997  0AF9                     __end_of_CMP1_ISR:
 10998                           
 10999                           	psect	text63
 11000  0AED                     __ptext63:	
 11001 ;; *************** function _S3 *****************
 11002 ;; Defined at:
 11003 ;;		line 193 in file "main.c"
 11004 ;; Parameters:    Size  Location     Type
 11005 ;;		None
 11006 ;; Auto vars:     Size  Location     Type
 11007 ;;		None
 11008 ;; Return value:  Size  Location     Type
 11009 ;;                  1    wreg      void 
 11010 ;; Registers used:
 11011 ;;		wreg
 11012 ;; Tracked objects:
 11013 ;;		On entry : 0/0
 11014 ;;		On exit  : 0/0
 11015 ;;		Unchanged: 0/0
 11016 ;; Data sizes:     COMMON   BANK0   BANK1   BANK2   BANK3   BANK4
 11017 ;;      Params:         0       0       0       0       0       0
 11018 ;;      Locals:         0       0       0       0       0       0
 11019 ;;      Temps:          0       0       0       0       0       0
 11020 ;;      Totals:         0       0       0       0       0       0
 11021 ;;Total ram usage:        0 bytes
 11022 ;; Hardware stack levels used: 1
 11023 ;; This function calls:
 11024 ;;		Nothing
 11025 ;; This function is called by:
 11026 ;;		_CMP1_ISR
 11027 ;; This function uses a non-reentrant model
 11028 ;;
 11029                           
 11030                           
 11031                           ;psect for function _S3
 11032  0AED                     _S3:
 11033  0AED                     i1l3036:	
 11034                           ;incstack = 0
 11035                           ; Regs used in _S3: [wreg]
 11036                           
 11037                           
 11038                           ;main.c: 195:  pos_atual = 2;
 11039  0AED  3002               	movlw	2
 11040  0AEE  0020               	movlb	0	; select bank0
 11041  0AEF  00E9               	movwf	_pos_atual
 11042  0AF0  3000               	movlw	0
 11043  0AF1  00EA               	movwf	_pos_atual+1
 11044  0AF2                     i1l769:
 11045  0AF2  0008               	return
 11046  0AF3                     __end_of_S3:
 11047                           
 11048                           	psect	text64
 11049  0C53                     __ptext64:	
 11050 ;; *************** function _CCP4_CaptureISR *****************
 11051 ;; Defined at:
 11052 ;;		line 89 in file "mcc_generated_files/ccp4.c"
 11053 ;; Parameters:    Size  Location     Type
 11054 ;;		None
 11055 ;; Auto vars:     Size  Location     Type
 11056 ;;  module          2    8[COMMON] struct CCPR4Reg_tag
 11057 ;; Return value:  Size  Location     Type
 11058 ;;                  1    wreg      void 
 11059 ;; Registers used:
 11060 ;;		wreg, status,2, status,0, pclath, cstack
 11061 ;; Tracked objects:
 11062 ;;		On entry : 0/0
 11063 ;;		On exit  : 0/0
 11064 ;;		Unchanged: 0/0
 11065 ;; Data sizes:     COMMON   BANK0   BANK1   BANK2   BANK3   BANK4
 11066 ;;      Params:         0       0       0       0       0       0
 11067 ;;      Locals:         2       0       0       0       0       0
 11068 ;;      Temps:          1       0       0       0       0       0
 11069 ;;      Totals:         3       0       0       0       0       0
 11070 ;;Total ram usage:        3 bytes
 11071 ;; Hardware stack levels used: 1
 11072 ;; Hardware stack levels required when called: 2
 11073 ;; This function calls:
 11074 ;;		Absolute function
 11075 ;;		_CCP4_DefaultCallBack
 11076 ;;		_Enc
 11077 ;; This function is called by:
 11078 ;;		_INTERRUPT_InterruptManager
 11079 ;; This function uses a non-reentrant model
 11080 ;;
 11081                           
 11082                           
 11083                           ;psect for function _CCP4_CaptureISR
 11084  0C53                     _CCP4_CaptureISR:
 11085  0C53                     i1l3110:	
 11086                           ;incstack = 0
 11087                           ; Regs used in _CCP4_CaptureISR: [wreg+status,2+status,0+pclath+cstack]
 11088                           
 11089                           
 11090                           ;mcc_generated_files/ccp4.c: 91:     CCP4_PERIOD_REG_T module;;mcc_generated_files/ccp4.
      +                          c: 94:     PIR3bits.CCP4IF = 0;
 11091  0C53  0020               	movlb	0	; select bank0
 11092  0C54  1293               	bcf	19,5	;volatile
 11093  0C55                     i1l3112:
 11094                           
 11095                           ;mcc_generated_files/ccp4.c: 97:     module.ccpr4l = CCPR4L;
 11096  0C55  0026               	movlb	6	; select bank6
 11097  0C56  0818               	movf	24,w	;volatile
 11098  0C57  00F7               	movwf	??_CCP4_CaptureISR
 11099  0C58  0877               	movf	??_CCP4_CaptureISR,w
 11100  0C59  00F8               	movwf	CCP4_CaptureISR@module
 11101                           
 11102                           ;mcc_generated_files/ccp4.c: 98:     module.ccpr4h = CCPR4H;
 11103  0C5A  0819               	movf	25,w	;volatile
 11104  0C5B  00F7               	movwf	??_CCP4_CaptureISR
 11105  0C5C  0877               	movf	??_CCP4_CaptureISR,w
 11106  0C5D  00F9               	movwf	CCP4_CaptureISR@module+1
 11107  0C5E                     i1l3114:
 11108                           
 11109                           ;mcc_generated_files/ccp4.c: 101:     CCP4_CallBack(module.ccpr4_16Bit);
 11110  0C5E  0879               	movf	CCP4_CaptureISR@module+1,w
 11111  0C5F  00F5               	movwf	Enc@colect_value+1
 11112  0C60  0878               	movf	CCP4_CaptureISR@module,w
 11113  0C61  00F4               	movwf	Enc@colect_value
 11114  0C62  0021               	movlb	1	; select bank1
 11115  0C63  0849               	movf	(_CCP4_CallBack+1)^(0+128),w
 11116  0C64  008A               	movwf	10
 11117  0C65  0848               	movf	_CCP4_CallBack^(0+128),w
 11118  0C66  000A               	callw
 11119  0C67  318C               	pagesel	$
 11120  0C68                     i1l588:
 11121  0C68  0008               	return
 11122  0C69                     __end_of_CCP4_CaptureISR:
 11123                           
 11124                           	psect	text65
 11125  0AD5                     __ptext65:	
 11126 ;; *************** function _CCP4_DefaultCallBack *****************
 11127 ;; Defined at:
 11128 ;;		line 60 in file "mcc_generated_files/ccp4.c"
 11129 ;; Parameters:    Size  Location     Type
 11130 ;;  capturedValu    2    4[COMMON] unsigned short 
 11131 ;; Auto vars:     Size  Location     Type
 11132 ;;		None
 11133 ;; Return value:  Size  Location     Type
 11134 ;;                  1    wreg      void 
 11135 ;; Registers used:
 11136 ;;		None
 11137 ;; Tracked objects:
 11138 ;;		On entry : 0/0
 11139 ;;		On exit  : 0/0
 11140 ;;		Unchanged: 0/0
 11141 ;; Data sizes:     COMMON   BANK0   BANK1   BANK2   BANK3   BANK4
 11142 ;;      Params:         2       0       0       0       0       0
 11143 ;;      Locals:         0       0       0       0       0       0
 11144 ;;      Temps:          0       0       0       0       0       0
 11145 ;;      Totals:         2       0       0       0       0       0
 11146 ;;Total ram usage:        2 bytes
 11147 ;; Hardware stack levels used: 1
 11148 ;; This function calls:
 11149 ;;		Nothing
 11150 ;; This function is called by:
 11151 ;;		_CCP4_Initialize
 11152 ;;		_CCP4_CaptureISR
 11153 ;; This function uses a non-reentrant model
 11154 ;;
 11155                           
 11156                           
 11157                           ;psect for function _CCP4_DefaultCallBack
 11158  0AD5                     _CCP4_DefaultCallBack:
 11159  0AD5                     i1l582:	
 11160                           ;incstack = 0
 11161                           ; Regs used in _CCP4_DefaultCallBack: []
 11162                           
 11163  0AD5  0008               	return
 11164  0AD6                     __end_of_CCP4_DefaultCallBack:
 11165                           
 11166                           	psect	text66
 11167  0E20                     __ptext66:	
 11168 ;; *************** function _Enc *****************
 11169 ;; Defined at:
 11170 ;;		line 158 in file "main.c"
 11171 ;; Parameters:    Size  Location     Type
 11172 ;;  colect_value    2    4[COMMON] unsigned short 
 11173 ;; Auto vars:     Size  Location     Type
 11174 ;;		None
 11175 ;; Return value:  Size  Location     Type
 11176 ;;                  1    wreg      void 
 11177 ;; Registers used:
 11178 ;;		wreg, status,2, status,0, pclath, cstack
 11179 ;; Tracked objects:
 11180 ;;		On entry : 0/0
 11181 ;;		On exit  : 0/0
 11182 ;;		Unchanged: 0/0
 11183 ;; Data sizes:     COMMON   BANK0   BANK1   BANK2   BANK3   BANK4
 11184 ;;      Params:         2       0       0       0       0       0
 11185 ;;      Locals:         0       0       0       0       0       0
 11186 ;;      Temps:          1       0       0       0       0       0
 11187 ;;      Totals:         3       0       0       0       0       0
 11188 ;;Total ram usage:        3 bytes
 11189 ;; Hardware stack levels used: 1
 11190 ;; Hardware stack levels required when called: 1
 11191 ;; This function calls:
 11192 ;;		_TMR1_WriteTimer
 11193 ;;		i1_PWM3_LoadDutyValue
 11194 ;; This function is called by:
 11195 ;;		_main
 11196 ;;		_CCP4_CaptureISR
 11197 ;; This function uses a non-reentrant model
 11198 ;;
 11199                           
 11200                           
 11201                           ;psect for function _Enc
 11202  0E20                     _Enc:
 11203  0E20                     i1l3014:	
 11204                           ;incstack = 0
 11205                           ; Regs used in _Enc: [wreg+status,2+status,0+pclath+cstack]
 11206                           
 11207                           
 11208                           ;main.c: 160:     TMR1_WriteTimer(0);
 11209  0E20  3000               	movlw	0
 11210  0E21  00F0               	movwf	TMR1_WriteTimer@timerVal
 11211  0E22  00F1               	movwf	TMR1_WriteTimer@timerVal+1
 11212  0E23  318B  23F8  318E   	fcall	_TMR1_WriteTimer
 11213  0E26                     i1l3016:
 11214                           
 11215                           ;main.c: 162:     if(motor==2 && pulsos >= 0){
 11216  0E26  3002               	movlw	2
 11217  0E27  0021               	movlb	1	; select bank1
 11218  0E28  0642               	xorwf	_motor^(0+128),w
 11219  0E29  0443               	iorwf	(_motor+1)^(0+128),w
 11220  0E2A  1D03               	btfss	3,2
 11221  0E2B  2E2D               	goto	u196_21
 11222  0E2C  2E2E               	goto	u196_20
 11223  0E2D                     u196_21:
 11224  0E2D  2E37               	goto	i1l3022
 11225  0E2E                     u196_20:
 11226  0E2E                     i1l3018:
 11227  0E2E  1BC1               	btfsc	(_pulsos+1)^(0+128),7
 11228  0E2F  2E31               	goto	u197_21
 11229  0E30  2E32               	goto	u197_20
 11230  0E31                     u197_21:
 11231  0E31  2E37               	goto	i1l3022
 11232  0E32                     u197_20:
 11233  0E32                     i1l3020:
 11234                           
 11235                           ;main.c: 163:         pulsos--;
 11236  0E32  30FF               	movlw	255
 11237  0E33  07C0               	addwf	_pulsos^(0+128),f
 11238  0E34  30FF               	movlw	255
 11239  0E35  3DC1               	addwfc	(_pulsos+1)^(0+128),f
 11240                           
 11241                           ;main.c: 164:     }
 11242  0E36  2E63               	goto	i1l758
 11243  0E37                     i1l3022:
 11244  0E37  0342               	decf	_motor^(0+128),w
 11245  0E38  0443               	iorwf	(_motor+1)^(0+128),w
 11246  0E39  1D03               	btfss	3,2
 11247  0E3A  2E3C               	goto	u198_21
 11248  0E3B  2E3D               	goto	u198_20
 11249  0E3C                     u198_21:
 11250  0E3C  2E50               	goto	i1l3028
 11251  0E3D                     u198_20:
 11252  0E3D                     i1l3024:
 11253  0E3D  0841               	movf	(_pulsos+1)^(0+128),w
 11254  0E3E  3A80               	xorlw	128
 11255  0E3F  00F6               	movwf	??_Enc
 11256  0E40  3080               	movlw	128
 11257  0E41  0276               	subwf	??_Enc,w
 11258  0E42  1D03               	skipz
 11259  0E43  2E46               	goto	u199_25
 11260  0E44  30D8               	movlw	216
 11261  0E45  0240               	subwf	_pulsos^(0+128),w
 11262  0E46                     u199_25:
 11263  0E46  1803               	skipnc
 11264  0E47  2E49               	goto	u199_21
 11265  0E48  2E4A               	goto	u199_20
 11266  0E49                     u199_21:
 11267  0E49  2E50               	goto	i1l3028
 11268  0E4A                     u199_20:
 11269  0E4A                     i1l3026:
 11270                           
 11271                           ;main.c: 166:         pulsos++;
 11272  0E4A  3001               	movlw	1
 11273  0E4B  0021               	movlb	1	; select bank1
 11274  0E4C  07C0               	addwf	_pulsos^(0+128),f
 11275  0E4D  3000               	movlw	0
 11276  0E4E  3DC1               	addwfc	(_pulsos+1)^(0+128),f
 11277                           
 11278                           ;main.c: 167:     }
 11279  0E4F  2E63               	goto	i1l758
 11280  0E50                     i1l3028:
 11281                           
 11282                           ;main.c: 169:         pulsos = 0;
 11283  0E50  0021               	movlb	1	; select bank1
 11284  0E51  01C0               	clrf	_pulsos^(0+128)
 11285  0E52  01C1               	clrf	(_pulsos+1)^(0+128)
 11286  0E53                     i1l3030:
 11287                           
 11288                           ;main.c: 170:         position = 0;
 11289  0E53  3000               	movlw	0
 11290  0E54  00BD               	movwf	(_position+3)^(0+128)
 11291  0E55  3000               	movlw	0
 11292  0E56  00BC               	movwf	(_position+2)^(0+128)
 11293  0E57  3000               	movlw	0
 11294  0E58  00BB               	movwf	(_position+1)^(0+128)
 11295  0E59  3000               	movlw	0
 11296  0E5A  00BA               	movwf	_position^(0+128)
 11297  0E5B                     i1l3032:
 11298                           
 11299                           ;main.c: 171:         speed = 0;
 11300  0E5B  01C4               	clrf	_speed^(0+128)
 11301  0E5C  01C5               	clrf	(_speed+1)^(0+128)
 11302  0E5D                     i1l3034:
 11303                           
 11304                           ;main.c: 172:         PWM3_LoadDutyValue(0);
 11305  0E5D  3000               	movlw	0
 11306  0E5E  00F0               	movwf	i1PWM3_LoadDutyValue@dutyValue
 11307  0E5F  00F1               	movwf	i1PWM3_LoadDutyValue@dutyValue+1
 11308  0E60  318C  2469  318E   	fcall	i1_PWM3_LoadDutyValue
 11309  0E63                     i1l758:
 11310  0E63  0008               	return
 11311  0E64                     __end_of_Enc:
 11312                           
 11313                           	psect	text67
 11314  0C69                     __ptext67:	
 11315 ;; *************** function i1_PWM3_LoadDutyValue *****************
 11316 ;; Defined at:
 11317 ;;		line 82 in file "mcc_generated_files/pwm3.c"
 11318 ;; Parameters:    Size  Location     Type
 11319 ;;  dutyValue       2    0[COMMON] unsigned short 
 11320 ;; Auto vars:     Size  Location     Type
 11321 ;;		None
 11322 ;; Return value:  Size  Location     Type
 11323 ;;                  1    wreg      void 
 11324 ;; Registers used:
 11325 ;;		wreg, status,2, status,0
 11326 ;; Tracked objects:
 11327 ;;		On entry : 0/0
 11328 ;;		On exit  : 0/0
 11329 ;;		Unchanged: 0/0
 11330 ;; Data sizes:     COMMON   BANK0   BANK1   BANK2   BANK3   BANK4
 11331 ;;      Params:         2       0       0       0       0       0
 11332 ;;      Locals:         0       0       0       0       0       0
 11333 ;;      Temps:          2       0       0       0       0       0
 11334 ;;      Totals:         4       0       0       0       0       0
 11335 ;;Total ram usage:        4 bytes
 11336 ;; Hardware stack levels used: 1
 11337 ;; This function calls:
 11338 ;;		Nothing
 11339 ;; This function is called by:
 11340 ;;		_Enc
 11341 ;;		_S1
 11342 ;;		_S4
 11343 ;; This function uses a non-reentrant model
 11344 ;;
 11345                           
 11346                           
 11347                           ;psect for function i1_PWM3_LoadDutyValue
 11348  0C69                     i1_PWM3_LoadDutyValue:
 11349  0C69                     i1l2676:	
 11350                           ;incstack = 0
 11351                           ; Regs used in i1_PWM3_LoadDutyValue: [wreg+status,2+status,0]
 11352                           
 11353                           
 11354                           ;mcc_generated_files/pwm3.c: 82: void PWM3_LoadDutyValue(uint16_t dutyValue);mcc_generat
      +                          ed_files/pwm3.c: 83: {;mcc_generated_files/pwm3.c: 85:     CCPR3L = ((dutyValue & 0x03FC
      +                          )>>2);
 11355  0C69  0871               	movf	i1PWM3_LoadDutyValue@dutyValue+1,w
 11356  0C6A  00F3               	movwf	??i1_PWM3_LoadDutyValue+1
 11357  0C6B  0870               	movf	i1PWM3_LoadDutyValue@dutyValue,w
 11358  0C6C  00F2               	movwf	??i1_PWM3_LoadDutyValue
 11359  0C6D  36F3               	lsrf	??i1_PWM3_LoadDutyValue+1,f
 11360  0C6E  0CF2               	rrf	??i1_PWM3_LoadDutyValue,f
 11361  0C6F  36F3               	lsrf	??i1_PWM3_LoadDutyValue+1,f
 11362  0C70  0CF2               	rrf	??i1_PWM3_LoadDutyValue,f
 11363  0C71  0872               	movf	??i1_PWM3_LoadDutyValue,w
 11364  0C72  0026               	movlb	6	; select bank6
 11365  0C73  0091               	movwf	17	;volatile
 11366                           
 11367                           ;mcc_generated_files/pwm3.c: 88:     CCP3CON = ((uint8_t)(CCP3CON & 0xCF) | ((dutyValue 
      +                          & 0x0003)<<4));
 11368  0C74  0870               	movf	i1PWM3_LoadDutyValue@dutyValue,w
 11369  0C75  3903               	andlw	3
 11370  0C76  00F2               	movwf	??i1_PWM3_LoadDutyValue
 11371  0C77  3004               	movlw	4
 11372  0C78                     u164_25:
 11373  0C78  35F2               	lslf	??i1_PWM3_LoadDutyValue,f
 11374  0C79  0B89               	decfsz	9,f
 11375  0C7A  2C78               	goto	u164_25
 11376  0C7B  0813               	movf	19,w	;volatile
 11377  0C7C  39CF               	andlw	207
 11378  0C7D  0472               	iorwf	??i1_PWM3_LoadDutyValue,w
 11379  0C7E  0093               	movwf	19	;volatile
 11380  0C7F                     i1l426:
 11381  0C7F  0008               	return
 11382  0C80                     __end_ofi1_PWM3_LoadDutyValue:
 11383                           
 11384                           	psect	text68
 11385  0BF8                     __ptext68:	
 11386 ;; *************** function _TMR1_WriteTimer *****************
 11387 ;; Defined at:
 11388 ;;		line 120 in file "mcc_generated_files/tmr1.c"
 11389 ;; Parameters:    Size  Location     Type
 11390 ;;  timerVal        2    0[COMMON] unsigned short 
 11391 ;; Auto vars:     Size  Location     Type
 11392 ;;		None
 11393 ;; Return value:  Size  Location     Type
 11394 ;;                  1    wreg      void 
 11395 ;; Registers used:
 11396 ;;		wreg, status,2
 11397 ;; Tracked objects:
 11398 ;;		On entry : 0/0
 11399 ;;		On exit  : 0/0
 11400 ;;		Unchanged: 0/0
 11401 ;; Data sizes:     COMMON   BANK0   BANK1   BANK2   BANK3   BANK4
 11402 ;;      Params:         2       0       0       0       0       0
 11403 ;;      Locals:         0       0       0       0       0       0
 11404 ;;      Temps:          0       0       0       0       0       0
 11405 ;;      Totals:         2       0       0       0       0       0
 11406 ;;Total ram usage:        2 bytes
 11407 ;; Hardware stack levels used: 1
 11408 ;; This function calls:
 11409 ;;		Nothing
 11410 ;; This function is called by:
 11411 ;;		_TMR1_ISR
 11412 ;;		_Enc
 11413 ;;		_TMR1_Reload
 11414 ;; This function uses a non-reentrant model
 11415 ;;
 11416                           
 11417                           
 11418                           ;psect for function _TMR1_WriteTimer
 11419  0BF8                     _TMR1_WriteTimer:
 11420  0BF8                     i1l2720:	
 11421                           ;incstack = 0
 11422                           ; Regs used in _TMR1_WriteTimer: [wreg+status,2]
 11423                           
 11424                           
 11425                           ;mcc_generated_files/tmr1.c: 120: void TMR1_WriteTimer(uint16_t timerVal);mcc_generated_
      +                          files/tmr1.c: 121: {;mcc_generated_files/tmr1.c: 122:     if (T1CONbits.nT1SYNC == 1)
 11426  0BF8  0020               	movlb	0	; select bank0
 11427  0BF9  1D18               	btfss	24,2	;volatile
 11428  0BFA  2BFC               	goto	u172_21
 11429  0BFB  2BFD               	goto	u172_20
 11430  0BFC                     u172_21:
 11431  0BFC  2C04               	goto	i1l2730
 11432  0BFD                     u172_20:
 11433  0BFD                     i1l2722:
 11434                           
 11435                           ;mcc_generated_files/tmr1.c: 123:     {;mcc_generated_files/tmr1.c: 125:         T1CONbi
      +                          ts.TMR1ON = 0;
 11436  0BFD  1018               	bcf	24,0	;volatile
 11437  0BFE                     i1l2724:
 11438                           
 11439                           ;mcc_generated_files/tmr1.c: 128:         TMR1H = (uint8_t)(timerVal >> 8);
 11440  0BFE  0871               	movf	TMR1_WriteTimer@timerVal+1,w
 11441  0BFF  0097               	movwf	23	;volatile
 11442  0C00                     i1l2726:
 11443                           
 11444                           ;mcc_generated_files/tmr1.c: 129:         TMR1L = (uint8_t)timerVal;
 11445  0C00  0870               	movf	TMR1_WriteTimer@timerVal,w
 11446  0C01  0096               	movwf	22	;volatile
 11447  0C02                     i1l2728:
 11448                           
 11449                           ;mcc_generated_files/tmr1.c: 132:         T1CONbits.TMR1ON =1;
 11450  0C02  1418               	bsf	24,0	;volatile
 11451                           
 11452                           ;mcc_generated_files/tmr1.c: 133:     }
 11453  0C03  2C08               	goto	i1l361
 11454  0C04                     i1l2730:
 11455                           
 11456                           ;mcc_generated_files/tmr1.c: 135:     {;mcc_generated_files/tmr1.c: 137:         TMR1H =
      +                           (uint8_t)(timerVal >> 8);
 11457  0C04  0871               	movf	TMR1_WriteTimer@timerVal+1,w
 11458  0C05  0097               	movwf	23	;volatile
 11459  0C06                     i1l2732:
 11460                           
 11461                           ;mcc_generated_files/tmr1.c: 138:         TMR1L = (uint8_t)timerVal;
 11462  0C06  0870               	movf	TMR1_WriteTimer@timerVal,w
 11463  0C07  0096               	movwf	22	;volatile
 11464  0C08                     i1l361:
 11465  0C08  0008               	return
 11466  0C09                     __end_of_TMR1_WriteTimer:
 11467  007E                     btemp	set	126	;btemp
 11468  007E                     int$flags	set	126
 11469  007E                     wtemp0	set	126
 11470                           
 11471                           	psect	idloc
 11472                           
 11473                           ;Config register IDLOC0 @ 0x8000
 11474                           ;	unspecified, using default values
 11475  8000                     	org	32768
 11476  8000  3FFF               	dw	16383
 11477                           
 11478                           ;Config register IDLOC1 @ 0x8001
 11479                           ;	unspecified, using default values
 11480  8001                     	org	32769
 11481  8001  3FFF               	dw	16383
 11482                           
 11483                           ;Config register IDLOC2 @ 0x8002
 11484                           ;	unspecified, using default values
 11485  8002                     	org	32770
 11486  8002  3FFF               	dw	16383
 11487                           
 11488                           ;Config register IDLOC3 @ 0x8003
 11489                           ;	unspecified, using default values
 11490  8003                     	org	32771
 11491  8003  3FFF               	dw	16383
 11492                           
 11493                           	psect	config
 11494                           
 11495                           ;Config register CONFIG1 @ 0x8007
 11496                           ;	Oscillator Selection
 11497                           ;	FOSC = INTOSC, INTOSC oscillator: I/O function on CLKIN pin
 11498                           ;	Watchdog Timer Enable
 11499                           ;	WDTE = OFF, WDT disabled
 11500                           ;	Power-up Timer Enable
 11501                           ;	PWRTE = OFF, PWRT disabled
 11502                           ;	MCLR Pin Function Select
 11503                           ;	MCLRE = ON, MCLR/VPP pin function is MCLR
 11504                           ;	Flash Program Memory Code Protection
 11505                           ;	CP = OFF, Program memory code protection is disabled
 11506                           ;	Data Memory Code Protection
 11507                           ;	CPD = OFF, Data memory code protection is disabled
 11508                           ;	Brown-out Reset Enable
 11509                           ;	BOREN = ON, Brown-out Reset enabled
 11510                           ;	Clock Out Enable
 11511                           ;	CLKOUTEN = OFF, CLKOUT function is disabled. I/O or oscillator function on the CLKOUT 
      +                          pin
 11512                           ;	Internal/External Switchover
 11513                           ;	IESO = ON, Internal/External Switchover mode is enabled
 11514                           ;	Fail-Safe Clock Monitor Enable
 11515                           ;	FCMEN = ON, Fail-Safe Clock Monitor is enabled
 11516  8007                     	org	32775
 11517  8007  3FE4               	dw	16356
 11518                           
 11519                           ;Config register CONFIG2 @ 0x8008
 11520                           ;	Flash Memory Self-Write Protection
 11521                           ;	WRT = OFF, Write protection off
 11522                           ;	PLL Enable
 11523                           ;	PLLEN = OFF, 4x PLL disabled
 11524                           ;	Stack Overflow/Underflow Reset Enable
 11525                           ;	STVREN = ON, Stack Overflow or Underflow will cause a Reset
 11526                           ;	Brown-out Reset Voltage Selection
 11527                           ;	BORV = LO, Brown-out Reset Voltage (Vbor), low trip point selected.
 11528                           ;	Low-Voltage Programming Enable
 11529                           ;	LVP = ON, Low-voltage programming enabled
 11530  8008                     	org	32776
 11531  8008  3EFF               	dw	16127

Data Sizes:
    Strings     0
    Constant    4
    Data        2
    BSS         59
    Persistent  50
    Stack       0

Auto Spaces:
    Space          Size  Autos    Used
    COMMON           14     14      14
    BANK0            80     73      76
    BANK1            80     15      75
    BANK2            80      0      16
    BANK3            80      0       0
    BANK4            32      0       0

Pointer List with Targets:

    ADC_InterruptHandler	PTR FTN()void  size(2) Largest target is 1
		 -> Absolute function(), 

    CCP4_SetCallBack@customCallBack	PTR FTN(unsigned short ,)void  size(2) Largest target is 1
		 -> Enc(), CCP4_DefaultCallBack(), 

    CCP4_CallBack	PTR FTN(unsigned short ,)void  size(2) Largest target is 1
		 -> Enc(), CCP4_DefaultCallBack(), Absolute function(), 

    TMR4_SetInterruptHandler@InterruptHandler	PTR FTN()void  size(2) Largest target is 1
		 -> comm(), TMR4_DefaultInterruptHandler(), 

    TMR4_InterruptHandler	PTR FTN()void  size(2) Largest target is 1
		 -> comm(), TMR4_DefaultInterruptHandler(), Absolute function(), 

    TMR1_SetInterruptHandler@InterruptHandler	PTR FTN()void  size(2) Largest target is 1
		 -> TMR1_DefaultInterruptHandler(), 

    TMR1_InterruptHandler	PTR FTN()void  size(2) Largest target is 1
		 -> TMR1_DefaultInterruptHandler(), Absolute function(), 

    EUSART_SetErrorHandler@interruptHandler	PTR FTN()void  size(2) Largest target is 1
		 -> EUSART_DefaultErrorHandler(), 

    EUSART_ErrorHandler	PTR FTN()void  size(2) Largest target is 1
		 -> EUSART_DefaultErrorHandler(), Absolute function(), 

    EUSART_SetOverrunErrorHandler@interruptHandler	PTR FTN()void  size(2) Largest target is 1
		 -> EUSART_DefaultOverrunErrorHandler(), 

    EUSART_OverrunErrorHandler	PTR FTN()void  size(2) Largest target is 1
		 -> EUSART_DefaultOverrunErrorHandler(), Absolute function(), 

    EUSART_SetFramingErrorHandler@interruptHandler	PTR FTN()void  size(2) Largest target is 1
		 -> EUSART_DefaultFramingErrorHandler(), 

    EUSART_FramingErrorHandler	PTR FTN()void  size(2) Largest target is 1
		 -> EUSART_DefaultFramingErrorHandler(), Absolute function(), 

    IOCBF3_SetInterruptHandler@InterruptHandler	PTR FTN()void  size(2) Largest target is 1
		 -> S2(), IOCBF3_DefaultInterruptHandler(), 

    IOCBF3_InterruptHandler	PTR FTN()void  size(2) Largest target is 1
		 -> S2(), Absolute function(), IOCBF3_DefaultInterruptHandler(), 

    IOCBF0_SetInterruptHandler@InterruptHandler	PTR FTN()void  size(2) Largest target is 1
		 -> S1(), IOCBF0_DefaultInterruptHandler(), 

    IOCBF0_InterruptHandler	PTR FTN()void  size(2) Largest target is 1
		 -> S1(), Absolute function(), IOCBF0_DefaultInterruptHandler(), 


Critical Paths under _main in COMMON

    None.

Critical Paths under _INTERRUPT_InterruptManager in COMMON

    _TMR4_ISR->_comm
    _comm->_leds
    _leds->i1_txMAX7219
    i1_txMAX7219->i1_SPI1_WriteByte
    _TMR1_ISR->_TMR1_WriteTimer
    _S1->i1_PWM3_LoadDutyValue
    _S4->i1_PWM3_LoadDutyValue
    _CCP4_CaptureISR->_Enc
    _Enc->i1_PWM3_LoadDutyValue

Critical Paths under _main in BANK0

    _main->___fldiv
    _initMAX7219->_txMAX7219
    _txMAX7219->_SPI1_WriteByte
    _controle->_deslocamento
    _deslocamento->_PWM3_LoadDutyValue
    _andar->_DATAEE_ReadByte
    ___xxtofl->_ADC_GetConversion
    ___fltol->___fldiv
    ___flmul->___xxtofl
    ___fldiv->___flmul
    _TMR4_Initialize->_TMR4_SetInterruptHandler
    _TMR1_Initialize->_TMR1_SetInterruptHandler
    _PIN_MANAGER_Initialize->_IOCBF0_SetInterruptHandler
    _PIN_MANAGER_Initialize->_IOCBF3_SetInterruptHandler
    _EUSART_Initialize->_EUSART_SetErrorHandler
    _EUSART_Initialize->_EUSART_SetFramingErrorHandler
    _EUSART_Initialize->_EUSART_SetOverrunErrorHandler
    _CCP4_Initialize->_CCP4_SetCallBack

Critical Paths under _INTERRUPT_InterruptManager in BANK0

    _TMR4_ISR->_comm

Critical Paths under _main in BANK1

    _main->___fltol

Critical Paths under _INTERRUPT_InterruptManager in BANK1

    None.

Critical Paths under _main in BANK2

    None.

Critical Paths under _INTERRUPT_InterruptManager in BANK2

    None.

Critical Paths under _main in BANK3

    None.

Critical Paths under _INTERRUPT_InterruptManager in BANK3

    None.

Critical Paths under _main in BANK4

    None.

Critical Paths under _INTERRUPT_InterruptManager in BANK4

    None.

Call Graph Tables:

 ---------------------------------------------------------------------------------
 (Depth) Function   	        Calls       Base Space   Used Autos Params    Refs
 ---------------------------------------------------------------------------------
 (0) _main                                                 4     4      0   11474
                                             11 BANK1      4     4      0
                  _ADC_GetConversion
                   _CCP4_SetCallBack
         _IOCBF0_SetInterruptHandler
         _IOCBF3_SetInterruptHandler
                 _PWM3_LoadDutyValue
                          _SPI1_Open
                  _SYSTEM_Initialize
           _TMR4_SetInterruptHandler
                            ___fldiv
                            ___flmul
                            ___fltol
                           ___xxtofl
                              _andar
                           _controle
                        _initMAX7219
 ---------------------------------------------------------------------------------
 (1) _initMAX7219                                          3     3      0    2312
                                              8 BANK0      3     3      0
                          _txMAX7219
 ---------------------------------------------------------------------------------
 (2) _txMAX7219                                            4     1      3    2312
                                              4 BANK0      4     1      3
                     _SPI1_WriteByte
 ---------------------------------------------------------------------------------
 (3) _SPI1_WriteByte                                       1     1      0      22
                                              3 BANK0      1     1      0
 ---------------------------------------------------------------------------------
 (1) _controle                                             2     2      0    1300
                                              9 BANK0      2     2      0
                 _PWM3_LoadDutyValue
                       _deslocamento
 ---------------------------------------------------------------------------------
 (2) _deslocamento                                         2     2      0     650
                                              7 BANK0      2     2      0
                 _PWM3_LoadDutyValue
 ---------------------------------------------------------------------------------
 (3) _PWM3_LoadDutyValue                                   4     2      2     650
                                              3 BANK0      4     2      2
 ---------------------------------------------------------------------------------
 (1) _andar                                                6     6      0     202
                                              4 BANK0      6     6      0
                    _DATAEE_ReadByte
 ---------------------------------------------------------------------------------
 (2) _DATAEE_ReadByte                                      1     1      0      22
                                              3 BANK0      1     1      0
 ---------------------------------------------------------------------------------
 (1) ___xxtofl                                            14    10      4     550
                                              7 BANK0     14    10      4
                  _ADC_GetConversion (ARG)
 ---------------------------------------------------------------------------------
 (1) ___fltol                                             11     7      4     572
                                              0 BANK1     11     7      4
                  _ADC_GetConversion (ARG)
                            ___fldiv (ARG)
                            ___flmul (ARG)
                           ___xxtofl (ARG)
 ---------------------------------------------------------------------------------
 (1) ___flmul                                             26    18      8    2721
                                             21 BANK0     26    18      8
                  _ADC_GetConversion (ARG)
                          __Umul8_16
                           ___xxtofl (ARG)
 ---------------------------------------------------------------------------------
 (2) __Umul8_16                                            9     7      2     799
                                              3 BANK0      9     7      2
 ---------------------------------------------------------------------------------
 (1) ___fldiv                                             26    18      8    1273
                                             47 BANK0     26    18      8
                            ___flmul (ARG)
                           ___xxtofl (ARG)
 ---------------------------------------------------------------------------------
 (1) _SYSTEM_Initialize                                    0     0      0    1088
                     _ADC_Initialize
                    _CCP4_Initialize
                    _CMP1_Initialize
                    _CMP2_Initialize
                     _DAC_Initialize
                  _EUSART_Initialize
                     _FVR_Initialize
              _OSCILLATOR_Initialize
             _PIN_MANAGER_Initialize
                    _PWM3_Initialize
                    _SPI1_Initialize
                    _TMR1_Initialize
                    _TMR2_Initialize
                    _TMR4_Initialize
                     _WDT_Initialize
 ---------------------------------------------------------------------------------
 (2) _WDT_Initialize                                       0     0      0       0
 ---------------------------------------------------------------------------------
 (2) _TMR4_Initialize                                      0     0      0     174
           _TMR4_SetInterruptHandler
 ---------------------------------------------------------------------------------
 (1) _TMR4_SetInterruptHandler                             2     0      2     174
                                              3 BANK0      2     0      2
 ---------------------------------------------------------------------------------
 (2) _TMR2_Initialize                                      0     0      0       0
 ---------------------------------------------------------------------------------
 (2) _TMR1_Initialize                                      0     0      0      98
           _TMR1_SetInterruptHandler
 ---------------------------------------------------------------------------------
 (3) _TMR1_SetInterruptHandler                             2     0      2      98
                                              3 BANK0      2     0      2
 ---------------------------------------------------------------------------------
 (2) _SPI1_Initialize                                      0     0      0       0
 ---------------------------------------------------------------------------------
 (2) _PWM3_Initialize                                      0     0      0       0
 ---------------------------------------------------------------------------------
 (2) _PIN_MANAGER_Initialize                               0     0      0     348
         _IOCBF0_SetInterruptHandler
         _IOCBF3_SetInterruptHandler
 ---------------------------------------------------------------------------------
 (3) _IOCBF3_SetInterruptHandler                           2     0      2     174
                                              3 BANK0      2     0      2
 ---------------------------------------------------------------------------------
 (3) _IOCBF0_SetInterruptHandler                           2     0      2     174
                                              3 BANK0      2     0      2
 ---------------------------------------------------------------------------------
 (2) _OSCILLATOR_Initialize                                0     0      0       0
 ---------------------------------------------------------------------------------
 (2) _FVR_Initialize                                       0     0      0       0
 ---------------------------------------------------------------------------------
 (2) _EUSART_Initialize                                    0     0      0     294
             _EUSART_SetErrorHandler
      _EUSART_SetFramingErrorHandler
      _EUSART_SetOverrunErrorHandler
 ---------------------------------------------------------------------------------
 (3) _EUSART_SetOverrunErrorHandler                        2     0      2      98
                                              3 BANK0      2     0      2
 ---------------------------------------------------------------------------------
 (3) _EUSART_SetFramingErrorHandler                        2     0      2      98
                                              3 BANK0      2     0      2
 ---------------------------------------------------------------------------------
 (3) _EUSART_SetErrorHandler                               2     0      2      98
                                              3 BANK0      2     0      2
 ---------------------------------------------------------------------------------
 (2) _DAC_Initialize                                       0     0      0       0
 ---------------------------------------------------------------------------------
 (2) _CMP2_Initialize                                      0     0      0       0
 ---------------------------------------------------------------------------------
 (2) _CMP1_Initialize                                      0     0      0       0
 ---------------------------------------------------------------------------------
 (2) _CCP4_Initialize                                      0     0      0     174
                   _CCP4_SetCallBack
 ---------------------------------------------------------------------------------
 (3) _CCP4_SetCallBack                                     2     0      2     174
                                              3 BANK0      2     0      2
 ---------------------------------------------------------------------------------
 (2) _ADC_Initialize                                       0     0      0       0
 ---------------------------------------------------------------------------------
 (1) _SPI1_Open                                            4     4      0      88
                                              3 BANK0      4     4      0
 ---------------------------------------------------------------------------------
 (1) _ADC_GetConversion                                    4     2      2      22
                                              3 BANK0      4     2      2
 ---------------------------------------------------------------------------------
 Estimated maximum stack depth 3
 ---------------------------------------------------------------------------------
 (Depth) Function   	        Calls       Base Space   Used Autos Params    Refs
 ---------------------------------------------------------------------------------
 (4) _INTERRUPT_InterruptManager                           0     0      0    1765
                    _CCP4_CaptureISR
                           _CMP1_ISR
                           _CMP2_ISR
                    _PIN_MANAGER_IOC
                           _TMR1_ISR
                           _TMR4_ISR
 ---------------------------------------------------------------------------------
 (5) _TMR4_ISR                                             0     0      0     667
                   Absolute function *
       _TMR4_DefaultInterruptHandler *
                               _comm *
 ---------------------------------------------------------------------------------
 (6) _comm                                                 5     5      0     667
                                             12 COMMON     2     2      0
                                              0 BANK0      3     3      0
                        _EUSART_Read
                       _EUSART_Write
                 _EUSART_is_rx_ready
                               _leds
                          i1___fltol
 ---------------------------------------------------------------------------------
 (7) i1___fltol                                           11     7      4     255
                                              0 COMMON    11     7      4
 ---------------------------------------------------------------------------------
 (7) _leds                                                 7     7      0     322
                                              5 COMMON     7     7      0
                        i1_txMAX7219
 ---------------------------------------------------------------------------------
 (8) i1_txMAX7219                                          4     1      3     188
                                              1 COMMON     4     1      3
                   i1_SPI1_WriteByte
 ---------------------------------------------------------------------------------
 (9) i1_SPI1_WriteByte                                     1     1      0      22
                                              0 COMMON     1     1      0
 ---------------------------------------------------------------------------------
 (7) _EUSART_is_rx_ready                                   0     0      0       0
 ---------------------------------------------------------------------------------
 (7) _EUSART_Write                                         1     1      0      22
                                              0 COMMON     1     1      0
 ---------------------------------------------------------------------------------
 (7) _EUSART_Read                                          0     0      0       0
 ---------------------------------------------------------------------------------
 (6) _TMR4_DefaultInterruptHandler                         0     0      0       0
 ---------------------------------------------------------------------------------
 (5) _TMR1_ISR                                             0     0      0     316
                   Absolute function *
       _TMR1_DefaultInterruptHandler *
                    _TMR1_WriteTimer
 ---------------------------------------------------------------------------------
 (6) _TMR1_DefaultInterruptHandler                         0     0      0       0
 ---------------------------------------------------------------------------------
 (5) _PIN_MANAGER_IOC                                      0     0      0     122
                         _IOCBF0_ISR
                         _IOCBF3_ISR
 ---------------------------------------------------------------------------------
 (6) _IOCBF3_ISR                                           0     0      0       0
                   Absolute function *
     _IOCBF3_DefaultInterruptHandler *
                                 _S2 *
 ---------------------------------------------------------------------------------
 (7) _S2                                                   0     0      0       0
 ---------------------------------------------------------------------------------
 (7) _IOCBF3_DefaultInterruptHandler                       0     0      0       0
 ---------------------------------------------------------------------------------
 (6) _IOCBF0_ISR                                           0     0      0     122
                   Absolute function *
     _IOCBF0_DefaultInterruptHandler *
                                 _S1 *
 ---------------------------------------------------------------------------------
 (7) _S1                                                   0     0      0     122
               i1_PWM3_LoadDutyValue
 ---------------------------------------------------------------------------------
 (7) _IOCBF0_DefaultInterruptHandler                       0     0      0       0
 ---------------------------------------------------------------------------------
 (5) _CMP2_ISR                                             0     0      0     122
                                 _S4
 ---------------------------------------------------------------------------------
 (6) _S4                                                   0     0      0     122
               i1_PWM3_LoadDutyValue
 ---------------------------------------------------------------------------------
 (5) _CMP1_ISR                                             0     0      0       0
                                 _S3
 ---------------------------------------------------------------------------------
 (6) _S3                                                   0     0      0       0
 ---------------------------------------------------------------------------------
 (5) _CCP4_CaptureISR                                      3     3      0     538
                                              7 COMMON     3     3      0
                   Absolute function *
               _CCP4_DefaultCallBack *
                                _Enc *
 ---------------------------------------------------------------------------------
 (6) _Enc                                                  3     1      2     491
                                              4 COMMON     3     1      2
                    _TMR1_WriteTimer
               i1_PWM3_LoadDutyValue
 ---------------------------------------------------------------------------------
 (8) i1_PWM3_LoadDutyValue                                 4     2      2     122
                                              0 COMMON     4     2      2
 ---------------------------------------------------------------------------------
 (6) _TMR1_WriteTimer                                      2     0      2     316
                                              0 COMMON     2     0      2
 ---------------------------------------------------------------------------------
 (6) _CCP4_DefaultCallBack                                 2     0      2       0
                                              4 COMMON     2     0      2
 ---------------------------------------------------------------------------------
 (6) Absolute function(Fake)                               0     0      0       0
 ---------------------------------------------------------------------------------
 Estimated maximum stack depth 9
 ---------------------------------------------------------------------------------

 Call Graph Graphs:

 _main (ROOT)
   _ADC_GetConversion
   _CCP4_SetCallBack
   _IOCBF0_SetInterruptHandler
   _IOCBF3_SetInterruptHandler
   _PWM3_LoadDutyValue
   _SPI1_Open
   _SYSTEM_Initialize
     _ADC_Initialize
     _CCP4_Initialize
       _CCP4_SetCallBack
     _CMP1_Initialize
     _CMP2_Initialize
     _DAC_Initialize
     _EUSART_Initialize
       _EUSART_SetErrorHandler
       _EUSART_SetFramingErrorHandler
       _EUSART_SetOverrunErrorHandler
     _FVR_Initialize
     _OSCILLATOR_Initialize
     _PIN_MANAGER_Initialize
       _IOCBF0_SetInterruptHandler
       _IOCBF3_SetInterruptHandler
     _PWM3_Initialize
     _SPI1_Initialize
     _TMR1_Initialize
       _TMR1_SetInterruptHandler
     _TMR2_Initialize
     _TMR4_Initialize
       _TMR4_SetInterruptHandler
     _WDT_Initialize
   _TMR4_SetInterruptHandler
   ___fldiv
     ___flmul (ARG)
       _ADC_GetConversion (ARG)
       __Umul8_16 (ARG)
       ___xxtofl (ARG)
         _ADC_GetConversion (ARG)
     ___xxtofl (ARG)
   ___flmul
   ___fltol
     _ADC_GetConversion (ARG)
     ___fldiv (ARG)
     ___flmul (ARG)
     ___xxtofl (ARG)
   ___xxtofl
   _andar
     _DATAEE_ReadByte
   _controle
     _PWM3_LoadDutyValue
     _deslocamento
       _PWM3_LoadDutyValue
   _initMAX7219
     _txMAX7219
       _SPI1_WriteByte

 _INTERRUPT_InterruptManager (ROOT)
   _CCP4_CaptureISR
     Absolute function(Fake) *
     _CCP4_DefaultCallBack *
     _Enc *
       _TMR1_WriteTimer
       i1_PWM3_LoadDutyValue
   _CMP1_ISR
     _S3
   _CMP2_ISR
     _S4
       i1_PWM3_LoadDutyValue
   _PIN_MANAGER_IOC
     _IOCBF0_ISR
       Absolute function(Fake) *
       _IOCBF0_DefaultInterruptHandler *
       _S1 *
         i1_PWM3_LoadDutyValue
     _IOCBF3_ISR
       Absolute function(Fake) *
       _IOCBF3_DefaultInterruptHandler *
       _S2 *
   _TMR1_ISR
     Absolute function(Fake) *
     _TMR1_DefaultInterruptHandler *
     _TMR1_WriteTimer *
   _TMR4_ISR
     Absolute function(Fake) *
     _TMR4_DefaultInterruptHandler *
     _comm *
       _EUSART_Read
       _EUSART_Write
       _EUSART_is_rx_ready
       _leds
         i1_txMAX7219
           i1_SPI1_WriteByte
       i1___fltol

 Address spaces:
Name               Size   Autos  Total    Cost      Usage
BIGRAM             160      0       0       0        0.0%
EEDATA             100      0       0       0        0.0%
NULL                 0      0       0       0        0.0%
CODE                 0      0       0       0        0.0%
BITCOMMON            E      0       0       1        0.0%
BITSFR0              0      0       0       1        0.0%
SFR0                 0      0       0       1        0.0%
COMMON               E      E       E       2      100.0%
BITSFR1              0      0       0       2        0.0%
SFR1                 0      0       0       2        0.0%
BITSFR2              0      0       0       3        0.0%
SFR2                 0      0       0       3        0.0%
STACK                0      0       0       3        0.0%
BITSFR3              0      0       0       4        0.0%
SFR3                 0      0       0       4        0.0%
ABS                  0      0      B5       4        0.0%
BITBANK0            50      0       0       5        0.0%
BITSFR4              0      0       0       5        0.0%
SFR4                 0      0       0       5        0.0%
BANK0               50     49      4C       6       95.0%
BITSFR5              0      0       0       6        0.0%
SFR5                 0      0       0       6        0.0%
BITBANK1            50      0       0       7        0.0%
BITSFR6              0      0       0       7        0.0%
SFR6                 0      0       0       7        0.0%
BANK1               50      F      4B       8       93.8%
BITSFR7              0      0       0       8        0.0%
SFR7                 0      0       0       8        0.0%
BITBANK2            50      0       0       9        0.0%
BITSFR8              0      0       0       9        0.0%
SFR8                 0      0       0       9        0.0%
BANK2               50      0      10      10       20.0%
BITSFR9              0      0       0      10        0.0%
SFR9                 0      0       0      10        0.0%
BITBANK3            50      0       0      11        0.0%
BITSFR10             0      0       0      11        0.0%
SFR10                0      0       0      11        0.0%
BANK3               50      0       0      12        0.0%
BITSFR11             0      0       0      12        0.0%
SFR11                0      0       0      12        0.0%
BITBANK4            20      0       0      13        0.0%
BITSFR12             0      0       0      13        0.0%
SFR12                0      0       0      13        0.0%
BANK4               20      0       0      14        0.0%
BITSFR13             0      0       0      14        0.0%
SFR13                0      0       0      14        0.0%
BITSFR14             0      0       0      15        0.0%
SFR14                0      0       0      15        0.0%
DATA                 0      0      B5      15        0.0%
BITSFR15             0      0       0      16        0.0%
SFR15                0      0       0      16        0.0%
BITSFR16             0      0       0      17        0.0%
SFR16                0      0       0      17        0.0%
BITSFR17             0      0       0      18        0.0%
SFR17                0      0       0      18        0.0%
BITSFR18             0      0       0      19        0.0%
SFR18                0      0       0      19        0.0%
BITSFR19             0      0       0      20        0.0%
SFR19                0      0       0      20        0.0%
BITSFR20             0      0       0      21        0.0%
SFR20                0      0       0      21        0.0%
BITSFR21             0      0       0      22        0.0%
SFR21                0      0       0      22        0.0%
BITSFR22             0      0       0      23        0.0%
SFR22                0      0       0      23        0.0%
BITSFR23             0      0       0      24        0.0%
SFR23                0      0       0      24        0.0%
BITSFR24             0      0       0      25        0.0%
SFR24                0      0       0      25        0.0%
BITSFR25             0      0       0      26        0.0%
SFR25                0      0       0      26        0.0%
BITSFR26             0      0       0      27        0.0%
SFR26                0      0       0      27        0.0%
BITSFR27             0      0       0      28        0.0%
SFR27                0      0       0      28        0.0%
BITSFR28             0      0       0      29        0.0%
SFR28                0      0       0      29        0.0%
BITSFR29             0      0       0      30        0.0%
SFR29                0      0       0      30        0.0%
BITSFR30             0      0       0      31        0.0%
SFR30                0      0       0      31        0.0%
BITSFR31             0      0       0      32        0.0%
SFR31                0      0       0      32        0.0%


Microchip Technology PIC Macro Assembler V2.32 build 20210201212658 
Symbol Table                                                                                   Tue Sep 20 00:38:03 2022

                              _CCP4_Initialize 0C1A                             SPI1_WriteByte@byte 0023  
                                 ___fldiv@aexp 0068                                   ___fldiv@bexp 0067  
                                            _u 00B2               ??_IOCBF3_DefaultInterruptHandler 0070  
              ?_IOCBF3_DefaultInterruptHandler 0070                                   ___fldiv@sign 0060  
                                           l41 0D90                                             l44 0B1D  
                                           l47 0AE2                              ??_CMP1_Initialize 0023  
                                           _S1 0BAC                                             _S2 0AFF  
                                           _S3 0AED                                             _S4 0C2C  
                                           l96 0DEF                         __end_of_FVR_Initialize 0ADF  
                          __Umul8_16@word_mpld 0029                                            ?_S1 0070  
                                          ?_S2 0070                                            ?_S3 0070  
                                          ?_S4 0070                                            l108 0B5A  
                                          l118 0B63                                            l320 0B3F  
                                          l314 0B48                                            l171 07FE  
                                          l317 0B51                                            l229 0B10  
                                          l423 0B6C                                            l192 0B93  
                                          l530 0C52                                            l426 0CCD  
                                          _BCD 00B0                                            l443 0B25  
                                          l275 0D34                                            l347 0CB1  
                                          l196 0EBA                                            l604 0B9F  
                                          l620 0BAB                                            l461 0CEB  
                                          l630 0B0A                                            l552 0B7E  
                                          l377 0B75                                            l393 0B2D  
                                          l458 0CE0                                            l562 0ADE  
                                          l730 0F19                                            l810 0E08  
                                          l811 0E0D                                            l803 0DF2  
                                          l813 0E12                                            l805 0DF9  
                                          l814 0E17                                            l822 0F8B  
                                          l591 0B36                                            l751 06D2  
                                          l807 0DFE                                            l736 0DBF  
                                          l816 0E1C                                            l808 0E03  
                                          l585 0C2B                                            l817 0E1D  
                                          l819 0E1F                                            _LED 00A0  
                                          _PR2 001B                                            _PR4 0416  
                                          _Enc 0E20                                _timer1ReloadVal 00CE  
                                          _iRx 00AC                                            _pwm 00AE  
               ?_EUSART_SetFramingErrorHandler 0023                                   i1___fltol@f1 0070  
                              _TMR2_Initialize 0B26                 CCP4_SetCallBack@customCallBack 0023  
                                          wreg 0009                               _CCP4_SetCallBack 0B2E  
                                 ___flmul@aexp 0047                                   ___flmul@bexp 0048  
                                 ?_initMAX7219 0070                                   ___flmul@sign 0042  
                                 ___flmul@temp 004D                                   ___flmul@prod 0049  
                      __end_of_CCP4_CaptureISR 0C69                                           ??_S1 0074  
                                         ??_S2 0070                                           ??_S3 0070  
                                         ??_S4 0074                                   ?_EUSART_Read 0070  
                                         ?_Enc 0074                                   ___fltol@exp1 00E4  
                                         l1400 0D0F                                           l3010 0DAF  
                                         l3002 0D91                                           l3012 0DB2  
                                         l3004 0D92                                           l1341 048B  
                                         l3006 0D9A                                           l1183 07A8  
                                         l1423 05C6                                           l1360 0459  
                                         l1176 07BD                                           l3008 0DA8  
                                         l1361 0473                                           l1425 064F  
                                         l3050 0CFB                                           l1186 07BD  
                                         l3130 0EC6                                           l3122 0EBB  
                                         l1363 0482                                           l1355 040D  
                                         l1339 032F                                           l3300 03BA  
                                         l3052 0D06                                           l3044 0CEE  
                                         l1436 061B                                           l3132 0EDD  
                                         l3124 0EC3                                           l1437 0627  
                                         l1429 0601                                           l3070 0E6B  
                                         l3310 03D6                                           l3302 03C2  
                                         l3230 02E7                                           l3222 02D8  
                                         l3054 0D0B                                           l3046 0CF0  
                                         l3142 0EF1                                           l3134 0EE1  
                                         l3150 0663                                           l1391 02CB  
                                         l3072 0E8D                                           l3312 03DD  
                                         l3320 03ED                                           l3304 03C6  
                                         l3232 02EC                                           l3240 02FC  
                                         l3224 02DE                                           l3048 0CF7  
                                         l3400 00DB                                           l3144 0F08  
                                         l3136 0EEE                                           l3152 0668  
                                         l3160 0686                                           l1385 0253  
                                         l3090 0CD0                                           l3074 0E8E  
                                         l3058 0D63                                           l3322 03F1  
                                         l3314 03E1                                           l3306 03CC  
                                         l3250 0312                                           l3242 0304  
                                         l3234 02F1                                           l3226 02E2  
                                         l3410 0103                                           l3402 00E0  
                                         l3146 0F0C                                           l3170 06B1  
                                         l3162 0697                                           l3154 066E  
                                         l1379 02D7                                           l3092 0CDC  
                                         l3076 0E9F                                           l3068 0E66  
                                         l3340 043B                                           l3332 0412  
                                         l3324 03F2                                           l3316 03E2  
                                         l3308 03D4                                           l3252 0317  
                                         l3260 0327                                           l3244 0309  
                                         l3236 02F9                                           l3228 02E6  
                                         l3420 015E                                           l3412 011D  
                                         l3164 069C                                           l3172 06BA  
                                         l3156 067B                                           l3148 0650  
                                         l3180 0F66                                           l3094 0CDD  
                                         l3078 0EB8                                           l3350 0472  
                                         l3334 0417                                           l3342 043F  
                                         l3326 03F6                                           l3318 03E9  
                                         l3262 0337                                           l3270 0350  
                                         l3254 031C                                           l3246 030D  
                                         l3238 02FA                                           l1398 0CFF  
                                         l3430 018D                                           l3422 0165  
                                         l3414 012A                                           l3406 00E9  
                                         l3510 05CE                                           l3502 05A5  
                                         l3174 06C8                                           l3166 06A2  
                                         l3158 067D                                           l3182 0F73  
                                         l3096 0CDE                                           l2800 0B8F  
                                         l3352 0478                                           l3344 044C  
                                         l3336 041F                                           l3328 040A  
                                         l3280 0376                                           l3272 0355  
                                         l3264 0343                                           l3256 0324  
                                         l3248 0311                                           l3440 01DD  
                                         l3432 01A1                                           l3424 0172  
                                         l3416 0144                                           l3408 00F6  
                                         l3520 05EE                                           l3504 05AA  
                                         l3176 06CB                                           l3168 06AF  
                                         l3184 0F7E                                           l3098 0CE4  
                                         l2810 0DC8                                           l2802 0B91  
                                         l3354 047C                                           l3346 0467  
                                         l3338 0423                                           l3290 039B  
                                         l3282 037E                                           l3266 0347  
                                         l3258 0325                                           l3450 0223  
                                         l3442 01F2                                           l3434 01A8  
                                         l3426 0179                                           l3418 0151  
                                         l3370 0090                                           l3362 0081  
                                         l3530 0615                                           l3522 05F2  
                                         l3514 05D7                                           l3506 05AE  
                                         l3178 0F1A                                           l2900 0B21  
                                         l2820 0DD7                                           l2812 0DCB  
                                         l2804 0DC0                                           l3356 047E  
                                         l3348 046A                                           l3292 039F  
                                         l3284 0386                                           l3276 035E  
                                         l3460 0237                                           l3452 0227  
                                         l3444 0209                                           l3436 01BC  
                                         l3428 0186                                           l3380 00AC  
                                         l3372 0095                                           l3364 0087  
                                         l3540 0646                                           l3532 061F  
                                         l3524 05FA                                           l3516 05DC  
                                         l3508 05BE                                           l3700 0549  
                                         l2902 0B22                                           l2830 0DDD  
                                         l2822 0DD9                                           l2814 0DD0  
                                         l2806 0DC3                                           l2910 0B69  
                                         l2718 0B6D                                           l3294 03A0  
                                         l3286 0388                                           l3278 036E  
                                         l3470 0258                                           l3462 0238  
                                         l3454 0228                                           l3446 0210  
                                         l3438 01C9                                           l3390 00BF  
                                         l3382 00B1                                           l3374 009A  
                                         l3366 008B                                           l3542 0647  
                                         l3534 0629                                           l3526 0608  
                                         l3518 05E7                                           l2734 0CB2  
                                         l2840 0B1A                                           l2832 0DDE  
                                         l2824 0DDA                                           l2816 0DD2  
                                         l2808 0DC6                                           l2904 0B64  
                                         l2920 0C9E                                           l2912 0C97  
                                         l2736 0B76                                           l3288 038D  
                                         l3296 03A7                                           l3472 025D  
                                         l3480 0285                                           l3464 023C  
                                         l3456 022F                                           l3448 021C  
                                         l3392 00C4                                           l3384 00B5  
                                         l3376 00A2                                           l3368 008F  
                                         l3536 063D                                           l3528 0611  
                                         l2738 0B2E                                           l2850 0BA7  
                                         l2930 0D19                                           l2842 0B1B  
                                         l2834 0DE6                                           l2826 0DDB  
                                         l2818 0DD5                                           l2906 0B67  
                                         l2922 0CA5                                           l2914 0C99  
                                         l3298 03B9                                           l3490 02B5  
                                         l3482 0292                                           l3474 0265  
                                         l3466 0250                                           l3458 0233  
                                         l3394 00CC                                           l3386 00B9  
                                         l3378 00A4                                           l3650 077C  
                                         l3642 075E                                           l3538 0642  
                                         l2690 0B0D                                           l2852 0BA9  
                                         l2692 0B40                                           l2932 0D1A  
                                         l2836 0DEE                                           l2828 0DDC  
                                         l2908 0B68                                           l2924 0CA6  
                                         l2916 0C9B                                           l2860 0C42  
                                         l2844 0ADF                                           l3492 02C2  
                                         l3484 029C                                           l3476 0269  
                                         l3396 00CE                                           l3388 00BA  
                                         l3652 0780                                           l3660 0798  
                                         l3644 0771                                           l3636 0749  
                                         l2846 0BA0                                           l2854 0B05  
                                         l2694 0B49                                           l2934 0D22  
                                         l2838 0B17                                           l2686 0B52  
                                         l2926 0CAE                                           l2918 0C9D  
                                         l2870 0B26                                           l2862 0C43  
                                         l3494 02C6                                           l3486 02AA  
                                         l3478 0281                                           l3398 00D6  
                                         l3670 07B2                                           l3646 0772  
                                         l3638 0755                                           l2880 0B96  
                                         l2848 0BA2                                           l2696 0B37  
                                         l2936 0D2A                                           l2928 0D10  
                                         l2856 0ADB                                           l2688 0B5B  
                                         l2872 0B29                                           l2864 0C45  
                                         l3496 02C7                                           l3488 02B3  
                                         l3648 077A                                           l2960 07FA  
                                         l2952 07F4                                           l3680 0497  
                                         l3672 048C                                           l2890 0C1E  
                                         l2882 0B9B                                           l2938 0D32  
                                         l2794 0B89                                           l2874 0B2A  
                                         l2866 0C47                                           l2858 0C3F  
                                         l3498 02CF                                           l3666 079F  
                                         l3658 0788                                           l2962 07FB  
                                         l2954 07F7                                           l2970 0E09  
                                         l3690 04B8                                           l3682 0498  
                                         l3674 048F                                           l2892 0C1F  
                                         l2884 0B9D                                           l2796 0B8C  
                                         l2876 0B2B                                           l2868 0C4F  
                                         l3668 07AD                                           l2956 07F8  
                                         l2972 0E13                                           l3692 04C0  
                                         l3684 04A0                                           l3676 0493  
                                         l2894 0C27                                           l2886 0C1A  
                                         l2878 0B94                                           l2798 0B8D  
                                         l2958 07F9                                           l2966 0DF4  
                                         l3694 04F6                                           l3686 04A8  
                                         l3678 0496                                           l2896 0C29  
                                         l2888 0C1D                                           l2968 0DFF  
                                         l3696 04F9                                           l3688 04B0  
                                         l2898 0B1E                                           l3698 04FC  
                                         u2000 0CFB                                           u2001 0CFA  
                                         u2020 0D0B                                           u2100 0EEE  
                                         u2021 0D0A                                           u2101 0EED  
                                         u2015 0D00                                           u2120 0F19  
                                         u2121 0F18                                           u2105 0EEA  
                                         u2050 0E6B                                           u2130 0663  
                                         u2051 0E6A                                           u2115 0EF6  
                                         u2131 0662                                           u2300 02F1  
                                         u2140 0668                                           u2301 02F0  
                                         u2125 0F15                                           u2141 0667  
                                         _LATA 010C                                           u2070 0CE4  
                                         u2310 0311                                           u2150 0697  
                                         _LATB 010D                                           u2071 0CE3  
                                         u2311 0310                                           u2151 0696  
                                         u2135 065F                                           u2320 0317  
                                         u2160 069C                                           u2321 0316  
                                         u2161 069B                                           u2410 03B9  
                                         u2330 031C                                           u3210 07AD  
                                         u3130 0755                                           u2170 06C8  
                                         u2411 03B8                                           u2331 031B  
                                         u3211 07AC                                           u3131 0754  
                                         u2171 06C7                                           u2155 0693  
                                         u2500 0411                                           u2420 03CC  
                                         u2340 0337                                           u3220 07B2  
                                         u3140 076B                                           u2501 0410  
                                         u2421 03CB                                           u2405 03A1  
                                         u2341 0336                                           u3221 07B1  
                                         u3205 07A0                                           u2510 0417  
                                         u2430 03D4                                           u2350 0355  
                                         u3150 0780                                           u2511 0416  
                                         u2431 03D3                                           u2415 03B5  
                                         u2351 0354                                           u3151 077F  
                                         u2095 0ECB                                           u2175 06C4  
                                         u2520 0423                                           u2360 038D  
                                         u2280 02E6                                           u2600 00B9  
                                         u3160 0787                                           u2521 0422  
                                         u2361 038C                                           u2281 02E5  
                                         u2601 00B8                                           u3161 0786  
                                         u3145 0767                                           u2530 0431  
                                         u2450 03E1                                           u2290 02EC  
                                         u2610 00BF                                           u2451 03E0  
                                         u2291 02EB                                           u2611 00BE  
                                         u2540 044C                                           u2620 00C4  
                                         u3180 0797                                           u1900 0E1C  
                                         u2541 044B                                           u2445 03D7  
                                         u2621 00C3                                           u3181 0796  
                                         u1901 0E1B                                           u3237 0F6C  
                                         u2550 0467                                           u2470 03F1  
                                         u2390 039F                                           u2710 0227  
                                         u2630 00DB                                           u3190 079E  
                                         u2551 0466                                           u2535 042D  
                                         u2471 03F0                                           u2391 039E  
                                         u2375 038E                                           u2711 0226  
                                         u2631 00DA                                           u3191 079D  
                                         u3175 0789                                           u1735 0CC3  
                                         u3247 0674                                           u2560 047C  
                                         u2480 03F6                                           u2800 0292  
                                         u2640 00E0                                           u2561 047B  
                                         u2545 0448                                           u2481 03F5  
                                         u2465 03E3                                           u2385 0395  
                                         u2801 0291                                           u2705 021D  
                                         u2641 00DF                                           u3257 06A8  
                                         u2490 040A                                           u2810 02AA  
                                         u2730 0237                                           u2570 008F  
                            ??_CMP2_Initialize 0023                                           u2555 0463  
                                         u2491 0409                                           u2811 02A9  
                                         u2731 0236                                           u2571 008E  
                                         u3267 0DB8                                           u2820 02C6  
                                         u2740 023C                                           u2580 0095  
                                         u2821 02C5                                           u2805 028E  
                                         u2741 023B                                           u2725 0229  
                                         u2581 0094                                           u2750 0250  
                                         u2670 01E8                                           u2590 009A  
                                         u2910 0615                                           u2830 05AA  
                                         u1950 0DA8                                           u1870 0DFE  
                                         u2815 02A6                                           u2751 024F  
                                         u2655 015F                                           u2591 0099  
                                         u2911 0614                                           u2831 05A9  
                                         u1951 0DA7                                           u1871 0DFD  
                                         u2760 0257                                           u2680 01FF  
                                         u2920 061B                                           u2840 05AE  
                                         u1880 0E08                                           u2761 0256  
                                         u2665 018E                                           u2921 061A  
                                         u2905 060B                                           u2841 05AD  
                                         u1881 0E07                                           u2770 025D  
                                         u2930 061F                                           u2850 05CE  
                                         u1890 0E12                                           u2771 025C  
                                         u2675 01E4                                           u2931 061E  
                                         u2851 05CD                                           u1955 0DA4  
                                         u1891 0E11                                           u2780 0269  
                                         u2940 0633                                           u2781 0268  
                                         u2685 01FB                                           u2790 0277  
                                         u2950 0642                                           u2870 05ED  
                                         u2695 020A                                           u2951 0641  
                                         u2871 05EC                                           u2960 0646  
                                         u2961 0645                                           u2945 062F  
                                         u2865 05E1                                           u2890 0607  
                                         u2795 0273                                           u2891 0606  
                                         u2885 05FB                                           _TMR2 001A  
                                         _TMR4 0415                                           _WPUA 020C  
                                         _WPUB 020D                                           _comm 06D3  
                                         _main 048C                                           _leds 07BE  
                                         _temp 00C6                                           fsr0h 0005  
                                         fsr1h 0007                                           indf0 0000  
                                         fsr0l 0004                                           indf1 0001  
                                         fsr1l 0006                                           btemp 007E  
                                         start 005E                                ___fldiv@new_exp 0061  
                             __end_of_CMP1_ISR 0AF9                               __end_of_CMP2_ISR 0AFF  
                   ??_TMR1_SetInterruptHandler 0025                     ??_TMR4_SetInterruptHandler 0025  
                                        ??_Enc 0076                                ?_FVR_Initialize 0070  
                                ?_EUSART_Write 0070                 __size_of_OSCILLATOR_Initialize 0007  
                          __size_of_IOCBF0_ISR 000F                            __size_of_IOCBF3_ISR 000F  
                __end_of_OSCILLATOR_Initialize 0B1E                                  ___fltol@sign1 00E3  
                                        ?_comm 0070                                          ?_main 0070  
                                        ?_leds 0070                  __size_ofi1_PWM3_LoadDutyValue 0017  
                              __end_of___fldiv 048C                                    i1_txMAX7219 0D35  
                       ??_CCP4_DefaultCallBack 0076                                __end_of___flmul 02D8  
             SPI1_Open@spi1UniqueConfiguration 0026                                __end_of___fltol 07BE  
                                        _T1CON 0018                                          _T2CON 001C  
                                        _T4CON 0417                                          i1l101 0C19  
                                        i1l111 0AD6                                          i1l105 0BC9  
                                        i1l121 0AD7                                          i1l115 0BD8  
                                        i1l302 0B88                                          i1l500 0032  
                                        i1l229 0AEC                                          i1l502 0040  
                                        i1l503 005C                                          i1l504 004E  
                                        i1l361 0C08                                          i1l426 0C7F  
                                        i1l283 0AE7                                          i1l380 0AD8  
                                        i1l292 0BE8                                          i1l509 005C  
                                        i1l374 0C96                                          i1l296 0BF7  
                                        i1l810 0D4B                                          i1l299 0B80  
                                        i1l811 0D50                                          i1l803 0D36  
                                        i1l723 0748                                          i1l555 0003  
                                        i1l813 0D55                                          i1l805 0D3C  
                                        i1l717 07F1                                          i1l549 0BE7  
                                        i1l582 0AD5                                          i1l814 0D5A  
                                        i1l807 0D41                                          i1l495 0012  
                                        i1l816 0D5F                                          i1l808 0D46  
                                        i1l817 0D60                                          i1l498 0024  
                                        i1l763 0BBA                                          i1l819 0D62  
                                        i1l588 0C68                                          i1l772 0AF8  
                                        i1l780 0AFE                                          i1l758 0E63  
                                        i1l766 0B04                                          i1l769 0AF2  
                                        i1l777 0C3E                                          _RCREG 0199  
                                        _RCSTA 019D                                          _TMR1H 0017  
                                        _TMR1L 0016                                          _TRISA 008C  
                                        _TRISB 008D                                          _TXREG 019A  
                                        _TXSTA 019E                             __size_of_SPI1_Open 0057  
                              _TMR4_Initialize 0C3F                               __end_of_TMR1_ISR 0C97  
                             __end_of_TMR4_ISR 0BE8                                _DATAEE_ReadByte 07F2  
                                        _andar 0EBB                        __end_of_PIN_MANAGER_IOC 0C1A  
                               _WDT_Initialize 0ADF                                          _count 00E9  
                                        _motor 00C2                                          _speed 00C4  
                                        comm@i 007C                                          leds@i 007A  
                      __end_of_PWM3_Initialize 0B6D                        __end_of_TMR1_Initialize 0CB2  
                                        pclath 000A                                 i1___fltol@exp1 007A  
                                        status 0003                        __end_of_CCP4_Initialize 0C2C  
                                        wtemp0 007E                             __size_ofi1___fltol 0074  
                            ?i1_SPI1_WriteByte 0070                                _TMR1_WriteTimer 0BF8  
                     __size_of_SPI1_Initialize 000B                        __size_of_SPI1_WriteByte 0006  
                           ??i1_SPI1_WriteByte 0070                               ??_DAC_Initialize 0023  
                              __initialization 0060                                   __end_of_comm 0749  
                                 __end_of_main 05A3                                   __end_of_leds 07F2  
                               ??_EUSART_Write 0070                        __end_of_TMR2_Initialize 0B2E  
                  ?_INTERRUPT_InterruptManager 0070                                         ??_comm 0020  
                                       ??_main 00E5                                         ??_leds 0075  
                      _IOCBF0_InterruptHandler 00D8                         __end_of_WDT_Initialize 0AE3  
                             ?_CCP4_CaptureISR 0070                           __end_of_deslocamento 0DC0  
                                       ?_andar 0070              _EUSART_DefaultFramingErrorHandler 0000  
                                       _ADCON0 009D                                         _ADCON1 009E  
                   _EUSART_OverrunErrorHandler 00D2                                         _ADRESH 009C  
                                       _EEADRH 0192                                         _ADRESL 009B  
                                       _EEADRL 0191                                         _EEDATH 0194  
                                       _CCPR3H 0312                                         _CCPR4H 0319  
                                       _EEDATL 0193                                         _CCPR3L 0311  
                                       _CCPR4L 0318                                         _EECON2 0196  
                                       _ANSELA 018C                                         _ANSELB 018D  
                   __end_of_EUSART_is_rx_ready 0AE8                                         _BORCON 0116  
                                       _T1GCON 0019                        TMR1_WriteTimer@timerVal 0070  
                                       i1l3000 0745                                         i1l3020 0E32  
                                       i1l3030 0E53                                         i1l3022 0E37  
                                       i1l3014 0E20                                         i1l3110 0C53  
                                       i1l3102 0AF9                                         i1l1183 0FEA  
                                       i1l3032 0E5B                                         i1l3024 0E3D  
                                       i1l3016 0E26                                         i1l3112 0C55  
                                       i1l3040 0C36                                         i1l3104 0AFC  
                                       i1l1176 0FFF                                         i1l3120 0BE2  
                                       i1l3034 0E5D                                         i1l3026 0E4A  
                                       i1l3018 0E2E                                         i1l3114 0C5E  
                                       i1l3106 0AF3                                         i1l3042 0C3C  
                                       i1l1186 0FFF                                         i1l3028 0E50  
                                       i1l3036 0AED                                         i1l3108 0AF6  
                                       i1l3060 0C09                                         i1l3116 0BD9  
                                       i1l3038 0C2C                                         i1l3062 0C0E  
                                       i1l3118 0BDB                                         i1l3064 0C11  
                                       i1l3066 0C16                                         i1l3082 0C80  
                                       i1l3084 0C82                                         i1l3086 0C8A  
                                       i1l2710 0BF6                                         i1l2702 0BE8  
                                       i1l2720 0BF8                                         i1l3088 0C91  
                                       i1l2704 0BED                                         i1l2722 0BFD  
                                       i1l2730 0C04                                         i1l2706 0BEF  
                                       i1l2714 0B80                                         i1l2732 0C06  
                                       i1l2724 0BFE                                         i1l2708 0BF4  
                                       i1l2716 0B85                                         i1l2740 07BE  
                                       i1l2726 0C00                                         i1l2750 0BAC  
                                       i1l3550 000A                                         i1l2728 0C02  
                                       i1l2752 0BB2                                         u203_20 0C0E  
                                       i1l2680 0D42                                         i1l2744 07C2  
                                       i1l2760 0F97                                         i1l3560 0029  
                                       i1l3552 000E                                         u203_21 0C0D  
                                       i1l2754 0BB8                                         i1l2674 0AE9  
                                       i1l2682 0D4C                                         i1l2746 07E0  
                                       i1l2770 0FBC                                         i1l3570 004A  
                                       i1l3562 002E                                         i1l3554 0016  
                                       i1l2676 0C69                                         i1l2940 0BBB  
                                       i1l2756 0AFF                                         i1l2684 0D56  
                                       i1l2748 07E4                                         i1l2780 0FCA  
                                       i1l2772 0FBE                                         i1l2764 0FA0  
                                       i1l3572 0053                                         i1l3564 0037  
                                       i1l3556 001B                                         i1l3548 0006  
                                       i1l2942 0BC2                                         i1l2950 0BD6  
                                       i1l2678 0D38                                         i1l2790 0FEF  
                                       i1l2774 0FC2                                         i1l2782 0FDA  
                                       i1l2766 0FB3                                         i1l2758 0F8C  
                                       i1l3574 0058                                         i1l3566 003C  
                                       i1l3558 0020                                         i1l2944 0BC7  
                                       u204_20 0C16                                         i1l2792 0FF4  
                                       i1l2768 0FB4                                         i1l3568 0045  
                                       u300_20 001B                                         u204_21 0C15  
                                       u300_21 001A                                         i1l2946 0BCA  
                                       i1l2698 0AE3                                         i1l2948 0BD1  
                                       i1l2788 0FE1                                         i1l2980 0708  
                                       i1l2982 070F                                         i1l2974 06D3  
                                       i1l2984 0717                                         i1l2976 06E8  
                                       u301_20 0020                                         u301_21 001F  
                                       i1l2994 072B                                         i1l2986 071E  
                                       i1l2978 06FA                                         i1l2996 0733  
                                       i1l2988 0729                                         i1l2998 0737  
                                       u206_20 0C91                                         u302_20 0029  
                                       u206_21 0C90                                         u302_21 0028  
                                       u303_20 002E                                         u303_21 002D  
                                       u208_20 0BE2                                         u304_20 0037  
                                       u208_21 0BE1                                         u304_21 0036  
                                       u305_20 003C                                         u305_21 003B  
                                       u170_20 0BF4                                         u306_20 0045  
                                       u170_21 0BF3                                         u306_21 0044  
                                       u171_20 0B85                                         u307_20 004A  
                                       _FVRCON 0117                                         u171_21 0B84  
                                       u307_21 0049                                         u172_20 0BFD  
                                       u180_20 0FD9                                         u308_20 0053  
                                       u172_21 0BFC                                         u180_21 0FD8  
                                       u308_21 0052                                         u164_25 0C78  
                                       u165_20 0D41                                         u181_20 0FE0  
                                       u309_20 0058                                         u165_21 0D40  
                                       u181_21 0FDF                                         u309_21 0057  
                                       u166_20 0D4B                                         u174_20 07F1  
                                       u166_21 0D4A                                         u174_21 07F0  
                                       u174_25 07ED                                         u182_25 0FE2  
                                       u167_20 0D55                                         u183_20 0FEF  
                                       u175_20 0F97                                         u167_21 0D54  
                                       u183_21 0FEE                                         u175_21 0F96  
                                       u191_25 06DC                                         u168_20 0D5F  
                                       u184_20 0FF4                                         u176_20 0FAD  
                                       u168_21 0D5E                                         u184_21 0FF3  
                                       u176_25 0FA9                                         u192_25 06FE  
                                       u185_20 0BC2                                         u169_20 0BED  
                                       u177_20 0FC2                                         u193_20 0717  
                                       u185_21 0BC1                                         u169_21 0BEC  
                                       u177_21 0FC1                                         u193_21 0716  
                                       u186_20 0BD1                                         u178_20 0FC9  
                                       u194_20 0745                                         u186_21 0BD0  
                                       u178_21 0FC8                                         u194_21 0744  
                                       u194_25 0741                                         u179_25 0FCB  
                                       u196_20 0E2E                                         u196_21 0E2D  
                                       u197_20 0E32                                         u197_21 0E31  
                                       u198_20 0E3D                                         u198_21 0E3C  
                                       u199_20 0E4A                                         u199_21 0E49  
                                       u199_25 0E46                                         u297_20 000A  
                                       u297_21 0009                                         u298_20 000E  
                                       _OSCCON 0099                                         u298_21 000D  
                                       u299_20 0016                                         u299_21 0015  
                                       _SPBRGH 019C                                         _SPBRGL 019B  
                                       _WDTCON 0097                               __end_of___xxtofl 0650  
                            __end_of_SPI1_Open 0EBB           __end_of_TMR1_DefaultInterruptHandler 0AD9  
        __size_of_TMR1_DefaultInterruptHandler 0001                   _TMR1_DefaultInterruptHandler 0AD8  
                                 _CCPTMRS0bits 029E                    __size_of_PWM3_LoadDutyValue 001C  
                                    ??___fldiv 0057                                      ??___flmul 003D  
                             __end_of_controle 06D3                                      ??___fltol 00DE  
                                       andar@i 0026                                         _matrix 0120  
                      __end_of_TMR4_Initialize 0C53                                         _rxByte 006B  
                                       _txByte 00A8                                  _CCP4_CallBack 00C8  
                                       _pulsos 00C0                        __end_of_DATAEE_ReadByte 07FF  
                            __end_ofi1___fltol 1000           __end_of_TMR4_DefaultInterruptHandler 0004  
        __size_of_TMR4_DefaultInterruptHandler 0001                   _TMR4_DefaultInterruptHandler 0003  
                           __size_of__Umul8_16 0024                                ?_WDT_Initialize 0070  
                              i1___fltol@sign1 0079                       ADC_GetConversion@channel 0026  
                                    ?_CMP1_ISR 0070                                      ?_CMP2_ISR 0070  
     TMR4_SetInterruptHandler@InterruptHandler 0023       TMR1_SetInterruptHandler@InterruptHandler 0023  
   IOCBF3_SetInterruptHandler@InterruptHandler 0023     IOCBF0_SetInterruptHandler@InterruptHandler 0023  
                             ?_PIN_MANAGER_IOC 0070                        __end_of_TMR1_WriteTimer 0C09  
                                 ??_IOCBF0_ISR 0074                           __size_of_initMAX7219 0072  
                                 ??_IOCBF3_ISR 0070                               ?_TMR1_Initialize 0070  
                             ?_PWM3_Initialize 0070                                   ___xxtofl@arg 0031  
                         __size_of_EUSART_Read 0010                                   ___xxtofl@exp 0030  
                            _SYSTEM_Initialize 0D63                                   ___xxtofl@val 0027  
                      __end_of__initialization 007D                               ?_CCP4_Initialize 0070  
                              _CMP1_Initialize 0B94                             ?_SYSTEM_Initialize 0070  
                                   ___fltol@f1 00DA                       __end_of_CCP4_SetCallBack 0B37  
                               __pcstackCOMMON 0070                                   __pidataBANK1 0AD9  
                          ??_SYSTEM_Initialize 0025                                  __end_of_andar 0F1A  
                                    ?_TMR1_ISR 0070                  ?_TMR1_DefaultInterruptHandler 0070  
                                    ?_TMR4_ISR 0070                              ??_SPI1_Initialize 0023  
       __end_of_IOCBF0_DefaultInterruptHandler 0AD7        __size_of_IOCBF0_DefaultInterruptHandler 0001  
               _IOCBF0_DefaultInterruptHandler 0AD6                               ?_TMR2_Initialize 0070  
                                   __end_of_S1 0BBB                                     __end_of_S2 0B05  
                                   __end_of_S3 0AF3                                     __end_of_S4 0C3F  
                           __end_of_IOCBF0_ISR 0BCA                             __end_of_IOCBF3_ISR 0BD9  
                              _CMP2_Initialize 0BA0                             _spi1_configuration 07FF  
                               _OPTION_REGbits 0095                  ?_TMR4_DefaultInterruptHandler 0070  
              ??_EUSART_SetOverrunErrorHandler 0025         __end_of_IOCBF3_DefaultInterruptHandler 0AD8  
      __size_of_IOCBF3_DefaultInterruptHandler 0001                 _IOCBF3_DefaultInterruptHandler 0AD7  
                                   ??_CMP1_ISR 0070                                     ??_CMP2_ISR 0074  
                                      ??_andar 0024                      __end_of_SYSTEM_Initialize 0D91  
                                   __pbssBANK0 0069                                     __pbssBANK1 00A0  
                                   __pbssBANK2 0120                           __end_of_EUSART_Write 0B89  
                           __size_of_txMAX7219 0030                                 _SPI1_WriteByte 0B0B  
                        _TMR4_InterruptHandler 00CA                              __end_of__Umul8_16 0D10  
                             ??_FVR_Initialize 0023                                     __pmaintext 048C  
                i1PWM3_LoadDutyValue@dutyValue 0070                                     ??_TMR1_ISR 0072  
                                   ??_TMR4_ISR 007E                                     __pintentry 0004  
                                      _DACCON0 0118                                        _DACCON1 0119  
                                      _CM1CON0 0111                                        _CM1CON1 0112  
                                      _CM2CON0 0113                                        _CM2CON1 0114  
                                      _CCP3CON 0313                                        _CCP4CON 031A  
                                      _BAUDCON 019F                               ?_TMR4_Initialize 0070  
                                      _APFCON0 011D                                        _APFCON1 011E  
                                 ?i1_txMAX7219 0071                        __size_of_ADC_Initialize 0008  
                             ?_DATAEE_ReadByte 0070                          __size_of_deslocamento 002F  
                                    ?___xxtofl 0027                                        _OSCTUNE 0098  
                                      _SSP1ADD 0212                                        _SSP1BUF 0211  
                      __end_of_CMP1_Initialize 0BA0                       ??_EUSART_SetErrorHandler 0025  
                             ?_TMR1_WriteTimer 0070                                      ?_controle 0070  
                       __end_of_SPI1_WriteByte 0B11                   __end_ofi1_PWM3_LoadDutyValue 0C80  
                         _ADC_InterruptHandler 00B6                                   _deslocamento 0D91  
                      __end_of_CMP2_Initialize 0BAC                                        ___fldiv 02D8  
                                      ___flmul 0081                                        ___fltol 0749  
                                      __ptext1 0F1A                                        __ptext2 0DF0  
                                      __ptext3 0B0B                                        __ptext4 0650  
                                      __ptext5 0D91                                        __ptext6 0CB2  
                                      __ptext7 0EBB                                        __ptext8 07F2  
                                      __ptext9 05A3                      __size_ofi1_SPI1_WriteByte 0005  
               ??_TMR1_DefaultInterruptHandler 0070                              __end_of_txMAX7219 0E20  
                                    _T1CONbits 0018                                   __size_of_Enc 0044  
                        _OSCILLATOR_Initialize 0B17                                      _T2CONbits 001C  
                                   ??___xxtofl 002B                                      _CMOUTbits 0115  
                __size_of_CCP4_DefaultCallBack 0001              __size_of_TMR1_SetInterruptHandler 0009  
                                    _T4CONbits 0417                       ??_PIN_MANAGER_Initialize 0025  
            __size_of_TMR4_SetInterruptHandler 0009                      ?_TMR1_SetInterruptHandler 0023  
                                    _IOCBFbits 0396                      ?_TMR4_SetInterruptHandler 0023  
                                    _IOCBNbits 0395                                      _IOCBPbits 0394  
                   __size_of_SYSTEM_Initialize 002E                                        clrloop0 0B12  
                         end_of_initialization 007D                                   _colect_value 00BE  
               ??_TMR4_DefaultInterruptHandler 0070                                     ??_controle 0029  
        __end_of_EUSART_SetOverrunErrorHandler 0B52         __size_of_EUSART_SetOverrunErrorHandler 0009  
                _EUSART_SetOverrunErrorHandler 0B49                                ?_SPI1_WriteByte 0070  
                            _EUSART_Initialize 0D10                             ?_EUSART_Initialize 0070  
                                    _RCSTAbits 019D                             _EUSART_is_rx_ready 0AE3  
                                    _SPI1_Open 0E64                            ??_EUSART_Initialize 0025  
                             ??_WDT_Initialize 0023                                      _PORTAbits 000C  
                          ?_EUSART_is_rx_ready 0070                                  ___xxtofl@sign 002F  
                               txMAX7219@addr0 0027                                 txMAX7219@addr1 0025  
                                    _TRISBbits 008D                          __size_of_EUSART_Write 000A  
                                  ___fldiv@grs 0063                                      i1___fltol 0F8C  
                                  ___fldiv@rem 005C                   ??_IOCBF0_SetInterruptHandler 0025  
                 ??_IOCBF3_SetInterruptHandler 0025                               ?_CMP1_Initialize 0070  
              __size_of_EUSART_SetErrorHandler 0009                              __size_of_CMP1_ISR 0006  
                            __size_of_CMP2_ISR 0006                                    ___flmul@grs 0043  
                    __end_of_EUSART_Initialize 0D35                           ??_EUSART_is_rx_ready 0070  
                              _SPI1_Initialize 0B89                                      _TXSTAbits 019E  
                     __size_of_CCP4_CaptureISR 0016              CCP4_DefaultCallBack@capturedValue 0074  
                   __end_of_PWM3_LoadDutyValue 0CCE                              ?_CCP4_SetCallBack 0023  
                             ?_CMP2_Initialize 0070                                     ?_SPI1_Open 0070  
                           ??_CCP4_SetCallBack 0025                     _EUSART_DefaultErrorHandler 0000  
                                 _EUSART_Write 0B7F                              __size_of_TMR1_ISR 0017  
                            __size_of_TMR4_ISR 000F                                 _ADC_Initialize 0B1E  
          __size_of_IOCBF0_SetInterruptHandler 0009            __size_of_IOCBF3_SetInterruptHandler 0009  
                       ?_OSCILLATOR_Initialize 0070                           i1_PWM3_LoadDutyValue 0C69  
                      __size_of_DAC_Initialize 0006                           __size_ofi1_txMAX7219 002E  
                          start_initialization 0060                                  ??_initMAX7219 0028  
                                  __end_of_Enc 0E64                __size_of_PIN_MANAGER_Initialize 0030  
                                ??_EUSART_Read 0070                                     ?i1___fltol 0070  
                          DATAEE_ReadByte@bAdd 0023                       __size_of_PIN_MANAGER_IOC 0011  
               ?_EUSART_SetOverrunErrorHandler 0023                       __size_of_PWM3_Initialize 0009  
                     __size_of_TMR1_Initialize 001B                     _EUSART_FramingErrorHandler 00D4  
                       _EUSART_SetErrorHandler 0B37                       __size_of_CCP4_Initialize 0012  
                       __end_of_ADC_Initialize 0B26                                      __Umul8_16 0CEC  
                                  __pdataBANK1 00E9                          ?i1_PWM3_LoadDutyValue 0070  
                             i1_SPI1_WriteByte 0AE8                          CCP4_CaptureISR@module 0078  
                                    ___fldiv@a 004F                                      ___fldiv@b 0053  
                                    ___flmul@a 0039                                      ___flmul@b 0035  
                                    ___latbits 0001                                  __pcstackBANK0 0020  
                                __pcstackBANK1 00DA                       __size_of_TMR2_Initialize 0008  
                            __size_of___xxtofl 00AD                        __end_of_SPI1_Initialize 0B94  
                   __size_of_EUSART_Initialize 0025                            __end_of_initMAX7219 0F8C  
                          __end_of_EUSART_Read 0BF8                              __size_of_controle 0083  
                                    __pnvBANK1 00C8                        _IOCBF3_InterruptHandler 00D6  
                       _PIN_MANAGER_Initialize 0DC0               __end_of_TMR1_SetInterruptHandler 0B76  
             __end_of_TMR4_SetInterruptHandler 0B7F                                       ?___fldiv 004F  
                            ??_CCP4_CaptureISR 0077                                       ?___flmul 0035  
                                     ?___fltol 00DA                                     ?__Umul8_16 0023  
                                  ??_SPI1_Open 0023                                ?_ADC_Initialize 0070  
                 ??_INTERRUPT_InterruptManager 007E             __end_of_IOCBF0_SetInterruptHandler 0B5B  
                   _IOCBF0_SetInterruptHandler 0B52             __end_of_IOCBF3_SetInterruptHandler 0B64  
                   _IOCBF3_SetInterruptHandler 0B5B                       __size_of_TMR4_Initialize 0014  
                             ??_SPI1_WriteByte 0023                                      _txMAX7219 0DF0  
                                  ??i1___fltol 0074                                       _CMP1_ISR 0AF3  
                                     _CMP2_ISR 0AF9                                 __size_of_andar 005F  
                     __size_of_DATAEE_ReadByte 000D                                    __size_of_S1 000F  
                                  __size_of_S2 0006                                    __size_of_S3 0006  
                                  __size_of_S4 0013                                       _LATAbits 010C  
       EUSART_SetErrorHandler@interruptHandler 0023                                       _LATBbits 010D  
                                    clear_ram0 0B11                   __end_of_CCP4_DefaultCallBack 0AD6  
                                     _PIE1bits 0091                                       _PIE2bits 0092  
                                     _PIE3bits 0093                              _eusartRxLastError 00B9  
                     __size_of_TMR1_WriteTimer 0011            __size_of_INTERRUPT_InterruptManager 005A  
                                     _PIR1bits 0011                ??_EUSART_SetFramingErrorHandler 0025  
                                     _PIR2bits 0012                                       _PIR3bits 0013  
                         i1SPI1_WriteByte@byte 0070                                      _pos_final 00B4  
                                     _SSP1CON1 0215                                       _SSP1CON2 0216  
                                    _pos_atual 0069              _EUSART_DefaultOverrunErrorHandler 0000  
                                     _TMR1_ISR 0C80                                       _TMR4_ISR 0BD9  
                                     _SSP1STAT 0214                              ??_PIN_MANAGER_IOC 0074  
                       ??i1_PWM3_LoadDutyValue 0072                                  txMAX7219@dat0 0024  
                                txMAX7219@dat1 0026                              ??_TMR1_Initialize 0025  
                            ??_PWM3_Initialize 0023                                     _ADCON0bits 009D  
                               _DAC_Initialize 0B05                        __size_of_FVR_Initialize 0004  
                            ??_CCP4_Initialize 0025                                    _initMAX7219 0F1A  
                                   ?_txMAX7219 0024                                    _EUSART_Read 0BE8  
                             ?_SPI1_Initialize 0070                              ??_TMR2_Initialize 0023  
                                  _enviarDados 00B8                                     _EECON1bits 0195  
                             i1txMAX7219@addr0 0074                               i1txMAX7219@addr1 0072  
                            _ADC_GetConversion 0CCE                                    andar@i_1609 0028  
                      ??_OSCILLATOR_Initialize 0023                                    ??__Umul8_16 0025  
                          _EUSART_ErrorHandler 00D0                             ?_ADC_GetConversion 0023  
                             __size_of___fldiv 01B4                               __size_of___flmul 0257  
                             __size_of___fltol 0075                         __end_of_DAC_Initialize 0B0B  
                     _TMR1_SetInterruptHandler 0B6D                       _TMR4_SetInterruptHandler 0B76  
                           _PWM3_LoadDutyValue 0CB2                          _TMR1_InterruptHandler 00CC  
                          ??_ADC_GetConversion 0025                                       ___xxtofl 05A3  
                    __size_of_CCP4_SetCallBack 0009                                       __ptext10 0749  
                                     __ptext11 0081                                       __ptext20 0B6D  
                                     __ptext12 0CEC                                       __ptext21 0B89  
                                     __ptext13 02D8                                     _T1GCONbits 0019  
                                     __ptext30 0B40                                       __ptext22 0B64  
                                     __ptext14 0D63                                       __ptext31 0B37  
                                     __ptext23 0DC0                                       __ptext15 0ADF  
                                     __ptext32 0B05                                       __ptext24 0B5B  
                                     __ptext16 0C3F                                       __ptext41 0BD9  
                                     __ptext33 0BA0                                       __ptext25 0B52  
                                     __ptext17 0B76                                       __ptext50 0BE8  
                                     __ptext42 0003                                       __ptext34 0B94  
                                     __ptext26 0B17                                       __ptext18 0B26  
                                     __ptext51 0C80                                       __ptext43 06D3  
                                     __ptext35 0C1A                                       __ptext27 0ADB  
                                     __ptext19 0C97                                       __ptext60 0AF9  
                                     __ptext52 0AD8                                       __ptext44 0F8C  
                                     __ptext36 0B2E                                       __ptext28 0D10  
                                     __ptext61 0C2C                                       __ptext53 0C09  
                                     __ptext45 07BE                                       __ptext37 0B1E  
                                     __ptext29 0B49                                       __ptext62 0AF3  
                                     __ptext54 0BCA                                       __ptext46 0D35  
                                     __ptext38 0E64                                       __ptext63 0AED  
                                     __ptext55 0AD7                                       __ptext47 0AE8  
                                     __ptext39 0CCE                                       __ptext64 0C53  
                                     __ptext56 0AFF                                       __ptext48 0AE3  
                                     __ptext65 0AD5                                       __ptext57 0BBB  
                                     __ptext49 0B7F                                       __ptext66 0E20  
                                     __ptext58 0AD6                            ?_PWM3_LoadDutyValue 0023  
                                     __ptext67 0C69                                       __ptext59 0BAC  
                                     __ptext68 0BF8                                   _SSP1CON1bits 0215  
                                   _IOCBF0_ISR 0BBB                                     _IOCBF3_ISR 0BCA  
                                     _controle 0650                              ??_TMR4_Initialize 0025  
                  __size_of_EUSART_is_rx_ready 0005                                  __size_of_comm 0076  
                                __size_of_main 0117                                  __size_of_leds 0034  
                     __end_ofi1_SPI1_WriteByte 0AED                              ??_DATAEE_ReadByte 0023  
                    __end_of_ADC_GetConversion 0CEC                       __size_of_CMP1_Initialize 000C  
                      ?_EUSART_SetErrorHandler 0023  EUSART_SetOverrunErrorHandler@interruptHandler 0023  
                         ??_PWM3_LoadDutyValue 0025                                       int$flags 007E  
                                     _position 00BA             __end_of_INTERRUPT_InterruptManager 005E  
                   _INTERRUPT_InterruptManager 0004          __end_of_EUSART_SetFramingErrorHandler 0B49  
       __size_of_EUSART_SetFramingErrorHandler 0009                  _EUSART_SetFramingErrorHandler 0B40  
                              ?_DAC_Initialize 0070                              ??_TMR1_WriteTimer 0072  
                                ??i1_txMAX7219 0074                                     _INTCONbits 000B  
                     __size_of_CMP2_Initialize 000C                           _CCP4_DefaultCallBack 0AD5  
                              i1txMAX7219@dat0 0071                                i1txMAX7219@dat1 0073  
                                   _FVRCONbits 0117                                    ??_txMAX7219 0027  
                      __size_of_WDT_Initialize 0004                                       intlevel1 0000  
                              _CCP4_CaptureISR 0C53                        ?_PIN_MANAGER_Initialize 0070  
                              Enc@colect_value 0074                 __end_of_EUSART_SetErrorHandler 0B40  
                             ??_ADC_Initialize 0023                                  ?_deslocamento 0070  
EUSART_SetFramingErrorHandler@interruptHandler 0023                    PWM3_LoadDutyValue@dutyValue 0023  
                                __pstringtext1 07FF                                 _FVR_Initialize 0ADB  
                       __Umul8_16@multiplicand 0023                          ?_CCP4_DefaultCallBack 0074  
                  ?_IOCBF0_SetInterruptHandler 0023                    ?_IOCBF3_SetInterruptHandler 0023  
                          __end_ofi1_txMAX7219 0D63                                    ?_IOCBF0_ISR 0070  
                           EUSART_Write@txData 0070                                    ?_IOCBF3_ISR 0070  
               __end_of_PIN_MANAGER_Initialize 0DF0               ??_IOCBF0_DefaultInterruptHandler 0070  
              ?_IOCBF0_DefaultInterruptHandler 0070                                _PIN_MANAGER_IOC 0C09  
                         __Umul8_16@multiplier 002B                     __size_of_ADC_GetConversion 001E  
                              _TMR1_Initialize 0C97                                _PWM3_Initialize 0B64  
                   __end_of_spi1_configuration 0803                              __Umul8_16@product 0027  
                               ??_deslocamento 0027  
