

Microchip MPLAB XC8 Assembler V2.32 build 20210201212658 
                                                                                               Wed Sep 21 00:21:54 2022

Microchip MPLAB XC8 C Compiler v2.32 (Free license) build 20210201212658 Og1 
     1                           	processor	16F1827
     2                           	pagewidth 120
     3                           	opt	flic
     4                           	psect	eeprom_data,global,class=EEDATA,space=3,delta=2,noexec
     5                           	psect	idataBANK1,global,class=CODE,delta=2,noexec
     6                           	psect	stringtext1,global,class=STRCODE,delta=2,noexec
     7                           	psect	nvBANK1,global,class=BANK1,space=1,delta=1,noexec
     8                           	psect	nvBANK2,global,class=BANK2,space=1,delta=1,noexec
     9                           	psect	cinit,global,class=CODE,merge=1,delta=2
    10                           	psect	bssBANK0,global,class=BANK0,space=1,delta=1,noexec
    11                           	psect	bssBANK1,global,class=BANK1,space=1,delta=1,noexec
    12                           	psect	dataBANK1,global,class=BANK1,space=1,delta=1,noexec
    13                           	psect	bssBANK2,global,class=BANK2,space=1,delta=1,noexec
    14                           	psect	clrtext,global,class=CODE,delta=2
    15                           	psect	cstackBANK2,global,class=BANK2,space=1,delta=1,noexec
    16                           	psect	cstackBANK1,global,class=BANK1,space=1,delta=1,noexec
    17                           	psect	cstackCOMMON,global,class=COMMON,space=1,delta=1,noexec
    18                           	psect	cstackBANK0,global,class=BANK0,space=1,delta=1,noexec
    19                           	psect	maintext,global,class=CODE,merge=1,split=1,delta=2
    20                           	psect	text1,local,class=CODE,merge=1,delta=2
    21                           	psect	text2,local,class=CODE,merge=1,delta=2
    22                           	psect	text3,local,class=CODE,merge=1,delta=2
    23                           	psect	text4,local,class=CODE,merge=1,delta=2
    24                           	psect	text5,local,class=CODE,merge=1,delta=2
    25                           	psect	text6,local,class=CODE,merge=1,delta=2
    26                           	psect	text7,local,class=CODE,merge=1,delta=2,group=1
    27                           	psect	text8,local,class=CODE,merge=1,delta=2,group=1
    28                           	psect	text9,local,class=CODE,merge=1,delta=2,group=1
    29                           	psect	text10,local,class=CODE,merge=1,delta=2,group=1
    30                           	psect	text11,local,class=CODE,merge=1,delta=2,group=1
    31                           	psect	text12,local,class=CODE,merge=1,delta=2
    32                           	psect	text13,local,class=CODE,merge=1,delta=2
    33                           	psect	text14,local,class=CODE,merge=1,delta=2
    34                           	psect	text15,local,class=CODE,merge=1,delta=2
    35                           	psect	text16,local,class=CODE,merge=1,delta=2
    36                           	psect	text17,local,class=CODE,merge=1,delta=2
    37                           	psect	text18,local,class=CODE,merge=1,delta=2
    38                           	psect	text19,local,class=CODE,merge=1,delta=2
    39                           	psect	text20,local,class=CODE,merge=1,delta=2
    40                           	psect	text21,local,class=CODE,merge=1,delta=2
    41                           	psect	text22,local,class=CODE,merge=1,delta=2
    42                           	psect	text23,local,class=CODE,merge=1,delta=2
    43                           	psect	text24,local,class=CODE,merge=1,delta=2
    44                           	psect	text25,local,class=CODE,merge=1,delta=2
    45                           	psect	text26,local,class=CODE,merge=1,delta=2
    46                           	psect	text27,local,class=CODE,merge=1,delta=2
    47                           	psect	text28,local,class=CODE,merge=1,delta=2
    48                           	psect	text29,local,class=CODE,merge=1,delta=2
    49                           	psect	text30,local,class=CODE,merge=1,delta=2
    50                           	psect	text31,local,class=CODE,merge=1,delta=2
    51                           	psect	text32,local,class=CODE,merge=1,delta=2
    52                           	psect	text33,local,class=CODE,merge=1,delta=2
    53                           	psect	text34,local,class=CODE,merge=1,delta=2
    54                           	psect	text35,local,class=CODE,merge=1,delta=2
    55                           	psect	text36,local,class=CODE,merge=1,delta=2
    56                           	psect	text37,local,class=CODE,merge=1,delta=2
    57                           	psect	text38,local,class=CODE,merge=1,delta=2
    58                           	psect	text39,local,class=CODE,merge=1,delta=2
    59                           	psect	intentry,global,class=CODE,delta=2
    60                           	psect	text41,local,class=CODE,merge=1,delta=2
    61                           	psect	text42,local,class=CODE,merge=1,delta=2
    62                           	psect	text43,local,class=CODE,merge=1,delta=2
    63                           	psect	text44,local,class=CODE,merge=1,delta=2
    64                           	psect	text45,local,class=CODE,merge=1,delta=2
    65                           	psect	text46,local,class=CODE,merge=1,delta=2
    66                           	psect	text47,local,class=CODE,merge=1,delta=2
    67                           	psect	text48,local,class=CODE,merge=1,delta=2
    68                           	psect	text49,local,class=CODE,merge=1,delta=2
    69                           	psect	text50,local,class=CODE,merge=1,delta=2
    70                           	psect	text51,local,class=CODE,merge=1,delta=2
    71                           	psect	text52,local,class=CODE,merge=1,delta=2
    72                           	psect	text53,local,class=CODE,merge=1,delta=2
    73                           	psect	text54,local,class=CODE,merge=1,delta=2
    74                           	psect	text55,local,class=CODE,merge=1,delta=2
    75                           	psect	text56,local,class=CODE,merge=1,delta=2
    76                           	psect	text57,local,class=CODE,merge=1,delta=2
    77                           	psect	text58,local,class=CODE,merge=1,delta=2
    78                           	psect	text59,local,class=CODE,merge=1,delta=2
    79                           	psect	text60,local,class=CODE,merge=1,delta=2
    80                           	psect	text61,local,class=CODE,merge=1,delta=2
    81                           	psect	text62,local,class=CODE,merge=1,delta=2
    82                           	psect	text63,local,class=CODE,merge=1,delta=2
    83                           	psect	text64,local,class=CODE,merge=1,delta=2
    84                           	psect	text65,local,class=CODE,merge=1,delta=2
    85                           	psect	text66,local,class=CODE,merge=1,delta=2
    86                           	psect	text67,local,class=CODE,merge=1,delta=2
    87                           	psect	text68,local,class=CODE,merge=1,delta=2
    88                           	psect	text69,local,class=CODE,merge=1,delta=2
    89                           	psect	text70,local,class=CODE,merge=1,delta=2
    90                           	psect	text71,local,class=CODE,merge=1,delta=2
    91                           	psect	text72,local,class=CODE,merge=1,delta=2
    92                           	psect	text73,local,class=CODE,merge=1,delta=2
    93                           	psect	text74,local,class=CODE,merge=1,delta=2
    94                           	psect	idloc,global,abs,ovrld,class=IDLOC,space=5,delta=2,noexec
    95                           	psect	config,global,abs,ovrld,class=CONFIG,space=4,delta=2,noexec
    96                           	dabs	1,0x7E,2
    97  0000                     
    98                           ; Version 2.40
    99                           ; Generated 17/11/2021 GMT
   100                           ; 
   101                           ; Copyright © 2021, Microchip Technology Inc. and its subsidiaries ("Microchip")
   102                           ; All rights reserved.
   103                           ; 
   104                           ; This software is developed by Microchip Technology Inc. and its subsidiaries ("Microch
      +                          ip").
   105                           ; 
   106                           ; Redistribution and use in source and binary forms, with or without modification, are
   107                           ; permitted provided that the following conditions are met:
   108                           ; 
   109                           ;     1. Redistributions of source code must retain the above copyright notice, this lis
      +                          t of
   110                           ;        conditions and the following disclaimer.
   111                           ; 
   112                           ;     2. Redistributions in binary form must reproduce the above copyright notice, this 
      +                          list
   113                           ;        of conditions and the following disclaimer in the documentation and/or other
   114                           ;        materials provided with the distribution. Publication is not required when
   115                           ;        this file is used in an embedded application.
   116                           ; 
   117                           ;     3. Microchip's name may not be used to endorse or promote products derived from th
      +                          is
   118                           ;        software without specific prior written permission.
   119                           ; 
   120                           ; THIS SOFTWARE IS PROVIDED BY MICROCHIP "AS IS" AND ANY EXPRESS OR IMPLIED WARRANTIES,
   121                           ; INCLUDING, BUT NOT LIMITED TO, THE IMPLIED WARRANTIES OF MERCHANTABILITY AND FITNESS F
      +                          OR
   122                           ; PURPOSE ARE DISCLAIMED.  IN NO EVENT SHALL MICROCHIP BE LIABLE FOR ANY DIRECT, INDIREC
      +                          T,
   123                           ; INCIDENTAL, SPECIAL, EXEMPLARY, OR CONSEQUENTIAL DAMAGES (INCLUDING BUT NOT LIMITED TO
   124                           ; PROCUREMENT OF SUBSTITUTE GOODS OR SERVICES; LOSS OF USE, DATA OR PROFITS; OR BUSINESS
   125                           ; INTERRUPTION) HOWSOEVER CAUSED AND ON ANY THEORY OF LIABILITY, WHETHER IN CONTRACT, ST
      +                          RICT
   126                           ; LIABILITY, OR TORT (INCLUDING NEGLIGENCE OR OTHERWISE) ARISING IN ANY WAY OUT OF THE U
      +                          SE OF
   127                           ; THIS SOFTWARE, EVEN IF ADVISED OF THE POSSIBILITY OF SUCH DAMAGE.
   128                           ; 
   129                           ; 
   130                           ; Code-generator required, PIC16F1827 Definitions
   131                           ; 
   132                           ; SFR Addresses
   133  0000                     	;# 
   134  0001                     	;# 
   135  0002                     	;# 
   136  0003                     	;# 
   137  0004                     	;# 
   138  0005                     	;# 
   139  0006                     	;# 
   140  0007                     	;# 
   141  0008                     	;# 
   142  0009                     	;# 
   143  000A                     	;# 
   144  000B                     	;# 
   145  000C                     	;# 
   146  000D                     	;# 
   147  0011                     	;# 
   148  0012                     	;# 
   149  0013                     	;# 
   150  0014                     	;# 
   151  0015                     	;# 
   152  0016                     	;# 
   153  0016                     	;# 
   154  0017                     	;# 
   155  0018                     	;# 
   156  0019                     	;# 
   157  001A                     	;# 
   158  001B                     	;# 
   159  001C                     	;# 
   160  001E                     	;# 
   161  001F                     	;# 
   162  008C                     	;# 
   163  008D                     	;# 
   164  0091                     	;# 
   165  0092                     	;# 
   166  0093                     	;# 
   167  0094                     	;# 
   168  0095                     	;# 
   169  0096                     	;# 
   170  0097                     	;# 
   171  0098                     	;# 
   172  0099                     	;# 
   173  009A                     	;# 
   174  009B                     	;# 
   175  009B                     	;# 
   176  009C                     	;# 
   177  009D                     	;# 
   178  009E                     	;# 
   179  010C                     	;# 
   180  010D                     	;# 
   181  0111                     	;# 
   182  0112                     	;# 
   183  0113                     	;# 
   184  0114                     	;# 
   185  0115                     	;# 
   186  0116                     	;# 
   187  0117                     	;# 
   188  0118                     	;# 
   189  0119                     	;# 
   190  011A                     	;# 
   191  011B                     	;# 
   192  011D                     	;# 
   193  011E                     	;# 
   194  018C                     	;# 
   195  018D                     	;# 
   196  0191                     	;# 
   197  0191                     	;# 
   198  0192                     	;# 
   199  0193                     	;# 
   200  0193                     	;# 
   201  0193                     	;# 
   202  0194                     	;# 
   203  0195                     	;# 
   204  0196                     	;# 
   205  0199                     	;# 
   206  019A                     	;# 
   207  019B                     	;# 
   208  019B                     	;# 
   209  019B                     	;# 
   210  019B                     	;# 
   211  019C                     	;# 
   212  019C                     	;# 
   213  019D                     	;# 
   214  019E                     	;# 
   215  019F                     	;# 
   216  020C                     	;# 
   217  020D                     	;# 
   218  0211                     	;# 
   219  0211                     	;# 
   220  0212                     	;# 
   221  0212                     	;# 
   222  0213                     	;# 
   223  0213                     	;# 
   224  0214                     	;# 
   225  0214                     	;# 
   226  0215                     	;# 
   227  0215                     	;# 
   228  0215                     	;# 
   229  0216                     	;# 
   230  0216                     	;# 
   231  0217                     	;# 
   232  0217                     	;# 
   233  0219                     	;# 
   234  021A                     	;# 
   235  021B                     	;# 
   236  021C                     	;# 
   237  021D                     	;# 
   238  021E                     	;# 
   239  021F                     	;# 
   240  0291                     	;# 
   241  0291                     	;# 
   242  0292                     	;# 
   243  0293                     	;# 
   244  0294                     	;# 
   245  0295                     	;# 
   246  0295                     	;# 
   247  0296                     	;# 
   248  0298                     	;# 
   249  0298                     	;# 
   250  0299                     	;# 
   251  029A                     	;# 
   252  029B                     	;# 
   253  029C                     	;# 
   254  029C                     	;# 
   255  029D                     	;# 
   256  029E                     	;# 
   257  029E                     	;# 
   258  0311                     	;# 
   259  0311                     	;# 
   260  0312                     	;# 
   261  0313                     	;# 
   262  0318                     	;# 
   263  0318                     	;# 
   264  0319                     	;# 
   265  031A                     	;# 
   266  0394                     	;# 
   267  0395                     	;# 
   268  0396                     	;# 
   269  039A                     	;# 
   270  039C                     	;# 
   271  039D                     	;# 
   272  039E                     	;# 
   273  039F                     	;# 
   274  0415                     	;# 
   275  0416                     	;# 
   276  0417                     	;# 
   277  041C                     	;# 
   278  041D                     	;# 
   279  041E                     	;# 
   280  0FE4                     	;# 
   281  0FE5                     	;# 
   282  0FE6                     	;# 
   283  0FE7                     	;# 
   284  0FE8                     	;# 
   285  0FE9                     	;# 
   286  0FEA                     	;# 
   287  0FEB                     	;# 
   288  0FED                     	;# 
   289  0FEE                     	;# 
   290  0FEF                     	;# 
   291  0000                     	;# 
   292  0001                     	;# 
   293  0002                     	;# 
   294  0003                     	;# 
   295  0004                     	;# 
   296  0005                     	;# 
   297  0006                     	;# 
   298  0007                     	;# 
   299  0008                     	;# 
   300  0009                     	;# 
   301  000A                     	;# 
   302  000B                     	;# 
   303  000C                     	;# 
   304  000D                     	;# 
   305  0011                     	;# 
   306  0012                     	;# 
   307  0013                     	;# 
   308  0014                     	;# 
   309  0015                     	;# 
   310  0016                     	;# 
   311  0016                     	;# 
   312  0017                     	;# 
   313  0018                     	;# 
   314  0019                     	;# 
   315  001A                     	;# 
   316  001B                     	;# 
   317  001C                     	;# 
   318  001E                     	;# 
   319  001F                     	;# 
   320  008C                     	;# 
   321  008D                     	;# 
   322  0091                     	;# 
   323  0092                     	;# 
   324  0093                     	;# 
   325  0094                     	;# 
   326  0095                     	;# 
   327  0096                     	;# 
   328  0097                     	;# 
   329  0098                     	;# 
   330  0099                     	;# 
   331  009A                     	;# 
   332  009B                     	;# 
   333  009B                     	;# 
   334  009C                     	;# 
   335  009D                     	;# 
   336  009E                     	;# 
   337  010C                     	;# 
   338  010D                     	;# 
   339  0111                     	;# 
   340  0112                     	;# 
   341  0113                     	;# 
   342  0114                     	;# 
   343  0115                     	;# 
   344  0116                     	;# 
   345  0117                     	;# 
   346  0118                     	;# 
   347  0119                     	;# 
   348  011A                     	;# 
   349  011B                     	;# 
   350  011D                     	;# 
   351  011E                     	;# 
   352  018C                     	;# 
   353  018D                     	;# 
   354  0191                     	;# 
   355  0191                     	;# 
   356  0192                     	;# 
   357  0193                     	;# 
   358  0193                     	;# 
   359  0193                     	;# 
   360  0194                     	;# 
   361  0195                     	;# 
   362  0196                     	;# 
   363  0199                     	;# 
   364  019A                     	;# 
   365  019B                     	;# 
   366  019B                     	;# 
   367  019B                     	;# 
   368  019B                     	;# 
   369  019C                     	;# 
   370  019C                     	;# 
   371  019D                     	;# 
   372  019E                     	;# 
   373  019F                     	;# 
   374  020C                     	;# 
   375  020D                     	;# 
   376  0211                     	;# 
   377  0211                     	;# 
   378  0212                     	;# 
   379  0212                     	;# 
   380  0213                     	;# 
   381  0213                     	;# 
   382  0214                     	;# 
   383  0214                     	;# 
   384  0215                     	;# 
   385  0215                     	;# 
   386  0215                     	;# 
   387  0216                     	;# 
   388  0216                     	;# 
   389  0217                     	;# 
   390  0217                     	;# 
   391  0219                     	;# 
   392  021A                     	;# 
   393  021B                     	;# 
   394  021C                     	;# 
   395  021D                     	;# 
   396  021E                     	;# 
   397  021F                     	;# 
   398  0291                     	;# 
   399  0291                     	;# 
   400  0292                     	;# 
   401  0293                     	;# 
   402  0294                     	;# 
   403  0295                     	;# 
   404  0295                     	;# 
   405  0296                     	;# 
   406  0298                     	;# 
   407  0298                     	;# 
   408  0299                     	;# 
   409  029A                     	;# 
   410  029B                     	;# 
   411  029C                     	;# 
   412  029C                     	;# 
   413  029D                     	;# 
   414  029E                     	;# 
   415  029E                     	;# 
   416  0311                     	;# 
   417  0311                     	;# 
   418  0312                     	;# 
   419  0313                     	;# 
   420  0318                     	;# 
   421  0318                     	;# 
   422  0319                     	;# 
   423  031A                     	;# 
   424  0394                     	;# 
   425  0395                     	;# 
   426  0396                     	;# 
   427  039A                     	;# 
   428  039C                     	;# 
   429  039D                     	;# 
   430  039E                     	;# 
   431  039F                     	;# 
   432  0415                     	;# 
   433  0416                     	;# 
   434  0417                     	;# 
   435  041C                     	;# 
   436  041D                     	;# 
   437  041E                     	;# 
   438  0FE4                     	;# 
   439  0FE5                     	;# 
   440  0FE6                     	;# 
   441  0FE7                     	;# 
   442  0FE8                     	;# 
   443  0FE9                     	;# 
   444  0FEA                     	;# 
   445  0FEB                     	;# 
   446  0FED                     	;# 
   447  0FEE                     	;# 
   448  0FEF                     	;# 
   449  0000                     	;# 
   450  0001                     	;# 
   451  0002                     	;# 
   452  0003                     	;# 
   453  0004                     	;# 
   454  0005                     	;# 
   455  0006                     	;# 
   456  0007                     	;# 
   457  0008                     	;# 
   458  0009                     	;# 
   459  000A                     	;# 
   460  000B                     	;# 
   461  000C                     	;# 
   462  000D                     	;# 
   463  0011                     	;# 
   464  0012                     	;# 
   465  0013                     	;# 
   466  0014                     	;# 
   467  0015                     	;# 
   468  0016                     	;# 
   469  0016                     	;# 
   470  0017                     	;# 
   471  0018                     	;# 
   472  0019                     	;# 
   473  001A                     	;# 
   474  001B                     	;# 
   475  001C                     	;# 
   476  001E                     	;# 
   477  001F                     	;# 
   478  008C                     	;# 
   479  008D                     	;# 
   480  0091                     	;# 
   481  0092                     	;# 
   482  0093                     	;# 
   483  0094                     	;# 
   484  0095                     	;# 
   485  0096                     	;# 
   486  0097                     	;# 
   487  0098                     	;# 
   488  0099                     	;# 
   489  009A                     	;# 
   490  009B                     	;# 
   491  009B                     	;# 
   492  009C                     	;# 
   493  009D                     	;# 
   494  009E                     	;# 
   495  010C                     	;# 
   496  010D                     	;# 
   497  0111                     	;# 
   498  0112                     	;# 
   499  0113                     	;# 
   500  0114                     	;# 
   501  0115                     	;# 
   502  0116                     	;# 
   503  0117                     	;# 
   504  0118                     	;# 
   505  0119                     	;# 
   506  011A                     	;# 
   507  011B                     	;# 
   508  011D                     	;# 
   509  011E                     	;# 
   510  018C                     	;# 
   511  018D                     	;# 
   512  0191                     	;# 
   513  0191                     	;# 
   514  0192                     	;# 
   515  0193                     	;# 
   516  0193                     	;# 
   517  0193                     	;# 
   518  0194                     	;# 
   519  0195                     	;# 
   520  0196                     	;# 
   521  0199                     	;# 
   522  019A                     	;# 
   523  019B                     	;# 
   524  019B                     	;# 
   525  019B                     	;# 
   526  019B                     	;# 
   527  019C                     	;# 
   528  019C                     	;# 
   529  019D                     	;# 
   530  019E                     	;# 
   531  019F                     	;# 
   532  020C                     	;# 
   533  020D                     	;# 
   534  0211                     	;# 
   535  0211                     	;# 
   536  0212                     	;# 
   537  0212                     	;# 
   538  0213                     	;# 
   539  0213                     	;# 
   540  0214                     	;# 
   541  0214                     	;# 
   542  0215                     	;# 
   543  0215                     	;# 
   544  0215                     	;# 
   545  0216                     	;# 
   546  0216                     	;# 
   547  0217                     	;# 
   548  0217                     	;# 
   549  0219                     	;# 
   550  021A                     	;# 
   551  021B                     	;# 
   552  021C                     	;# 
   553  021D                     	;# 
   554  021E                     	;# 
   555  021F                     	;# 
   556  0291                     	;# 
   557  0291                     	;# 
   558  0292                     	;# 
   559  0293                     	;# 
   560  0294                     	;# 
   561  0295                     	;# 
   562  0295                     	;# 
   563  0296                     	;# 
   564  0298                     	;# 
   565  0298                     	;# 
   566  0299                     	;# 
   567  029A                     	;# 
   568  029B                     	;# 
   569  029C                     	;# 
   570  029C                     	;# 
   571  029D                     	;# 
   572  029E                     	;# 
   573  029E                     	;# 
   574  0311                     	;# 
   575  0311                     	;# 
   576  0312                     	;# 
   577  0313                     	;# 
   578  0318                     	;# 
   579  0318                     	;# 
   580  0319                     	;# 
   581  031A                     	;# 
   582  0394                     	;# 
   583  0395                     	;# 
   584  0396                     	;# 
   585  039A                     	;# 
   586  039C                     	;# 
   587  039D                     	;# 
   588  039E                     	;# 
   589  039F                     	;# 
   590  0415                     	;# 
   591  0416                     	;# 
   592  0417                     	;# 
   593  041C                     	;# 
   594  041D                     	;# 
   595  041E                     	;# 
   596  0FE4                     	;# 
   597  0FE5                     	;# 
   598  0FE6                     	;# 
   599  0FE7                     	;# 
   600  0FE8                     	;# 
   601  0FE9                     	;# 
   602  0FEA                     	;# 
   603  0FEB                     	;# 
   604  0FED                     	;# 
   605  0FEE                     	;# 
   606  0FEF                     	;# 
   607  0000                     	;# 
   608  0001                     	;# 
   609  0002                     	;# 
   610  0003                     	;# 
   611  0004                     	;# 
   612  0005                     	;# 
   613  0006                     	;# 
   614  0007                     	;# 
   615  0008                     	;# 
   616  0009                     	;# 
   617  000A                     	;# 
   618  000B                     	;# 
   619  000C                     	;# 
   620  000D                     	;# 
   621  0011                     	;# 
   622  0012                     	;# 
   623  0013                     	;# 
   624  0014                     	;# 
   625  0015                     	;# 
   626  0016                     	;# 
   627  0016                     	;# 
   628  0017                     	;# 
   629  0018                     	;# 
   630  0019                     	;# 
   631  001A                     	;# 
   632  001B                     	;# 
   633  001C                     	;# 
   634  001E                     	;# 
   635  001F                     	;# 
   636  008C                     	;# 
   637  008D                     	;# 
   638  0091                     	;# 
   639  0092                     	;# 
   640  0093                     	;# 
   641  0094                     	;# 
   642  0095                     	;# 
   643  0096                     	;# 
   644  0097                     	;# 
   645  0098                     	;# 
   646  0099                     	;# 
   647  009A                     	;# 
   648  009B                     	;# 
   649  009B                     	;# 
   650  009C                     	;# 
   651  009D                     	;# 
   652  009E                     	;# 
   653  010C                     	;# 
   654  010D                     	;# 
   655  0111                     	;# 
   656  0112                     	;# 
   657  0113                     	;# 
   658  0114                     	;# 
   659  0115                     	;# 
   660  0116                     	;# 
   661  0117                     	;# 
   662  0118                     	;# 
   663  0119                     	;# 
   664  011A                     	;# 
   665  011B                     	;# 
   666  011D                     	;# 
   667  011E                     	;# 
   668  018C                     	;# 
   669  018D                     	;# 
   670  0191                     	;# 
   671  0191                     	;# 
   672  0192                     	;# 
   673  0193                     	;# 
   674  0193                     	;# 
   675  0193                     	;# 
   676  0194                     	;# 
   677  0195                     	;# 
   678  0196                     	;# 
   679  0199                     	;# 
   680  019A                     	;# 
   681  019B                     	;# 
   682  019B                     	;# 
   683  019B                     	;# 
   684  019B                     	;# 
   685  019C                     	;# 
   686  019C                     	;# 
   687  019D                     	;# 
   688  019E                     	;# 
   689  019F                     	;# 
   690  020C                     	;# 
   691  020D                     	;# 
   692  0211                     	;# 
   693  0211                     	;# 
   694  0212                     	;# 
   695  0212                     	;# 
   696  0213                     	;# 
   697  0213                     	;# 
   698  0214                     	;# 
   699  0214                     	;# 
   700  0215                     	;# 
   701  0215                     	;# 
   702  0215                     	;# 
   703  0216                     	;# 
   704  0216                     	;# 
   705  0217                     	;# 
   706  0217                     	;# 
   707  0219                     	;# 
   708  021A                     	;# 
   709  021B                     	;# 
   710  021C                     	;# 
   711  021D                     	;# 
   712  021E                     	;# 
   713  021F                     	;# 
   714  0291                     	;# 
   715  0291                     	;# 
   716  0292                     	;# 
   717  0293                     	;# 
   718  0294                     	;# 
   719  0295                     	;# 
   720  0295                     	;# 
   721  0296                     	;# 
   722  0298                     	;# 
   723  0298                     	;# 
   724  0299                     	;# 
   725  029A                     	;# 
   726  029B                     	;# 
   727  029C                     	;# 
   728  029C                     	;# 
   729  029D                     	;# 
   730  029E                     	;# 
   731  029E                     	;# 
   732  0311                     	;# 
   733  0311                     	;# 
   734  0312                     	;# 
   735  0313                     	;# 
   736  0318                     	;# 
   737  0318                     	;# 
   738  0319                     	;# 
   739  031A                     	;# 
   740  0394                     	;# 
   741  0395                     	;# 
   742  0396                     	;# 
   743  039A                     	;# 
   744  039C                     	;# 
   745  039D                     	;# 
   746  039E                     	;# 
   747  039F                     	;# 
   748  0415                     	;# 
   749  0416                     	;# 
   750  0417                     	;# 
   751  041C                     	;# 
   752  041D                     	;# 
   753  041E                     	;# 
   754  0FE4                     	;# 
   755  0FE5                     	;# 
   756  0FE6                     	;# 
   757  0FE7                     	;# 
   758  0FE8                     	;# 
   759  0FE9                     	;# 
   760  0FEA                     	;# 
   761  0FEB                     	;# 
   762  0FED                     	;# 
   763  0FEE                     	;# 
   764  0FEF                     	;# 
   765  0000                     	;# 
   766  0001                     	;# 
   767  0002                     	;# 
   768  0003                     	;# 
   769  0004                     	;# 
   770  0005                     	;# 
   771  0006                     	;# 
   772  0007                     	;# 
   773  0008                     	;# 
   774  0009                     	;# 
   775  000A                     	;# 
   776  000B                     	;# 
   777  000C                     	;# 
   778  000D                     	;# 
   779  0011                     	;# 
   780  0012                     	;# 
   781  0013                     	;# 
   782  0014                     	;# 
   783  0015                     	;# 
   784  0016                     	;# 
   785  0016                     	;# 
   786  0017                     	;# 
   787  0018                     	;# 
   788  0019                     	;# 
   789  001A                     	;# 
   790  001B                     	;# 
   791  001C                     	;# 
   792  001E                     	;# 
   793  001F                     	;# 
   794  008C                     	;# 
   795  008D                     	;# 
   796  0091                     	;# 
   797  0092                     	;# 
   798  0093                     	;# 
   799  0094                     	;# 
   800  0095                     	;# 
   801  0096                     	;# 
   802  0097                     	;# 
   803  0098                     	;# 
   804  0099                     	;# 
   805  009A                     	;# 
   806  009B                     	;# 
   807  009B                     	;# 
   808  009C                     	;# 
   809  009D                     	;# 
   810  009E                     	;# 
   811  010C                     	;# 
   812  010D                     	;# 
   813  0111                     	;# 
   814  0112                     	;# 
   815  0113                     	;# 
   816  0114                     	;# 
   817  0115                     	;# 
   818  0116                     	;# 
   819  0117                     	;# 
   820  0118                     	;# 
   821  0119                     	;# 
   822  011A                     	;# 
   823  011B                     	;# 
   824  011D                     	;# 
   825  011E                     	;# 
   826  018C                     	;# 
   827  018D                     	;# 
   828  0191                     	;# 
   829  0191                     	;# 
   830  0192                     	;# 
   831  0193                     	;# 
   832  0193                     	;# 
   833  0193                     	;# 
   834  0194                     	;# 
   835  0195                     	;# 
   836  0196                     	;# 
   837  0199                     	;# 
   838  019A                     	;# 
   839  019B                     	;# 
   840  019B                     	;# 
   841  019B                     	;# 
   842  019B                     	;# 
   843  019C                     	;# 
   844  019C                     	;# 
   845  019D                     	;# 
   846  019E                     	;# 
   847  019F                     	;# 
   848  020C                     	;# 
   849  020D                     	;# 
   850  0211                     	;# 
   851  0211                     	;# 
   852  0212                     	;# 
   853  0212                     	;# 
   854  0213                     	;# 
   855  0213                     	;# 
   856  0214                     	;# 
   857  0214                     	;# 
   858  0215                     	;# 
   859  0215                     	;# 
   860  0215                     	;# 
   861  0216                     	;# 
   862  0216                     	;# 
   863  0217                     	;# 
   864  0217                     	;# 
   865  0219                     	;# 
   866  021A                     	;# 
   867  021B                     	;# 
   868  021C                     	;# 
   869  021D                     	;# 
   870  021E                     	;# 
   871  021F                     	;# 
   872  0291                     	;# 
   873  0291                     	;# 
   874  0292                     	;# 
   875  0293                     	;# 
   876  0294                     	;# 
   877  0295                     	;# 
   878  0295                     	;# 
   879  0296                     	;# 
   880  0298                     	;# 
   881  0298                     	;# 
   882  0299                     	;# 
   883  029A                     	;# 
   884  029B                     	;# 
   885  029C                     	;# 
   886  029C                     	;# 
   887  029D                     	;# 
   888  029E                     	;# 
   889  029E                     	;# 
   890  0311                     	;# 
   891  0311                     	;# 
   892  0312                     	;# 
   893  0313                     	;# 
   894  0318                     	;# 
   895  0318                     	;# 
   896  0319                     	;# 
   897  031A                     	;# 
   898  0394                     	;# 
   899  0395                     	;# 
   900  0396                     	;# 
   901  039A                     	;# 
   902  039C                     	;# 
   903  039D                     	;# 
   904  039E                     	;# 
   905  039F                     	;# 
   906  0415                     	;# 
   907  0416                     	;# 
   908  0417                     	;# 
   909  041C                     	;# 
   910  041D                     	;# 
   911  041E                     	;# 
   912  0FE4                     	;# 
   913  0FE5                     	;# 
   914  0FE6                     	;# 
   915  0FE7                     	;# 
   916  0FE8                     	;# 
   917  0FE9                     	;# 
   918  0FEA                     	;# 
   919  0FEB                     	;# 
   920  0FED                     	;# 
   921  0FEE                     	;# 
   922  0FEF                     	;# 
   923  0000                     	;# 
   924  0001                     	;# 
   925  0002                     	;# 
   926  0003                     	;# 
   927  0004                     	;# 
   928  0005                     	;# 
   929  0006                     	;# 
   930  0007                     	;# 
   931  0008                     	;# 
   932  0009                     	;# 
   933  000A                     	;# 
   934  000B                     	;# 
   935  000C                     	;# 
   936  000D                     	;# 
   937  0011                     	;# 
   938  0012                     	;# 
   939  0013                     	;# 
   940  0014                     	;# 
   941  0015                     	;# 
   942  0016                     	;# 
   943  0016                     	;# 
   944  0017                     	;# 
   945  0018                     	;# 
   946  0019                     	;# 
   947  001A                     	;# 
   948  001B                     	;# 
   949  001C                     	;# 
   950  001E                     	;# 
   951  001F                     	;# 
   952  008C                     	;# 
   953  008D                     	;# 
   954  0091                     	;# 
   955  0092                     	;# 
   956  0093                     	;# 
   957  0094                     	;# 
   958  0095                     	;# 
   959  0096                     	;# 
   960  0097                     	;# 
   961  0098                     	;# 
   962  0099                     	;# 
   963  009A                     	;# 
   964  009B                     	;# 
   965  009B                     	;# 
   966  009C                     	;# 
   967  009D                     	;# 
   968  009E                     	;# 
   969  010C                     	;# 
   970  010D                     	;# 
   971  0111                     	;# 
   972  0112                     	;# 
   973  0113                     	;# 
   974  0114                     	;# 
   975  0115                     	;# 
   976  0116                     	;# 
   977  0117                     	;# 
   978  0118                     	;# 
   979  0119                     	;# 
   980  011A                     	;# 
   981  011B                     	;# 
   982  011D                     	;# 
   983  011E                     	;# 
   984  018C                     	;# 
   985  018D                     	;# 
   986  0191                     	;# 
   987  0191                     	;# 
   988  0192                     	;# 
   989  0193                     	;# 
   990  0193                     	;# 
   991  0193                     	;# 
   992  0194                     	;# 
   993  0195                     	;# 
   994  0196                     	;# 
   995  0199                     	;# 
   996  019A                     	;# 
   997  019B                     	;# 
   998  019B                     	;# 
   999  019B                     	;# 
  1000  019B                     	;# 
  1001  019C                     	;# 
  1002  019C                     	;# 
  1003  019D                     	;# 
  1004  019E                     	;# 
  1005  019F                     	;# 
  1006  020C                     	;# 
  1007  020D                     	;# 
  1008  0211                     	;# 
  1009  0211                     	;# 
  1010  0212                     	;# 
  1011  0212                     	;# 
  1012  0213                     	;# 
  1013  0213                     	;# 
  1014  0214                     	;# 
  1015  0214                     	;# 
  1016  0215                     	;# 
  1017  0215                     	;# 
  1018  0215                     	;# 
  1019  0216                     	;# 
  1020  0216                     	;# 
  1021  0217                     	;# 
  1022  0217                     	;# 
  1023  0219                     	;# 
  1024  021A                     	;# 
  1025  021B                     	;# 
  1026  021C                     	;# 
  1027  021D                     	;# 
  1028  021E                     	;# 
  1029  021F                     	;# 
  1030  0291                     	;# 
  1031  0291                     	;# 
  1032  0292                     	;# 
  1033  0293                     	;# 
  1034  0294                     	;# 
  1035  0295                     	;# 
  1036  0295                     	;# 
  1037  0296                     	;# 
  1038  0298                     	;# 
  1039  0298                     	;# 
  1040  0299                     	;# 
  1041  029A                     	;# 
  1042  029B                     	;# 
  1043  029C                     	;# 
  1044  029C                     	;# 
  1045  029D                     	;# 
  1046  029E                     	;# 
  1047  029E                     	;# 
  1048  0311                     	;# 
  1049  0311                     	;# 
  1050  0312                     	;# 
  1051  0313                     	;# 
  1052  0318                     	;# 
  1053  0318                     	;# 
  1054  0319                     	;# 
  1055  031A                     	;# 
  1056  0394                     	;# 
  1057  0395                     	;# 
  1058  0396                     	;# 
  1059  039A                     	;# 
  1060  039C                     	;# 
  1061  039D                     	;# 
  1062  039E                     	;# 
  1063  039F                     	;# 
  1064  0415                     	;# 
  1065  0416                     	;# 
  1066  0417                     	;# 
  1067  041C                     	;# 
  1068  041D                     	;# 
  1069  041E                     	;# 
  1070  0FE4                     	;# 
  1071  0FE5                     	;# 
  1072  0FE6                     	;# 
  1073  0FE7                     	;# 
  1074  0FE8                     	;# 
  1075  0FE9                     	;# 
  1076  0FEA                     	;# 
  1077  0FEB                     	;# 
  1078  0FED                     	;# 
  1079  0FEE                     	;# 
  1080  0FEF                     	;# 
  1081  0000                     	;# 
  1082  0001                     	;# 
  1083  0002                     	;# 
  1084  0003                     	;# 
  1085  0004                     	;# 
  1086  0005                     	;# 
  1087  0006                     	;# 
  1088  0007                     	;# 
  1089  0008                     	;# 
  1090  0009                     	;# 
  1091  000A                     	;# 
  1092  000B                     	;# 
  1093  000C                     	;# 
  1094  000D                     	;# 
  1095  0011                     	;# 
  1096  0012                     	;# 
  1097  0013                     	;# 
  1098  0014                     	;# 
  1099  0015                     	;# 
  1100  0016                     	;# 
  1101  0016                     	;# 
  1102  0017                     	;# 
  1103  0018                     	;# 
  1104  0019                     	;# 
  1105  001A                     	;# 
  1106  001B                     	;# 
  1107  001C                     	;# 
  1108  001E                     	;# 
  1109  001F                     	;# 
  1110  008C                     	;# 
  1111  008D                     	;# 
  1112  0091                     	;# 
  1113  0092                     	;# 
  1114  0093                     	;# 
  1115  0094                     	;# 
  1116  0095                     	;# 
  1117  0096                     	;# 
  1118  0097                     	;# 
  1119  0098                     	;# 
  1120  0099                     	;# 
  1121  009A                     	;# 
  1122  009B                     	;# 
  1123  009B                     	;# 
  1124  009C                     	;# 
  1125  009D                     	;# 
  1126  009E                     	;# 
  1127  010C                     	;# 
  1128  010D                     	;# 
  1129  0111                     	;# 
  1130  0112                     	;# 
  1131  0113                     	;# 
  1132  0114                     	;# 
  1133  0115                     	;# 
  1134  0116                     	;# 
  1135  0117                     	;# 
  1136  0118                     	;# 
  1137  0119                     	;# 
  1138  011A                     	;# 
  1139  011B                     	;# 
  1140  011D                     	;# 
  1141  011E                     	;# 
  1142  018C                     	;# 
  1143  018D                     	;# 
  1144  0191                     	;# 
  1145  0191                     	;# 
  1146  0192                     	;# 
  1147  0193                     	;# 
  1148  0193                     	;# 
  1149  0193                     	;# 
  1150  0194                     	;# 
  1151  0195                     	;# 
  1152  0196                     	;# 
  1153  0199                     	;# 
  1154  019A                     	;# 
  1155  019B                     	;# 
  1156  019B                     	;# 
  1157  019B                     	;# 
  1158  019B                     	;# 
  1159  019C                     	;# 
  1160  019C                     	;# 
  1161  019D                     	;# 
  1162  019E                     	;# 
  1163  019F                     	;# 
  1164  020C                     	;# 
  1165  020D                     	;# 
  1166  0211                     	;# 
  1167  0211                     	;# 
  1168  0212                     	;# 
  1169  0212                     	;# 
  1170  0213                     	;# 
  1171  0213                     	;# 
  1172  0214                     	;# 
  1173  0214                     	;# 
  1174  0215                     	;# 
  1175  0215                     	;# 
  1176  0215                     	;# 
  1177  0216                     	;# 
  1178  0216                     	;# 
  1179  0217                     	;# 
  1180  0217                     	;# 
  1181  0219                     	;# 
  1182  021A                     	;# 
  1183  021B                     	;# 
  1184  021C                     	;# 
  1185  021D                     	;# 
  1186  021E                     	;# 
  1187  021F                     	;# 
  1188  0291                     	;# 
  1189  0291                     	;# 
  1190  0292                     	;# 
  1191  0293                     	;# 
  1192  0294                     	;# 
  1193  0295                     	;# 
  1194  0295                     	;# 
  1195  0296                     	;# 
  1196  0298                     	;# 
  1197  0298                     	;# 
  1198  0299                     	;# 
  1199  029A                     	;# 
  1200  029B                     	;# 
  1201  029C                     	;# 
  1202  029C                     	;# 
  1203  029D                     	;# 
  1204  029E                     	;# 
  1205  029E                     	;# 
  1206  0311                     	;# 
  1207  0311                     	;# 
  1208  0312                     	;# 
  1209  0313                     	;# 
  1210  0318                     	;# 
  1211  0318                     	;# 
  1212  0319                     	;# 
  1213  031A                     	;# 
  1214  0394                     	;# 
  1215  0395                     	;# 
  1216  0396                     	;# 
  1217  039A                     	;# 
  1218  039C                     	;# 
  1219  039D                     	;# 
  1220  039E                     	;# 
  1221  039F                     	;# 
  1222  0415                     	;# 
  1223  0416                     	;# 
  1224  0417                     	;# 
  1225  041C                     	;# 
  1226  041D                     	;# 
  1227  041E                     	;# 
  1228  0FE4                     	;# 
  1229  0FE5                     	;# 
  1230  0FE6                     	;# 
  1231  0FE7                     	;# 
  1232  0FE8                     	;# 
  1233  0FE9                     	;# 
  1234  0FEA                     	;# 
  1235  0FEB                     	;# 
  1236  0FED                     	;# 
  1237  0FEE                     	;# 
  1238  0FEF                     	;# 
  1239  0000                     	;# 
  1240  0001                     	;# 
  1241  0002                     	;# 
  1242  0003                     	;# 
  1243  0004                     	;# 
  1244  0005                     	;# 
  1245  0006                     	;# 
  1246  0007                     	;# 
  1247  0008                     	;# 
  1248  0009                     	;# 
  1249  000A                     	;# 
  1250  000B                     	;# 
  1251  000C                     	;# 
  1252  000D                     	;# 
  1253  0011                     	;# 
  1254  0012                     	;# 
  1255  0013                     	;# 
  1256  0014                     	;# 
  1257  0015                     	;# 
  1258  0016                     	;# 
  1259  0016                     	;# 
  1260  0017                     	;# 
  1261  0018                     	;# 
  1262  0019                     	;# 
  1263  001A                     	;# 
  1264  001B                     	;# 
  1265  001C                     	;# 
  1266  001E                     	;# 
  1267  001F                     	;# 
  1268  008C                     	;# 
  1269  008D                     	;# 
  1270  0091                     	;# 
  1271  0092                     	;# 
  1272  0093                     	;# 
  1273  0094                     	;# 
  1274  0095                     	;# 
  1275  0096                     	;# 
  1276  0097                     	;# 
  1277  0098                     	;# 
  1278  0099                     	;# 
  1279  009A                     	;# 
  1280  009B                     	;# 
  1281  009B                     	;# 
  1282  009C                     	;# 
  1283  009D                     	;# 
  1284  009E                     	;# 
  1285  010C                     	;# 
  1286  010D                     	;# 
  1287  0111                     	;# 
  1288  0112                     	;# 
  1289  0113                     	;# 
  1290  0114                     	;# 
  1291  0115                     	;# 
  1292  0116                     	;# 
  1293  0117                     	;# 
  1294  0118                     	;# 
  1295  0119                     	;# 
  1296  011A                     	;# 
  1297  011B                     	;# 
  1298  011D                     	;# 
  1299  011E                     	;# 
  1300  018C                     	;# 
  1301  018D                     	;# 
  1302  0191                     	;# 
  1303  0191                     	;# 
  1304  0192                     	;# 
  1305  0193                     	;# 
  1306  0193                     	;# 
  1307  0193                     	;# 
  1308  0194                     	;# 
  1309  0195                     	;# 
  1310  0196                     	;# 
  1311  0199                     	;# 
  1312  019A                     	;# 
  1313  019B                     	;# 
  1314  019B                     	;# 
  1315  019B                     	;# 
  1316  019B                     	;# 
  1317  019C                     	;# 
  1318  019C                     	;# 
  1319  019D                     	;# 
  1320  019E                     	;# 
  1321  019F                     	;# 
  1322  020C                     	;# 
  1323  020D                     	;# 
  1324  0211                     	;# 
  1325  0211                     	;# 
  1326  0212                     	;# 
  1327  0212                     	;# 
  1328  0213                     	;# 
  1329  0213                     	;# 
  1330  0214                     	;# 
  1331  0214                     	;# 
  1332  0215                     	;# 
  1333  0215                     	;# 
  1334  0215                     	;# 
  1335  0216                     	;# 
  1336  0216                     	;# 
  1337  0217                     	;# 
  1338  0217                     	;# 
  1339  0219                     	;# 
  1340  021A                     	;# 
  1341  021B                     	;# 
  1342  021C                     	;# 
  1343  021D                     	;# 
  1344  021E                     	;# 
  1345  021F                     	;# 
  1346  0291                     	;# 
  1347  0291                     	;# 
  1348  0292                     	;# 
  1349  0293                     	;# 
  1350  0294                     	;# 
  1351  0295                     	;# 
  1352  0295                     	;# 
  1353  0296                     	;# 
  1354  0298                     	;# 
  1355  0298                     	;# 
  1356  0299                     	;# 
  1357  029A                     	;# 
  1358  029B                     	;# 
  1359  029C                     	;# 
  1360  029C                     	;# 
  1361  029D                     	;# 
  1362  029E                     	;# 
  1363  029E                     	;# 
  1364  0311                     	;# 
  1365  0311                     	;# 
  1366  0312                     	;# 
  1367  0313                     	;# 
  1368  0318                     	;# 
  1369  0318                     	;# 
  1370  0319                     	;# 
  1371  031A                     	;# 
  1372  0394                     	;# 
  1373  0395                     	;# 
  1374  0396                     	;# 
  1375  039A                     	;# 
  1376  039C                     	;# 
  1377  039D                     	;# 
  1378  039E                     	;# 
  1379  039F                     	;# 
  1380  0415                     	;# 
  1381  0416                     	;# 
  1382  0417                     	;# 
  1383  041C                     	;# 
  1384  041D                     	;# 
  1385  041E                     	;# 
  1386  0FE4                     	;# 
  1387  0FE5                     	;# 
  1388  0FE6                     	;# 
  1389  0FE7                     	;# 
  1390  0FE8                     	;# 
  1391  0FE9                     	;# 
  1392  0FEA                     	;# 
  1393  0FEB                     	;# 
  1394  0FED                     	;# 
  1395  0FEE                     	;# 
  1396  0FEF                     	;# 
  1397  0000                     	;# 
  1398  0001                     	;# 
  1399  0002                     	;# 
  1400  0003                     	;# 
  1401  0004                     	;# 
  1402  0005                     	;# 
  1403  0006                     	;# 
  1404  0007                     	;# 
  1405  0008                     	;# 
  1406  0009                     	;# 
  1407  000A                     	;# 
  1408  000B                     	;# 
  1409  000C                     	;# 
  1410  000D                     	;# 
  1411  0011                     	;# 
  1412  0012                     	;# 
  1413  0013                     	;# 
  1414  0014                     	;# 
  1415  0015                     	;# 
  1416  0016                     	;# 
  1417  0016                     	;# 
  1418  0017                     	;# 
  1419  0018                     	;# 
  1420  0019                     	;# 
  1421  001A                     	;# 
  1422  001B                     	;# 
  1423  001C                     	;# 
  1424  001E                     	;# 
  1425  001F                     	;# 
  1426  008C                     	;# 
  1427  008D                     	;# 
  1428  0091                     	;# 
  1429  0092                     	;# 
  1430  0093                     	;# 
  1431  0094                     	;# 
  1432  0095                     	;# 
  1433  0096                     	;# 
  1434  0097                     	;# 
  1435  0098                     	;# 
  1436  0099                     	;# 
  1437  009A                     	;# 
  1438  009B                     	;# 
  1439  009B                     	;# 
  1440  009C                     	;# 
  1441  009D                     	;# 
  1442  009E                     	;# 
  1443  010C                     	;# 
  1444  010D                     	;# 
  1445  0111                     	;# 
  1446  0112                     	;# 
  1447  0113                     	;# 
  1448  0114                     	;# 
  1449  0115                     	;# 
  1450  0116                     	;# 
  1451  0117                     	;# 
  1452  0118                     	;# 
  1453  0119                     	;# 
  1454  011A                     	;# 
  1455  011B                     	;# 
  1456  011D                     	;# 
  1457  011E                     	;# 
  1458  018C                     	;# 
  1459  018D                     	;# 
  1460  0191                     	;# 
  1461  0191                     	;# 
  1462  0192                     	;# 
  1463  0193                     	;# 
  1464  0193                     	;# 
  1465  0193                     	;# 
  1466  0194                     	;# 
  1467  0195                     	;# 
  1468  0196                     	;# 
  1469  0199                     	;# 
  1470  019A                     	;# 
  1471  019B                     	;# 
  1472  019B                     	;# 
  1473  019B                     	;# 
  1474  019B                     	;# 
  1475  019C                     	;# 
  1476  019C                     	;# 
  1477  019D                     	;# 
  1478  019E                     	;# 
  1479  019F                     	;# 
  1480  020C                     	;# 
  1481  020D                     	;# 
  1482  0211                     	;# 
  1483  0211                     	;# 
  1484  0212                     	;# 
  1485  0212                     	;# 
  1486  0213                     	;# 
  1487  0213                     	;# 
  1488  0214                     	;# 
  1489  0214                     	;# 
  1490  0215                     	;# 
  1491  0215                     	;# 
  1492  0215                     	;# 
  1493  0216                     	;# 
  1494  0216                     	;# 
  1495  0217                     	;# 
  1496  0217                     	;# 
  1497  0219                     	;# 
  1498  021A                     	;# 
  1499  021B                     	;# 
  1500  021C                     	;# 
  1501  021D                     	;# 
  1502  021E                     	;# 
  1503  021F                     	;# 
  1504  0291                     	;# 
  1505  0291                     	;# 
  1506  0292                     	;# 
  1507  0293                     	;# 
  1508  0294                     	;# 
  1509  0295                     	;# 
  1510  0295                     	;# 
  1511  0296                     	;# 
  1512  0298                     	;# 
  1513  0298                     	;# 
  1514  0299                     	;# 
  1515  029A                     	;# 
  1516  029B                     	;# 
  1517  029C                     	;# 
  1518  029C                     	;# 
  1519  029D                     	;# 
  1520  029E                     	;# 
  1521  029E                     	;# 
  1522  0311                     	;# 
  1523  0311                     	;# 
  1524  0312                     	;# 
  1525  0313                     	;# 
  1526  0318                     	;# 
  1527  0318                     	;# 
  1528  0319                     	;# 
  1529  031A                     	;# 
  1530  0394                     	;# 
  1531  0395                     	;# 
  1532  0396                     	;# 
  1533  039A                     	;# 
  1534  039C                     	;# 
  1535  039D                     	;# 
  1536  039E                     	;# 
  1537  039F                     	;# 
  1538  0415                     	;# 
  1539  0416                     	;# 
  1540  0417                     	;# 
  1541  041C                     	;# 
  1542  041D                     	;# 
  1543  041E                     	;# 
  1544  0FE4                     	;# 
  1545  0FE5                     	;# 
  1546  0FE6                     	;# 
  1547  0FE7                     	;# 
  1548  0FE8                     	;# 
  1549  0FE9                     	;# 
  1550  0FEA                     	;# 
  1551  0FEB                     	;# 
  1552  0FED                     	;# 
  1553  0FEE                     	;# 
  1554  0FEF                     	;# 
  1555  0000                     	;# 
  1556  0001                     	;# 
  1557  0002                     	;# 
  1558  0003                     	;# 
  1559  0004                     	;# 
  1560  0005                     	;# 
  1561  0006                     	;# 
  1562  0007                     	;# 
  1563  0008                     	;# 
  1564  0009                     	;# 
  1565  000A                     	;# 
  1566  000B                     	;# 
  1567  000C                     	;# 
  1568  000D                     	;# 
  1569  0011                     	;# 
  1570  0012                     	;# 
  1571  0013                     	;# 
  1572  0014                     	;# 
  1573  0015                     	;# 
  1574  0016                     	;# 
  1575  0016                     	;# 
  1576  0017                     	;# 
  1577  0018                     	;# 
  1578  0019                     	;# 
  1579  001A                     	;# 
  1580  001B                     	;# 
  1581  001C                     	;# 
  1582  001E                     	;# 
  1583  001F                     	;# 
  1584  008C                     	;# 
  1585  008D                     	;# 
  1586  0091                     	;# 
  1587  0092                     	;# 
  1588  0093                     	;# 
  1589  0094                     	;# 
  1590  0095                     	;# 
  1591  0096                     	;# 
  1592  0097                     	;# 
  1593  0098                     	;# 
  1594  0099                     	;# 
  1595  009A                     	;# 
  1596  009B                     	;# 
  1597  009B                     	;# 
  1598  009C                     	;# 
  1599  009D                     	;# 
  1600  009E                     	;# 
  1601  010C                     	;# 
  1602  010D                     	;# 
  1603  0111                     	;# 
  1604  0112                     	;# 
  1605  0113                     	;# 
  1606  0114                     	;# 
  1607  0115                     	;# 
  1608  0116                     	;# 
  1609  0117                     	;# 
  1610  0118                     	;# 
  1611  0119                     	;# 
  1612  011A                     	;# 
  1613  011B                     	;# 
  1614  011D                     	;# 
  1615  011E                     	;# 
  1616  018C                     	;# 
  1617  018D                     	;# 
  1618  0191                     	;# 
  1619  0191                     	;# 
  1620  0192                     	;# 
  1621  0193                     	;# 
  1622  0193                     	;# 
  1623  0193                     	;# 
  1624  0194                     	;# 
  1625  0195                     	;# 
  1626  0196                     	;# 
  1627  0199                     	;# 
  1628  019A                     	;# 
  1629  019B                     	;# 
  1630  019B                     	;# 
  1631  019B                     	;# 
  1632  019B                     	;# 
  1633  019C                     	;# 
  1634  019C                     	;# 
  1635  019D                     	;# 
  1636  019E                     	;# 
  1637  019F                     	;# 
  1638  020C                     	;# 
  1639  020D                     	;# 
  1640  0211                     	;# 
  1641  0211                     	;# 
  1642  0212                     	;# 
  1643  0212                     	;# 
  1644  0213                     	;# 
  1645  0213                     	;# 
  1646  0214                     	;# 
  1647  0214                     	;# 
  1648  0215                     	;# 
  1649  0215                     	;# 
  1650  0215                     	;# 
  1651  0216                     	;# 
  1652  0216                     	;# 
  1653  0217                     	;# 
  1654  0217                     	;# 
  1655  0219                     	;# 
  1656  021A                     	;# 
  1657  021B                     	;# 
  1658  021C                     	;# 
  1659  021D                     	;# 
  1660  021E                     	;# 
  1661  021F                     	;# 
  1662  0291                     	;# 
  1663  0291                     	;# 
  1664  0292                     	;# 
  1665  0293                     	;# 
  1666  0294                     	;# 
  1667  0295                     	;# 
  1668  0295                     	;# 
  1669  0296                     	;# 
  1670  0298                     	;# 
  1671  0298                     	;# 
  1672  0299                     	;# 
  1673  029A                     	;# 
  1674  029B                     	;# 
  1675  029C                     	;# 
  1676  029C                     	;# 
  1677  029D                     	;# 
  1678  029E                     	;# 
  1679  029E                     	;# 
  1680  0311                     	;# 
  1681  0311                     	;# 
  1682  0312                     	;# 
  1683  0313                     	;# 
  1684  0318                     	;# 
  1685  0318                     	;# 
  1686  0319                     	;# 
  1687  031A                     	;# 
  1688  0394                     	;# 
  1689  0395                     	;# 
  1690  0396                     	;# 
  1691  039A                     	;# 
  1692  039C                     	;# 
  1693  039D                     	;# 
  1694  039E                     	;# 
  1695  039F                     	;# 
  1696  0415                     	;# 
  1697  0416                     	;# 
  1698  0417                     	;# 
  1699  041C                     	;# 
  1700  041D                     	;# 
  1701  041E                     	;# 
  1702  0FE4                     	;# 
  1703  0FE5                     	;# 
  1704  0FE6                     	;# 
  1705  0FE7                     	;# 
  1706  0FE8                     	;# 
  1707  0FE9                     	;# 
  1708  0FEA                     	;# 
  1709  0FEB                     	;# 
  1710  0FED                     	;# 
  1711  0FEE                     	;# 
  1712  0FEF                     	;# 
  1713  0000                     	;# 
  1714  0001                     	;# 
  1715  0002                     	;# 
  1716  0003                     	;# 
  1717  0004                     	;# 
  1718  0005                     	;# 
  1719  0006                     	;# 
  1720  0007                     	;# 
  1721  0008                     	;# 
  1722  0009                     	;# 
  1723  000A                     	;# 
  1724  000B                     	;# 
  1725  000C                     	;# 
  1726  000D                     	;# 
  1727  0011                     	;# 
  1728  0012                     	;# 
  1729  0013                     	;# 
  1730  0014                     	;# 
  1731  0015                     	;# 
  1732  0016                     	;# 
  1733  0016                     	;# 
  1734  0017                     	;# 
  1735  0018                     	;# 
  1736  0019                     	;# 
  1737  001A                     	;# 
  1738  001B                     	;# 
  1739  001C                     	;# 
  1740  001E                     	;# 
  1741  001F                     	;# 
  1742  008C                     	;# 
  1743  008D                     	;# 
  1744  0091                     	;# 
  1745  0092                     	;# 
  1746  0093                     	;# 
  1747  0094                     	;# 
  1748  0095                     	;# 
  1749  0096                     	;# 
  1750  0097                     	;# 
  1751  0098                     	;# 
  1752  0099                     	;# 
  1753  009A                     	;# 
  1754  009B                     	;# 
  1755  009B                     	;# 
  1756  009C                     	;# 
  1757  009D                     	;# 
  1758  009E                     	;# 
  1759  010C                     	;# 
  1760  010D                     	;# 
  1761  0111                     	;# 
  1762  0112                     	;# 
  1763  0113                     	;# 
  1764  0114                     	;# 
  1765  0115                     	;# 
  1766  0116                     	;# 
  1767  0117                     	;# 
  1768  0118                     	;# 
  1769  0119                     	;# 
  1770  011A                     	;# 
  1771  011B                     	;# 
  1772  011D                     	;# 
  1773  011E                     	;# 
  1774  018C                     	;# 
  1775  018D                     	;# 
  1776  0191                     	;# 
  1777  0191                     	;# 
  1778  0192                     	;# 
  1779  0193                     	;# 
  1780  0193                     	;# 
  1781  0193                     	;# 
  1782  0194                     	;# 
  1783  0195                     	;# 
  1784  0196                     	;# 
  1785  0199                     	;# 
  1786  019A                     	;# 
  1787  019B                     	;# 
  1788  019B                     	;# 
  1789  019B                     	;# 
  1790  019B                     	;# 
  1791  019C                     	;# 
  1792  019C                     	;# 
  1793  019D                     	;# 
  1794  019E                     	;# 
  1795  019F                     	;# 
  1796  020C                     	;# 
  1797  020D                     	;# 
  1798  0211                     	;# 
  1799  0211                     	;# 
  1800  0212                     	;# 
  1801  0212                     	;# 
  1802  0213                     	;# 
  1803  0213                     	;# 
  1804  0214                     	;# 
  1805  0214                     	;# 
  1806  0215                     	;# 
  1807  0215                     	;# 
  1808  0215                     	;# 
  1809  0216                     	;# 
  1810  0216                     	;# 
  1811  0217                     	;# 
  1812  0217                     	;# 
  1813  0219                     	;# 
  1814  021A                     	;# 
  1815  021B                     	;# 
  1816  021C                     	;# 
  1817  021D                     	;# 
  1818  021E                     	;# 
  1819  021F                     	;# 
  1820  0291                     	;# 
  1821  0291                     	;# 
  1822  0292                     	;# 
  1823  0293                     	;# 
  1824  0294                     	;# 
  1825  0295                     	;# 
  1826  0295                     	;# 
  1827  0296                     	;# 
  1828  0298                     	;# 
  1829  0298                     	;# 
  1830  0299                     	;# 
  1831  029A                     	;# 
  1832  029B                     	;# 
  1833  029C                     	;# 
  1834  029C                     	;# 
  1835  029D                     	;# 
  1836  029E                     	;# 
  1837  029E                     	;# 
  1838  0311                     	;# 
  1839  0311                     	;# 
  1840  0312                     	;# 
  1841  0313                     	;# 
  1842  0318                     	;# 
  1843  0318                     	;# 
  1844  0319                     	;# 
  1845  031A                     	;# 
  1846  0394                     	;# 
  1847  0395                     	;# 
  1848  0396                     	;# 
  1849  039A                     	;# 
  1850  039C                     	;# 
  1851  039D                     	;# 
  1852  039E                     	;# 
  1853  039F                     	;# 
  1854  0415                     	;# 
  1855  0416                     	;# 
  1856  0417                     	;# 
  1857  041C                     	;# 
  1858  041D                     	;# 
  1859  041E                     	;# 
  1860  0FE4                     	;# 
  1861  0FE5                     	;# 
  1862  0FE6                     	;# 
  1863  0FE7                     	;# 
  1864  0FE8                     	;# 
  1865  0FE9                     	;# 
  1866  0FEA                     	;# 
  1867  0FEB                     	;# 
  1868  0FED                     	;# 
  1869  0FEE                     	;# 
  1870  0FEF                     	;# 
  1871  0000                     	;# 
  1872  0001                     	;# 
  1873  0002                     	;# 
  1874  0003                     	;# 
  1875  0004                     	;# 
  1876  0005                     	;# 
  1877  0006                     	;# 
  1878  0007                     	;# 
  1879  0008                     	;# 
  1880  0009                     	;# 
  1881  000A                     	;# 
  1882  000B                     	;# 
  1883  000C                     	;# 
  1884  000D                     	;# 
  1885  0011                     	;# 
  1886  0012                     	;# 
  1887  0013                     	;# 
  1888  0014                     	;# 
  1889  0015                     	;# 
  1890  0016                     	;# 
  1891  0016                     	;# 
  1892  0017                     	;# 
  1893  0018                     	;# 
  1894  0019                     	;# 
  1895  001A                     	;# 
  1896  001B                     	;# 
  1897  001C                     	;# 
  1898  001E                     	;# 
  1899  001F                     	;# 
  1900  008C                     	;# 
  1901  008D                     	;# 
  1902  0091                     	;# 
  1903  0092                     	;# 
  1904  0093                     	;# 
  1905  0094                     	;# 
  1906  0095                     	;# 
  1907  0096                     	;# 
  1908  0097                     	;# 
  1909  0098                     	;# 
  1910  0099                     	;# 
  1911  009A                     	;# 
  1912  009B                     	;# 
  1913  009B                     	;# 
  1914  009C                     	;# 
  1915  009D                     	;# 
  1916  009E                     	;# 
  1917  010C                     	;# 
  1918  010D                     	;# 
  1919  0111                     	;# 
  1920  0112                     	;# 
  1921  0113                     	;# 
  1922  0114                     	;# 
  1923  0115                     	;# 
  1924  0116                     	;# 
  1925  0117                     	;# 
  1926  0118                     	;# 
  1927  0119                     	;# 
  1928  011A                     	;# 
  1929  011B                     	;# 
  1930  011D                     	;# 
  1931  011E                     	;# 
  1932  018C                     	;# 
  1933  018D                     	;# 
  1934  0191                     	;# 
  1935  0191                     	;# 
  1936  0192                     	;# 
  1937  0193                     	;# 
  1938  0193                     	;# 
  1939  0193                     	;# 
  1940  0194                     	;# 
  1941  0195                     	;# 
  1942  0196                     	;# 
  1943  0199                     	;# 
  1944  019A                     	;# 
  1945  019B                     	;# 
  1946  019B                     	;# 
  1947  019B                     	;# 
  1948  019B                     	;# 
  1949  019C                     	;# 
  1950  019C                     	;# 
  1951  019D                     	;# 
  1952  019E                     	;# 
  1953  019F                     	;# 
  1954  020C                     	;# 
  1955  020D                     	;# 
  1956  0211                     	;# 
  1957  0211                     	;# 
  1958  0212                     	;# 
  1959  0212                     	;# 
  1960  0213                     	;# 
  1961  0213                     	;# 
  1962  0214                     	;# 
  1963  0214                     	;# 
  1964  0215                     	;# 
  1965  0215                     	;# 
  1966  0215                     	;# 
  1967  0216                     	;# 
  1968  0216                     	;# 
  1969  0217                     	;# 
  1970  0217                     	;# 
  1971  0219                     	;# 
  1972  021A                     	;# 
  1973  021B                     	;# 
  1974  021C                     	;# 
  1975  021D                     	;# 
  1976  021E                     	;# 
  1977  021F                     	;# 
  1978  0291                     	;# 
  1979  0291                     	;# 
  1980  0292                     	;# 
  1981  0293                     	;# 
  1982  0294                     	;# 
  1983  0295                     	;# 
  1984  0295                     	;# 
  1985  0296                     	;# 
  1986  0298                     	;# 
  1987  0298                     	;# 
  1988  0299                     	;# 
  1989  029A                     	;# 
  1990  029B                     	;# 
  1991  029C                     	;# 
  1992  029C                     	;# 
  1993  029D                     	;# 
  1994  029E                     	;# 
  1995  029E                     	;# 
  1996  0311                     	;# 
  1997  0311                     	;# 
  1998  0312                     	;# 
  1999  0313                     	;# 
  2000  0318                     	;# 
  2001  0318                     	;# 
  2002  0319                     	;# 
  2003  031A                     	;# 
  2004  0394                     	;# 
  2005  0395                     	;# 
  2006  0396                     	;# 
  2007  039A                     	;# 
  2008  039C                     	;# 
  2009  039D                     	;# 
  2010  039E                     	;# 
  2011  039F                     	;# 
  2012  0415                     	;# 
  2013  0416                     	;# 
  2014  0417                     	;# 
  2015  041C                     	;# 
  2016  041D                     	;# 
  2017  041E                     	;# 
  2018  0FE4                     	;# 
  2019  0FE5                     	;# 
  2020  0FE6                     	;# 
  2021  0FE7                     	;# 
  2022  0FE8                     	;# 
  2023  0FE9                     	;# 
  2024  0FEA                     	;# 
  2025  0FEB                     	;# 
  2026  0FED                     	;# 
  2027  0FEE                     	;# 
  2028  0FEF                     	;# 
  2029  0000                     	;# 
  2030  0001                     	;# 
  2031  0002                     	;# 
  2032  0003                     	;# 
  2033  0004                     	;# 
  2034  0005                     	;# 
  2035  0006                     	;# 
  2036  0007                     	;# 
  2037  0008                     	;# 
  2038  0009                     	;# 
  2039  000A                     	;# 
  2040  000B                     	;# 
  2041  000C                     	;# 
  2042  000D                     	;# 
  2043  0011                     	;# 
  2044  0012                     	;# 
  2045  0013                     	;# 
  2046  0014                     	;# 
  2047  0015                     	;# 
  2048  0016                     	;# 
  2049  0016                     	;# 
  2050  0017                     	;# 
  2051  0018                     	;# 
  2052  0019                     	;# 
  2053  001A                     	;# 
  2054  001B                     	;# 
  2055  001C                     	;# 
  2056  001E                     	;# 
  2057  001F                     	;# 
  2058  008C                     	;# 
  2059  008D                     	;# 
  2060  0091                     	;# 
  2061  0092                     	;# 
  2062  0093                     	;# 
  2063  0094                     	;# 
  2064  0095                     	;# 
  2065  0096                     	;# 
  2066  0097                     	;# 
  2067  0098                     	;# 
  2068  0099                     	;# 
  2069  009A                     	;# 
  2070  009B                     	;# 
  2071  009B                     	;# 
  2072  009C                     	;# 
  2073  009D                     	;# 
  2074  009E                     	;# 
  2075  010C                     	;# 
  2076  010D                     	;# 
  2077  0111                     	;# 
  2078  0112                     	;# 
  2079  0113                     	;# 
  2080  0114                     	;# 
  2081  0115                     	;# 
  2082  0116                     	;# 
  2083  0117                     	;# 
  2084  0118                     	;# 
  2085  0119                     	;# 
  2086  011A                     	;# 
  2087  011B                     	;# 
  2088  011D                     	;# 
  2089  011E                     	;# 
  2090  018C                     	;# 
  2091  018D                     	;# 
  2092  0191                     	;# 
  2093  0191                     	;# 
  2094  0192                     	;# 
  2095  0193                     	;# 
  2096  0193                     	;# 
  2097  0193                     	;# 
  2098  0194                     	;# 
  2099  0195                     	;# 
  2100  0196                     	;# 
  2101  0199                     	;# 
  2102  019A                     	;# 
  2103  019B                     	;# 
  2104  019B                     	;# 
  2105  019B                     	;# 
  2106  019B                     	;# 
  2107  019C                     	;# 
  2108  019C                     	;# 
  2109  019D                     	;# 
  2110  019E                     	;# 
  2111  019F                     	;# 
  2112  020C                     	;# 
  2113  020D                     	;# 
  2114  0211                     	;# 
  2115  0211                     	;# 
  2116  0212                     	;# 
  2117  0212                     	;# 
  2118  0213                     	;# 
  2119  0213                     	;# 
  2120  0214                     	;# 
  2121  0214                     	;# 
  2122  0215                     	;# 
  2123  0215                     	;# 
  2124  0215                     	;# 
  2125  0216                     	;# 
  2126  0216                     	;# 
  2127  0217                     	;# 
  2128  0217                     	;# 
  2129  0219                     	;# 
  2130  021A                     	;# 
  2131  021B                     	;# 
  2132  021C                     	;# 
  2133  021D                     	;# 
  2134  021E                     	;# 
  2135  021F                     	;# 
  2136  0291                     	;# 
  2137  0291                     	;# 
  2138  0292                     	;# 
  2139  0293                     	;# 
  2140  0294                     	;# 
  2141  0295                     	;# 
  2142  0295                     	;# 
  2143  0296                     	;# 
  2144  0298                     	;# 
  2145  0298                     	;# 
  2146  0299                     	;# 
  2147  029A                     	;# 
  2148  029B                     	;# 
  2149  029C                     	;# 
  2150  029C                     	;# 
  2151  029D                     	;# 
  2152  029E                     	;# 
  2153  029E                     	;# 
  2154  0311                     	;# 
  2155  0311                     	;# 
  2156  0312                     	;# 
  2157  0313                     	;# 
  2158  0318                     	;# 
  2159  0318                     	;# 
  2160  0319                     	;# 
  2161  031A                     	;# 
  2162  0394                     	;# 
  2163  0395                     	;# 
  2164  0396                     	;# 
  2165  039A                     	;# 
  2166  039C                     	;# 
  2167  039D                     	;# 
  2168  039E                     	;# 
  2169  039F                     	;# 
  2170  0415                     	;# 
  2171  0416                     	;# 
  2172  0417                     	;# 
  2173  041C                     	;# 
  2174  041D                     	;# 
  2175  041E                     	;# 
  2176  0FE4                     	;# 
  2177  0FE5                     	;# 
  2178  0FE6                     	;# 
  2179  0FE7                     	;# 
  2180  0FE8                     	;# 
  2181  0FE9                     	;# 
  2182  0FEA                     	;# 
  2183  0FEB                     	;# 
  2184  0FED                     	;# 
  2185  0FEE                     	;# 
  2186  0FEF                     	;# 
  2187  0000                     	;# 
  2188  0001                     	;# 
  2189  0002                     	;# 
  2190  0003                     	;# 
  2191  0004                     	;# 
  2192  0005                     	;# 
  2193  0006                     	;# 
  2194  0007                     	;# 
  2195  0008                     	;# 
  2196  0009                     	;# 
  2197  000A                     	;# 
  2198  000B                     	;# 
  2199  000C                     	;# 
  2200  000D                     	;# 
  2201  0011                     	;# 
  2202  0012                     	;# 
  2203  0013                     	;# 
  2204  0014                     	;# 
  2205  0015                     	;# 
  2206  0016                     	;# 
  2207  0016                     	;# 
  2208  0017                     	;# 
  2209  0018                     	;# 
  2210  0019                     	;# 
  2211  001A                     	;# 
  2212  001B                     	;# 
  2213  001C                     	;# 
  2214  001E                     	;# 
  2215  001F                     	;# 
  2216  008C                     	;# 
  2217  008D                     	;# 
  2218  0091                     	;# 
  2219  0092                     	;# 
  2220  0093                     	;# 
  2221  0094                     	;# 
  2222  0095                     	;# 
  2223  0096                     	;# 
  2224  0097                     	;# 
  2225  0098                     	;# 
  2226  0099                     	;# 
  2227  009A                     	;# 
  2228  009B                     	;# 
  2229  009B                     	;# 
  2230  009C                     	;# 
  2231  009D                     	;# 
  2232  009E                     	;# 
  2233  010C                     	;# 
  2234  010D                     	;# 
  2235  0111                     	;# 
  2236  0112                     	;# 
  2237  0113                     	;# 
  2238  0114                     	;# 
  2239  0115                     	;# 
  2240  0116                     	;# 
  2241  0117                     	;# 
  2242  0118                     	;# 
  2243  0119                     	;# 
  2244  011A                     	;# 
  2245  011B                     	;# 
  2246  011D                     	;# 
  2247  011E                     	;# 
  2248  018C                     	;# 
  2249  018D                     	;# 
  2250  0191                     	;# 
  2251  0191                     	;# 
  2252  0192                     	;# 
  2253  0193                     	;# 
  2254  0193                     	;# 
  2255  0193                     	;# 
  2256  0194                     	;# 
  2257  0195                     	;# 
  2258  0196                     	;# 
  2259  0199                     	;# 
  2260  019A                     	;# 
  2261  019B                     	;# 
  2262  019B                     	;# 
  2263  019B                     	;# 
  2264  019B                     	;# 
  2265  019C                     	;# 
  2266  019C                     	;# 
  2267  019D                     	;# 
  2268  019E                     	;# 
  2269  019F                     	;# 
  2270  020C                     	;# 
  2271  020D                     	;# 
  2272  0211                     	;# 
  2273  0211                     	;# 
  2274  0212                     	;# 
  2275  0212                     	;# 
  2276  0213                     	;# 
  2277  0213                     	;# 
  2278  0214                     	;# 
  2279  0214                     	;# 
  2280  0215                     	;# 
  2281  0215                     	;# 
  2282  0215                     	;# 
  2283  0216                     	;# 
  2284  0216                     	;# 
  2285  0217                     	;# 
  2286  0217                     	;# 
  2287  0219                     	;# 
  2288  021A                     	;# 
  2289  021B                     	;# 
  2290  021C                     	;# 
  2291  021D                     	;# 
  2292  021E                     	;# 
  2293  021F                     	;# 
  2294  0291                     	;# 
  2295  0291                     	;# 
  2296  0292                     	;# 
  2297  0293                     	;# 
  2298  0294                     	;# 
  2299  0295                     	;# 
  2300  0295                     	;# 
  2301  0296                     	;# 
  2302  0298                     	;# 
  2303  0298                     	;# 
  2304  0299                     	;# 
  2305  029A                     	;# 
  2306  029B                     	;# 
  2307  029C                     	;# 
  2308  029C                     	;# 
  2309  029D                     	;# 
  2310  029E                     	;# 
  2311  029E                     	;# 
  2312  0311                     	;# 
  2313  0311                     	;# 
  2314  0312                     	;# 
  2315  0313                     	;# 
  2316  0318                     	;# 
  2317  0318                     	;# 
  2318  0319                     	;# 
  2319  031A                     	;# 
  2320  0394                     	;# 
  2321  0395                     	;# 
  2322  0396                     	;# 
  2323  039A                     	;# 
  2324  039C                     	;# 
  2325  039D                     	;# 
  2326  039E                     	;# 
  2327  039F                     	;# 
  2328  0415                     	;# 
  2329  0416                     	;# 
  2330  0417                     	;# 
  2331  041C                     	;# 
  2332  041D                     	;# 
  2333  041E                     	;# 
  2334  0FE4                     	;# 
  2335  0FE5                     	;# 
  2336  0FE6                     	;# 
  2337  0FE7                     	;# 
  2338  0FE8                     	;# 
  2339  0FE9                     	;# 
  2340  0FEA                     	;# 
  2341  0FEB                     	;# 
  2342  0FED                     	;# 
  2343  0FEE                     	;# 
  2344  0FEF                     	;# 
  2345  0000                     	;# 
  2346  0001                     	;# 
  2347  0002                     	;# 
  2348  0003                     	;# 
  2349  0004                     	;# 
  2350  0005                     	;# 
  2351  0006                     	;# 
  2352  0007                     	;# 
  2353  0008                     	;# 
  2354  0009                     	;# 
  2355  000A                     	;# 
  2356  000B                     	;# 
  2357  000C                     	;# 
  2358  000D                     	;# 
  2359  0011                     	;# 
  2360  0012                     	;# 
  2361  0013                     	;# 
  2362  0014                     	;# 
  2363  0015                     	;# 
  2364  0016                     	;# 
  2365  0016                     	;# 
  2366  0017                     	;# 
  2367  0018                     	;# 
  2368  0019                     	;# 
  2369  001A                     	;# 
  2370  001B                     	;# 
  2371  001C                     	;# 
  2372  001E                     	;# 
  2373  001F                     	;# 
  2374  008C                     	;# 
  2375  008D                     	;# 
  2376  0091                     	;# 
  2377  0092                     	;# 
  2378  0093                     	;# 
  2379  0094                     	;# 
  2380  0095                     	;# 
  2381  0096                     	;# 
  2382  0097                     	;# 
  2383  0098                     	;# 
  2384  0099                     	;# 
  2385  009A                     	;# 
  2386  009B                     	;# 
  2387  009B                     	;# 
  2388  009C                     	;# 
  2389  009D                     	;# 
  2390  009E                     	;# 
  2391  010C                     	;# 
  2392  010D                     	;# 
  2393  0111                     	;# 
  2394  0112                     	;# 
  2395  0113                     	;# 
  2396  0114                     	;# 
  2397  0115                     	;# 
  2398  0116                     	;# 
  2399  0117                     	;# 
  2400  0118                     	;# 
  2401  0119                     	;# 
  2402  011A                     	;# 
  2403  011B                     	;# 
  2404  011D                     	;# 
  2405  011E                     	;# 
  2406  018C                     	;# 
  2407  018D                     	;# 
  2408  0191                     	;# 
  2409  0191                     	;# 
  2410  0192                     	;# 
  2411  0193                     	;# 
  2412  0193                     	;# 
  2413  0193                     	;# 
  2414  0194                     	;# 
  2415  0195                     	;# 
  2416  0196                     	;# 
  2417  0199                     	;# 
  2418  019A                     	;# 
  2419  019B                     	;# 
  2420  019B                     	;# 
  2421  019B                     	;# 
  2422  019B                     	;# 
  2423  019C                     	;# 
  2424  019C                     	;# 
  2425  019D                     	;# 
  2426  019E                     	;# 
  2427  019F                     	;# 
  2428  020C                     	;# 
  2429  020D                     	;# 
  2430  0211                     	;# 
  2431  0211                     	;# 
  2432  0212                     	;# 
  2433  0212                     	;# 
  2434  0213                     	;# 
  2435  0213                     	;# 
  2436  0214                     	;# 
  2437  0214                     	;# 
  2438  0215                     	;# 
  2439  0215                     	;# 
  2440  0215                     	;# 
  2441  0216                     	;# 
  2442  0216                     	;# 
  2443  0217                     	;# 
  2444  0217                     	;# 
  2445  0219                     	;# 
  2446  021A                     	;# 
  2447  021B                     	;# 
  2448  021C                     	;# 
  2449  021D                     	;# 
  2450  021E                     	;# 
  2451  021F                     	;# 
  2452  0291                     	;# 
  2453  0291                     	;# 
  2454  0292                     	;# 
  2455  0293                     	;# 
  2456  0294                     	;# 
  2457  0295                     	;# 
  2458  0295                     	;# 
  2459  0296                     	;# 
  2460  0298                     	;# 
  2461  0298                     	;# 
  2462  0299                     	;# 
  2463  029A                     	;# 
  2464  029B                     	;# 
  2465  029C                     	;# 
  2466  029C                     	;# 
  2467  029D                     	;# 
  2468  029E                     	;# 
  2469  029E                     	;# 
  2470  0311                     	;# 
  2471  0311                     	;# 
  2472  0312                     	;# 
  2473  0313                     	;# 
  2474  0318                     	;# 
  2475  0318                     	;# 
  2476  0319                     	;# 
  2477  031A                     	;# 
  2478  0394                     	;# 
  2479  0395                     	;# 
  2480  0396                     	;# 
  2481  039A                     	;# 
  2482  039C                     	;# 
  2483  039D                     	;# 
  2484  039E                     	;# 
  2485  039F                     	;# 
  2486  0415                     	;# 
  2487  0416                     	;# 
  2488  0417                     	;# 
  2489  041C                     	;# 
  2490  041D                     	;# 
  2491  041E                     	;# 
  2492  0FE4                     	;# 
  2493  0FE5                     	;# 
  2494  0FE6                     	;# 
  2495  0FE7                     	;# 
  2496  0FE8                     	;# 
  2497  0FE9                     	;# 
  2498  0FEA                     	;# 
  2499  0FEB                     	;# 
  2500  0FED                     	;# 
  2501  0FEE                     	;# 
  2502  0FEF                     	;# 
  2503  0000                     	;# 
  2504  0001                     	;# 
  2505  0002                     	;# 
  2506  0003                     	;# 
  2507  0004                     	;# 
  2508  0005                     	;# 
  2509  0006                     	;# 
  2510  0007                     	;# 
  2511  0008                     	;# 
  2512  0009                     	;# 
  2513  000A                     	;# 
  2514  000B                     	;# 
  2515  000C                     	;# 
  2516  000D                     	;# 
  2517  0011                     	;# 
  2518  0012                     	;# 
  2519  0013                     	;# 
  2520  0014                     	;# 
  2521  0015                     	;# 
  2522  0016                     	;# 
  2523  0016                     	;# 
  2524  0017                     	;# 
  2525  0018                     	;# 
  2526  0019                     	;# 
  2527  001A                     	;# 
  2528  001B                     	;# 
  2529  001C                     	;# 
  2530  001E                     	;# 
  2531  001F                     	;# 
  2532  008C                     	;# 
  2533  008D                     	;# 
  2534  0091                     	;# 
  2535  0092                     	;# 
  2536  0093                     	;# 
  2537  0094                     	;# 
  2538  0095                     	;# 
  2539  0096                     	;# 
  2540  0097                     	;# 
  2541  0098                     	;# 
  2542  0099                     	;# 
  2543  009A                     	;# 
  2544  009B                     	;# 
  2545  009B                     	;# 
  2546  009C                     	;# 
  2547  009D                     	;# 
  2548  009E                     	;# 
  2549  010C                     	;# 
  2550  010D                     	;# 
  2551  0111                     	;# 
  2552  0112                     	;# 
  2553  0113                     	;# 
  2554  0114                     	;# 
  2555  0115                     	;# 
  2556  0116                     	;# 
  2557  0117                     	;# 
  2558  0118                     	;# 
  2559  0119                     	;# 
  2560  011A                     	;# 
  2561  011B                     	;# 
  2562  011D                     	;# 
  2563  011E                     	;# 
  2564  018C                     	;# 
  2565  018D                     	;# 
  2566  0191                     	;# 
  2567  0191                     	;# 
  2568  0192                     	;# 
  2569  0193                     	;# 
  2570  0193                     	;# 
  2571  0193                     	;# 
  2572  0194                     	;# 
  2573  0195                     	;# 
  2574  0196                     	;# 
  2575  0199                     	;# 
  2576  019A                     	;# 
  2577  019B                     	;# 
  2578  019B                     	;# 
  2579  019B                     	;# 
  2580  019B                     	;# 
  2581  019C                     	;# 
  2582  019C                     	;# 
  2583  019D                     	;# 
  2584  019E                     	;# 
  2585  019F                     	;# 
  2586  020C                     	;# 
  2587  020D                     	;# 
  2588  0211                     	;# 
  2589  0211                     	;# 
  2590  0212                     	;# 
  2591  0212                     	;# 
  2592  0213                     	;# 
  2593  0213                     	;# 
  2594  0214                     	;# 
  2595  0214                     	;# 
  2596  0215                     	;# 
  2597  0215                     	;# 
  2598  0215                     	;# 
  2599  0216                     	;# 
  2600  0216                     	;# 
  2601  0217                     	;# 
  2602  0217                     	;# 
  2603  0219                     	;# 
  2604  021A                     	;# 
  2605  021B                     	;# 
  2606  021C                     	;# 
  2607  021D                     	;# 
  2608  021E                     	;# 
  2609  021F                     	;# 
  2610  0291                     	;# 
  2611  0291                     	;# 
  2612  0292                     	;# 
  2613  0293                     	;# 
  2614  0294                     	;# 
  2615  0295                     	;# 
  2616  0295                     	;# 
  2617  0296                     	;# 
  2618  0298                     	;# 
  2619  0298                     	;# 
  2620  0299                     	;# 
  2621  029A                     	;# 
  2622  029B                     	;# 
  2623  029C                     	;# 
  2624  029C                     	;# 
  2625  029D                     	;# 
  2626  029E                     	;# 
  2627  029E                     	;# 
  2628  0311                     	;# 
  2629  0311                     	;# 
  2630  0312                     	;# 
  2631  0313                     	;# 
  2632  0318                     	;# 
  2633  0318                     	;# 
  2634  0319                     	;# 
  2635  031A                     	;# 
  2636  0394                     	;# 
  2637  0395                     	;# 
  2638  0396                     	;# 
  2639  039A                     	;# 
  2640  039C                     	;# 
  2641  039D                     	;# 
  2642  039E                     	;# 
  2643  039F                     	;# 
  2644  0415                     	;# 
  2645  0416                     	;# 
  2646  0417                     	;# 
  2647  041C                     	;# 
  2648  041D                     	;# 
  2649  041E                     	;# 
  2650  0FE4                     	;# 
  2651  0FE5                     	;# 
  2652  0FE6                     	;# 
  2653  0FE7                     	;# 
  2654  0FE8                     	;# 
  2655  0FE9                     	;# 
  2656  0FEA                     	;# 
  2657  0FEB                     	;# 
  2658  0FED                     	;# 
  2659  0FEE                     	;# 
  2660  0FEF                     	;# 
  2661  0000                     	;# 
  2662  0001                     	;# 
  2663  0002                     	;# 
  2664  0003                     	;# 
  2665  0004                     	;# 
  2666  0005                     	;# 
  2667  0006                     	;# 
  2668  0007                     	;# 
  2669  0008                     	;# 
  2670  0009                     	;# 
  2671  000A                     	;# 
  2672  000B                     	;# 
  2673  000C                     	;# 
  2674  000D                     	;# 
  2675  0011                     	;# 
  2676  0012                     	;# 
  2677  0013                     	;# 
  2678  0014                     	;# 
  2679  0015                     	;# 
  2680  0016                     	;# 
  2681  0016                     	;# 
  2682  0017                     	;# 
  2683  0018                     	;# 
  2684  0019                     	;# 
  2685  001A                     	;# 
  2686  001B                     	;# 
  2687  001C                     	;# 
  2688  001E                     	;# 
  2689  001F                     	;# 
  2690  008C                     	;# 
  2691  008D                     	;# 
  2692  0091                     	;# 
  2693  0092                     	;# 
  2694  0093                     	;# 
  2695  0094                     	;# 
  2696  0095                     	;# 
  2697  0096                     	;# 
  2698  0097                     	;# 
  2699  0098                     	;# 
  2700  0099                     	;# 
  2701  009A                     	;# 
  2702  009B                     	;# 
  2703  009B                     	;# 
  2704  009C                     	;# 
  2705  009D                     	;# 
  2706  009E                     	;# 
  2707  010C                     	;# 
  2708  010D                     	;# 
  2709  0111                     	;# 
  2710  0112                     	;# 
  2711  0113                     	;# 
  2712  0114                     	;# 
  2713  0115                     	;# 
  2714  0116                     	;# 
  2715  0117                     	;# 
  2716  0118                     	;# 
  2717  0119                     	;# 
  2718  011A                     	;# 
  2719  011B                     	;# 
  2720  011D                     	;# 
  2721  011E                     	;# 
  2722  018C                     	;# 
  2723  018D                     	;# 
  2724  0191                     	;# 
  2725  0191                     	;# 
  2726  0192                     	;# 
  2727  0193                     	;# 
  2728  0193                     	;# 
  2729  0193                     	;# 
  2730  0194                     	;# 
  2731  0195                     	;# 
  2732  0196                     	;# 
  2733  0199                     	;# 
  2734  019A                     	;# 
  2735  019B                     	;# 
  2736  019B                     	;# 
  2737  019B                     	;# 
  2738  019B                     	;# 
  2739  019C                     	;# 
  2740  019C                     	;# 
  2741  019D                     	;# 
  2742  019E                     	;# 
  2743  019F                     	;# 
  2744  020C                     	;# 
  2745  020D                     	;# 
  2746  0211                     	;# 
  2747  0211                     	;# 
  2748  0212                     	;# 
  2749  0212                     	;# 
  2750  0213                     	;# 
  2751  0213                     	;# 
  2752  0214                     	;# 
  2753  0214                     	;# 
  2754  0215                     	;# 
  2755  0215                     	;# 
  2756  0215                     	;# 
  2757  0216                     	;# 
  2758  0216                     	;# 
  2759  0217                     	;# 
  2760  0217                     	;# 
  2761  0219                     	;# 
  2762  021A                     	;# 
  2763  021B                     	;# 
  2764  021C                     	;# 
  2765  021D                     	;# 
  2766  021E                     	;# 
  2767  021F                     	;# 
  2768  0291                     	;# 
  2769  0291                     	;# 
  2770  0292                     	;# 
  2771  0293                     	;# 
  2772  0294                     	;# 
  2773  0295                     	;# 
  2774  0295                     	;# 
  2775  0296                     	;# 
  2776  0298                     	;# 
  2777  0298                     	;# 
  2778  0299                     	;# 
  2779  029A                     	;# 
  2780  029B                     	;# 
  2781  029C                     	;# 
  2782  029C                     	;# 
  2783  029D                     	;# 
  2784  029E                     	;# 
  2785  029E                     	;# 
  2786  0311                     	;# 
  2787  0311                     	;# 
  2788  0312                     	;# 
  2789  0313                     	;# 
  2790  0318                     	;# 
  2791  0318                     	;# 
  2792  0319                     	;# 
  2793  031A                     	;# 
  2794  0394                     	;# 
  2795  0395                     	;# 
  2796  0396                     	;# 
  2797  039A                     	;# 
  2798  039C                     	;# 
  2799  039D                     	;# 
  2800  039E                     	;# 
  2801  039F                     	;# 
  2802  0415                     	;# 
  2803  0416                     	;# 
  2804  0417                     	;# 
  2805  041C                     	;# 
  2806  041D                     	;# 
  2807  041E                     	;# 
  2808  0FE4                     	;# 
  2809  0FE5                     	;# 
  2810  0FE6                     	;# 
  2811  0FE7                     	;# 
  2812  0FE8                     	;# 
  2813  0FE9                     	;# 
  2814  0FEA                     	;# 
  2815  0FEB                     	;# 
  2816  0FED                     	;# 
  2817  0FEE                     	;# 
  2818  0FEF                     	;# 
  2819  0000                     	;# 
  2820  0001                     	;# 
  2821  0002                     	;# 
  2822  0003                     	;# 
  2823  0004                     	;# 
  2824  0005                     	;# 
  2825  0006                     	;# 
  2826  0007                     	;# 
  2827  0008                     	;# 
  2828  0009                     	;# 
  2829  000A                     	;# 
  2830  000B                     	;# 
  2831  000C                     	;# 
  2832  000D                     	;# 
  2833  0011                     	;# 
  2834  0012                     	;# 
  2835  0013                     	;# 
  2836  0014                     	;# 
  2837  0015                     	;# 
  2838  0016                     	;# 
  2839  0016                     	;# 
  2840  0017                     	;# 
  2841  0018                     	;# 
  2842  0019                     	;# 
  2843  001A                     	;# 
  2844  001B                     	;# 
  2845  001C                     	;# 
  2846  001E                     	;# 
  2847  001F                     	;# 
  2848  008C                     	;# 
  2849  008D                     	;# 
  2850  0091                     	;# 
  2851  0092                     	;# 
  2852  0093                     	;# 
  2853  0094                     	;# 
  2854  0095                     	;# 
  2855  0096                     	;# 
  2856  0097                     	;# 
  2857  0098                     	;# 
  2858  0099                     	;# 
  2859  009A                     	;# 
  2860  009B                     	;# 
  2861  009B                     	;# 
  2862  009C                     	;# 
  2863  009D                     	;# 
  2864  009E                     	;# 
  2865  010C                     	;# 
  2866  010D                     	;# 
  2867  0111                     	;# 
  2868  0112                     	;# 
  2869  0113                     	;# 
  2870  0114                     	;# 
  2871  0115                     	;# 
  2872  0116                     	;# 
  2873  0117                     	;# 
  2874  0118                     	;# 
  2875  0119                     	;# 
  2876  011A                     	;# 
  2877  011B                     	;# 
  2878  011D                     	;# 
  2879  011E                     	;# 
  2880  018C                     	;# 
  2881  018D                     	;# 
  2882  0191                     	;# 
  2883  0191                     	;# 
  2884  0192                     	;# 
  2885  0193                     	;# 
  2886  0193                     	;# 
  2887  0193                     	;# 
  2888  0194                     	;# 
  2889  0195                     	;# 
  2890  0196                     	;# 
  2891  0199                     	;# 
  2892  019A                     	;# 
  2893  019B                     	;# 
  2894  019B                     	;# 
  2895  019B                     	;# 
  2896  019B                     	;# 
  2897  019C                     	;# 
  2898  019C                     	;# 
  2899  019D                     	;# 
  2900  019E                     	;# 
  2901  019F                     	;# 
  2902  020C                     	;# 
  2903  020D                     	;# 
  2904  0211                     	;# 
  2905  0211                     	;# 
  2906  0212                     	;# 
  2907  0212                     	;# 
  2908  0213                     	;# 
  2909  0213                     	;# 
  2910  0214                     	;# 
  2911  0214                     	;# 
  2912  0215                     	;# 
  2913  0215                     	;# 
  2914  0215                     	;# 
  2915  0216                     	;# 
  2916  0216                     	;# 
  2917  0217                     	;# 
  2918  0217                     	;# 
  2919  0219                     	;# 
  2920  021A                     	;# 
  2921  021B                     	;# 
  2922  021C                     	;# 
  2923  021D                     	;# 
  2924  021E                     	;# 
  2925  021F                     	;# 
  2926  0291                     	;# 
  2927  0291                     	;# 
  2928  0292                     	;# 
  2929  0293                     	;# 
  2930  0294                     	;# 
  2931  0295                     	;# 
  2932  0295                     	;# 
  2933  0296                     	;# 
  2934  0298                     	;# 
  2935  0298                     	;# 
  2936  0299                     	;# 
  2937  029A                     	;# 
  2938  029B                     	;# 
  2939  029C                     	;# 
  2940  029C                     	;# 
  2941  029D                     	;# 
  2942  029E                     	;# 
  2943  029E                     	;# 
  2944  0311                     	;# 
  2945  0311                     	;# 
  2946  0312                     	;# 
  2947  0313                     	;# 
  2948  0318                     	;# 
  2949  0318                     	;# 
  2950  0319                     	;# 
  2951  031A                     	;# 
  2952  0394                     	;# 
  2953  0395                     	;# 
  2954  0396                     	;# 
  2955  039A                     	;# 
  2956  039C                     	;# 
  2957  039D                     	;# 
  2958  039E                     	;# 
  2959  039F                     	;# 
  2960  0415                     	;# 
  2961  0416                     	;# 
  2962  0417                     	;# 
  2963  041C                     	;# 
  2964  041D                     	;# 
  2965  041E                     	;# 
  2966  0FE4                     	;# 
  2967  0FE5                     	;# 
  2968  0FE6                     	;# 
  2969  0FE7                     	;# 
  2970  0FE8                     	;# 
  2971  0FE9                     	;# 
  2972  0FEA                     	;# 
  2973  0FEB                     	;# 
  2974  0FED                     	;# 
  2975  0FEE                     	;# 
  2976  0FEF                     	;# 
  2977                           
  2978                           	psect	eeprom_data
  2979  0000  00FF 0081 0081 00FF 0000 0000 0000 00FF 	db	255,129,129,255,0,0,0,255	;# 
  2980  0008  00C2 00A1 0091 008E 0042 0089 0089 0076 	db	194,161,145,142,66,137,137,118	;# 
  2981  0010  001F 0010 0010 00FF 008F 0089 0089 0071 	db	31,16,16,255,143,137,137,113	;# 
  2982  0018  007E 0089 0089 0072 0000 0008 0008 0008 	db	126,137,137,114,0,8,8,8	;# 
  2983  0020  0000 0030 000C 0030 0000 000C 0030 000C 	db	0,48,12,48,0,12,48,12	;# 
  2984  0000                     	;# 
  2985  0001                     	;# 
  2986  0002                     	;# 
  2987  0003                     	;# 
  2988  0004                     	;# 
  2989  0005                     	;# 
  2990  0006                     	;# 
  2991  0007                     	;# 
  2992  0008                     	;# 
  2993  0009                     	;# 
  2994  000A                     	;# 
  2995  000B                     	;# 
  2996  000C                     	;# 
  2997  000D                     	;# 
  2998  0011                     	;# 
  2999  0012                     	;# 
  3000  0013                     	;# 
  3001  0014                     	;# 
  3002  0015                     	;# 
  3003  0016                     	;# 
  3004  0016                     	;# 
  3005  0017                     	;# 
  3006  0018                     	;# 
  3007  0019                     	;# 
  3008  001A                     	;# 
  3009  001B                     	;# 
  3010  001C                     	;# 
  3011  001E                     	;# 
  3012  001F                     	;# 
  3013  008C                     	;# 
  3014  008D                     	;# 
  3015  0091                     	;# 
  3016  0092                     	;# 
  3017  0093                     	;# 
  3018  0094                     	;# 
  3019  0095                     	;# 
  3020  0096                     	;# 
  3021  0097                     	;# 
  3022  0098                     	;# 
  3023  0099                     	;# 
  3024  009A                     	;# 
  3025  009B                     	;# 
  3026  009B                     	;# 
  3027  009C                     	;# 
  3028  009D                     	;# 
  3029  009E                     	;# 
  3030  010C                     	;# 
  3031  010D                     	;# 
  3032  0111                     	;# 
  3033  0112                     	;# 
  3034  0113                     	;# 
  3035  0114                     	;# 
  3036  0115                     	;# 
  3037  0116                     	;# 
  3038  0117                     	;# 
  3039  0118                     	;# 
  3040  0119                     	;# 
  3041  011A                     	;# 
  3042  011B                     	;# 
  3043  011D                     	;# 
  3044  011E                     	;# 
  3045  018C                     	;# 
  3046  018D                     	;# 
  3047  0191                     	;# 
  3048  0191                     	;# 
  3049  0192                     	;# 
  3050  0193                     	;# 
  3051  0193                     	;# 
  3052  0193                     	;# 
  3053  0194                     	;# 
  3054  0195                     	;# 
  3055  0196                     	;# 
  3056  0199                     	;# 
  3057  019A                     	;# 
  3058  019B                     	;# 
  3059  019B                     	;# 
  3060  019B                     	;# 
  3061  019B                     	;# 
  3062  019C                     	;# 
  3063  019C                     	;# 
  3064  019D                     	;# 
  3065  019E                     	;# 
  3066  019F                     	;# 
  3067  020C                     	;# 
  3068  020D                     	;# 
  3069  0211                     	;# 
  3070  0211                     	;# 
  3071  0212                     	;# 
  3072  0212                     	;# 
  3073  0213                     	;# 
  3074  0213                     	;# 
  3075  0214                     	;# 
  3076  0214                     	;# 
  3077  0215                     	;# 
  3078  0215                     	;# 
  3079  0215                     	;# 
  3080  0216                     	;# 
  3081  0216                     	;# 
  3082  0217                     	;# 
  3083  0217                     	;# 
  3084  0219                     	;# 
  3085  021A                     	;# 
  3086  021B                     	;# 
  3087  021C                     	;# 
  3088  021D                     	;# 
  3089  021E                     	;# 
  3090  021F                     	;# 
  3091  0291                     	;# 
  3092  0291                     	;# 
  3093  0292                     	;# 
  3094  0293                     	;# 
  3095  0294                     	;# 
  3096  0295                     	;# 
  3097  0295                     	;# 
  3098  0296                     	;# 
  3099  0298                     	;# 
  3100  0298                     	;# 
  3101  0299                     	;# 
  3102  029A                     	;# 
  3103  029B                     	;# 
  3104  029C                     	;# 
  3105  029C                     	;# 
  3106  029D                     	;# 
  3107  029E                     	;# 
  3108  029E                     	;# 
  3109  0311                     	;# 
  3110  0311                     	;# 
  3111  0312                     	;# 
  3112  0313                     	;# 
  3113  0318                     	;# 
  3114  0318                     	;# 
  3115  0319                     	;# 
  3116  031A                     	;# 
  3117  0394                     	;# 
  3118  0395                     	;# 
  3119  0396                     	;# 
  3120  039A                     	;# 
  3121  039C                     	;# 
  3122  039D                     	;# 
  3123  039E                     	;# 
  3124  039F                     	;# 
  3125  0415                     	;# 
  3126  0416                     	;# 
  3127  0417                     	;# 
  3128  041C                     	;# 
  3129  041D                     	;# 
  3130  041E                     	;# 
  3131  0FE4                     	;# 
  3132  0FE5                     	;# 
  3133  0FE6                     	;# 
  3134  0FE7                     	;# 
  3135  0FE8                     	;# 
  3136  0FE9                     	;# 
  3137  0FEA                     	;# 
  3138  0FEB                     	;# 
  3139  0FED                     	;# 
  3140  0FEE                     	;# 
  3141  0FEF                     	;# 
  3142                           
  3143                           	psect	idataBANK1
  3144  0002                     __pidataBANK1:
  3145                           
  3146                           ;initializer for _count
  3147  0002  340A               	retlw	10
  3148  0003  3400               	retlw	0
  3149                           
  3150                           	psect	stringtext1
  3151  07FF                     __pstringtext1:
  3152  07FF                     _spi1_configuration:
  3153  07FF  3400               	retlw	0
  3154  0800  3440               	retlw	64
  3155  0801  3401               	retlw	1
  3156  0802  3400               	retlw	0
  3157  0803                     __end_of_spi1_configuration:
  3158                           
  3159                           	psect	nvBANK1
  3160  00D5                     __pnvBANK1:
  3161  00D5                     _TMR4_InterruptHandler:
  3162  00D5                     	ds	2
  3163  00D7                     _TMR1_InterruptHandler:
  3164  00D7                     	ds	2
  3165  00D9                     _timer1ReloadVal:
  3166  00D9                     	ds	2
  3167  00DB                     _EUSART_TxDefaultInterruptHandler:
  3168  00DB                     	ds	2
  3169  00DD                     _IOCBF3_InterruptHandler:
  3170  00DD                     	ds	2
  3171  00DF                     _IOCBF0_InterruptHandler:
  3172  00DF                     	ds	2
  3173  00E1                     _eusartTxBufferRemaining:
  3174  00E1                     	ds	1
  3175                           
  3176                           	psect	nvBANK2
  3177  0140                     __pnvBANK2:
  3178  0140                     _CCP4_CallBack:
  3179  0140                     	ds	2
  3180  0142                     _EUSART_ErrorHandler:
  3181  0142                     	ds	2
  3182  0144                     _EUSART_OverrunErrorHandler:
  3183  0144                     	ds	2
  3184  0146                     _EUSART_FramingErrorHandler:
  3185  0146                     	ds	2
  3186  0148                     _EUSART_RxDefaultInterruptHandler:
  3187  0148                     	ds	2
  3188  000C                     _PORTAbits	set	12
  3189  0013                     _PIR3bits	set	19
  3190  0012                     _PIR2bits	set	18
  3191  001C                     _T2CONbits	set	28
  3192  001C                     _T2CON	set	28
  3193  001A                     _TMR2	set	26
  3194  001B                     _PR2	set	27
  3195  0019                     _T1GCONbits	set	25
  3196  0018                     _T1CONbits	set	24
  3197  0018                     _T1CON	set	24
  3198  0016                     _TMR1L	set	22
  3199  0017                     _TMR1H	set	23
  3200  0019                     _T1GCON	set	25
  3201  0011                     _PIR1bits	set	17
  3202  000B                     _INTCONbits	set	11
  3203  0093                     _PIE3bits	set	147
  3204  0092                     _PIE2bits	set	146
  3205  009D                     _ADCON0bits	set	157
  3206  009D                     _ADCON0	set	157
  3207  009C                     _ADRESH	set	156
  3208  009B                     _ADRESL	set	155
  3209  009E                     _ADCON1	set	158
  3210  0091                     _PIE1bits	set	145
  3211  008D                     _TRISBbits	set	141
  3212  0095                     _OPTION_REGbits	set	149
  3213  008D                     _TRISB	set	141
  3214  008C                     _TRISA	set	140
  3215  0097                     _WDTCON	set	151
  3216  0098                     _OSCTUNE	set	152
  3217  0099                     _OSCCON	set	153
  3218  010D                     _LATBbits	set	269
  3219  010C                     _LATAbits	set	268
  3220  0119                     _DACCON1	set	281
  3221  0118                     _DACCON0	set	280
  3222  0114                     _CM2CON1	set	276
  3223  0113                     _CM2CON0	set	275
  3224  0115                     _CMOUTbits	set	277
  3225  0112                     _CM1CON1	set	274
  3226  0111                     _CM1CON0	set	273
  3227  0117                     _FVRCONbits	set	279
  3228  0117                     _FVRCON	set	279
  3229  011E                     _APFCON1	set	286
  3230  011D                     _APFCON0	set	285
  3231  010D                     _LATB	set	269
  3232  010C                     _LATA	set	268
  3233  0116                     _BORCON	set	278
  3234  0199                     _RCREG	set	409
  3235  019D                     _RCSTAbits	set	413
  3236  019A                     _TXREG	set	410
  3237  019E                     _TXSTAbits	set	414
  3238  019C                     _SPBRGH	set	412
  3239  019B                     _SPBRGL	set	411
  3240  019E                     _TXSTA	set	414
  3241  019D                     _RCSTA	set	413
  3242  019F                     _BAUDCON	set	415
  3243  0196                     _EECON2	set	406
  3244  0193                     _EEDATL	set	403
  3245  0194                     _EEDATH	set	404
  3246  0195                     _EECON1bits	set	405
  3247  0192                     _EEADRH	set	402
  3248  0191                     _EEADRL	set	401
  3249  018C                     _ANSELA	set	396
  3250  018D                     _ANSELB	set	397
  3251  0211                     _SSP1BUF	set	529
  3252  0216                     _SSP1CON2	set	534
  3253  0215                     _SSP1CON1bits	set	533
  3254  0212                     _SSP1ADD	set	530
  3255  0215                     _SSP1CON1	set	533
  3256  0214                     _SSP1STAT	set	532
  3257  020C                     _WPUA	set	524
  3258  020D                     _WPUB	set	525
  3259  029E                     _CCPTMRS0bits	set	670
  3260  0319                     _CCPR4H	set	793
  3261  0318                     _CCPR4L	set	792
  3262  031A                     _CCP4CON	set	794
  3263  0312                     _CCPR3H	set	786
  3264  0311                     _CCPR3L	set	785
  3265  0313                     _CCP3CON	set	787
  3266  0394                     _IOCBPbits	set	916
  3267  0395                     _IOCBNbits	set	917
  3268  0396                     _IOCBFbits	set	918
  3269  0417                     _T4CONbits	set	1047
  3270  0417                     _T4CON	set	1047
  3271  0415                     _TMR4	set	1045
  3272  0416                     _PR4	set	1046
  3273                           
  3274                           	psect	cinit
  3275  0082                     start_initialization:	
  3276                           ; #config settings
  3277                           
  3278  0082                     __initialization:
  3279                           
  3280                           ; Initialize objects allocated to BANK1
  3281  0082  0021               	movlb	1	; select bank1
  3282  0083  3180  2002  3180   	fcall	__pidataBANK1	;fetch initializer
  3283  0086  00ED               	movwf	__pdataBANK1& (0+127)
  3284  0087  3180  2003  3180   	fcall	__pidataBANK1+1	;fetch initializer
  3285  008A  00EE               	movwf	(__pdataBANK1+1)& (0+127)
  3286                           
  3287                           ; Clear objects allocated to BANK0
  3288  008B  0020               	movlb	0	; select bank0
  3289  008C  01E9               	clrf	__pbssBANK0& (0+127)
  3290  008D  01EA               	clrf	(__pbssBANK0+1)& (0+127)
  3291  008E  01EB               	clrf	(__pbssBANK0+2)& (0+127)
  3292                           
  3293                           ; Clear objects allocated to BANK1
  3294  008F  30A0               	movlw	low __pbssBANK1
  3295  0090  0084               	movwf	4
  3296  0091  3000               	movlw	high __pbssBANK1
  3297  0092  0085               	movwf	5
  3298  0093  3035               	movlw	53
  3299  0094  3189  2161  3180   	fcall	clear_ram0
  3300                           
  3301                           ; Clear objects allocated to BANK2
  3302  0097  3020               	movlw	low __pbssBANK2
  3303  0098  0084               	movwf	4
  3304  0099  3001               	movlw	high __pbssBANK2
  3305  009A  0085               	movwf	5
  3306  009B  3020               	movlw	32
  3307  009C  3189  2161  3180   	fcall	clear_ram0
  3308  009F                     end_of_initialization:	
  3309                           ;End of C runtime variable initialization code
  3310                           
  3311  009F                     __end_of__initialization:
  3312  009F  107E               	bcf	int$flags,0	;clear compiler interrupt flag (level 1)
  3313  00A0  0020               	movlb	0
  3314  00A1  3184  2CAE         	ljmp	_main	;jump to C main() function
  3315                           
  3316                           	psect	bssBANK0
  3317  0069                     __pbssBANK0:
  3318  0069                     _pos_atual:
  3319  0069                     	ds	2
  3320  006B                     _eusartRxHead:
  3321  006B                     	ds	1
  3322                           
  3323                           	psect	bssBANK1
  3324  00A0                     __pbssBANK1:
  3325  00A0                     _eusartRxStatusBuffer:
  3326  00A0                     	ds	8
  3327  00A8                     _eusartTxBuffer:
  3328  00A8                     	ds	8
  3329  00B0                     _txByte:
  3330  00B0                     	ds	4
  3331  00B4                     _iRx:
  3332  00B4                     	ds	2
  3333  00B6                     _pwm:
  3334  00B6                     	ds	2
  3335  00B8                     _BCD:
  3336  00B8                     	ds	2
  3337  00BA                     _u:
  3338  00BA                     	ds	2
  3339  00BC                     _pos_final:
  3340  00BC                     	ds	2
  3341  00BE                     _ADC_InterruptHandler:
  3342  00BE                     	ds	2
  3343  00C0                     _enviarDados:
  3344  00C0                     	ds	1
  3345  00C1                     _rxByte:
  3346  00C1                     	ds	1
  3347  00C2                     _eusartRxLastError:
  3348  00C2                     	ds	1
  3349  00C3                     _eusartRxCount:
  3350  00C3                     	ds	1
  3351  00C4                     _eusartRxTail:
  3352  00C4                     	ds	1
  3353  00C5                     _eusartTxTail:
  3354  00C5                     	ds	1
  3355  00C6                     _eusartTxHead:
  3356  00C6                     	ds	1
  3357  00C7                     _position:
  3358  00C7                     	ds	4
  3359  00CB                     _colect_value:
  3360  00CB                     	ds	2
  3361  00CD                     _pulsos:
  3362  00CD                     	ds	2
  3363  00CF                     _motor:
  3364  00CF                     	ds	2
  3365  00D1                     _speed:
  3366  00D1                     	ds	2
  3367  00D3                     _temp:
  3368  00D3                     	ds	2
  3369                           
  3370                           	psect	dataBANK1
  3371  00ED                     __pdataBANK1:
  3372  00ED                     _count:
  3373  00ED                     	ds	2
  3374                           
  3375                           	psect	bssBANK2
  3376  0120                     __pbssBANK2:
  3377  0120                     _matrix:
  3378  0120                     	ds	16
  3379  0130                     _LED:
  3380  0130                     	ds	8
  3381  0138                     _eusartRxBuffer:
  3382  0138                     	ds	8
  3383                           
  3384                           	psect	clrtext
  3385  0961                     clear_ram0:	
  3386                           ;	Called with FSR0 containing the base address, and
  3387                           ;	WREG with the size to clear
  3388                           
  3389  0961  0064               	clrwdt	;clear the watchdog before getting into this loop
  3390  0962                     clrloop0:
  3391  0962  0180               	clrf	0	;clear RAM location pointed to by FSR
  3392  0963  3101               	addfsr 0,1
  3393  0964  0B89               	decfsz	9,f	;Have we reached the end of clearing yet?
  3394  0965  2962               	goto	clrloop0	;have we reached the end yet?
  3395  0966  3400               	retlw	0	;all done for this memory range, return
  3396                           
  3397                           	psect	cstackBANK2
  3398  014A                     __pcstackBANK2:
  3399  014A                     ??_main:
  3400                           
  3401                           ; 1 bytes @ 0x0
  3402  014A                     	ds	4
  3403                           
  3404                           	psect	cstackBANK1
  3405  00E2                     __pcstackBANK1:
  3406  00E2                     ?___fltol:
  3407  00E2                     ___fltol@f1:	
  3408                           ; 4 bytes @ 0x0
  3409                           
  3410                           
  3411                           ; 4 bytes @ 0x0
  3412  00E2                     	ds	4
  3413  00E6                     ??___fltol:
  3414                           
  3415                           ; 1 bytes @ 0x4
  3416  00E6                     	ds	5
  3417  00EB                     ___fltol@sign1:
  3418                           
  3419                           ; 1 bytes @ 0x9
  3420  00EB                     	ds	1
  3421  00EC                     ___fltol@exp1:
  3422                           
  3423                           ; 1 bytes @ 0xA
  3424  00EC                     	ds	1
  3425                           
  3426                           	psect	cstackCOMMON
  3427  0070                     __pcstackCOMMON:
  3428  0070                     ?_SPI1_Initialize:
  3429  0070                     ?_PIN_MANAGER_Initialize:	
  3430                           ; 1 bytes @ 0x0
  3431                           
  3432  0070                     ?_OSCILLATOR_Initialize:	
  3433                           ; 1 bytes @ 0x0
  3434                           
  3435  0070                     ?_WDT_Initialize:	
  3436                           ; 1 bytes @ 0x0
  3437                           
  3438  0070                     ?_CMP2_Initialize:	
  3439                           ; 1 bytes @ 0x0
  3440                           
  3441  0070                     ?_FVR_Initialize:	
  3442                           ; 1 bytes @ 0x0
  3443                           
  3444  0070                     ?_DAC_Initialize:	
  3445                           ; 1 bytes @ 0x0
  3446                           
  3447  0070                     ?_TMR4_Initialize:	
  3448                           ; 1 bytes @ 0x0
  3449                           
  3450  0070                     ?_TMR2_Initialize:	
  3451                           ; 1 bytes @ 0x0
  3452                           
  3453  0070                     ?_CMP1_Initialize:	
  3454                           ; 1 bytes @ 0x0
  3455                           
  3456  0070                     ?_ADC_Initialize:	
  3457                           ; 1 bytes @ 0x0
  3458                           
  3459  0070                     ?_CCP4_Initialize:	
  3460                           ; 1 bytes @ 0x0
  3461                           
  3462  0070                     ?_PWM3_Initialize:	
  3463                           ; 1 bytes @ 0x0
  3464                           
  3465  0070                     ?_TMR1_Initialize:	
  3466                           ; 1 bytes @ 0x0
  3467                           
  3468  0070                     ?_EUSART_Initialize:	
  3469                           ; 1 bytes @ 0x0
  3470                           
  3471  0070                     ?_IOCBF0_DefaultInterruptHandler:	
  3472                           ; 1 bytes @ 0x0
  3473                           
  3474  0070                     ??_IOCBF0_DefaultInterruptHandler:	
  3475                           ; 1 bytes @ 0x0
  3476                           
  3477  0070                     ?_IOCBF3_DefaultInterruptHandler:	
  3478                           ; 1 bytes @ 0x0
  3479                           
  3480  0070                     ??_IOCBF3_DefaultInterruptHandler:	
  3481                           ; 1 bytes @ 0x0
  3482                           
  3483  0070                     ?_IOCBF0_ISR:	
  3484                           ; 1 bytes @ 0x0
  3485                           
  3486  0070                     ?_IOCBF3_ISR:	
  3487                           ; 1 bytes @ 0x0
  3488                           
  3489  0070                     ?_EUSART_Receive_ISR:	
  3490                           ; 1 bytes @ 0x0
  3491                           
  3492  0070                     ?_EUSART_Transmit_ISR:	
  3493                           ; 1 bytes @ 0x0
  3494                           
  3495  0070                     ??_EUSART_Transmit_ISR:	
  3496                           ; 1 bytes @ 0x0
  3497                           
  3498  0070                     ?_EUSART_DefaultFramingErrorHandler:	
  3499                           ; 1 bytes @ 0x0
  3500                           
  3501  0070                     ??_EUSART_DefaultFramingErrorHandler:	
  3502                           ; 1 bytes @ 0x0
  3503                           
  3504  0070                     ?_EUSART_DefaultOverrunErrorHandler:	
  3505                           ; 1 bytes @ 0x0
  3506                           
  3507  0070                     ??_EUSART_DefaultOverrunErrorHandler:	
  3508                           ; 1 bytes @ 0x0
  3509                           
  3510  0070                     ?_EUSART_DefaultErrorHandler:	
  3511                           ; 1 bytes @ 0x0
  3512                           
  3513  0070                     ?_EUSART_RxDataHandler:	
  3514                           ; 1 bytes @ 0x0
  3515                           
  3516  0070                     ??_EUSART_RxDataHandler:	
  3517                           ; 1 bytes @ 0x0
  3518                           
  3519  0070                     ?_TMR1_DefaultInterruptHandler:	
  3520                           ; 1 bytes @ 0x0
  3521                           
  3522  0070                     ??_TMR1_DefaultInterruptHandler:	
  3523                           ; 1 bytes @ 0x0
  3524                           
  3525  0070                     ?_CMP2_ISR:	
  3526                           ; 1 bytes @ 0x0
  3527                           
  3528  0070                     ?_CMP1_ISR:	
  3529                           ; 1 bytes @ 0x0
  3530                           
  3531  0070                     ?_CCP4_CaptureISR:	
  3532                           ; 1 bytes @ 0x0
  3533                           
  3534  0070                     ?_TMR4_ISR:	
  3535                           ; 1 bytes @ 0x0
  3536                           
  3537  0070                     ?_TMR4_DefaultInterruptHandler:	
  3538                           ; 1 bytes @ 0x0
  3539                           
  3540  0070                     ??_TMR4_DefaultInterruptHandler:	
  3541                           ; 1 bytes @ 0x0
  3542                           
  3543  0070                     ?_initMAX7219:	
  3544                           ; 1 bytes @ 0x0
  3545                           
  3546  0070                     ?_SYSTEM_Initialize:	
  3547                           ; 1 bytes @ 0x0
  3548                           
  3549  0070                     ?_PIN_MANAGER_IOC:	
  3550                           ; 1 bytes @ 0x0
  3551                           
  3552  0070                     ?_SPI1_Open:	
  3553                           ; 1 bytes @ 0x0
  3554                           
  3555  0070                     ?_SPI1_WriteByte:	
  3556                           ; 1 bytes @ 0x0
  3557                           
  3558  0070                     ?_EUSART_Write:	
  3559                           ; 1 bytes @ 0x0
  3560                           
  3561  0070                     ??_EUSART_Write:	
  3562                           ; 1 bytes @ 0x0
  3563                           
  3564  0070                     ?_TMR1_WriteTimer:	
  3565                           ; 1 bytes @ 0x0
  3566                           
  3567  0070                     ?_TMR1_ISR:	
  3568                           ; 1 bytes @ 0x0
  3569                           
  3570  0070                     ?_INTERRUPT_InterruptManager:	
  3571                           ; 1 bytes @ 0x0
  3572                           
  3573  0070                     ?_leds:	
  3574                           ; 1 bytes @ 0x0
  3575                           
  3576  0070                     ?_comm:	
  3577                           ; 1 bytes @ 0x0
  3578                           
  3579  0070                     ?_recepcao:	
  3580                           ; 1 bytes @ 0x0
  3581                           
  3582  0070                     ??_recepcao:	
  3583                           ; 1 bytes @ 0x0
  3584                           
  3585  0070                     ?_deslocamento:	
  3586                           ; 1 bytes @ 0x0
  3587                           
  3588  0070                     ?_controle:	
  3589                           ; 1 bytes @ 0x0
  3590                           
  3591  0070                     ?_S1:	
  3592                           ; 1 bytes @ 0x0
  3593                           
  3594  0070                     ?_S2:	
  3595                           ; 1 bytes @ 0x0
  3596                           
  3597  0070                     ?_S3:	
  3598                           ; 1 bytes @ 0x0
  3599                           
  3600  0070                     ?_S4:	
  3601                           ; 1 bytes @ 0x0
  3602                           
  3603  0070                     ?_main:	
  3604                           ; 1 bytes @ 0x0
  3605                           
  3606  0070                     ?i1_SPI1_WriteByte:	
  3607                           ; 1 bytes @ 0x0
  3608                           
  3609  0070                     ??i1_SPI1_WriteByte:	
  3610                           ; 1 bytes @ 0x0
  3611                           
  3612  0070                     ?i1_PWM3_LoadDutyValue:	
  3613                           ; 1 bytes @ 0x0
  3614                           
  3615  0070                     ?i1_deslocamento:	
  3616                           ; 1 bytes @ 0x0
  3617                           
  3618  0070                     ?i1___fltol:	
  3619                           ; 1 bytes @ 0x0
  3620                           
  3621  0070                     i1SPI1_WriteByte@byte:	
  3622                           ; 4 bytes @ 0x0
  3623                           
  3624  0070                     TMR1_WriteTimer@timerVal:	
  3625                           ; 1 bytes @ 0x0
  3626                           
  3627  0070                     i1PWM3_LoadDutyValue@dutyValue:	
  3628                           ; 2 bytes @ 0x0
  3629                           
  3630  0070                     i1___fltol@f1:	
  3631                           ; 2 bytes @ 0x0
  3632                           
  3633                           
  3634                           ; 4 bytes @ 0x0
  3635  0070                     	ds	1
  3636  0071                     ??_EUSART_Receive_ISR:
  3637  0071                     ??_EUSART_DefaultErrorHandler:	
  3638                           ; 1 bytes @ 0x1
  3639                           
  3640  0071                     ?i1_txMAX7219:	
  3641                           ; 1 bytes @ 0x1
  3642                           
  3643  0071                     EUSART_Write@txData:	
  3644                           ; 1 bytes @ 0x1
  3645                           
  3646  0071                     i1txMAX7219@dat0:	
  3647                           ; 1 bytes @ 0x1
  3648                           
  3649                           
  3650                           ; 1 bytes @ 0x1
  3651  0071                     	ds	1
  3652  0072                     ??_TMR1_WriteTimer:
  3653  0072                     ??_TMR1_ISR:	
  3654                           ; 1 bytes @ 0x2
  3655                           
  3656  0072                     ??i1_PWM3_LoadDutyValue:	
  3657                           ; 1 bytes @ 0x2
  3658                           
  3659  0072                     i1txMAX7219@addr1:	
  3660                           ; 1 bytes @ 0x2
  3661                           
  3662                           
  3663                           ; 1 bytes @ 0x2
  3664  0072                     	ds	1
  3665  0073                     i1txMAX7219@dat1:
  3666                           
  3667                           ; 1 bytes @ 0x3
  3668  0073                     	ds	1
  3669  0074                     ??_IOCBF0_ISR:
  3670  0074                     ??_CMP2_ISR:	
  3671                           ; 1 bytes @ 0x4
  3672                           
  3673  0074                     ?_CCP4_DefaultCallBack:	
  3674                           ; 1 bytes @ 0x4
  3675                           
  3676  0074                     ?_Enc:	
  3677                           ; 1 bytes @ 0x4
  3678                           
  3679  0074                     ??_S1:	
  3680                           ; 1 bytes @ 0x4
  3681                           
  3682  0074                     ??_S4:	
  3683                           ; 1 bytes @ 0x4
  3684                           
  3685  0074                     ??i1_deslocamento:	
  3686                           ; 1 bytes @ 0x4
  3687                           
  3688  0074                     ??i1_txMAX7219:	
  3689                           ; 1 bytes @ 0x4
  3690                           
  3691  0074                     ??i1___fltol:	
  3692                           ; 1 bytes @ 0x4
  3693                           
  3694  0074                     i1txMAX7219@addr0:	
  3695                           ; 1 bytes @ 0x4
  3696                           
  3697  0074                     CCP4_DefaultCallBack@capturedValue:	
  3698                           ; 1 bytes @ 0x4
  3699                           
  3700  0074                     Enc@colect_value:	
  3701                           ; 2 bytes @ 0x4
  3702                           
  3703                           
  3704                           ; 2 bytes @ 0x4
  3705  0074                     	ds	1
  3706  0075                     ??_leds:
  3707                           
  3708                           ; 1 bytes @ 0x5
  3709  0075                     	ds	1
  3710  0076                     ??_IOCBF3_ISR:
  3711  0076                     ??_CMP1_ISR:	
  3712                           ; 1 bytes @ 0x6
  3713                           
  3714  0076                     ??_PIN_MANAGER_IOC:	
  3715                           ; 1 bytes @ 0x6
  3716                           
  3717  0076                     ??_CCP4_DefaultCallBack:	
  3718                           ; 1 bytes @ 0x6
  3719                           
  3720  0076                     ??_Enc:	
  3721                           ; 1 bytes @ 0x6
  3722                           
  3723  0076                     ??_S2:	
  3724                           ; 1 bytes @ 0x6
  3725                           
  3726  0076                     ??_S3:	
  3727                           ; 1 bytes @ 0x6
  3728                           
  3729                           
  3730                           ; 1 bytes @ 0x6
  3731  0076                     	ds	1
  3732  0077                     ??_CCP4_CaptureISR:
  3733                           
  3734                           ; 1 bytes @ 0x7
  3735  0077                     	ds	1
  3736  0078                     CCP4_CaptureISR@module:
  3737                           
  3738                           ; 2 bytes @ 0x8
  3739  0078                     	ds	1
  3740  0079                     i1___fltol@sign1:
  3741                           
  3742                           ; 1 bytes @ 0x9
  3743  0079                     	ds	1
  3744  007A                     i1___fltol@exp1:
  3745  007A                     leds@i:	
  3746                           ; 1 bytes @ 0xA
  3747                           
  3748                           
  3749                           ; 2 bytes @ 0xA
  3750  007A                     	ds	2
  3751  007C                     comm@i:
  3752                           
  3753                           ; 2 bytes @ 0xC
  3754  007C                     	ds	2
  3755  007E                     ??_TMR4_ISR:
  3756  007E                     ??_INTERRUPT_InterruptManager:	
  3757                           ; 1 bytes @ 0xE
  3758                           
  3759                           
  3760                           	psect	cstackBANK0
  3761  0020                     __pcstackBANK0:	
  3762                           ; 1 bytes @ 0xE
  3763                           
  3764  0020                     ??_comm:
  3765                           
  3766                           ; 1 bytes @ 0x0
  3767  0020                     	ds	3
  3768  0023                     ??_SPI1_Initialize:
  3769  0023                     ??_OSCILLATOR_Initialize:	
  3770                           ; 1 bytes @ 0x3
  3771                           
  3772  0023                     ??_WDT_Initialize:	
  3773                           ; 1 bytes @ 0x3
  3774                           
  3775  0023                     ??_CMP2_Initialize:	
  3776                           ; 1 bytes @ 0x3
  3777                           
  3778  0023                     ??_FVR_Initialize:	
  3779                           ; 1 bytes @ 0x3
  3780                           
  3781  0023                     ??_DAC_Initialize:	
  3782                           ; 1 bytes @ 0x3
  3783                           
  3784  0023                     ??_TMR2_Initialize:	
  3785                           ; 1 bytes @ 0x3
  3786                           
  3787  0023                     ??_CMP1_Initialize:	
  3788                           ; 1 bytes @ 0x3
  3789                           
  3790  0023                     ??_ADC_Initialize:	
  3791                           ; 1 bytes @ 0x3
  3792                           
  3793  0023                     ??_PWM3_Initialize:	
  3794                           ; 1 bytes @ 0x3
  3795                           
  3796  0023                     ?_IOCBF0_SetInterruptHandler:	
  3797                           ; 1 bytes @ 0x3
  3798                           
  3799  0023                     ?_IOCBF3_SetInterruptHandler:	
  3800                           ; 1 bytes @ 0x3
  3801                           
  3802  0023                     ?_EUSART_SetRxInterruptHandler:	
  3803                           ; 1 bytes @ 0x3
  3804                           
  3805  0023                     ?_EUSART_SetTxInterruptHandler:	
  3806                           ; 1 bytes @ 0x3
  3807                           
  3808  0023                     ?_EUSART_SetFramingErrorHandler:	
  3809                           ; 1 bytes @ 0x3
  3810                           
  3811  0023                     ?_EUSART_SetOverrunErrorHandler:	
  3812                           ; 1 bytes @ 0x3
  3813                           
  3814  0023                     ?_EUSART_SetErrorHandler:	
  3815                           ; 1 bytes @ 0x3
  3816                           
  3817  0023                     ?_TMR1_SetInterruptHandler:	
  3818                           ; 1 bytes @ 0x3
  3819                           
  3820  0023                     ?_TMR4_SetInterruptHandler:	
  3821                           ; 1 bytes @ 0x3
  3822                           
  3823  0023                     ?_CCP4_SetCallBack:	
  3824                           ; 1 bytes @ 0x3
  3825                           
  3826  0023                     ??_SPI1_Open:	
  3827                           ; 1 bytes @ 0x3
  3828                           
  3829  0023                     ??_SPI1_WriteByte:	
  3830                           ; 1 bytes @ 0x3
  3831                           
  3832  0023                     ?_PWM3_LoadDutyValue:	
  3833                           ; 1 bytes @ 0x3
  3834                           
  3835  0023                     ?__Umul8_16:	
  3836                           ; 1 bytes @ 0x3
  3837                           
  3838  0023                     ?_ADC_GetConversion:	
  3839                           ; 2 bytes @ 0x3
  3840                           
  3841  0023                     SPI1_WriteByte@byte:	
  3842                           ; 2 bytes @ 0x3
  3843                           
  3844  0023                     __Umul8_16@multiplicand:	
  3845                           ; 1 bytes @ 0x3
  3846                           
  3847  0023                     IOCBF0_SetInterruptHandler@InterruptHandler:	
  3848                           ; 1 bytes @ 0x3
  3849                           
  3850  0023                     IOCBF3_SetInterruptHandler@InterruptHandler:	
  3851                           ; 2 bytes @ 0x3
  3852                           
  3853  0023                     EUSART_SetFramingErrorHandler@interruptHandler:	
  3854                           ; 2 bytes @ 0x3
  3855                           
  3856  0023                     EUSART_SetOverrunErrorHandler@interruptHandler:	
  3857                           ; 2 bytes @ 0x3
  3858                           
  3859  0023                     EUSART_SetErrorHandler@interruptHandler:	
  3860                           ; 2 bytes @ 0x3
  3861                           
  3862  0023                     EUSART_SetTxInterruptHandler@interruptHandler:	
  3863                           ; 2 bytes @ 0x3
  3864                           
  3865  0023                     EUSART_SetRxInterruptHandler@interruptHandler:	
  3866                           ; 2 bytes @ 0x3
  3867                           
  3868  0023                     TMR1_SetInterruptHandler@InterruptHandler:	
  3869                           ; 2 bytes @ 0x3
  3870                           
  3871  0023                     PWM3_LoadDutyValue@dutyValue:	
  3872                           ; 2 bytes @ 0x3
  3873                           
  3874  0023                     TMR4_SetInterruptHandler@InterruptHandler:	
  3875                           ; 2 bytes @ 0x3
  3876                           
  3877  0023                     CCP4_SetCallBack@customCallBack:	
  3878                           ; 2 bytes @ 0x3
  3879                           
  3880                           
  3881                           ; 2 bytes @ 0x3
  3882  0023                     	ds	1
  3883  0024                     ?_txMAX7219:
  3884  0024                     txMAX7219@dat0:	
  3885                           ; 1 bytes @ 0x4
  3886                           
  3887                           
  3888                           ; 1 bytes @ 0x4
  3889  0024                     	ds	1
  3890  0025                     ??_PIN_MANAGER_Initialize:
  3891  0025                     ??_TMR4_Initialize:	
  3892                           ; 1 bytes @ 0x5
  3893                           
  3894  0025                     ??_CCP4_Initialize:	
  3895                           ; 1 bytes @ 0x5
  3896                           
  3897  0025                     ??_TMR1_Initialize:	
  3898                           ; 1 bytes @ 0x5
  3899                           
  3900  0025                     ??_EUSART_Initialize:	
  3901                           ; 1 bytes @ 0x5
  3902                           
  3903  0025                     ??_IOCBF0_SetInterruptHandler:	
  3904                           ; 1 bytes @ 0x5
  3905                           
  3906  0025                     ??_IOCBF3_SetInterruptHandler:	
  3907                           ; 1 bytes @ 0x5
  3908                           
  3909  0025                     ??_EUSART_SetRxInterruptHandler:	
  3910                           ; 1 bytes @ 0x5
  3911                           
  3912  0025                     ??_EUSART_SetTxInterruptHandler:	
  3913                           ; 1 bytes @ 0x5
  3914                           
  3915  0025                     ??_EUSART_SetFramingErrorHandler:	
  3916                           ; 1 bytes @ 0x5
  3917                           
  3918  0025                     ??_EUSART_SetOverrunErrorHandler:	
  3919                           ; 1 bytes @ 0x5
  3920                           
  3921  0025                     ??_EUSART_SetErrorHandler:	
  3922                           ; 1 bytes @ 0x5
  3923                           
  3924  0025                     ??_TMR1_SetInterruptHandler:	
  3925                           ; 1 bytes @ 0x5
  3926                           
  3927  0025                     ??_TMR4_SetInterruptHandler:	
  3928                           ; 1 bytes @ 0x5
  3929                           
  3930  0025                     ??_CCP4_SetCallBack:	
  3931                           ; 1 bytes @ 0x5
  3932                           
  3933  0025                     ??__Umul8_16:	
  3934                           ; 1 bytes @ 0x5
  3935                           
  3936  0025                     ??_PWM3_LoadDutyValue:	
  3937                           ; 1 bytes @ 0x5
  3938                           
  3939  0025                     ??_ADC_GetConversion:	
  3940                           ; 1 bytes @ 0x5
  3941                           
  3942  0025                     txMAX7219@addr1:	
  3943                           ; 1 bytes @ 0x5
  3944                           
  3945                           
  3946                           ; 1 bytes @ 0x5
  3947  0025                     	ds	1
  3948  0026                     ??_SYSTEM_Initialize:
  3949  0026                     SPI1_Open@spi1UniqueConfiguration:	
  3950                           ; 1 bytes @ 0x6
  3951                           
  3952  0026                     ADC_GetConversion@channel:	
  3953                           ; 1 bytes @ 0x6
  3954                           
  3955  0026                     txMAX7219@dat1:	
  3956                           ; 1 bytes @ 0x6
  3957                           
  3958                           
  3959                           ; 1 bytes @ 0x6
  3960  0026                     	ds	1
  3961  0027                     ??_txMAX7219:
  3962  0027                     ??_deslocamento:	
  3963                           ; 1 bytes @ 0x7
  3964                           
  3965  0027                     ?___xxtofl:	
  3966                           ; 1 bytes @ 0x7
  3967                           
  3968  0027                     txMAX7219@addr0:	
  3969                           ; 4 bytes @ 0x7
  3970                           
  3971  0027                     __Umul8_16@product:	
  3972                           ; 1 bytes @ 0x7
  3973                           
  3974  0027                     ___xxtofl@val:	
  3975                           ; 2 bytes @ 0x7
  3976                           
  3977                           
  3978                           ; 4 bytes @ 0x7
  3979  0027                     	ds	1
  3980  0028                     ??_initMAX7219:
  3981                           
  3982                           ; 1 bytes @ 0x8
  3983  0028                     	ds	1
  3984  0029                     ??_controle:
  3985  0029                     __Umul8_16@word_mpld:	
  3986                           ; 1 bytes @ 0x9
  3987                           
  3988                           
  3989                           ; 2 bytes @ 0x9
  3990  0029                     	ds	2
  3991  002B                     ??___xxtofl:
  3992  002B                     __Umul8_16@multiplier:	
  3993                           ; 1 bytes @ 0xB
  3994                           
  3995                           
  3996                           ; 1 bytes @ 0xB
  3997  002B                     	ds	4
  3998  002F                     ___xxtofl@sign:
  3999                           
  4000                           ; 1 bytes @ 0xF
  4001  002F                     	ds	1
  4002  0030                     ___xxtofl@exp:
  4003                           
  4004                           ; 1 bytes @ 0x10
  4005  0030                     	ds	1
  4006  0031                     ___xxtofl@arg:
  4007                           
  4008                           ; 4 bytes @ 0x11
  4009  0031                     	ds	4
  4010  0035                     ?___flmul:
  4011  0035                     ___flmul@b:	
  4012                           ; 4 bytes @ 0x15
  4013                           
  4014                           
  4015                           ; 4 bytes @ 0x15
  4016  0035                     	ds	4
  4017  0039                     ___flmul@a:
  4018                           
  4019                           ; 4 bytes @ 0x19
  4020  0039                     	ds	4
  4021  003D                     ??___flmul:
  4022                           
  4023                           ; 1 bytes @ 0x1D
  4024  003D                     	ds	5
  4025  0042                     ___flmul@sign:
  4026                           
  4027                           ; 1 bytes @ 0x22
  4028  0042                     	ds	1
  4029  0043                     ___flmul@grs:
  4030                           
  4031                           ; 4 bytes @ 0x23
  4032  0043                     	ds	4
  4033  0047                     ___flmul@aexp:
  4034                           
  4035                           ; 1 bytes @ 0x27
  4036  0047                     	ds	1
  4037  0048                     ___flmul@bexp:
  4038                           
  4039                           ; 1 bytes @ 0x28
  4040  0048                     	ds	1
  4041  0049                     ___flmul@prod:
  4042                           
  4043                           ; 4 bytes @ 0x29
  4044  0049                     	ds	4
  4045  004D                     ___flmul@temp:
  4046                           
  4047                           ; 2 bytes @ 0x2D
  4048  004D                     	ds	2
  4049  004F                     ?___fldiv:
  4050  004F                     ___fldiv@a:	
  4051                           ; 4 bytes @ 0x2F
  4052                           
  4053                           
  4054                           ; 4 bytes @ 0x2F
  4055  004F                     	ds	4
  4056  0053                     ___fldiv@b:
  4057                           
  4058                           ; 4 bytes @ 0x33
  4059  0053                     	ds	4
  4060  0057                     ??___fldiv:
  4061                           
  4062                           ; 1 bytes @ 0x37
  4063  0057                     	ds	5
  4064  005C                     ___fldiv@rem:
  4065                           
  4066                           ; 4 bytes @ 0x3C
  4067  005C                     	ds	4
  4068  0060                     ___fldiv@sign:
  4069                           
  4070                           ; 1 bytes @ 0x40
  4071  0060                     	ds	1
  4072  0061                     ___fldiv@new_exp:
  4073                           
  4074                           ; 2 bytes @ 0x41
  4075  0061                     	ds	2
  4076  0063                     ___fldiv@grs:
  4077                           
  4078                           ; 4 bytes @ 0x43
  4079  0063                     	ds	4
  4080  0067                     ___fldiv@bexp:
  4081                           
  4082                           ; 1 bytes @ 0x47
  4083  0067                     	ds	1
  4084  0068                     ___fldiv@aexp:
  4085                           
  4086                           ; 1 bytes @ 0x48
  4087  0068                     	ds	1
  4088                           
  4089                           	psect	maintext
  4090  04AE                     __pmaintext:	
  4091 ;;
  4092 ;;Main: autosize = 0, tempsize = 4, incstack = 0, save=0
  4093 ;;
  4094 ;; *************** function _main *****************
  4095 ;; Defined at:
  4096 ;;		line 226 in file "main.c"
  4097 ;; Parameters:    Size  Location     Type
  4098 ;;		None
  4099 ;; Auto vars:     Size  Location     Type
  4100 ;;		None
  4101 ;; Return value:  Size  Location     Type
  4102 ;;                  1    wreg      void 
  4103 ;; Registers used:
  4104 ;;		wreg, fsr0l, fsr0h, status,2, status,0, pclath, cstack
  4105 ;; Tracked objects:
  4106 ;;		On entry : B1F/0
  4107 ;;		On exit  : 0/0
  4108 ;;		Unchanged: 0/0
  4109 ;; Data sizes:     COMMON   BANK0   BANK1   BANK2   BANK3   BANK4
  4110 ;;      Params:         0       0       0       0       0       0
  4111 ;;      Locals:         0       0       0       0       0       0
  4112 ;;      Temps:          0       0       0       4       0       0
  4113 ;;      Totals:         0       0       0       4       0       0
  4114 ;;Total ram usage:        4 bytes
  4115 ;; Hardware stack levels required when called: 9
  4116 ;; This function calls:
  4117 ;;		_ADC_GetConversion
  4118 ;;		_CCP4_SetCallBack
  4119 ;;		_EUSART_SetRxInterruptHandler
  4120 ;;		_IOCBF0_SetInterruptHandler
  4121 ;;		_IOCBF3_SetInterruptHandler
  4122 ;;		_SPI1_Open
  4123 ;;		_SYSTEM_Initialize
  4124 ;;		_TMR4_SetInterruptHandler
  4125 ;;		___fldiv
  4126 ;;		___flmul
  4127 ;;		___fltol
  4128 ;;		___xxtofl
  4129 ;;		_controle
  4130 ;;		_initMAX7219
  4131 ;; This function is called by:
  4132 ;;		Startup code after reset
  4133 ;; This function uses a non-reentrant model
  4134 ;;
  4135                           
  4136                           
  4137                           ;psect for function _main
  4138  04AE                     _main:
  4139  04AE                     l4025:	
  4140                           ;incstack = 0
  4141                           ; Regs used in _main: [wreg-fsr0h+status,2+status,0+pclath+cstack]
  4142                           
  4143                           
  4144                           ;main.c: 228:     SYSTEM_Initialize();
  4145  04AE  318B  23F6  3184   	fcall	_SYSTEM_Initialize
  4146  04B1                     l4027:
  4147                           
  4148                           ;main.c: 229:     SPI1_Open(SPI1_DEFAULT);
  4149  04B1  3000               	movlw	0
  4150  04B2  318D  2584  3184   	fcall	_SPI1_Open
  4151  04B5                     l4029:
  4152                           
  4153                           ;main.c: 230:     initMAX7219();
  4154  04B5  318E  26A5  3184   	fcall	_initMAX7219
  4155  04B8                     l4031:
  4156                           
  4157                           ;main.c: 232:     (INTCONbits.GIE = 1);
  4158  04B8  178B               	bsf	11,7	;volatile
  4159  04B9                     l4033:
  4160                           
  4161                           ;main.c: 234:     (INTCONbits.PEIE = 1);
  4162  04B9  170B               	bsf	11,6	;volatile
  4163  04BA                     l4035:
  4164                           
  4165                           ;main.c: 236:     TMR4_SetInterruptHandler(comm);
  4166  04BA  30DB               	movlw	low _comm
  4167  04BB  0020               	movlb	0	; select bank0
  4168  04BC  00A3               	movwf	TMR4_SetInterruptHandler@InterruptHandler
  4169  04BD  300D               	movlw	high _comm
  4170  04BE  00A4               	movwf	TMR4_SetInterruptHandler@InterruptHandler+1
  4171  04BF  3189  21EA  3184   	fcall	_TMR4_SetInterruptHandler
  4172  04C2                     l4037:
  4173                           
  4174                           ;main.c: 237:  CCP4_SetCallBack(Enc);
  4175  04C2  30F9               	movlw	low _Enc
  4176  04C3  0020               	movlb	0	; select bank0
  4177  04C4  00A3               	movwf	CCP4_SetCallBack@customCallBack
  4178  04C5  300C               	movlw	high _Enc
  4179  04C6  00A4               	movwf	CCP4_SetCallBack@customCallBack+1
  4180  04C7  3189  2190  3184   	fcall	_CCP4_SetCallBack
  4181  04CA                     l4039:
  4182                           
  4183                           ;main.c: 238:     EUSART_SetRxInterruptHandler(recepcao);
  4184  04CA  3043               	movlw	low _recepcao
  4185  04CB  0020               	movlb	0	; select bank0
  4186  04CC  00A3               	movwf	EUSART_SetRxInterruptHandler@interruptHandler
  4187  04CD  300A               	movlw	high _recepcao
  4188  04CE  00A4               	movwf	EUSART_SetRxInterruptHandler@interruptHandler+1
  4189  04CF  3189  21B4  3184   	fcall	_EUSART_SetRxInterruptHandler
  4190  04D2                     l4041:
  4191                           
  4192                           ;main.c: 241:  IOCBF0_SetInterruptHandler(S1);
  4193  04D2  3074               	movlw	low _S1
  4194  04D3  0020               	movlb	0	; select bank0
  4195  04D4  00A3               	movwf	IOCBF0_SetInterruptHandler@InterruptHandler
  4196  04D5  300A               	movlw	high _S1
  4197  04D6  00A4               	movwf	IOCBF0_SetInterruptHandler@InterruptHandler+1
  4198  04D7  3189  21C6  3184   	fcall	_IOCBF0_SetInterruptHandler
  4199  04DA                     l4043:
  4200                           
  4201                           ;main.c: 242:     IOCBF3_SetInterruptHandler(S2);
  4202  04DA  3087               	movlw	low _S2
  4203  04DB  0020               	movlb	0	; select bank0
  4204  04DC  00A3               	movwf	IOCBF3_SetInterruptHandler@InterruptHandler
  4205  04DD  3009               	movlw	high _S2
  4206  04DE  00A4               	movwf	IOCBF3_SetInterruptHandler@InterruptHandler+1
  4207  04DF  3189  21CF  3184   	fcall	_IOCBF3_SetInterruptHandler
  4208  04E2                     l4045:
  4209                           
  4210                           ;main.c: 245:         temp = (int)(ADC_GetConversion(TEMP)/5.0);
  4211  04E2  3002               	movlw	2
  4212  04E3  318B  233D  3184   	fcall	_ADC_GetConversion
  4213  04E6  0020               	movlb	0	; select bank0
  4214  04E7  0823               	movf	?_ADC_GetConversion,w
  4215  04E8  0022               	movlb	2	; select bank2
  4216  04E9  00CA               	movwf	??_main^(0+256)
  4217  04EA  0020               	movlb	0	; select bank0
  4218  04EB  0824               	movf	?_ADC_GetConversion+1,w
  4219  04EC  0022               	movlb	2	; select bank2
  4220  04ED  00CB               	movwf	(??_main^(0+256)+1)
  4221  04EE  01CC               	clrf	(??_main^(0+256)+2)
  4222  04EF  01CD               	clrf	(??_main^(0+256)+3)
  4223  04F0  084D               	movf	(??_main+3)^(0+256),w
  4224  04F1  0020               	movlb	0	; select bank0
  4225  04F2  00AA               	movwf	___xxtofl@val+3
  4226  04F3  0022               	movlb	2	; select bank2
  4227  04F4  084C               	movf	(??_main+2)^(0+256),w
  4228  04F5  0020               	movlb	0	; select bank0
  4229  04F6  00A9               	movwf	___xxtofl@val+2
  4230  04F7  0022               	movlb	2	; select bank2
  4231  04F8  084B               	movf	(??_main+1)^(0+256),w
  4232  04F9  0020               	movlb	0	; select bank0
  4233  04FA  00A8               	movwf	___xxtofl@val+1
  4234  04FB  0022               	movlb	2	; select bank2
  4235  04FC  084A               	movf	??_main^(0+256),w
  4236  04FD  0020               	movlb	0	; select bank0
  4237  04FE  00A7               	movwf	___xxtofl@val
  4238  04FF  3000               	movlw	0
  4239  0500  3186  268B  3184   	fcall	___xxtofl
  4240  0503  0020               	movlb	0	; select bank0
  4241  0504  082A               	movf	?___xxtofl+3,w
  4242  0505  00D6               	movwf	___fldiv@b+3
  4243  0506  0829               	movf	?___xxtofl+2,w
  4244  0507  00D5               	movwf	___fldiv@b+2
  4245  0508  0828               	movf	?___xxtofl+1,w
  4246  0509  00D4               	movwf	___fldiv@b+1
  4247  050A  0827               	movf	?___xxtofl,w
  4248  050B  00D3               	movwf	___fldiv@b
  4249  050C  3040               	movlw	64
  4250  050D  00D2               	movwf	___fldiv@a+3
  4251  050E  30A0               	movlw	160
  4252  050F  00D1               	movwf	___fldiv@a+2
  4253  0510  3000               	movlw	0
  4254  0511  00D0               	movwf	___fldiv@a+1
  4255  0512  3000               	movlw	0
  4256  0513  00CF               	movwf	___fldiv@a
  4257  0514  3182  22FA  3184   	fcall	___fldiv
  4258  0517  0020               	movlb	0	; select bank0
  4259  0518  0852               	movf	?___fldiv+3,w
  4260  0519  0021               	movlb	1	; select bank1
  4261  051A  00E5               	movwf	(___fltol@f1+3)^(0+128)
  4262  051B  0020               	movlb	0	; select bank0
  4263  051C  0851               	movf	?___fldiv+2,w
  4264  051D  0021               	movlb	1	; select bank1
  4265  051E  00E4               	movwf	(___fltol@f1+2)^(0+128)
  4266  051F  0020               	movlb	0	; select bank0
  4267  0520  0850               	movf	?___fldiv+1,w
  4268  0521  0021               	movlb	1	; select bank1
  4269  0522  00E3               	movwf	(___fltol@f1+1)^(0+128)
  4270  0523  0020               	movlb	0	; select bank0
  4271  0524  084F               	movf	?___fldiv,w
  4272  0525  0021               	movlb	1	; select bank1
  4273  0526  00E2               	movwf	___fltol@f1^(0+128)
  4274  0527  318F  278B  3184   	fcall	___fltol
  4275  052A  0021               	movlb	1	; select bank1
  4276  052B  0863               	movf	(?___fltol+1)^(0+128),w
  4277  052C  00D4               	movwf	(_temp+1)^(0+128)
  4278  052D  0862               	movf	?___fltol^(0+128),w
  4279  052E  00D3               	movwf	_temp^(0+128)
  4280  052F                     l4047:
  4281                           
  4282                           ;main.c: 246:         speed = (int)(.83/(((float)colect_value)*.000002))*4;
  4283  052F  303F               	movlw	63
  4284  0530  0020               	movlb	0	; select bank0
  4285  0531  00D6               	movwf	___fldiv@b+3
  4286  0532  3054               	movlw	84
  4287  0533  00D5               	movwf	___fldiv@b+2
  4288  0534  307A               	movlw	122
  4289  0535  00D4               	movwf	___fldiv@b+1
  4290  0536  30E1               	movlw	225
  4291  0537  00D3               	movwf	___fldiv@b
  4292  0538  0021               	movlb	1	; select bank1
  4293  0539  084B               	movf	_colect_value^(0+128),w
  4294  053A  0020               	movlb	0	; select bank0
  4295  053B  00A7               	movwf	___xxtofl@val
  4296  053C  0021               	movlb	1	; select bank1
  4297  053D  084C               	movf	(_colect_value+1)^(0+128),w
  4298  053E  0020               	movlb	0	; select bank0
  4299  053F  00A8               	movwf	___xxtofl@val+1
  4300  0540  01A9               	clrf	___xxtofl@val+2
  4301  0541  01AA               	clrf	___xxtofl@val+3
  4302  0542  3000               	movlw	0
  4303  0543  3186  268B  3184   	fcall	___xxtofl
  4304  0546  0020               	movlb	0	; select bank0
  4305  0547  082A               	movf	?___xxtofl+3,w
  4306  0548  00BC               	movwf	___flmul@a+3
  4307  0549  0829               	movf	?___xxtofl+2,w
  4308  054A  00BB               	movwf	___flmul@a+2
  4309  054B  0828               	movf	?___xxtofl+1,w
  4310  054C  00BA               	movwf	___flmul@a+1
  4311  054D  0827               	movf	?___xxtofl,w
  4312  054E  00B9               	movwf	___flmul@a
  4313  054F  3036               	movlw	54
  4314  0550  00B8               	movwf	___flmul@b+3
  4315  0551  3006               	movlw	6
  4316  0552  00B7               	movwf	___flmul@b+2
  4317  0553  3037               	movlw	55
  4318  0554  00B6               	movwf	___flmul@b+1
  4319  0555  30BD               	movlw	189
  4320  0556  00B5               	movwf	___flmul@b
  4321  0557  3180  20A3  3184   	fcall	___flmul
  4322  055A  0020               	movlb	0	; select bank0
  4323  055B  0838               	movf	?___flmul+3,w
  4324  055C  00D2               	movwf	___fldiv@a+3
  4325  055D  0837               	movf	?___flmul+2,w
  4326  055E  00D1               	movwf	___fldiv@a+2
  4327  055F  0836               	movf	?___flmul+1,w
  4328  0560  00D0               	movwf	___fldiv@a+1
  4329  0561  0835               	movf	?___flmul,w
  4330  0562  00CF               	movwf	___fldiv@a
  4331  0563  3182  22FA  3184   	fcall	___fldiv
  4332  0566  0020               	movlb	0	; select bank0
  4333  0567  0852               	movf	?___fldiv+3,w
  4334  0568  0021               	movlb	1	; select bank1
  4335  0569  00E5               	movwf	(___fltol@f1+3)^(0+128)
  4336  056A  0020               	movlb	0	; select bank0
  4337  056B  0851               	movf	?___fldiv+2,w
  4338  056C  0021               	movlb	1	; select bank1
  4339  056D  00E4               	movwf	(___fltol@f1+2)^(0+128)
  4340  056E  0020               	movlb	0	; select bank0
  4341  056F  0850               	movf	?___fldiv+1,w
  4342  0570  0021               	movlb	1	; select bank1
  4343  0571  00E3               	movwf	(___fltol@f1+1)^(0+128)
  4344  0572  0020               	movlb	0	; select bank0
  4345  0573  084F               	movf	?___fldiv,w
  4346  0574  0021               	movlb	1	; select bank1
  4347  0575  00E2               	movwf	___fltol@f1^(0+128)
  4348  0576  318F  278B  3184   	fcall	___fltol
  4349  0579  0021               	movlb	1	; select bank1
  4350  057A  0863               	movf	(?___fltol+1)^(0+128),w
  4351  057B  0022               	movlb	2	; select bank2
  4352  057C  00CB               	movwf	(??_main^(0+256)+1)
  4353  057D  0021               	movlb	1	; select bank1
  4354  057E  0862               	movf	?___fltol^(0+128),w
  4355  057F  0022               	movlb	2	; select bank2
  4356  0580  00CA               	movwf	??_main^(0+256)
  4357  0581  35CA               	lslf	??_main^(0+256),f
  4358  0582  0DCB               	rlf	(??_main^(0+256)+1),f
  4359  0583  35CA               	lslf	??_main^(0+256),f
  4360  0584  0DCB               	rlf	(??_main^(0+256)+1),f
  4361  0585  084A               	movf	??_main^(0+256),w
  4362  0586  0021               	movlb	1	; select bank1
  4363  0587  00D1               	movwf	_speed^(0+128)
  4364  0588  0022               	movlb	2	; select bank2
  4365  0589  084B               	movf	(??_main+1)^(0+256),w
  4366  058A  0021               	movlb	1	; select bank1
  4367  058B  00D2               	movwf	(_speed+1)^(0+128)
  4368  058C                     l4049:
  4369                           
  4370                           ;main.c: 247:         position = .83*pulsos;
  4371  058C  303F               	movlw	63
  4372  058D  0020               	movlb	0	; select bank0
  4373  058E  00B8               	movwf	___flmul@b+3
  4374  058F  3054               	movlw	84
  4375  0590  00B7               	movwf	___flmul@b+2
  4376  0591  307A               	movlw	122
  4377  0592  00B6               	movwf	___flmul@b+1
  4378  0593  30E1               	movlw	225
  4379  0594  00B5               	movwf	___flmul@b
  4380  0595  0021               	movlb	1	; select bank1
  4381  0596  084D               	movf	_pulsos^(0+128),w
  4382  0597  0020               	movlb	0	; select bank0
  4383  0598  00A7               	movwf	___xxtofl@val
  4384  0599  0021               	movlb	1	; select bank1
  4385  059A  084E               	movf	(_pulsos+1)^(0+128),w
  4386  059B  0020               	movlb	0	; select bank0
  4387  059C  00A8               	movwf	___xxtofl@val+1
  4388  059D  0D89               	rlf	9,f
  4389  059E  3B89               	subwfb	9,f
  4390  059F  0989               	comf	9,f
  4391  05A0  00A9               	movwf	___xxtofl@val+2
  4392  05A1  00AA               	movwf	___xxtofl@val+3
  4393  05A2  3001               	movlw	1
  4394  05A3  3186  268B  3184   	fcall	___xxtofl
  4395  05A6  0020               	movlb	0	; select bank0
  4396  05A7  082A               	movf	?___xxtofl+3,w
  4397  05A8  00BC               	movwf	___flmul@a+3
  4398  05A9  0829               	movf	?___xxtofl+2,w
  4399  05AA  00BB               	movwf	___flmul@a+2
  4400  05AB  0828               	movf	?___xxtofl+1,w
  4401  05AC  00BA               	movwf	___flmul@a+1
  4402  05AD  0827               	movf	?___xxtofl,w
  4403  05AE  00B9               	movwf	___flmul@a
  4404  05AF  3180  20A3  3184   	fcall	___flmul
  4405  05B2  0020               	movlb	0	; select bank0
  4406  05B3  0838               	movf	?___flmul+3,w
  4407  05B4  0021               	movlb	1	; select bank1
  4408  05B5  00CA               	movwf	(_position+3)^(0+128)
  4409  05B6  0020               	movlb	0	; select bank0
  4410  05B7  0837               	movf	?___flmul+2,w
  4411  05B8  0021               	movlb	1	; select bank1
  4412  05B9  00C9               	movwf	(_position+2)^(0+128)
  4413  05BA  0020               	movlb	0	; select bank0
  4414  05BB  0836               	movf	?___flmul+1,w
  4415  05BC  0021               	movlb	1	; select bank1
  4416  05BD  00C8               	movwf	(_position+1)^(0+128)
  4417  05BE  0020               	movlb	0	; select bank0
  4418  05BF  0835               	movf	?___flmul,w
  4419  05C0  0021               	movlb	1	; select bank1
  4420  05C1  00C7               	movwf	_position^(0+128)
  4421  05C2                     l4051:
  4422                           
  4423                           ;main.c: 248:         if(pos_final != pos_atual){
  4424  05C2  0020               	movlb	0	; select bank0
  4425  05C3  086A               	movf	_pos_atual+1,w
  4426  05C4  0021               	movlb	1	; select bank1
  4427  05C5  063D               	xorwf	(_pos_final+1)^(0+128),w
  4428  05C6  1D03               	skipz
  4429  05C7  2DCC               	goto	u3775
  4430  05C8  0020               	movlb	0	; select bank0
  4431  05C9  0869               	movf	_pos_atual,w
  4432  05CA  0021               	movlb	1	; select bank1
  4433  05CB  063C               	xorwf	_pos_final^(0+128),w
  4434  05CC                     u3775:
  4435  05CC  1903               	skipnz
  4436  05CD  2DCF               	goto	u3771
  4437  05CE  2DD0               	goto	u3770
  4438  05CF                     u3771:
  4439  05CF  2CE2               	goto	l4045
  4440  05D0                     u3770:
  4441  05D0                     l4053:
  4442                           
  4443                           ;main.c: 249:             controle();
  4444  05D0  318E  2637  3184   	fcall	_controle
  4445  05D3  2CE2               	goto	l4045
  4446  05D4  3180  2880         	ljmp	start
  4447  05D6                     __end_of_main:
  4448                           
  4449                           	psect	text1
  4450  0EA5                     __ptext1:	
  4451 ;; *************** function _initMAX7219 *****************
  4452 ;; Defined at:
  4453 ;;		line 74 in file "ledMatrix.c"
  4454 ;; Parameters:    Size  Location     Type
  4455 ;;		None
  4456 ;; Auto vars:     Size  Location     Type
  4457 ;;		None
  4458 ;; Return value:  Size  Location     Type
  4459 ;;                  1    wreg      void 
  4460 ;; Registers used:
  4461 ;;		wreg, status,2, status,0, pclath, cstack
  4462 ;; Tracked objects:
  4463 ;;		On entry : 0/0
  4464 ;;		On exit  : 0/0
  4465 ;;		Unchanged: 0/0
  4466 ;; Data sizes:     COMMON   BANK0   BANK1   BANK2   BANK3   BANK4
  4467 ;;      Params:         0       0       0       0       0       0
  4468 ;;      Locals:         0       0       0       0       0       0
  4469 ;;      Temps:          0       3       0       0       0       0
  4470 ;;      Totals:         0       3       0       0       0       0
  4471 ;;Total ram usage:        3 bytes
  4472 ;; Hardware stack levels used: 1
  4473 ;; Hardware stack levels required when called: 8
  4474 ;; This function calls:
  4475 ;;		_txMAX7219
  4476 ;; This function is called by:
  4477 ;;		_main
  4478 ;; This function uses a non-reentrant model
  4479 ;;
  4480                           
  4481                           
  4482                           ;psect for function _initMAX7219
  4483  0EA5                     _initMAX7219:
  4484  0EA5                     l3477:	
  4485                           ;incstack = 0
  4486                           ; Regs used in _initMAX7219: [wreg+status,2+status,0+pclath+cstack]
  4487                           
  4488                           
  4489                           ;ledMatrix.c: 76:     txMAX7219(0x09,0x00,0x09,0x00);
  4490  0EA5  0020               	movlb	0	; select bank0
  4491  0EA6  01A4               	clrf	txMAX7219@dat0
  4492  0EA7  3009               	movlw	9
  4493  0EA8  00A8               	movwf	??_initMAX7219
  4494  0EA9  0828               	movf	??_initMAX7219,w
  4495  0EAA  00A5               	movwf	txMAX7219@addr1
  4496  0EAB  01A6               	clrf	txMAX7219@dat1
  4497  0EAC  3009               	movlw	9
  4498  0EAD  318C  2424  318E   	fcall	_txMAX7219
  4499                           
  4500                           ;ledMatrix.c: 78:     txMAX7219(0x0A,0x00,0x09,0x00);
  4501  0EB0  0020               	movlb	0	; select bank0
  4502  0EB1  01A4               	clrf	txMAX7219@dat0
  4503  0EB2  3009               	movlw	9
  4504  0EB3  00A8               	movwf	??_initMAX7219
  4505  0EB4  0828               	movf	??_initMAX7219,w
  4506  0EB5  00A5               	movwf	txMAX7219@addr1
  4507  0EB6  01A6               	clrf	txMAX7219@dat1
  4508  0EB7  300A               	movlw	10
  4509  0EB8  318C  2424  318E   	fcall	_txMAX7219
  4510                           
  4511                           ;ledMatrix.c: 80:     txMAX7219(0x0C,0x00,0x0C,0x00);
  4512  0EBB  0020               	movlb	0	; select bank0
  4513  0EBC  01A4               	clrf	txMAX7219@dat0
  4514  0EBD  300C               	movlw	12
  4515  0EBE  00A8               	movwf	??_initMAX7219
  4516  0EBF  0828               	movf	??_initMAX7219,w
  4517  0EC0  00A5               	movwf	txMAX7219@addr1
  4518  0EC1  01A6               	clrf	txMAX7219@dat1
  4519  0EC2  300C               	movlw	12
  4520  0EC3  318C  2424  318E   	fcall	_txMAX7219
  4521                           
  4522                           ;ledMatrix.c: 82:     txMAX7219(0x0B,0x07,0x0B,0x07);
  4523  0EC6  3007               	movlw	7
  4524  0EC7  0020               	movlb	0	; select bank0
  4525  0EC8  00A8               	movwf	??_initMAX7219
  4526  0EC9  0828               	movf	??_initMAX7219,w
  4527  0ECA  00A4               	movwf	txMAX7219@dat0
  4528  0ECB  300B               	movlw	11
  4529  0ECC  00A9               	movwf	??_initMAX7219+1
  4530  0ECD  0829               	movf	??_initMAX7219+1,w
  4531  0ECE  00A5               	movwf	txMAX7219@addr1
  4532  0ECF  3007               	movlw	7
  4533  0ED0  00AA               	movwf	??_initMAX7219+2
  4534  0ED1  082A               	movf	??_initMAX7219+2,w
  4535  0ED2  00A6               	movwf	txMAX7219@dat1
  4536  0ED3  300B               	movlw	11
  4537  0ED4  318C  2424  318E   	fcall	_txMAX7219
  4538                           
  4539                           ;ledMatrix.c: 84:     txMAX7219(0x0C,0x01,0x0C,0x01);
  4540  0ED7  0020               	movlb	0	; select bank0
  4541  0ED8  01A4               	clrf	txMAX7219@dat0
  4542  0ED9  0AA4               	incf	txMAX7219@dat0,f
  4543  0EDA  300C               	movlw	12
  4544  0EDB  00A8               	movwf	??_initMAX7219
  4545  0EDC  0828               	movf	??_initMAX7219,w
  4546  0EDD  00A5               	movwf	txMAX7219@addr1
  4547  0EDE  01A6               	clrf	txMAX7219@dat1
  4548  0EDF  0AA6               	incf	txMAX7219@dat1,f
  4549  0EE0  300C               	movlw	12
  4550  0EE1  318C  2424  318E   	fcall	_txMAX7219
  4551                           
  4552                           ;ledMatrix.c: 86:     txMAX7219(0x0F,0x01,0x0F,0x01);
  4553  0EE4  0020               	movlb	0	; select bank0
  4554  0EE5  01A4               	clrf	txMAX7219@dat0
  4555  0EE6  0AA4               	incf	txMAX7219@dat0,f
  4556  0EE7  300F               	movlw	15
  4557  0EE8  00A8               	movwf	??_initMAX7219
  4558  0EE9  0828               	movf	??_initMAX7219,w
  4559  0EEA  00A5               	movwf	txMAX7219@addr1
  4560  0EEB  01A6               	clrf	txMAX7219@dat1
  4561  0EEC  0AA6               	incf	txMAX7219@dat1,f
  4562  0EED  300F               	movlw	15
  4563  0EEE  318C  2424  318E   	fcall	_txMAX7219
  4564  0EF1                     l3479:
  4565                           
  4566                           ;ledMatrix.c: 87:     _delay((unsigned long)((1000)*(2000000/4000.0)));
  4567  0EF1  3003               	movlw	3
  4568  0EF2  0020               	movlb	0	; select bank0
  4569  0EF3  00A9               	movwf	??_initMAX7219+1
  4570  0EF4  308A               	movlw	138
  4571  0EF5  00A8               	movwf	??_initMAX7219
  4572  0EF6  3055               	movlw	85
  4573  0EF7                     u3787:
  4574  0EF7  0B89               	decfsz	9,f
  4575  0EF8  2EF7               	goto	u3787
  4576  0EF9  0BA8               	decfsz	??_initMAX7219,f
  4577  0EFA  2EF7               	goto	u3787
  4578  0EFB  0BA9               	decfsz	??_initMAX7219+1,f
  4579  0EFC  2EF7               	goto	u3787
  4580  0EFD  3200               	nop2
  4581  0EFE                     l3481:
  4582                           
  4583                           ;ledMatrix.c: 89:     txMAX7219(0x0F,0x00,0x0F,0x00);
  4584  0EFE  0020               	movlb	0	; select bank0
  4585  0EFF  01A4               	clrf	txMAX7219@dat0
  4586  0F00  300F               	movlw	15
  4587  0F01  00A8               	movwf	??_initMAX7219
  4588  0F02  0828               	movf	??_initMAX7219,w
  4589  0F03  00A5               	movwf	txMAX7219@addr1
  4590  0F04  01A6               	clrf	txMAX7219@dat1
  4591  0F05  300F               	movlw	15
  4592  0F06  318C  2424  318E   	fcall	_txMAX7219
  4593  0F09                     l3483:
  4594                           
  4595                           ;ledMatrix.c: 91:     txMAX7219(0x0C,0x01,0x0C,0x01);
  4596  0F09  0020               	movlb	0	; select bank0
  4597  0F0A  01A4               	clrf	txMAX7219@dat0
  4598  0F0B  0AA4               	incf	txMAX7219@dat0,f
  4599  0F0C  300C               	movlw	12
  4600  0F0D  00A8               	movwf	??_initMAX7219
  4601  0F0E  0828               	movf	??_initMAX7219,w
  4602  0F0F  00A5               	movwf	txMAX7219@addr1
  4603  0F10  01A6               	clrf	txMAX7219@dat1
  4604  0F11  0AA6               	incf	txMAX7219@dat1,f
  4605  0F12  300C               	movlw	12
  4606  0F13  318C  2424  318E   	fcall	_txMAX7219
  4607  0F16                     l897:
  4608  0F16  0008               	return
  4609  0F17                     __end_of_initMAX7219:
  4610                           
  4611                           	psect	text2
  4612  0C24                     __ptext2:	
  4613 ;; *************** function _txMAX7219 *****************
  4614 ;; Defined at:
  4615 ;;		line 56 in file "ledMatrix.c"
  4616 ;; Parameters:    Size  Location     Type
  4617 ;;  addr0           1    wreg     unsigned char 
  4618 ;;  dat0            1    4[BANK0 ] unsigned char 
  4619 ;;  addr1           1    5[BANK0 ] unsigned char 
  4620 ;;  dat1            1    6[BANK0 ] unsigned char 
  4621 ;; Auto vars:     Size  Location     Type
  4622 ;;  addr0           1    7[BANK0 ] unsigned char 
  4623 ;; Return value:  Size  Location     Type
  4624 ;;                  1    wreg      void 
  4625 ;; Registers used:
  4626 ;;		wreg, status,2, status,0, pclath, cstack
  4627 ;; Tracked objects:
  4628 ;;		On entry : 0/0
  4629 ;;		On exit  : 0/0
  4630 ;;		Unchanged: 0/0
  4631 ;; Data sizes:     COMMON   BANK0   BANK1   BANK2   BANK3   BANK4
  4632 ;;      Params:         0       3       0       0       0       0
  4633 ;;      Locals:         0       1       0       0       0       0
  4634 ;;      Temps:          0       0       0       0       0       0
  4635 ;;      Totals:         0       4       0       0       0       0
  4636 ;;Total ram usage:        4 bytes
  4637 ;; Hardware stack levels used: 1
  4638 ;; Hardware stack levels required when called: 7
  4639 ;; This function calls:
  4640 ;;		_SPI1_WriteByte
  4641 ;; This function is called by:
  4642 ;;		_initMAX7219
  4643 ;;		_sendMatrix
  4644 ;; This function uses a non-reentrant model
  4645 ;;
  4646                           
  4647                           
  4648                           ;psect for function _txMAX7219
  4649  0C24                     _txMAX7219:
  4650                           
  4651                           ;incstack = 0
  4652                           ; Regs used in _txMAX7219: [wreg+status,2+status,0+pclath+cstack]
  4653                           ;txMAX7219@addr0 stored from wreg
  4654  0C24  0020               	movlb	0	; select bank0
  4655  0C25  00A7               	movwf	txMAX7219@addr0
  4656  0C26                     l878:	
  4657                           ;ledMatrix.c: 58:     do { LATBbits.LATB1 = 0; } while(0);
  4658                           
  4659  0C26  0022               	movlb	2	; select bank2
  4660  0C27  108D               	bcf	13,1	;volatile
  4661  0C28                     l3227:
  4662                           
  4663                           ;ledMatrix.c: 59:     SPI1_WriteByte(addr0);
  4664  0C28  0020               	movlb	0	; select bank0
  4665  0C29  0827               	movf	txMAX7219@addr0,w
  4666  0C2A  3189  215B  318C   	fcall	_SPI1_WriteByte
  4667  0C2D                     l880:	
  4668                           ;ledMatrix.c: 60:     while(!PIR1bits.SSP1IF);
  4669                           
  4670  0C2D  0020               	movlb	0	; select bank0
  4671  0C2E  1D91               	btfss	17,3	;volatile
  4672  0C2F  2C31               	goto	u2231
  4673  0C30  2C32               	goto	u2230
  4674  0C31                     u2231:
  4675  0C31  2C2D               	goto	l880
  4676  0C32                     u2230:
  4677  0C32                     l882:
  4678                           
  4679                           ;ledMatrix.c: 61:     PIR1bits.SSP1IF = 0;
  4680  0C32  1191               	bcf	17,3	;volatile
  4681  0C33                     l3229:
  4682                           
  4683                           ;ledMatrix.c: 62:     SPI1_WriteByte(dat0);
  4684  0C33  0824               	movf	txMAX7219@dat0,w
  4685  0C34  3189  215B  318C   	fcall	_SPI1_WriteByte
  4686  0C37                     l883:	
  4687                           ;ledMatrix.c: 63:     while(!PIR1bits.SSP1IF);
  4688                           
  4689  0C37  0020               	movlb	0	; select bank0
  4690  0C38  1D91               	btfss	17,3	;volatile
  4691  0C39  2C3B               	goto	u2241
  4692  0C3A  2C3C               	goto	u2240
  4693  0C3B                     u2241:
  4694  0C3B  2C37               	goto	l883
  4695  0C3C                     u2240:
  4696  0C3C                     l885:
  4697                           
  4698                           ;ledMatrix.c: 64:     PIR1bits.SSP1IF = 0;
  4699  0C3C  1191               	bcf	17,3	;volatile
  4700  0C3D                     l3231:
  4701                           
  4702                           ;ledMatrix.c: 65:     SPI1_WriteByte(addr1);
  4703  0C3D  0825               	movf	txMAX7219@addr1,w
  4704  0C3E  3189  215B  318C   	fcall	_SPI1_WriteByte
  4705  0C41                     l886:	
  4706                           ;ledMatrix.c: 66:     while(!PIR1bits.SSP1IF);
  4707                           
  4708  0C41  0020               	movlb	0	; select bank0
  4709  0C42  1D91               	btfss	17,3	;volatile
  4710  0C43  2C45               	goto	u2251
  4711  0C44  2C46               	goto	u2250
  4712  0C45                     u2251:
  4713  0C45  2C41               	goto	l886
  4714  0C46                     u2250:
  4715  0C46                     l888:
  4716                           
  4717                           ;ledMatrix.c: 67:     PIR1bits.SSP1IF = 0;
  4718  0C46  1191               	bcf	17,3	;volatile
  4719  0C47                     l3233:
  4720                           
  4721                           ;ledMatrix.c: 68:     SPI1_WriteByte(dat1);
  4722  0C47  0826               	movf	txMAX7219@dat1,w
  4723  0C48  3189  215B  318C   	fcall	_SPI1_WriteByte
  4724  0C4B                     l889:	
  4725                           ;ledMatrix.c: 69:     while(!PIR1bits.SSP1IF);
  4726                           
  4727  0C4B  0020               	movlb	0	; select bank0
  4728  0C4C  1D91               	btfss	17,3	;volatile
  4729  0C4D  2C4F               	goto	u2261
  4730  0C4E  2C50               	goto	u2260
  4731  0C4F                     u2261:
  4732  0C4F  2C4B               	goto	l889
  4733  0C50                     u2260:
  4734  0C50                     l891:
  4735                           
  4736                           ;ledMatrix.c: 70:     PIR1bits.SSP1IF = 0;
  4737  0C50  1191               	bcf	17,3	;volatile
  4738  0C51                     l892:	
  4739                           ;ledMatrix.c: 71:     do { LATBbits.LATB1 = 1; } while(0);
  4740                           
  4741  0C51  0022               	movlb	2	; select bank2
  4742  0C52  148D               	bsf	13,1	;volatile
  4743  0C53                     l894:
  4744  0C53  0008               	return
  4745  0C54                     __end_of_txMAX7219:
  4746                           
  4747                           	psect	text3
  4748  095B                     __ptext3:	
  4749 ;; *************** function _SPI1_WriteByte *****************
  4750 ;; Defined at:
  4751 ;;		line 131 in file "mcc_generated_files/spi1.c"
  4752 ;; Parameters:    Size  Location     Type
  4753 ;;  byte            1    wreg     unsigned char 
  4754 ;; Auto vars:     Size  Location     Type
  4755 ;;  byte            1    3[BANK0 ] unsigned char 
  4756 ;; Return value:  Size  Location     Type
  4757 ;;                  1    wreg      void 
  4758 ;; Registers used:
  4759 ;;		wreg
  4760 ;; Tracked objects:
  4761 ;;		On entry : 0/0
  4762 ;;		On exit  : 0/0
  4763 ;;		Unchanged: 0/0
  4764 ;; Data sizes:     COMMON   BANK0   BANK1   BANK2   BANK3   BANK4
  4765 ;;      Params:         0       0       0       0       0       0
  4766 ;;      Locals:         0       1       0       0       0       0
  4767 ;;      Temps:          0       0       0       0       0       0
  4768 ;;      Totals:         0       1       0       0       0       0
  4769 ;;Total ram usage:        1 bytes
  4770 ;; Hardware stack levels used: 1
  4771 ;; Hardware stack levels required when called: 6
  4772 ;; This function calls:
  4773 ;;		Nothing
  4774 ;; This function is called by:
  4775 ;;		_txMAX7219
  4776 ;; This function uses a non-reentrant model
  4777 ;;
  4778                           
  4779                           
  4780                           ;psect for function _SPI1_WriteByte
  4781  095B                     _SPI1_WriteByte:
  4782                           
  4783                           ;incstack = 0
  4784                           ; Regs used in _SPI1_WriteByte: [wreg]
  4785                           ;SPI1_WriteByte@byte stored from wreg
  4786  095B  0020               	movlb	0	; select bank0
  4787  095C  00A3               	movwf	SPI1_WriteByte@byte
  4788  095D                     l2933:
  4789                           
  4790                           ;mcc_generated_files/spi1.c: 131: void SPI1_WriteByte(uint8_t byte);mcc_generated_files/
      +                          spi1.c: 132: {;mcc_generated_files/spi1.c: 133:     SSP1BUF = byte;
  4791  095D  0823               	movf	SPI1_WriteByte@byte,w
  4792  095E  0024               	movlb	4	; select bank4
  4793  095F  0091               	movwf	17	;volatile
  4794  0960                     l229:
  4795  0960  0008               	return
  4796  0961                     __end_of_SPI1_WriteByte:
  4797                           
  4798                           	psect	text4
  4799  0E37                     __ptext4:	
  4800 ;; *************** function _controle *****************
  4801 ;; Defined at:
  4802 ;;		line 138 in file "main.c"
  4803 ;; Parameters:    Size  Location     Type
  4804 ;;		None
  4805 ;; Auto vars:     Size  Location     Type
  4806 ;;		None
  4807 ;; Return value:  Size  Location     Type
  4808 ;;                  1    wreg      void 
  4809 ;; Registers used:
  4810 ;;		wreg, status,2, status,0, pclath, cstack
  4811 ;; Tracked objects:
  4812 ;;		On entry : 0/0
  4813 ;;		On exit  : 0/0
  4814 ;;		Unchanged: 0/0
  4815 ;; Data sizes:     COMMON   BANK0   BANK1   BANK2   BANK3   BANK4
  4816 ;;      Params:         0       0       0       0       0       0
  4817 ;;      Locals:         0       0       0       0       0       0
  4818 ;;      Temps:          0       2       0       0       0       0
  4819 ;;      Totals:         0       2       0       0       0       0
  4820 ;;Total ram usage:        2 bytes
  4821 ;; Hardware stack levels used: 1
  4822 ;; Hardware stack levels required when called: 8
  4823 ;; This function calls:
  4824 ;;		_PWM3_LoadDutyValue
  4825 ;;		_deslocamento
  4826 ;; This function is called by:
  4827 ;;		_main
  4828 ;; This function uses a non-reentrant model
  4829 ;;
  4830                           
  4831                           
  4832                           ;psect for function _controle
  4833  0E37                     _controle:
  4834  0E37                     l3451:	
  4835                           ;incstack = 0
  4836                           ; Regs used in _controle: [wreg+status,2+status,0+pclath+cstack]
  4837                           
  4838                           
  4839                           ;main.c: 142:     if(pos_final>pos_atual){
  4840  0E37  0020               	movlb	0	; select bank0
  4841  0E38  086A               	movf	_pos_atual+1,w
  4842  0E39  3A80               	xorlw	128
  4843  0E3A  00A9               	movwf	??_controle
  4844  0E3B  0021               	movlb	1	; select bank1
  4845  0E3C  083D               	movf	(_pos_final+1)^(0+128),w
  4846  0E3D  3A80               	xorlw	128
  4847  0E3E  0020               	movlb	0	; select bank0
  4848  0E3F  0229               	subwf	??_controle,w
  4849  0E40  1D03               	skipz
  4850  0E41  2E46               	goto	u2575
  4851  0E42  0021               	movlb	1	; select bank1
  4852  0E43  083C               	movf	_pos_final^(0+128),w
  4853  0E44  0020               	movlb	0	; select bank0
  4854  0E45  0269               	subwf	_pos_atual,w
  4855  0E46                     u2575:
  4856  0E46  1803               	skipnc
  4857  0E47  2E49               	goto	u2571
  4858  0E48  2E4A               	goto	u2570
  4859  0E49                     u2571:
  4860  0E49  2E6D               	goto	l3463
  4861  0E4A                     u2570:
  4862  0E4A                     l3453:
  4863                           
  4864                           ;main.c: 143:         if(PORTAbits.RA7==0){
  4865  0E4A  0020               	movlb	0	; select bank0
  4866  0E4B  1B8C               	btfsc	12,7	;volatile
  4867  0E4C  2E4E               	goto	u2581
  4868  0E4D  2E4F               	goto	u2580
  4869  0E4E                     u2581:
  4870  0E4E  2E62               	goto	l3459
  4871  0E4F                     u2580:
  4872  0E4F                     l3455:
  4873                           
  4874                           ;main.c: 144:             PWM3_LoadDutyValue(0);
  4875  0E4F  3000               	movlw	0
  4876  0E50  00A3               	movwf	PWM3_LoadDutyValue@dutyValue
  4877  0E51  00A4               	movwf	PWM3_LoadDutyValue@dutyValue+1
  4878  0E52  3187  27E3  318E   	fcall	_PWM3_LoadDutyValue
  4879  0E55                     l3457:
  4880                           
  4881                           ;main.c: 145:             _delay((unsigned long)((500)*(2000000/4000.0)));
  4882  0E55  3002               	movlw	2
  4883  0E56  0020               	movlb	0	; select bank0
  4884  0E57  00AA               	movwf	??_controle+1
  4885  0E58  3045               	movlw	69
  4886  0E59  00A9               	movwf	??_controle
  4887  0E5A  30A9               	movlw	169
  4888  0E5B                     u3797:
  4889  0E5B  0B89               	decfsz	9,f
  4890  0E5C  2E5B               	goto	u3797
  4891  0E5D  0BA9               	decfsz	??_controle,f
  4892  0E5E  2E5B               	goto	u3797
  4893  0E5F  0BAA               	decfsz	??_controle+1,f
  4894  0E60  2E5B               	goto	u3797
  4895  0E61  3200               	nop2
  4896  0E62                     l3459:
  4897  0E62  0022               	movlb	2	; select bank2
  4898  0E63  178C               	bsf	12,7	;volatile
  4899  0E64                     l3461:
  4900                           
  4901                           ;main.c: 149:         motor = 1;
  4902  0E64  3001               	movlw	1
  4903  0E65  0021               	movlb	1	; select bank1
  4904  0E66  00CF               	movwf	_motor^(0+128)
  4905  0E67  3000               	movlw	0
  4906  0E68  00D0               	movwf	(_motor^(0+128)+1)
  4907                           
  4908                           ;main.c: 150:         deslocamento();
  4909  0E69  3185  25D6  318E   	fcall	_deslocamento
  4910                           
  4911                           ;main.c: 152:     } else if(pos_final<pos_atual){
  4912  0E6C  2EA4               	goto	l825
  4913  0E6D                     l3463:
  4914  0E6D  0021               	movlb	1	; select bank1
  4915  0E6E  083D               	movf	(_pos_final+1)^(0+128),w
  4916  0E6F  3A80               	xorlw	128
  4917  0E70  0020               	movlb	0	; select bank0
  4918  0E71  00A9               	movwf	??_controle
  4919  0E72  086A               	movf	_pos_atual+1,w
  4920  0E73  3A80               	xorlw	128
  4921  0E74  0229               	subwf	??_controle,w
  4922  0E75  1D03               	skipz
  4923  0E76  2E7A               	goto	u2595
  4924  0E77  0869               	movf	_pos_atual,w
  4925  0E78  0021               	movlb	1	; select bank1
  4926  0E79  023C               	subwf	_pos_final^(0+128),w
  4927  0E7A                     u2595:
  4928  0E7A  1803               	skipnc
  4929  0E7B  2E7D               	goto	u2591
  4930  0E7C  2E7E               	goto	u2590
  4931  0E7D                     u2591:
  4932  0E7D  2EA1               	goto	l3475
  4933  0E7E                     u2590:
  4934  0E7E                     l3465:
  4935                           
  4936                           ;main.c: 153:         if(PORTAbits.RA7==1){
  4937  0E7E  0020               	movlb	0	; select bank0
  4938  0E7F  1F8C               	btfss	12,7	;volatile
  4939  0E80  2E82               	goto	u2601
  4940  0E81  2E83               	goto	u2600
  4941  0E82                     u2601:
  4942  0E82  2E96               	goto	l3471
  4943  0E83                     u2600:
  4944  0E83                     l3467:
  4945                           
  4946                           ;main.c: 154:             PWM3_LoadDutyValue(0);
  4947  0E83  3000               	movlw	0
  4948  0E84  00A3               	movwf	PWM3_LoadDutyValue@dutyValue
  4949  0E85  00A4               	movwf	PWM3_LoadDutyValue@dutyValue+1
  4950  0E86  3187  27E3  318E   	fcall	_PWM3_LoadDutyValue
  4951  0E89                     l3469:
  4952                           
  4953                           ;main.c: 155:             _delay((unsigned long)((500)*(2000000/4000.0)));
  4954  0E89  3002               	movlw	2
  4955  0E8A  0020               	movlb	0	; select bank0
  4956  0E8B  00AA               	movwf	??_controle+1
  4957  0E8C  3045               	movlw	69
  4958  0E8D  00A9               	movwf	??_controle
  4959  0E8E  30A9               	movlw	169
  4960  0E8F                     u3807:
  4961  0E8F  0B89               	decfsz	9,f
  4962  0E90  2E8F               	goto	u3807
  4963  0E91  0BA9               	decfsz	??_controle,f
  4964  0E92  2E8F               	goto	u3807
  4965  0E93  0BAA               	decfsz	??_controle+1,f
  4966  0E94  2E8F               	goto	u3807
  4967  0E95  3200               	nop2
  4968  0E96                     l3471:
  4969  0E96  0022               	movlb	2	; select bank2
  4970  0E97  138C               	bcf	12,7	;volatile
  4971  0E98                     l3473:
  4972                           
  4973                           ;main.c: 159:         motor = 2;
  4974  0E98  3002               	movlw	2
  4975  0E99  0021               	movlb	1	; select bank1
  4976  0E9A  00CF               	movwf	_motor^(0+128)
  4977  0E9B  3000               	movlw	0
  4978  0E9C  00D0               	movwf	(_motor^(0+128)+1)
  4979                           
  4980                           ;main.c: 160:         deslocamento();
  4981  0E9D  3185  25D6  318E   	fcall	_deslocamento
  4982                           
  4983                           ;main.c: 161:     } else{
  4984  0EA0  2EA4               	goto	l825
  4985  0EA1                     l3475:
  4986                           
  4987                           ;main.c: 162:         motor = 0;
  4988  0EA1  0021               	movlb	1	; select bank1
  4989  0EA2  01CF               	clrf	_motor^(0+128)
  4990  0EA3  01D0               	clrf	(_motor+1)^(0+128)
  4991  0EA4                     l825:
  4992  0EA4  0008               	return
  4993  0EA5                     __end_of_controle:
  4994                           
  4995                           	psect	text5
  4996  05D6                     __ptext5:	
  4997 ;; *************** function _deslocamento *****************
  4998 ;; Defined at:
  4999 ;;		line 111 in file "main.c"
  5000 ;; Parameters:    Size  Location     Type
  5001 ;;		None
  5002 ;; Auto vars:     Size  Location     Type
  5003 ;;		None
  5004 ;; Return value:  Size  Location     Type
  5005 ;;                  1    wreg      void 
  5006 ;; Registers used:
  5007 ;;		wreg, status,2, status,0, pclath, cstack
  5008 ;; Tracked objects:
  5009 ;;		On entry : 0/0
  5010 ;;		On exit  : 0/0
  5011 ;;		Unchanged: 0/0
  5012 ;; Data sizes:     COMMON   BANK0   BANK1   BANK2   BANK3   BANK4
  5013 ;;      Params:         0       0       0       0       0       0
  5014 ;;      Locals:         0       0       0       0       0       0
  5015 ;;      Temps:          0       2       0       0       0       0
  5016 ;;      Totals:         0       2       0       0       0       0
  5017 ;;Total ram usage:        2 bytes
  5018 ;; Hardware stack levels used: 1
  5019 ;; Hardware stack levels required when called: 7
  5020 ;; This function calls:
  5021 ;;		_PWM3_LoadDutyValue
  5022 ;; This function is called by:
  5023 ;;		_controle
  5024 ;; This function uses a non-reentrant model
  5025 ;;
  5026                           
  5027                           
  5028                           ;psect for function _deslocamento
  5029  05D6                     _deslocamento:
  5030  05D6                     l3257:	
  5031                           ;incstack = 0
  5032                           ; Regs used in _deslocamento: [wreg+status,2+status,0+pclath+cstack]
  5033                           
  5034                           
  5035                           ;main.c: 114:     if(pos_final==pos_atual){
  5036  05D6  0020               	movlb	0	; select bank0
  5037  05D7  086A               	movf	_pos_atual+1,w
  5038  05D8  0021               	movlb	1	; select bank1
  5039  05D9  063D               	xorwf	(_pos_final+1)^(0+128),w
  5040  05DA  1D03               	skipz
  5041  05DB  2DE0               	goto	u2305
  5042  05DC  0020               	movlb	0	; select bank0
  5043  05DD  0869               	movf	_pos_atual,w
  5044  05DE  0021               	movlb	1	; select bank1
  5045  05DF  063C               	xorwf	_pos_final^(0+128),w
  5046  05E0                     u2305:
  5047  05E0  1D03               	skipz
  5048  05E1  2DE3               	goto	u2301
  5049  05E2  2DE4               	goto	u2300
  5050  05E3                     u2301:
  5051  05E3  2DFC               	goto	l3265
  5052  05E4                     u2300:
  5053  05E4                     l3259:
  5054                           
  5055                           ;main.c: 115:          PWM3_LoadDutyValue(0);
  5056  05E4  3000               	movlw	0
  5057  05E5  0020               	movlb	0	; select bank0
  5058  05E6  00A3               	movwf	PWM3_LoadDutyValue@dutyValue
  5059  05E7  00A4               	movwf	PWM3_LoadDutyValue@dutyValue+1
  5060  05E8  3187  27E3  3185   	fcall	_PWM3_LoadDutyValue
  5061  05EB                     l3261:
  5062                           
  5063                           ;main.c: 116:          motor = 0;
  5064  05EB  0021               	movlb	1	; select bank1
  5065  05EC  01CF               	clrf	_motor^(0+128)
  5066  05ED  01D0               	clrf	(_motor+1)^(0+128)
  5067  05EE                     l3263:
  5068                           
  5069                           ;main.c: 117:          _delay((unsigned long)((2000)*(2000000/4000.0)));
  5070  05EE  3006               	movlw	6
  5071  05EF  0020               	movlb	0	; select bank0
  5072  05F0  00A8               	movwf	??_deslocamento+1
  5073  05F1  3013               	movlw	19
  5074  05F2  00A7               	movwf	??_deslocamento
  5075  05F3  30AD               	movlw	173
  5076  05F4                     u3817:
  5077  05F4  0B89               	decfsz	9,f
  5078  05F5  2DF4               	goto	u3817
  5079  05F6  0BA7               	decfsz	??_deslocamento,f
  5080  05F7  2DF4               	goto	u3817
  5081  05F8  0BA8               	decfsz	??_deslocamento+1,f
  5082  05F9  2DF4               	goto	u3817
  5083  05FA  3200               	nop2
  5084                           
  5085                           ;main.c: 118:     }else if (pos_final > pos_atual & PORTAbits.RA7==1) {
  5086  05FB  2E8A               	goto	l812
  5087  05FC                     l3265:
  5088  05FC  0020               	movlb	0	; select bank0
  5089  05FD  1B8C               	btfsc	12,7	;volatile
  5090  05FE  2E00               	goto	u2311
  5091  05FF  2E02               	goto	u2310
  5092  0600                     u2311:
  5093  0600  3001               	movlw	1
  5094  0601  2E03               	goto	u2312
  5095  0602                     u2310:
  5096  0602  3000               	movlw	0
  5097  0603                     u2312:
  5098  0603  00A7               	movwf	??_deslocamento
  5099  0604  086A               	movf	_pos_atual+1,w
  5100  0605  3A80               	xorlw	128
  5101  0606  00A8               	movwf	??_deslocamento+1
  5102  0607  0021               	movlb	1	; select bank1
  5103  0608  083D               	movf	(_pos_final+1)^(0+128),w
  5104  0609  3A80               	xorlw	128
  5105  060A  0020               	movlb	0	; select bank0
  5106  060B  0228               	subwf	??_deslocamento+1,w
  5107  060C  1D03               	skipz
  5108  060D  2E12               	goto	u2325
  5109  060E  0021               	movlb	1	; select bank1
  5110  060F  083C               	movf	_pos_final^(0+128),w
  5111  0610  0020               	movlb	0	; select bank0
  5112  0611  0269               	subwf	_pos_atual,w
  5113  0612                     u2325:
  5114  0612  1C03               	skipc
  5115  0613  2E15               	goto	u2321
  5116  0614  2E17               	goto	u2320
  5117  0615                     u2321:
  5118  0615  3001               	movlw	1
  5119  0616  2E18               	goto	u2322
  5120  0617                     u2320:
  5121  0617  3000               	movlw	0
  5122  0618                     u2322:
  5123  0618  0020               	movlb	0	; select bank0
  5124  0619  0527               	andwf	??_deslocamento,w
  5125  061A  3800               	iorlw	0
  5126  061B  1903               	skipnz
  5127  061C  2E1E               	goto	u2331
  5128  061D  2E1F               	goto	u2330
  5129  061E                     u2331:
  5130  061E  2E27               	goto	l3269
  5131  061F                     u2330:
  5132  061F                     l3267:
  5133                           
  5134                           ;main.c: 119:         PWM3_LoadDutyValue(409);
  5135  061F  3099               	movlw	153
  5136  0620  00A3               	movwf	PWM3_LoadDutyValue@dutyValue
  5137  0621  3001               	movlw	1
  5138  0622  00A4               	movwf	PWM3_LoadDutyValue@dutyValue+1
  5139  0623  3187  27E3  3185   	fcall	_PWM3_LoadDutyValue
  5140                           
  5141                           ;main.c: 120:     }else if(pos_final < pos_atual & PORTAbits.RA7==0){
  5142  0626  2E8A               	goto	l812
  5143  0627                     l3269:
  5144  0627  1F8C               	btfss	12,7	;volatile
  5145  0628  2E2A               	goto	u2341
  5146  0629  2E2C               	goto	u2340
  5147  062A                     u2341:
  5148  062A  3001               	movlw	1
  5149  062B  2E2D               	goto	u2342
  5150  062C                     u2340:
  5151  062C  3000               	movlw	0
  5152  062D                     u2342:
  5153  062D  00A7               	movwf	??_deslocamento
  5154  062E  0021               	movlb	1	; select bank1
  5155  062F  083D               	movf	(_pos_final+1)^(0+128),w
  5156  0630  3A80               	xorlw	128
  5157  0631  0020               	movlb	0	; select bank0
  5158  0632  00A8               	movwf	??_deslocamento+1
  5159  0633  086A               	movf	_pos_atual+1,w
  5160  0634  3A80               	xorlw	128
  5161  0635  0228               	subwf	??_deslocamento+1,w
  5162  0636  1D03               	skipz
  5163  0637  2E3B               	goto	u2355
  5164  0638  0869               	movf	_pos_atual,w
  5165  0639  0021               	movlb	1	; select bank1
  5166  063A  023C               	subwf	_pos_final^(0+128),w
  5167  063B                     u2355:
  5168  063B  1C03               	skipc
  5169  063C  2E3E               	goto	u2351
  5170  063D  2E40               	goto	u2350
  5171  063E                     u2351:
  5172  063E  3001               	movlw	1
  5173  063F  2E41               	goto	u2352
  5174  0640                     u2350:
  5175  0640  3000               	movlw	0
  5176  0641                     u2352:
  5177  0641  0020               	movlb	0	; select bank0
  5178  0642  0527               	andwf	??_deslocamento,w
  5179  0643  3800               	iorlw	0
  5180  0644  1903               	skipnz
  5181  0645  2E47               	goto	u2361
  5182  0646  2E48               	goto	u2360
  5183  0647                     u2361:
  5184  0647  2E49               	goto	l803
  5185  0648                     u2360:
  5186  0648  2E1F               	goto	l3267
  5187  0649                     l803:
  5188  0649  1F8C               	btfss	12,7	;volatile
  5189  064A  2E4C               	goto	u2371
  5190  064B  2E4D               	goto	u2370
  5191  064C                     u2371:
  5192  064C  2E70               	goto	l805
  5193  064D                     u2370:
  5194  064D                     l3273:
  5195                           
  5196                           ;main.c: 123:         PWM3_LoadDutyValue(0);
  5197  064D  3000               	movlw	0
  5198  064E  00A3               	movwf	PWM3_LoadDutyValue@dutyValue
  5199  064F  00A4               	movwf	PWM3_LoadDutyValue@dutyValue+1
  5200  0650  3187  27E3  3185   	fcall	_PWM3_LoadDutyValue
  5201  0653                     l3275:
  5202                           
  5203                           ;main.c: 124:         _delay((unsigned long)((500)*(2000000/4000.0)));
  5204  0653  3002               	movlw	2
  5205  0654  0020               	movlb	0	; select bank0
  5206  0655  00A8               	movwf	??_deslocamento+1
  5207  0656  3045               	movlw	69
  5208  0657  00A7               	movwf	??_deslocamento
  5209  0658  30A9               	movlw	169
  5210  0659                     u3827:
  5211  0659  0B89               	decfsz	9,f
  5212  065A  2E59               	goto	u3827
  5213  065B  0BA7               	decfsz	??_deslocamento,f
  5214  065C  2E59               	goto	u3827
  5215  065D  0BA8               	decfsz	??_deslocamento+1,f
  5216  065E  2E59               	goto	u3827
  5217  065F  3200               	nop2
  5218  0660                     l3277:
  5219  0660  0022               	movlb	2	; select bank2
  5220  0661  138C               	bcf	12,7	;volatile
  5221  0662                     l3279:
  5222                           
  5223                           ;main.c: 126:         motor = 2;
  5224  0662  3002               	movlw	2
  5225  0663  0021               	movlb	1	; select bank1
  5226  0664  00CF               	movwf	_motor^(0+128)
  5227  0665  3000               	movlw	0
  5228  0666  00D0               	movwf	(_motor^(0+128)+1)
  5229                           
  5230                           ;main.c: 127:         PWM3_LoadDutyValue(409);
  5231  0667  3099               	movlw	153
  5232  0668  0020               	movlb	0	; select bank0
  5233  0669  00A3               	movwf	PWM3_LoadDutyValue@dutyValue
  5234  066A  3001               	movlw	1
  5235  066B  00A4               	movwf	PWM3_LoadDutyValue@dutyValue+1
  5236  066C  3187  27E3  3185   	fcall	_PWM3_LoadDutyValue
  5237                           
  5238                           ;main.c: 128:     }else if (PORTAbits.RA7==1) {
  5239  066F  2E8A               	goto	l812
  5240  0670                     l805:
  5241  0670  1F8C               	btfss	12,7	;volatile
  5242  0671  2E73               	goto	u2381
  5243  0672  2E74               	goto	u2380
  5244  0673                     u2381:
  5245  0673  2E8A               	goto	l802
  5246  0674                     u2380:
  5247  0674                     l3281:
  5248                           
  5249                           ;main.c: 129:         PWM3_LoadDutyValue(0);
  5250  0674  3000               	movlw	0
  5251  0675  00A3               	movwf	PWM3_LoadDutyValue@dutyValue
  5252  0676  00A4               	movwf	PWM3_LoadDutyValue@dutyValue+1
  5253  0677  3187  27E3  3185   	fcall	_PWM3_LoadDutyValue
  5254  067A                     l3283:
  5255                           
  5256                           ;main.c: 130:         _delay((unsigned long)((500)*(2000000/4000.0)));
  5257  067A  3002               	movlw	2
  5258  067B  0020               	movlb	0	; select bank0
  5259  067C  00A8               	movwf	??_deslocamento+1
  5260  067D  3045               	movlw	69
  5261  067E  00A7               	movwf	??_deslocamento
  5262  067F  30A9               	movlw	169
  5263  0680                     u3837:
  5264  0680  0B89               	decfsz	9,f
  5265  0681  2E80               	goto	u3837
  5266  0682  0BA7               	decfsz	??_deslocamento,f
  5267  0683  2E80               	goto	u3837
  5268  0684  0BA8               	decfsz	??_deslocamento+1,f
  5269  0685  2E80               	goto	u3837
  5270  0686  3200               	nop2
  5271  0687                     l3285:
  5272  0687  0022               	movlb	2	; select bank2
  5273  0688  178C               	bsf	12,7	;volatile
  5274  0689  2E62               	goto	l3279
  5275  068A                     l802:
  5276  068A                     l812:
  5277  068A  0008               	return
  5278  068B                     __end_of_deslocamento:
  5279                           
  5280                           	psect	text6
  5281  07E3                     __ptext6:	
  5282 ;; *************** function _PWM3_LoadDutyValue *****************
  5283 ;; Defined at:
  5284 ;;		line 82 in file "mcc_generated_files/pwm3.c"
  5285 ;; Parameters:    Size  Location     Type
  5286 ;;  dutyValue       2    3[BANK0 ] unsigned short 
  5287 ;; Auto vars:     Size  Location     Type
  5288 ;;		None
  5289 ;; Return value:  Size  Location     Type
  5290 ;;                  1    wreg      void 
  5291 ;; Registers used:
  5292 ;;		wreg, status,2, status,0
  5293 ;; Tracked objects:
  5294 ;;		On entry : 0/0
  5295 ;;		On exit  : 0/0
  5296 ;;		Unchanged: 0/0
  5297 ;; Data sizes:     COMMON   BANK0   BANK1   BANK2   BANK3   BANK4
  5298 ;;      Params:         0       2       0       0       0       0
  5299 ;;      Locals:         0       0       0       0       0       0
  5300 ;;      Temps:          0       2       0       0       0       0
  5301 ;;      Totals:         0       4       0       0       0       0
  5302 ;;Total ram usage:        4 bytes
  5303 ;; Hardware stack levels used: 1
  5304 ;; Hardware stack levels required when called: 6
  5305 ;; This function calls:
  5306 ;;		Nothing
  5307 ;; This function is called by:
  5308 ;;		_deslocamento
  5309 ;;		_controle
  5310 ;; This function uses a non-reentrant model
  5311 ;;
  5312                           
  5313                           
  5314                           ;psect for function _PWM3_LoadDutyValue
  5315  07E3                     _PWM3_LoadDutyValue:
  5316  07E3                     l2989:	
  5317                           ;incstack = 0
  5318                           ; Regs used in _PWM3_LoadDutyValue: [wreg+status,2+status,0]
  5319                           
  5320                           
  5321                           ;mcc_generated_files/pwm3.c: 82: void PWM3_LoadDutyValue(uint16_t dutyValue);mcc_generat
      +                          ed_files/pwm3.c: 83: {;mcc_generated_files/pwm3.c: 85:     CCPR3L = ((dutyValue & 0x03FC
      +                          )>>2);
  5322  07E3  0020               	movlb	0	; select bank0
  5323  07E4  0824               	movf	PWM3_LoadDutyValue@dutyValue+1,w
  5324  07E5  00A6               	movwf	??_PWM3_LoadDutyValue+1
  5325  07E6  0823               	movf	PWM3_LoadDutyValue@dutyValue,w
  5326  07E7  00A5               	movwf	??_PWM3_LoadDutyValue
  5327  07E8  36A6               	lsrf	??_PWM3_LoadDutyValue+1,f
  5328  07E9  0CA5               	rrf	??_PWM3_LoadDutyValue,f
  5329  07EA  36A6               	lsrf	??_PWM3_LoadDutyValue+1,f
  5330  07EB  0CA5               	rrf	??_PWM3_LoadDutyValue,f
  5331  07EC  0825               	movf	??_PWM3_LoadDutyValue,w
  5332  07ED  0026               	movlb	6	; select bank6
  5333  07EE  0091               	movwf	17	;volatile
  5334                           
  5335                           ;mcc_generated_files/pwm3.c: 88:     CCP3CON = ((uint8_t)(CCP3CON & 0xCF) | ((dutyValue 
      +                          & 0x0003)<<4));
  5336  07EF  0020               	movlb	0	; select bank0
  5337  07F0  0823               	movf	PWM3_LoadDutyValue@dutyValue,w
  5338  07F1  3903               	andlw	3
  5339  07F2  00A5               	movwf	??_PWM3_LoadDutyValue
  5340  07F3  3004               	movlw	4
  5341  07F4                     u2095:
  5342  07F4  35A5               	lslf	??_PWM3_LoadDutyValue,f
  5343  07F5  0B89               	decfsz	9,f
  5344  07F6  2FF4               	goto	u2095
  5345  07F7  0026               	movlb	6	; select bank6
  5346  07F8  0813               	movf	19,w	;volatile
  5347  07F9  39CF               	andlw	207
  5348  07FA  0020               	movlb	0	; select bank0
  5349  07FB  0425               	iorwf	??_PWM3_LoadDutyValue,w
  5350  07FC  0026               	movlb	6	; select bank6
  5351  07FD  0093               	movwf	19	;volatile
  5352  07FE                     l482:
  5353  07FE  0008               	return
  5354  07FF                     __end_of_PWM3_LoadDutyValue:
  5355                           
  5356                           	psect	text7
  5357  068B                     __ptext7:	
  5358 ;; *************** function ___xxtofl *****************
  5359 ;; Defined at:
  5360 ;;		line 10 in file "C:\Program Files\Microchip\xc8\v2.32\pic\sources\c99\common\xxtofl.c"
  5361 ;; Parameters:    Size  Location     Type
  5362 ;;  sign            1    wreg     unsigned char 
  5363 ;;  val             4    7[BANK0 ] long 
  5364 ;; Auto vars:     Size  Location     Type
  5365 ;;  sign            1   15[BANK0 ] unsigned char 
  5366 ;;  arg             4   17[BANK0 ] unsigned long 
  5367 ;;  exp             1   16[BANK0 ] unsigned char 
  5368 ;; Return value:  Size  Location     Type
  5369 ;;                  4    7[BANK0 ] unsigned char 
  5370 ;; Registers used:
  5371 ;;		wreg, status,2, status,0
  5372 ;; Tracked objects:
  5373 ;;		On entry : 0/0
  5374 ;;		On exit  : 0/0
  5375 ;;		Unchanged: 0/0
  5376 ;; Data sizes:     COMMON   BANK0   BANK1   BANK2   BANK3   BANK4
  5377 ;;      Params:         0       4       0       0       0       0
  5378 ;;      Locals:         0       6       0       0       0       0
  5379 ;;      Temps:          0       4       0       0       0       0
  5380 ;;      Totals:         0      14       0       0       0       0
  5381 ;;Total ram usage:       14 bytes
  5382 ;; Hardware stack levels used: 1
  5383 ;; Hardware stack levels required when called: 6
  5384 ;; This function calls:
  5385 ;;		Nothing
  5386 ;; This function is called by:
  5387 ;;		_main
  5388 ;; This function uses a non-reentrant model
  5389 ;;
  5390                           
  5391                           
  5392                           ;psect for function ___xxtofl
  5393  068B                     ___xxtofl:
  5394                           
  5395                           ;incstack = 0
  5396                           ; Regs used in ___xxtofl: [wreg+status,2+status,0]
  5397                           ;___xxtofl@sign stored from wreg
  5398  068B  0020               	movlb	0	; select bank0
  5399  068C  00AF               	movwf	___xxtofl@sign
  5400  068D                     l3801:
  5401  068D  082F               	movf	___xxtofl@sign,w
  5402  068E  1903               	btfsc	3,2
  5403  068F  2E91               	goto	u3261
  5404  0690  2E92               	goto	u3260
  5405  0691                     u3261:
  5406  0691  2EA6               	goto	l3807
  5407  0692                     u3260:
  5408  0692                     l3803:
  5409  0692  1FAA               	btfss	___xxtofl@val+3,7
  5410  0693  2E95               	goto	u3271
  5411  0694  2E96               	goto	u3270
  5412  0695                     u3271:
  5413  0695  2EA6               	goto	l3807
  5414  0696                     u3270:
  5415  0696                     l3805:
  5416  0696  0927               	comf	___xxtofl@val,w
  5417  0697  00B1               	movwf	___xxtofl@arg
  5418  0698  0928               	comf	___xxtofl@val+1,w
  5419  0699  00B2               	movwf	___xxtofl@arg+1
  5420  069A  0929               	comf	___xxtofl@val+2,w
  5421  069B  00B3               	movwf	___xxtofl@arg+2
  5422  069C  092A               	comf	___xxtofl@val+3,w
  5423  069D  00B4               	movwf	___xxtofl@arg+3
  5424  069E  0AB1               	incf	___xxtofl@arg,f
  5425  069F  1903               	skipnz
  5426  06A0  0AB2               	incf	___xxtofl@arg+1,f
  5427  06A1  1903               	skipnz
  5428  06A2  0AB3               	incf	___xxtofl@arg+2,f
  5429  06A3  1903               	skipnz
  5430  06A4  0AB4               	incf	___xxtofl@arg+3,f
  5431  06A5  2EAE               	goto	l1498
  5432  06A6                     l3807:
  5433  06A6  082A               	movf	___xxtofl@val+3,w
  5434  06A7  00B4               	movwf	___xxtofl@arg+3
  5435  06A8  0829               	movf	___xxtofl@val+2,w
  5436  06A9  00B3               	movwf	___xxtofl@arg+2
  5437  06AA  0828               	movf	___xxtofl@val+1,w
  5438  06AB  00B2               	movwf	___xxtofl@arg+1
  5439  06AC  0827               	movf	___xxtofl@val,w
  5440  06AD  00B1               	movwf	___xxtofl@arg
  5441  06AE                     l1498:
  5442  06AE  082A               	movf	___xxtofl@val+3,w
  5443  06AF  0429               	iorwf	___xxtofl@val+2,w
  5444  06B0  0428               	iorwf	___xxtofl@val+1,w
  5445  06B1  0427               	iorwf	___xxtofl@val,w
  5446  06B2  1D03               	skipz
  5447  06B3  2EB5               	goto	u3281
  5448  06B4  2EB6               	goto	u3280
  5449  06B5                     u3281:
  5450  06B5  2EBF               	goto	l3813
  5451  06B6                     u3280:
  5452  06B6                     l3809:
  5453  06B6  3000               	movlw	0
  5454  06B7  00AA               	movwf	?___xxtofl+3
  5455  06B8  3000               	movlw	0
  5456  06B9  00A9               	movwf	?___xxtofl+2
  5457  06BA  3000               	movlw	0
  5458  06BB  00A8               	movwf	?___xxtofl+1
  5459  06BC  3000               	movlw	0
  5460  06BD  00A7               	movwf	?___xxtofl
  5461  06BE  2F37               	goto	l1500
  5462  06BF                     l3813:
  5463  06BF  3096               	movlw	150
  5464  06C0  00AB               	movwf	??___xxtofl
  5465  06C1  082B               	movf	??___xxtofl,w
  5466  06C2  00B0               	movwf	___xxtofl@exp
  5467  06C3  2ECF               	goto	l3817
  5468  06C4                     l3815:
  5469  06C4  3001               	movlw	1
  5470  06C5  00AB               	movwf	??___xxtofl
  5471  06C6  082B               	movf	??___xxtofl,w
  5472  06C7  07B0               	addwf	___xxtofl@exp,f
  5473  06C8  3001               	movlw	1
  5474  06C9                     u3295:
  5475  06C9  36B4               	lsrf	___xxtofl@arg+3,f
  5476  06CA  0CB3               	rrf	___xxtofl@arg+2,f
  5477  06CB  0CB2               	rrf	___xxtofl@arg+1,f
  5478  06CC  0CB1               	rrf	___xxtofl@arg,f
  5479  06CD  0B89               	decfsz	9,f
  5480  06CE  2EC9               	goto	u3295
  5481  06CF                     l3817:
  5482  06CF  30FE               	movlw	254
  5483  06D0  0534               	andwf	___xxtofl@arg+3,w
  5484  06D1  1D03               	btfss	3,2
  5485  06D2  2ED4               	goto	u3301
  5486  06D3  2ED5               	goto	u3300
  5487  06D4                     u3301:
  5488  06D4  2EC4               	goto	l3815
  5489  06D5                     u3300:
  5490  06D5  2EE9               	goto	l1504
  5491  06D6                     l3819:
  5492  06D6  3001               	movlw	1
  5493  06D7  00AB               	movwf	??___xxtofl
  5494  06D8  082B               	movf	??___xxtofl,w
  5495  06D9  07B0               	addwf	___xxtofl@exp,f
  5496  06DA                     l3821:
  5497  06DA  3001               	movlw	1
  5498  06DB  07B1               	addwf	___xxtofl@arg,f
  5499  06DC  3000               	movlw	0
  5500  06DD  3DB2               	addwfc	___xxtofl@arg+1,f
  5501  06DE  3000               	movlw	0
  5502  06DF  3DB3               	addwfc	___xxtofl@arg+2,f
  5503  06E0  3000               	movlw	0
  5504  06E1  3DB4               	addwfc	___xxtofl@arg+3,f
  5505  06E2                     l3823:
  5506  06E2  3001               	movlw	1
  5507  06E3                     u3315:
  5508  06E3  36B4               	lsrf	___xxtofl@arg+3,f
  5509  06E4  0CB3               	rrf	___xxtofl@arg+2,f
  5510  06E5  0CB2               	rrf	___xxtofl@arg+1,f
  5511  06E6  0CB1               	rrf	___xxtofl@arg,f
  5512  06E7  0B89               	decfsz	9,f
  5513  06E8  2EE3               	goto	u3315
  5514  06E9                     l1504:
  5515  06E9  30FF               	movlw	255
  5516  06EA  0534               	andwf	___xxtofl@arg+3,w
  5517  06EB  1D03               	btfss	3,2
  5518  06EC  2EEE               	goto	u3321
  5519  06ED  2EEF               	goto	u3320
  5520  06EE                     u3321:
  5521  06EE  2ED6               	goto	l3819
  5522  06EF                     u3320:
  5523  06EF  2EF9               	goto	l3827
  5524  06F0                     l3825:
  5525  06F0  3001               	movlw	1
  5526  06F1  02B0               	subwf	___xxtofl@exp,f
  5527  06F2  3001               	movlw	1
  5528  06F3                     u3335:
  5529  06F3  35B1               	lslf	___xxtofl@arg,f
  5530  06F4  0DB2               	rlf	___xxtofl@arg+1,f
  5531  06F5  0DB3               	rlf	___xxtofl@arg+2,f
  5532  06F6  0DB4               	rlf	___xxtofl@arg+3,f
  5533  06F7  0B89               	decfsz	9,f
  5534  06F8  2EF3               	goto	u3335
  5535  06F9                     l3827:
  5536  06F9  1BB3               	btfsc	___xxtofl@arg+2,7
  5537  06FA  2EFC               	goto	u3341
  5538  06FB  2EFD               	goto	u3340
  5539  06FC                     u3341:
  5540  06FC  2F03               	goto	l1511
  5541  06FD                     u3340:
  5542  06FD                     l3829:
  5543  06FD  3002               	movlw	2
  5544  06FE  0230               	subwf	___xxtofl@exp,w
  5545  06FF  1803               	skipnc
  5546  0700  2F02               	goto	u3351
  5547  0701  2F03               	goto	u3350
  5548  0702                     u3351:
  5549  0702  2EF0               	goto	l3825
  5550  0703                     u3350:
  5551  0703                     l1511:
  5552  0703  1830               	btfsc	___xxtofl@exp,0
  5553  0704  2F06               	goto	u3361
  5554  0705  2F07               	goto	u3360
  5555  0706                     u3361:
  5556  0706  2F0F               	goto	l1512
  5557  0707                     u3360:
  5558  0707                     l3831:
  5559  0707  30FF               	movlw	255
  5560  0708  05B1               	andwf	___xxtofl@arg,f
  5561  0709  30FF               	movlw	255
  5562  070A  05B2               	andwf	___xxtofl@arg+1,f
  5563  070B  307F               	movlw	127
  5564  070C  05B3               	andwf	___xxtofl@arg+2,f
  5565  070D  30FF               	movlw	255
  5566  070E  05B4               	andwf	___xxtofl@arg+3,f
  5567  070F                     l1512:
  5568  070F  1003               	clrc
  5569  0710  0CB0               	rrf	___xxtofl@exp,f
  5570  0711                     l3833:
  5571  0711  0830               	movf	___xxtofl@exp,w
  5572  0712  00AB               	movwf	??___xxtofl
  5573  0713  01AC               	clrf	??___xxtofl+1
  5574  0714  01AD               	clrf	??___xxtofl+2
  5575  0715  01AE               	clrf	??___xxtofl+3
  5576  0716  3018               	movlw	24
  5577  0717                     u3375:
  5578  0717  35AB               	lslf	??___xxtofl,f
  5579  0718  0DAC               	rlf	??___xxtofl+1,f
  5580  0719  0DAD               	rlf	??___xxtofl+2,f
  5581  071A  0DAE               	rlf	??___xxtofl+3,f
  5582  071B                     u3370:
  5583  071B  0B89               	decfsz	9,f
  5584  071C  2F17               	goto	u3375
  5585  071D  082B               	movf	??___xxtofl,w
  5586  071E  04B1               	iorwf	___xxtofl@arg,f
  5587  071F  082C               	movf	??___xxtofl+1,w
  5588  0720  04B2               	iorwf	___xxtofl@arg+1,f
  5589  0721  082D               	movf	??___xxtofl+2,w
  5590  0722  04B3               	iorwf	___xxtofl@arg+2,f
  5591  0723  082E               	movf	??___xxtofl+3,w
  5592  0724  04B4               	iorwf	___xxtofl@arg+3,f
  5593  0725                     l3835:
  5594  0725  082F               	movf	___xxtofl@sign,w
  5595  0726  1903               	btfsc	3,2
  5596  0727  2F29               	goto	u3381
  5597  0728  2F2A               	goto	u3380
  5598  0729                     u3381:
  5599  0729  2F2F               	goto	l3841
  5600  072A                     u3380:
  5601  072A                     l3837:
  5602  072A  1FAA               	btfss	___xxtofl@val+3,7
  5603  072B  2F2D               	goto	u3391
  5604  072C  2F2E               	goto	u3390
  5605  072D                     u3391:
  5606  072D  2F2F               	goto	l3841
  5607  072E                     u3390:
  5608  072E                     l3839:
  5609  072E  17B4               	bsf	___xxtofl@arg+3,7
  5610  072F                     l3841:
  5611  072F  0834               	movf	___xxtofl@arg+3,w
  5612  0730  00AA               	movwf	?___xxtofl+3
  5613  0731  0833               	movf	___xxtofl@arg+2,w
  5614  0732  00A9               	movwf	?___xxtofl+2
  5615  0733  0832               	movf	___xxtofl@arg+1,w
  5616  0734  00A8               	movwf	?___xxtofl+1
  5617  0735  0831               	movf	___xxtofl@arg,w
  5618  0736  00A7               	movwf	?___xxtofl
  5619  0737                     l1500:
  5620  0737  0008               	return
  5621  0738                     __end_of___xxtofl:
  5622                           
  5623                           	psect	text8
  5624  0F8B                     __ptext8:	
  5625 ;; *************** function ___fltol *****************
  5626 ;; Defined at:
  5627 ;;		line 43 in file "C:\Program Files\Microchip\xc8\v2.32\pic\sources\c99\common\fltol.c"
  5628 ;; Parameters:    Size  Location     Type
  5629 ;;  f1              4    0[BANK1 ] unsigned char 
  5630 ;; Auto vars:     Size  Location     Type
  5631 ;;  exp1            1   10[BANK1 ] unsigned char 
  5632 ;;  sign1           1    9[BANK1 ] unsigned char 
  5633 ;; Return value:  Size  Location     Type
  5634 ;;                  4    0[BANK1 ] long 
  5635 ;; Registers used:
  5636 ;;		wreg, status,2, status,0
  5637 ;; Tracked objects:
  5638 ;;		On entry : 0/0
  5639 ;;		On exit  : 0/0
  5640 ;;		Unchanged: 0/0
  5641 ;; Data sizes:     COMMON   BANK0   BANK1   BANK2   BANK3   BANK4
  5642 ;;      Params:         0       0       4       0       0       0
  5643 ;;      Locals:         0       0       2       0       0       0
  5644 ;;      Temps:          0       0       5       0       0       0
  5645 ;;      Totals:         0       0      11       0       0       0
  5646 ;;Total ram usage:       11 bytes
  5647 ;; Hardware stack levels used: 1
  5648 ;; Hardware stack levels required when called: 6
  5649 ;; This function calls:
  5650 ;;		Nothing
  5651 ;; This function is called by:
  5652 ;;		_main
  5653 ;; This function uses a non-reentrant model
  5654 ;;
  5655                           
  5656                           
  5657                           ;psect for function ___fltol
  5658  0F8B                     ___fltol:
  5659  0F8B                     l3989:	
  5660                           ;incstack = 0
  5661                           ; Regs used in ___fltol: [wreg+status,2+status,0]
  5662                           
  5663  0F8B  1003               	clrc
  5664  0F8C  0021               	movlb	1	; select bank1
  5665  0F8D  0D64               	rlf	(___fltol@f1+2)^(0+128),w
  5666  0F8E  0D65               	rlf	(___fltol@f1+3)^(0+128),w
  5667  0F8F  00E6               	movwf	??___fltol^(0+128)
  5668  0F90  0866               	movf	??___fltol^(0+128),w
  5669  0F91  00EC               	movwf	___fltol@exp1^(0+128)
  5670  0F92  086C               	movf	___fltol@exp1^(0+128),w
  5671  0F93  1D03               	btfss	3,2
  5672  0F94  2F96               	goto	u3671
  5673  0F95  2F97               	goto	u3670
  5674  0F96                     u3671:
  5675  0F96  2FA0               	goto	l3995
  5676  0F97                     u3670:
  5677  0F97                     l3991:
  5678  0F97  3000               	movlw	0
  5679  0F98  00E5               	movwf	(?___fltol+3)^(0+128)
  5680  0F99  3000               	movlw	0
  5681  0F9A  00E4               	movwf	(?___fltol+2)^(0+128)
  5682  0F9B  3000               	movlw	0
  5683  0F9C  00E3               	movwf	(?___fltol+1)^(0+128)
  5684  0F9D  3000               	movlw	0
  5685  0F9E  00E2               	movwf	?___fltol^(0+128)
  5686  0F9F  2FFF               	goto	l1251
  5687  0FA0                     l3995:
  5688  0FA0  0862               	movf	___fltol@f1^(0+128),w
  5689  0FA1  00E6               	movwf	??___fltol^(0+128)
  5690  0FA2  0863               	movf	(___fltol@f1+1)^(0+128),w
  5691  0FA3  00E7               	movwf	(??___fltol^(0+128)+1)
  5692  0FA4  0864               	movf	(___fltol@f1+2)^(0+128),w
  5693  0FA5  00E8               	movwf	(??___fltol^(0+128)+2)
  5694  0FA6  0865               	movf	(___fltol@f1+3)^(0+128),w
  5695  0FA7  00E9               	movwf	(??___fltol^(0+128)+3)
  5696  0FA8  301F               	movlw	31
  5697  0FA9                     u3685:
  5698  0FA9  36E9               	lsrf	(??___fltol^(0+128)+3),f
  5699  0FAA  0CE8               	rrf	(??___fltol^(0+128)+2),f
  5700  0FAB  0CE7               	rrf	(??___fltol^(0+128)+1),f
  5701  0FAC  0CE6               	rrf	??___fltol^(0+128),f
  5702  0FAD                     u3680:
  5703  0FAD  0B89               	decfsz	9,f
  5704  0FAE  2FA9               	goto	u3685
  5705  0FAF  0866               	movf	??___fltol^(0+128),w
  5706  0FB0  00EA               	movwf	(??___fltol+4)^(0+128)
  5707  0FB1  086A               	movf	(??___fltol+4)^(0+128),w
  5708  0FB2  00EB               	movwf	___fltol@sign1^(0+128)
  5709  0FB3                     l3997:
  5710  0FB3  17E4               	bsf	(___fltol@f1^(0+128)+2),7
  5711  0FB4                     l3999:
  5712  0FB4  30FF               	movlw	255
  5713  0FB5  05E2               	andwf	___fltol@f1^(0+128),f
  5714  0FB6  30FF               	movlw	255
  5715  0FB7  05E3               	andwf	(___fltol@f1+1)^(0+128),f
  5716  0FB8  30FF               	movlw	255
  5717  0FB9  05E4               	andwf	(___fltol@f1+2)^(0+128),f
  5718  0FBA  3000               	movlw	0
  5719  0FBB  05E5               	andwf	(___fltol@f1+3)^(0+128),f
  5720  0FBC                     l4001:
  5721  0FBC  3096               	movlw	150
  5722  0FBD  02EC               	subwf	___fltol@exp1^(0+128),f
  5723  0FBE                     l4003:
  5724  0FBE  1FEC               	btfss	___fltol@exp1^(0+128),7
  5725  0FBF  2FC1               	goto	u3691
  5726  0FC0  2FC2               	goto	u3690
  5727  0FC1                     u3691:
  5728  0FC1  2FDA               	goto	l4013
  5729  0FC2                     u3690:
  5730  0FC2                     l4005:
  5731  0FC2  086C               	movf	___fltol@exp1^(0+128),w
  5732  0FC3  3A80               	xorlw	128
  5733  0FC4  3E97               	addlw	151
  5734  0FC5  1803               	skipnc
  5735  0FC6  2FC8               	goto	u3701
  5736  0FC7  2FC9               	goto	u3700
  5737  0FC8                     u3701:
  5738  0FC8  2FCA               	goto	l4011
  5739  0FC9                     u3700:
  5740  0FC9  2F97               	goto	l3991
  5741  0FCA                     l4011:
  5742  0FCA  3001               	movlw	1
  5743  0FCB                     u3715:
  5744  0FCB  36E5               	lsrf	(___fltol@f1+3)^(0+128),f
  5745  0FCC  0CE4               	rrf	(___fltol@f1+2)^(0+128),f
  5746  0FCD  0CE3               	rrf	(___fltol@f1+1)^(0+128),f
  5747  0FCE  0CE2               	rrf	___fltol@f1^(0+128),f
  5748  0FCF  0B89               	decfsz	9,f
  5749  0FD0  2FCB               	goto	u3715
  5750  0FD1  3001               	movlw	1
  5751  0FD2  00E6               	movwf	??___fltol^(0+128)
  5752  0FD3  0866               	movf	??___fltol^(0+128),w
  5753  0FD4  07EC               	addwf	___fltol@exp1^(0+128),f
  5754  0FD5  1D03               	btfss	3,2
  5755  0FD6  2FD8               	goto	u3721
  5756  0FD7  2FD9               	goto	u3720
  5757  0FD8                     u3721:
  5758  0FD8  2FCA               	goto	l4011
  5759  0FD9                     u3720:
  5760  0FD9  2FEF               	goto	l4021
  5761  0FDA                     l4013:
  5762  0FDA  3020               	movlw	32
  5763  0FDB  026C               	subwf	___fltol@exp1^(0+128),w
  5764  0FDC  1C03               	skipc
  5765  0FDD  2FDF               	goto	u3731
  5766  0FDE  2FE0               	goto	u3730
  5767  0FDF                     u3731:
  5768  0FDF  2FEA               	goto	l1258
  5769  0FE0                     u3730:
  5770  0FE0  2F97               	goto	l3991
  5771  0FE1                     l4019:
  5772  0FE1  3001               	movlw	1
  5773  0FE2                     u3745:
  5774  0FE2  35E2               	lslf	___fltol@f1^(0+128),f
  5775  0FE3  0DE3               	rlf	(___fltol@f1+1)^(0+128),f
  5776  0FE4  0DE4               	rlf	(___fltol@f1+2)^(0+128),f
  5777  0FE5  0DE5               	rlf	(___fltol@f1+3)^(0+128),f
  5778  0FE6  0B89               	decfsz	9,f
  5779  0FE7  2FE2               	goto	u3745
  5780  0FE8  3001               	movlw	1
  5781  0FE9  02EC               	subwf	___fltol@exp1^(0+128),f
  5782  0FEA                     l1258:
  5783  0FEA  086C               	movf	___fltol@exp1^(0+128),w
  5784  0FEB  1D03               	btfss	3,2
  5785  0FEC  2FEE               	goto	u3751
  5786  0FED  2FEF               	goto	u3750
  5787  0FEE                     u3751:
  5788  0FEE  2FE1               	goto	l4019
  5789  0FEF                     u3750:
  5790  0FEF                     l4021:
  5791  0FEF  086B               	movf	___fltol@sign1^(0+128),w
  5792  0FF0  1903               	btfsc	3,2
  5793  0FF1  2FF3               	goto	u3761
  5794  0FF2  2FF4               	goto	u3760
  5795  0FF3                     u3761:
  5796  0FF3  2FFF               	goto	l1261
  5797  0FF4                     u3760:
  5798  0FF4                     l4023:
  5799  0FF4  09E2               	comf	___fltol@f1^(0+128),f
  5800  0FF5  09E3               	comf	(___fltol@f1+1)^(0+128),f
  5801  0FF6  09E4               	comf	(___fltol@f1+2)^(0+128),f
  5802  0FF7  09E5               	comf	(___fltol@f1+3)^(0+128),f
  5803  0FF8  0AE2               	incf	___fltol@f1^(0+128),f
  5804  0FF9  1903               	skipnz
  5805  0FFA  0AE3               	incf	(___fltol@f1+1)^(0+128),f
  5806  0FFB  1903               	skipnz
  5807  0FFC  0AE4               	incf	(___fltol@f1+2)^(0+128),f
  5808  0FFD  1903               	skipnz
  5809  0FFE  0AE5               	incf	(___fltol@f1+3)^(0+128),f
  5810  0FFF                     l1261:
  5811  0FFF                     l1251:
  5812  0FFF  0008               	return
  5813  1000                     __end_of___fltol:
  5814                           
  5815                           	psect	text9
  5816  00A3                     __ptext9:	
  5817 ;; *************** function ___flmul *****************
  5818 ;; Defined at:
  5819 ;;		line 8 in file "C:\Program Files\Microchip\xc8\v2.32\pic\sources\c99\common\sprcmul.c"
  5820 ;; Parameters:    Size  Location     Type
  5821 ;;  b               4   21[BANK0 ] long 
  5822 ;;  a               4   25[BANK0 ] long 
  5823 ;; Auto vars:     Size  Location     Type
  5824 ;;  prod            4   41[BANK0 ] struct .
  5825 ;;  grs             4   35[BANK0 ] unsigned long 
  5826 ;;  temp            2   45[BANK0 ] struct .
  5827 ;;  bexp            1   40[BANK0 ] unsigned char 
  5828 ;;  aexp            1   39[BANK0 ] unsigned char 
  5829 ;;  sign            1   34[BANK0 ] unsigned char 
  5830 ;; Return value:  Size  Location     Type
  5831 ;;                  4   21[BANK0 ] unsigned char 
  5832 ;; Registers used:
  5833 ;;		wreg, status,2, status,0, pclath, cstack
  5834 ;; Tracked objects:
  5835 ;;		On entry : 0/0
  5836 ;;		On exit  : 0/0
  5837 ;;		Unchanged: 0/0
  5838 ;; Data sizes:     COMMON   BANK0   BANK1   BANK2   BANK3   BANK4
  5839 ;;      Params:         0       8       0       0       0       0
  5840 ;;      Locals:         0      13       0       0       0       0
  5841 ;;      Temps:          0       5       0       0       0       0
  5842 ;;      Totals:         0      26       0       0       0       0
  5843 ;;Total ram usage:       26 bytes
  5844 ;; Hardware stack levels used: 1
  5845 ;; Hardware stack levels required when called: 7
  5846 ;; This function calls:
  5847 ;;		__Umul8_16
  5848 ;; This function is called by:
  5849 ;;		_main
  5850 ;; This function uses a non-reentrant model
  5851 ;;
  5852                           
  5853                           
  5854                           ;psect for function ___flmul
  5855  00A3                     ___flmul:
  5856  00A3                     l3661:	
  5857                           ;incstack = 0
  5858                           ; Regs used in ___flmul: [wreg+status,2+status,0+pclath+cstack]
  5859                           
  5860  00A3  0020               	movlb	0	; select bank0
  5861  00A4  0838               	movf	___flmul@b+3,w
  5862  00A5  3980               	andlw	128
  5863  00A6  00BD               	movwf	??___flmul
  5864  00A7  083D               	movf	??___flmul,w
  5865  00A8  00C2               	movwf	___flmul@sign
  5866  00A9                     l3663:
  5867  00A9  3538               	lslf	___flmul@b+3,w
  5868  00AA  00BD               	movwf	??___flmul
  5869  00AB  083D               	movf	??___flmul,w
  5870  00AC  00C8               	movwf	___flmul@bexp
  5871  00AD                     l3665:
  5872  00AD  1FB7               	btfss	___flmul@b+2,7
  5873  00AE  28B0               	goto	u3001
  5874  00AF  28B1               	goto	u3000
  5875  00B0                     u3001:
  5876  00B0  28B2               	goto	l3669
  5877  00B1                     u3000:
  5878  00B1                     l3667:
  5879  00B1  1448               	bsf	___flmul@bexp,0
  5880  00B2                     l3669:
  5881  00B2  0848               	movf	___flmul@bexp,w
  5882  00B3  1903               	btfsc	3,2
  5883  00B4  28B6               	goto	u3011
  5884  00B5  28B7               	goto	u3010
  5885  00B6                     u3011:
  5886  00B6  28C6               	goto	l3677
  5887  00B7                     u3010:
  5888  00B7                     l3671:
  5889  00B7  0A48               	incf	___flmul@bexp,w
  5890  00B8  1D03               	btfss	3,2
  5891  00B9  28BB               	goto	u3021
  5892  00BA  28BC               	goto	u3020
  5893  00BB                     u3021:
  5894  00BB  28C4               	goto	l3675
  5895  00BC                     u3020:
  5896  00BC                     l3673:
  5897  00BC  3000               	movlw	0
  5898  00BD  00B8               	movwf	___flmul@b+3
  5899  00BE  3000               	movlw	0
  5900  00BF  00B7               	movwf	___flmul@b+2
  5901  00C0  3000               	movlw	0
  5902  00C1  00B6               	movwf	___flmul@b+1
  5903  00C2  3000               	movlw	0
  5904  00C3  00B5               	movwf	___flmul@b
  5905  00C4                     l3675:
  5906  00C4  17B7               	bsf	___flmul@b+2,7
  5907  00C5  28CE               	goto	l3679
  5908  00C6                     l3677:
  5909  00C6  3000               	movlw	0
  5910  00C7  00B8               	movwf	___flmul@b+3
  5911  00C8  3000               	movlw	0
  5912  00C9  00B7               	movwf	___flmul@b+2
  5913  00CA  3000               	movlw	0
  5914  00CB  00B6               	movwf	___flmul@b+1
  5915  00CC  3000               	movlw	0
  5916  00CD  00B5               	movwf	___flmul@b
  5917  00CE                     l3679:
  5918  00CE  083C               	movf	___flmul@a+3,w
  5919  00CF  3980               	andlw	128
  5920  00D0  00BD               	movwf	??___flmul
  5921  00D1  083D               	movf	??___flmul,w
  5922  00D2  06C2               	xorwf	___flmul@sign,f
  5923  00D3                     l3681:
  5924  00D3  353C               	lslf	___flmul@a+3,w
  5925  00D4  00BD               	movwf	??___flmul
  5926  00D5  083D               	movf	??___flmul,w
  5927  00D6  00C7               	movwf	___flmul@aexp
  5928  00D7                     l3683:
  5929  00D7  1FBB               	btfss	___flmul@a+2,7
  5930  00D8  28DA               	goto	u3031
  5931  00D9  28DB               	goto	u3030
  5932  00DA                     u3031:
  5933  00DA  28DC               	goto	l3687
  5934  00DB                     u3030:
  5935  00DB                     l3685:
  5936  00DB  1447               	bsf	___flmul@aexp,0
  5937  00DC                     l3687:
  5938  00DC  0847               	movf	___flmul@aexp,w
  5939  00DD  1903               	btfsc	3,2
  5940  00DE  28E0               	goto	u3041
  5941  00DF  28E1               	goto	u3040
  5942  00E0                     u3041:
  5943  00E0  28F0               	goto	l3695
  5944  00E1                     u3040:
  5945  00E1                     l3689:
  5946  00E1  0A47               	incf	___flmul@aexp,w
  5947  00E2  1D03               	btfss	3,2
  5948  00E3  28E5               	goto	u3051
  5949  00E4  28E6               	goto	u3050
  5950  00E5                     u3051:
  5951  00E5  28EE               	goto	l3693
  5952  00E6                     u3050:
  5953  00E6                     l3691:
  5954  00E6  3000               	movlw	0
  5955  00E7  00BC               	movwf	___flmul@a+3
  5956  00E8  3000               	movlw	0
  5957  00E9  00BB               	movwf	___flmul@a+2
  5958  00EA  3000               	movlw	0
  5959  00EB  00BA               	movwf	___flmul@a+1
  5960  00EC  3000               	movlw	0
  5961  00ED  00B9               	movwf	___flmul@a
  5962  00EE                     l3693:
  5963  00EE  17BB               	bsf	___flmul@a+2,7
  5964  00EF  28F8               	goto	l3697
  5965  00F0                     l3695:
  5966  00F0  3000               	movlw	0
  5967  00F1  00BC               	movwf	___flmul@a+3
  5968  00F2  3000               	movlw	0
  5969  00F3  00BB               	movwf	___flmul@a+2
  5970  00F4  3000               	movlw	0
  5971  00F5  00BA               	movwf	___flmul@a+1
  5972  00F6  3000               	movlw	0
  5973  00F7  00B9               	movwf	___flmul@a
  5974  00F8                     l3697:
  5975  00F8  0847               	movf	___flmul@aexp,w
  5976  00F9  1903               	btfsc	3,2
  5977  00FA  28FC               	goto	u3061
  5978  00FB  28FD               	goto	u3060
  5979  00FC                     u3061:
  5980  00FC  2902               	goto	l3701
  5981  00FD                     u3060:
  5982  00FD                     l3699:
  5983  00FD  0848               	movf	___flmul@bexp,w
  5984  00FE  1D03               	btfss	3,2
  5985  00FF  2901               	goto	u3071
  5986  0100  2902               	goto	u3070
  5987  0101                     u3071:
  5988  0101  290B               	goto	l3705
  5989  0102                     u3070:
  5990  0102                     l3701:
  5991  0102  3000               	movlw	0
  5992  0103  00B8               	movwf	?___flmul+3
  5993  0104  3000               	movlw	0
  5994  0105  00B7               	movwf	?___flmul+2
  5995  0106  3000               	movlw	0
  5996  0107  00B6               	movwf	?___flmul+1
  5997  0108  3000               	movlw	0
  5998  0109  00B5               	movwf	?___flmul
  5999  010A  2AF9               	goto	l1454
  6000  010B                     l3705:
  6001  010B  0835               	movf	___flmul@b,w
  6002  010C  00BD               	movwf	??___flmul
  6003  010D  083D               	movf	??___flmul,w
  6004  010E  00A3               	movwf	__Umul8_16@multiplicand
  6005  010F  083B               	movf	___flmul@a+2,w
  6006  0110  318B  237C  3180   	fcall	__Umul8_16
  6007  0113  0020               	movlb	0	; select bank0
  6008  0114  0824               	movf	?__Umul8_16+1,w
  6009  0115  00CE               	movwf	___flmul@temp+1
  6010  0116  0823               	movf	?__Umul8_16,w
  6011  0117  00CD               	movwf	___flmul@temp
  6012  0118                     l3707:
  6013  0118  084D               	movf	___flmul@temp,w
  6014  0119  00BD               	movwf	??___flmul
  6015  011A  01BE               	clrf	??___flmul+1
  6016  011B  01BF               	clrf	??___flmul+2
  6017  011C  01C0               	clrf	??___flmul+3
  6018  011D  0840               	movf	??___flmul+3,w
  6019  011E  00C6               	movwf	___flmul@grs+3
  6020  011F  083F               	movf	??___flmul+2,w
  6021  0120  00C5               	movwf	___flmul@grs+2
  6022  0121  083E               	movf	??___flmul+1,w
  6023  0122  00C4               	movwf	___flmul@grs+1
  6024  0123  083D               	movf	??___flmul,w
  6025  0124  00C3               	movwf	___flmul@grs
  6026  0125                     l3709:
  6027  0125  084E               	movf	___flmul@temp+1,w
  6028  0126  00BD               	movwf	??___flmul
  6029  0127  01BE               	clrf	??___flmul+1
  6030  0128  01BF               	clrf	??___flmul+2
  6031  0129  01C0               	clrf	??___flmul+3
  6032  012A  0840               	movf	??___flmul+3,w
  6033  012B  00CC               	movwf	___flmul@prod+3
  6034  012C  083F               	movf	??___flmul+2,w
  6035  012D  00CB               	movwf	___flmul@prod+2
  6036  012E  083E               	movf	??___flmul+1,w
  6037  012F  00CA               	movwf	___flmul@prod+1
  6038  0130  083D               	movf	??___flmul,w
  6039  0131  00C9               	movwf	___flmul@prod
  6040  0132  0836               	movf	___flmul@b+1,w
  6041  0133  00BD               	movwf	??___flmul
  6042  0134  083D               	movf	??___flmul,w
  6043  0135  00A3               	movwf	__Umul8_16@multiplicand
  6044  0136  083A               	movf	___flmul@a+1,w
  6045  0137  318B  237C  3180   	fcall	__Umul8_16
  6046  013A  0020               	movlb	0	; select bank0
  6047  013B  0824               	movf	?__Umul8_16+1,w
  6048  013C  00CE               	movwf	___flmul@temp+1
  6049  013D  0823               	movf	?__Umul8_16,w
  6050  013E  00CD               	movwf	___flmul@temp
  6051  013F                     l3711:
  6052  013F  084D               	movf	___flmul@temp,w
  6053  0140  00BD               	movwf	??___flmul
  6054  0141  01BE               	clrf	??___flmul+1
  6055  0142  01BF               	clrf	??___flmul+2
  6056  0143  01C0               	clrf	??___flmul+3
  6057  0144  083D               	movf	??___flmul,w
  6058  0145  07C3               	addwf	___flmul@grs,f
  6059  0146  083E               	movf	??___flmul+1,w
  6060  0147  3DC4               	addwfc	___flmul@grs+1,f
  6061  0148  083F               	movf	??___flmul+2,w
  6062  0149  3DC5               	addwfc	___flmul@grs+2,f
  6063  014A  0840               	movf	??___flmul+3,w
  6064  014B  3DC6               	addwfc	___flmul@grs+3,f
  6065  014C                     l3713:
  6066  014C  084E               	movf	___flmul@temp+1,w
  6067  014D  00BD               	movwf	??___flmul
  6068  014E  01BE               	clrf	??___flmul+1
  6069  014F  01BF               	clrf	??___flmul+2
  6070  0150  01C0               	clrf	??___flmul+3
  6071  0151  083D               	movf	??___flmul,w
  6072  0152  07C9               	addwf	___flmul@prod,f
  6073  0153  083E               	movf	??___flmul+1,w
  6074  0154  3DCA               	addwfc	___flmul@prod+1,f
  6075  0155  083F               	movf	??___flmul+2,w
  6076  0156  3DCB               	addwfc	___flmul@prod+2,f
  6077  0157  0840               	movf	??___flmul+3,w
  6078  0158  3DCC               	addwfc	___flmul@prod+3,f
  6079  0159  0837               	movf	___flmul@b+2,w
  6080  015A  00BD               	movwf	??___flmul
  6081  015B  083D               	movf	??___flmul,w
  6082  015C  00A3               	movwf	__Umul8_16@multiplicand
  6083  015D  0839               	movf	___flmul@a,w
  6084  015E  318B  237C  3180   	fcall	__Umul8_16
  6085  0161  0020               	movlb	0	; select bank0
  6086  0162  0824               	movf	?__Umul8_16+1,w
  6087  0163  00CE               	movwf	___flmul@temp+1
  6088  0164  0823               	movf	?__Umul8_16,w
  6089  0165  00CD               	movwf	___flmul@temp
  6090  0166                     l3715:
  6091  0166  084D               	movf	___flmul@temp,w
  6092  0167  00BD               	movwf	??___flmul
  6093  0168  01BE               	clrf	??___flmul+1
  6094  0169  01BF               	clrf	??___flmul+2
  6095  016A  01C0               	clrf	??___flmul+3
  6096  016B  083D               	movf	??___flmul,w
  6097  016C  07C3               	addwf	___flmul@grs,f
  6098  016D  083E               	movf	??___flmul+1,w
  6099  016E  3DC4               	addwfc	___flmul@grs+1,f
  6100  016F  083F               	movf	??___flmul+2,w
  6101  0170  3DC5               	addwfc	___flmul@grs+2,f
  6102  0171  0840               	movf	??___flmul+3,w
  6103  0172  3DC6               	addwfc	___flmul@grs+3,f
  6104  0173                     l3717:
  6105  0173  084E               	movf	___flmul@temp+1,w
  6106  0174  00BD               	movwf	??___flmul
  6107  0175  01BE               	clrf	??___flmul+1
  6108  0176  01BF               	clrf	??___flmul+2
  6109  0177  01C0               	clrf	??___flmul+3
  6110  0178  083D               	movf	??___flmul,w
  6111  0179  07C9               	addwf	___flmul@prod,f
  6112  017A  083E               	movf	??___flmul+1,w
  6113  017B  3DCA               	addwfc	___flmul@prod+1,f
  6114  017C  083F               	movf	??___flmul+2,w
  6115  017D  3DCB               	addwfc	___flmul@prod+2,f
  6116  017E  0840               	movf	??___flmul+3,w
  6117  017F  3DCC               	addwfc	___flmul@prod+3,f
  6118  0180                     l3719:
  6119  0180  3008               	movlw	8
  6120  0181                     u3085:
  6121  0181  35C3               	lslf	___flmul@grs,f
  6122  0182  0DC4               	rlf	___flmul@grs+1,f
  6123  0183  0DC5               	rlf	___flmul@grs+2,f
  6124  0184  0DC6               	rlf	___flmul@grs+3,f
  6125  0185  0B89               	decfsz	9,f
  6126  0186  2981               	goto	u3085
  6127  0187                     l3721:
  6128  0187  0836               	movf	___flmul@b+1,w
  6129  0188  00BD               	movwf	??___flmul
  6130  0189  083D               	movf	??___flmul,w
  6131  018A  00A3               	movwf	__Umul8_16@multiplicand
  6132  018B  0839               	movf	___flmul@a,w
  6133  018C  318B  237C  3180   	fcall	__Umul8_16
  6134  018F  0020               	movlb	0	; select bank0
  6135  0190  0824               	movf	?__Umul8_16+1,w
  6136  0191  00CE               	movwf	___flmul@temp+1
  6137  0192  0823               	movf	?__Umul8_16,w
  6138  0193  00CD               	movwf	___flmul@temp
  6139  0194                     l3723:
  6140  0194  084D               	movf	___flmul@temp,w
  6141  0195  07C3               	addwf	___flmul@grs,f
  6142  0196  084E               	movf	___flmul@temp+1,w
  6143  0197  3DC4               	addwfc	___flmul@grs+1,f
  6144  0198  3000               	movlw	0
  6145  0199  3DC5               	addwfc	___flmul@grs+2,f
  6146  019A  3DC6               	addwfc	___flmul@grs+3,f
  6147  019B                     l3725:
  6148  019B  0835               	movf	___flmul@b,w
  6149  019C  00BD               	movwf	??___flmul
  6150  019D  083D               	movf	??___flmul,w
  6151  019E  00A3               	movwf	__Umul8_16@multiplicand
  6152  019F  083A               	movf	___flmul@a+1,w
  6153  01A0  318B  237C  3180   	fcall	__Umul8_16
  6154  01A3  0020               	movlb	0	; select bank0
  6155  01A4  0824               	movf	?__Umul8_16+1,w
  6156  01A5  00CE               	movwf	___flmul@temp+1
  6157  01A6  0823               	movf	?__Umul8_16,w
  6158  01A7  00CD               	movwf	___flmul@temp
  6159  01A8                     l3727:
  6160  01A8  084D               	movf	___flmul@temp,w
  6161  01A9  07C3               	addwf	___flmul@grs,f
  6162  01AA  084E               	movf	___flmul@temp+1,w
  6163  01AB  3DC4               	addwfc	___flmul@grs+1,f
  6164  01AC  3000               	movlw	0
  6165  01AD  3DC5               	addwfc	___flmul@grs+2,f
  6166  01AE  3DC6               	addwfc	___flmul@grs+3,f
  6167  01AF                     l3729:
  6168  01AF  3008               	movlw	8
  6169  01B0                     u3095:
  6170  01B0  35C3               	lslf	___flmul@grs,f
  6171  01B1  0DC4               	rlf	___flmul@grs+1,f
  6172  01B2  0DC5               	rlf	___flmul@grs+2,f
  6173  01B3  0DC6               	rlf	___flmul@grs+3,f
  6174  01B4  0B89               	decfsz	9,f
  6175  01B5  29B0               	goto	u3095
  6176  01B6  0835               	movf	___flmul@b,w
  6177  01B7  00BD               	movwf	??___flmul
  6178  01B8  083D               	movf	??___flmul,w
  6179  01B9  00A3               	movwf	__Umul8_16@multiplicand
  6180  01BA  0839               	movf	___flmul@a,w
  6181  01BB  318B  237C  3180   	fcall	__Umul8_16
  6182  01BE  0020               	movlb	0	; select bank0
  6183  01BF  0824               	movf	?__Umul8_16+1,w
  6184  01C0  00CE               	movwf	___flmul@temp+1
  6185  01C1  0823               	movf	?__Umul8_16,w
  6186  01C2  00CD               	movwf	___flmul@temp
  6187  01C3                     l3731:
  6188  01C3  084D               	movf	___flmul@temp,w
  6189  01C4  07C3               	addwf	___flmul@grs,f
  6190  01C5  084E               	movf	___flmul@temp+1,w
  6191  01C6  3DC4               	addwfc	___flmul@grs+1,f
  6192  01C7  3000               	movlw	0
  6193  01C8  3DC5               	addwfc	___flmul@grs+2,f
  6194  01C9  3DC6               	addwfc	___flmul@grs+3,f
  6195  01CA                     l3733:
  6196  01CA  0836               	movf	___flmul@b+1,w
  6197  01CB  00BD               	movwf	??___flmul
  6198  01CC  083D               	movf	??___flmul,w
  6199  01CD  00A3               	movwf	__Umul8_16@multiplicand
  6200  01CE  083B               	movf	___flmul@a+2,w
  6201  01CF  318B  237C  3180   	fcall	__Umul8_16
  6202  01D2  0020               	movlb	0	; select bank0
  6203  01D3  0824               	movf	?__Umul8_16+1,w
  6204  01D4  00CE               	movwf	___flmul@temp+1
  6205  01D5  0823               	movf	?__Umul8_16,w
  6206  01D6  00CD               	movwf	___flmul@temp
  6207  01D7  084D               	movf	___flmul@temp,w
  6208  01D8  07C9               	addwf	___flmul@prod,f
  6209  01D9  084E               	movf	___flmul@temp+1,w
  6210  01DA  3DCA               	addwfc	___flmul@prod+1,f
  6211  01DB  3000               	movlw	0
  6212  01DC  3DCB               	addwfc	___flmul@prod+2,f
  6213  01DD  3DCC               	addwfc	___flmul@prod+3,f
  6214  01DE                     l3735:
  6215  01DE  0837               	movf	___flmul@b+2,w
  6216  01DF  00BD               	movwf	??___flmul
  6217  01E0  083D               	movf	??___flmul,w
  6218  01E1  00A3               	movwf	__Umul8_16@multiplicand
  6219  01E2  083A               	movf	___flmul@a+1,w
  6220  01E3  318B  237C  3180   	fcall	__Umul8_16
  6221  01E6  0020               	movlb	0	; select bank0
  6222  01E7  0824               	movf	?__Umul8_16+1,w
  6223  01E8  00CE               	movwf	___flmul@temp+1
  6224  01E9  0823               	movf	?__Umul8_16,w
  6225  01EA  00CD               	movwf	___flmul@temp
  6226  01EB                     l3737:
  6227  01EB  084D               	movf	___flmul@temp,w
  6228  01EC  07C9               	addwf	___flmul@prod,f
  6229  01ED  084E               	movf	___flmul@temp+1,w
  6230  01EE  3DCA               	addwfc	___flmul@prod+1,f
  6231  01EF  3000               	movlw	0
  6232  01F0  3DCB               	addwfc	___flmul@prod+2,f
  6233  01F1  3DCC               	addwfc	___flmul@prod+3,f
  6234  01F2  0837               	movf	___flmul@b+2,w
  6235  01F3  00BD               	movwf	??___flmul
  6236  01F4  083D               	movf	??___flmul,w
  6237  01F5  00A3               	movwf	__Umul8_16@multiplicand
  6238  01F6  083B               	movf	___flmul@a+2,w
  6239  01F7  318B  237C  3180   	fcall	__Umul8_16
  6240  01FA  0020               	movlb	0	; select bank0
  6241  01FB  0824               	movf	?__Umul8_16+1,w
  6242  01FC  00CE               	movwf	___flmul@temp+1
  6243  01FD  0823               	movf	?__Umul8_16,w
  6244  01FE  00CD               	movwf	___flmul@temp
  6245  01FF                     l3739:
  6246  01FF  084D               	movf	___flmul@temp,w
  6247  0200  00BD               	movwf	??___flmul
  6248  0201  084E               	movf	___flmul@temp+1,w
  6249  0202  00BE               	movwf	??___flmul+1
  6250  0203  01BF               	clrf	??___flmul+2
  6251  0204  01C0               	clrf	??___flmul+3
  6252  0205  3008               	movlw	8
  6253  0206                     u3105:
  6254  0206  35BD               	lslf	??___flmul,f
  6255  0207  0DBE               	rlf	??___flmul+1,f
  6256  0208  0DBF               	rlf	??___flmul+2,f
  6257  0209  0DC0               	rlf	??___flmul+3,f
  6258  020A                     u3100:
  6259  020A  0B89               	decfsz	9,f
  6260  020B  2A06               	goto	u3105
  6261  020C  083D               	movf	??___flmul,w
  6262  020D  07C9               	addwf	___flmul@prod,f
  6263  020E  083E               	movf	??___flmul+1,w
  6264  020F  3DCA               	addwfc	___flmul@prod+1,f
  6265  0210  083F               	movf	??___flmul+2,w
  6266  0211  3DCB               	addwfc	___flmul@prod+2,f
  6267  0212  0840               	movf	??___flmul+3,w
  6268  0213  3DCC               	addwfc	___flmul@prod+3,f
  6269  0214                     l3741:
  6270  0214  0843               	movf	___flmul@grs,w
  6271  0215  00BD               	movwf	??___flmul
  6272  0216  0844               	movf	___flmul@grs+1,w
  6273  0217  00BE               	movwf	??___flmul+1
  6274  0218  0845               	movf	___flmul@grs+2,w
  6275  0219  00BF               	movwf	??___flmul+2
  6276  021A  0846               	movf	___flmul@grs+3,w
  6277  021B  00C0               	movwf	??___flmul+3
  6278  021C  3018               	movlw	24
  6279  021D                     u3115:
  6280  021D  36C0               	lsrf	??___flmul+3,f
  6281  021E  0CBF               	rrf	??___flmul+2,f
  6282  021F  0CBE               	rrf	??___flmul+1,f
  6283  0220  0CBD               	rrf	??___flmul,f
  6284  0221                     u3110:
  6285  0221  0B89               	decfsz	9,f
  6286  0222  2A1D               	goto	u3115
  6287  0223  083D               	movf	??___flmul,w
  6288  0224  07C9               	addwf	___flmul@prod,f
  6289  0225  083E               	movf	??___flmul+1,w
  6290  0226  3DCA               	addwfc	___flmul@prod+1,f
  6291  0227  083F               	movf	??___flmul+2,w
  6292  0228  3DCB               	addwfc	___flmul@prod+2,f
  6293  0229  0840               	movf	??___flmul+3,w
  6294  022A  3DCC               	addwfc	___flmul@prod+3,f
  6295  022B                     l3743:
  6296  022B  3008               	movlw	8
  6297  022C                     u3125:
  6298  022C  35C3               	lslf	___flmul@grs,f
  6299  022D  0DC4               	rlf	___flmul@grs+1,f
  6300  022E  0DC5               	rlf	___flmul@grs+2,f
  6301  022F  0DC6               	rlf	___flmul@grs+3,f
  6302  0230  0B89               	decfsz	9,f
  6303  0231  2A2C               	goto	u3125
  6304  0232                     l3745:
  6305  0232  0848               	movf	___flmul@bexp,w
  6306  0233  0747               	addwf	___flmul@aexp,w
  6307  0234  00BD               	movwf	??___flmul
  6308  0235  01BE               	clrf	??___flmul+1
  6309  0236  0DBE               	rlf	??___flmul+1,f
  6310  0237  083D               	movf	??___flmul,w
  6311  0238  3E82               	addlw	130
  6312  0239  00CD               	movwf	___flmul@temp
  6313  023A  30FF               	movlw	255
  6314  023B  3D3E               	addwfc	??___flmul+1,w
  6315  023C  00CE               	movwf	___flmul@temp+1
  6316  023D  2A55               	goto	l3757
  6317  023E                     l3747:
  6318  023E  3001               	movlw	1
  6319  023F                     u3135:
  6320  023F  35C9               	lslf	___flmul@prod,f
  6321  0240  0DCA               	rlf	___flmul@prod+1,f
  6322  0241  0DCB               	rlf	___flmul@prod+2,f
  6323  0242  0DCC               	rlf	___flmul@prod+3,f
  6324  0243  0B89               	decfsz	9,f
  6325  0244  2A3F               	goto	u3135
  6326  0245                     l3749:
  6327  0245  1FC6               	btfss	___flmul@grs+3,7
  6328  0246  2A48               	goto	u3141
  6329  0247  2A49               	goto	u3140
  6330  0248                     u3141:
  6331  0248  2A4A               	goto	l3753
  6332  0249                     u3140:
  6333  0249                     l3751:
  6334  0249  1449               	bsf	___flmul@prod,0
  6335  024A                     l3753:
  6336  024A  3001               	movlw	1
  6337  024B                     u3155:
  6338  024B  35C3               	lslf	___flmul@grs,f
  6339  024C  0DC4               	rlf	___flmul@grs+1,f
  6340  024D  0DC5               	rlf	___flmul@grs+2,f
  6341  024E  0DC6               	rlf	___flmul@grs+3,f
  6342  024F  0B89               	decfsz	9,f
  6343  0250  2A4B               	goto	u3155
  6344  0251                     l3755:
  6345  0251  30FF               	movlw	255
  6346  0252  07CD               	addwf	___flmul@temp,f
  6347  0253  30FF               	movlw	255
  6348  0254  3DCE               	addwfc	___flmul@temp+1,f
  6349  0255                     l3757:
  6350  0255  1FCB               	btfss	___flmul@prod+2,7
  6351  0256  2A58               	goto	u3161
  6352  0257  2A59               	goto	u3160
  6353  0258                     u3161:
  6354  0258  2A3E               	goto	l3747
  6355  0259                     u3160:
  6356  0259                     l3759:
  6357  0259  01C7               	clrf	___flmul@aexp
  6358  025A                     l3761:
  6359  025A  1FC6               	btfss	___flmul@grs+3,7
  6360  025B  2A5D               	goto	u3171
  6361  025C  2A5E               	goto	u3170
  6362  025D                     u3171:
  6363  025D  2A7A               	goto	l3769
  6364  025E                     u3170:
  6365  025E                     l3763:
  6366  025E  30FF               	movlw	255
  6367  025F  0543               	andwf	___flmul@grs,w
  6368  0260  00BD               	movwf	??___flmul
  6369  0261  30FF               	movlw	255
  6370  0262  0544               	andwf	___flmul@grs+1,w
  6371  0263  00BE               	movwf	??___flmul+1
  6372  0264  30FF               	movlw	255
  6373  0265  0545               	andwf	___flmul@grs+2,w
  6374  0266  00BF               	movwf	??___flmul+2
  6375  0267  307F               	movlw	127
  6376  0268  0546               	andwf	___flmul@grs+3,w
  6377  0269  00C0               	movwf	??___flmul+3
  6378  026A  0840               	movf	??___flmul+3,w
  6379  026B  043F               	iorwf	??___flmul+2,w
  6380  026C  043E               	iorwf	??___flmul+1,w
  6381  026D  043D               	iorwf	??___flmul,w
  6382  026E  1903               	skipnz
  6383  026F  2A71               	goto	u3181
  6384  0270  2A72               	goto	u3180
  6385  0271                     u3181:
  6386  0271  2A75               	goto	l1460
  6387  0272                     u3180:
  6388  0272                     l3765:
  6389  0272  01C7               	clrf	___flmul@aexp
  6390  0273  0AC7               	incf	___flmul@aexp,f
  6391  0274  2A7A               	goto	l3769
  6392  0275                     l1460:
  6393  0275  1C49               	btfss	___flmul@prod,0
  6394  0276  2A78               	goto	u3191
  6395  0277  2A79               	goto	u3190
  6396  0278                     u3191:
  6397  0278  2A7A               	goto	l3769
  6398  0279                     u3190:
  6399  0279  2A72               	goto	l3765
  6400  027A                     l3769:
  6401  027A  0847               	movf	___flmul@aexp,w
  6402  027B  1903               	btfsc	3,2
  6403  027C  2A7E               	goto	u3201
  6404  027D  2A7F               	goto	u3200
  6405  027E                     u3201:
  6406  027E  2AA7               	goto	l3779
  6407  027F                     u3200:
  6408  027F                     l3771:
  6409  027F  3001               	movlw	1
  6410  0280  07C9               	addwf	___flmul@prod,f
  6411  0281  3000               	movlw	0
  6412  0282  3DCA               	addwfc	___flmul@prod+1,f
  6413  0283  3000               	movlw	0
  6414  0284  3DCB               	addwfc	___flmul@prod+2,f
  6415  0285  3000               	movlw	0
  6416  0286  3DCC               	addwfc	___flmul@prod+3,f
  6417  0287                     l3773:
  6418  0287  1C4C               	btfss	___flmul@prod+3,0
  6419  0288  2A8A               	goto	u3211
  6420  0289  2A8B               	goto	u3210
  6421  028A                     u3211:
  6422  028A  2AA7               	goto	l3779
  6423  028B                     u3210:
  6424  028B                     l3775:
  6425  028B  0849               	movf	___flmul@prod,w
  6426  028C  00BD               	movwf	??___flmul
  6427  028D  084A               	movf	___flmul@prod+1,w
  6428  028E  00BE               	movwf	??___flmul+1
  6429  028F  084B               	movf	___flmul@prod+2,w
  6430  0290  00BF               	movwf	??___flmul+2
  6431  0291  084C               	movf	___flmul@prod+3,w
  6432  0292  00C0               	movwf	??___flmul+3
  6433  0293  3001               	movlw	1
  6434  0294  00C1               	movwf	??___flmul+4
  6435  0295                     u3225:
  6436  0295  37C0               	asrf	??___flmul+3,f
  6437  0296  0CBF               	rrf	??___flmul+2,f
  6438  0297  0CBE               	rrf	??___flmul+1,f
  6439  0298  0CBD               	rrf	??___flmul,f
  6440  0299                     u3220:
  6441  0299  0BC1               	decfsz	??___flmul+4,f
  6442  029A  2A95               	goto	u3225
  6443  029B  0840               	movf	??___flmul+3,w
  6444  029C  00CC               	movwf	___flmul@prod+3
  6445  029D  083F               	movf	??___flmul+2,w
  6446  029E  00CB               	movwf	___flmul@prod+2
  6447  029F  083E               	movf	??___flmul+1,w
  6448  02A0  00CA               	movwf	___flmul@prod+1
  6449  02A1  083D               	movf	??___flmul,w
  6450  02A2  00C9               	movwf	___flmul@prod
  6451  02A3                     l3777:
  6452  02A3  3001               	movlw	1
  6453  02A4  07CD               	addwf	___flmul@temp,f
  6454  02A5  3000               	movlw	0
  6455  02A6  3DCE               	addwfc	___flmul@temp+1,f
  6456  02A7                     l3779:
  6457  02A7  084E               	movf	___flmul@temp+1,w
  6458  02A8  3A80               	xorlw	128
  6459  02A9  00BD               	movwf	??___flmul
  6460  02AA  3080               	movlw	128
  6461  02AB  023D               	subwf	??___flmul,w
  6462  02AC  1D03               	skipz
  6463  02AD  2AB0               	goto	u3235
  6464  02AE  30FF               	movlw	255
  6465  02AF  024D               	subwf	___flmul@temp,w
  6466  02B0                     u3235:
  6467  02B0  1C03               	skipc
  6468  02B1  2AB3               	goto	u3231
  6469  02B2  2AB4               	goto	u3230
  6470  02B3                     u3231:
  6471  02B3  2ABE               	goto	l3783
  6472  02B4                     u3230:
  6473  02B4                     l3781:
  6474  02B4  307F               	movlw	127
  6475  02B5  0020               	movlb	0	; select bank0
  6476  02B6  00CC               	movwf	___flmul@prod+3
  6477  02B7  3080               	movlw	128
  6478  02B8  00CB               	movwf	___flmul@prod+2
  6479  02B9  3000               	movlw	0
  6480  02BA  00CA               	movwf	___flmul@prod+1
  6481  02BB  3000               	movlw	0
  6482  02BC  00C9               	movwf	___flmul@prod
  6483  02BD  2AED               	goto	l1466
  6484  02BE                     l3783:
  6485  02BE  0020               	movlb	0	; select bank0
  6486  02BF  084E               	movf	___flmul@temp+1,w
  6487  02C0  3A80               	xorlw	128
  6488  02C1  00BD               	movwf	??___flmul
  6489  02C2  3080               	movlw	128
  6490  02C3  023D               	subwf	??___flmul,w
  6491  02C4  1D03               	skipz
  6492  02C5  2AC8               	goto	u3245
  6493  02C6  3001               	movlw	1
  6494  02C7  024D               	subwf	___flmul@temp,w
  6495  02C8                     u3245:
  6496  02C8  1803               	skipnc
  6497  02C9  2ACB               	goto	u3241
  6498  02CA  2ACC               	goto	u3240
  6499  02CB                     u3241:
  6500  02CB  2AD7               	goto	l3789
  6501  02CC                     u3240:
  6502  02CC                     l3785:
  6503  02CC  3000               	movlw	0
  6504  02CD  0020               	movlb	0	; select bank0
  6505  02CE  00CC               	movwf	___flmul@prod+3
  6506  02CF  3000               	movlw	0
  6507  02D0  00CB               	movwf	___flmul@prod+2
  6508  02D1  3000               	movlw	0
  6509  02D2  00CA               	movwf	___flmul@prod+1
  6510  02D3  3000               	movlw	0
  6511  02D4  00C9               	movwf	___flmul@prod
  6512  02D5                     l3787:
  6513  02D5  01C2               	clrf	___flmul@sign
  6514  02D6  2AED               	goto	l1466
  6515  02D7                     l3789:
  6516  02D7  0020               	movlb	0	; select bank0
  6517  02D8  084D               	movf	___flmul@temp,w
  6518  02D9  00BD               	movwf	??___flmul
  6519  02DA  083D               	movf	??___flmul,w
  6520  02DB  00C8               	movwf	___flmul@bexp
  6521  02DC  30FF               	movlw	255
  6522  02DD  05C9               	andwf	___flmul@prod,f
  6523  02DE  30FF               	movlw	255
  6524  02DF  05CA               	andwf	___flmul@prod+1,f
  6525  02E0  307F               	movlw	127
  6526  02E1  05CB               	andwf	___flmul@prod+2,f
  6527  02E2  3000               	movlw	0
  6528  02E3  05CC               	andwf	___flmul@prod+3,f
  6529  02E4                     l3791:
  6530  02E4  1C48               	btfss	___flmul@bexp,0
  6531  02E5  2AE7               	goto	u3251
  6532  02E6  2AE8               	goto	u3250
  6533  02E7                     u3251:
  6534  02E7  2AE9               	goto	l3795
  6535  02E8                     u3250:
  6536  02E8                     l3793:
  6537  02E8  17CB               	bsf	___flmul@prod+2,7
  6538  02E9                     l3795:
  6539  02E9  3648               	lsrf	___flmul@bexp,w
  6540  02EA  00BD               	movwf	??___flmul
  6541  02EB  083D               	movf	??___flmul,w
  6542  02EC  00CC               	movwf	___flmul@prod+3
  6543  02ED                     l1466:
  6544  02ED  0842               	movf	___flmul@sign,w
  6545  02EE  00BD               	movwf	??___flmul
  6546  02EF  083D               	movf	??___flmul,w
  6547  02F0  04CC               	iorwf	___flmul@prod+3,f
  6548  02F1                     l3797:
  6549  02F1  084C               	movf	___flmul@prod+3,w
  6550  02F2  00B8               	movwf	?___flmul+3
  6551  02F3  084B               	movf	___flmul@prod+2,w
  6552  02F4  00B7               	movwf	?___flmul+2
  6553  02F5  084A               	movf	___flmul@prod+1,w
  6554  02F6  00B6               	movwf	?___flmul+1
  6555  02F7  0849               	movf	___flmul@prod,w
  6556  02F8  00B5               	movwf	?___flmul
  6557  02F9                     l1454:
  6558  02F9  0008               	return
  6559  02FA                     __end_of___flmul:
  6560                           
  6561                           	psect	text10
  6562  0B7C                     __ptext10:	
  6563 ;; *************** function __Umul8_16 *****************
  6564 ;; Defined at:
  6565 ;;		line 4 in file "C:\Program Files\Microchip\xc8\v2.32\pic\sources\c99\common\Umul8_16.c"
  6566 ;; Parameters:    Size  Location     Type
  6567 ;;  multiplier      1    wreg     unsigned char 
  6568 ;;  multiplicand    1    3[BANK0 ] unsigned char 
  6569 ;; Auto vars:     Size  Location     Type
  6570 ;;  multiplier      1   11[BANK0 ] unsigned char 
  6571 ;;  word_mpld       2    9[BANK0 ] unsigned int 
  6572 ;;  product         2    7[BANK0 ] unsigned int 
  6573 ;; Return value:  Size  Location     Type
  6574 ;;                  2    3[BANK0 ] unsigned int 
  6575 ;; Registers used:
  6576 ;;		wreg, status,2, status,0
  6577 ;; Tracked objects:
  6578 ;;		On entry : 0/0
  6579 ;;		On exit  : 0/0
  6580 ;;		Unchanged: 0/0
  6581 ;; Data sizes:     COMMON   BANK0   BANK1   BANK2   BANK3   BANK4
  6582 ;;      Params:         0       2       0       0       0       0
  6583 ;;      Locals:         0       5       0       0       0       0
  6584 ;;      Temps:          0       2       0       0       0       0
  6585 ;;      Totals:         0       9       0       0       0       0
  6586 ;;Total ram usage:        9 bytes
  6587 ;; Hardware stack levels used: 1
  6588 ;; Hardware stack levels required when called: 6
  6589 ;; This function calls:
  6590 ;;		Nothing
  6591 ;; This function is called by:
  6592 ;;		___flmul
  6593 ;; This function uses a non-reentrant model
  6594 ;;
  6595                           
  6596                           
  6597                           ;psect for function __Umul8_16
  6598  0B7C                     __Umul8_16:
  6599                           
  6600                           ;incstack = 0
  6601                           ; Regs used in __Umul8_16: [wreg+status,2+status,0]
  6602                           ;__Umul8_16@multiplier stored from wreg
  6603  0B7C  0020               	movlb	0	; select bank0
  6604  0B7D  00AB               	movwf	__Umul8_16@multiplier
  6605  0B7E                     l3323:
  6606  0B7E  01A7               	clrf	__Umul8_16@product
  6607  0B7F  01A8               	clrf	__Umul8_16@product+1
  6608  0B80                     l3325:
  6609  0B80  0823               	movf	__Umul8_16@multiplicand,w
  6610  0B81  00A5               	movwf	??__Umul8_16
  6611  0B82  01A6               	clrf	??__Umul8_16+1
  6612  0B83  0825               	movf	??__Umul8_16,w
  6613  0B84  00A9               	movwf	__Umul8_16@word_mpld
  6614  0B85  0826               	movf	??__Umul8_16+1,w
  6615  0B86  00AA               	movwf	__Umul8_16@word_mpld+1
  6616  0B87                     l3327:
  6617  0B87  1C2B               	btfss	__Umul8_16@multiplier,0
  6618  0B88  2B8A               	goto	u2431
  6619  0B89  2B8B               	goto	u2430
  6620  0B8A                     u2431:
  6621  0B8A  2B8F               	goto	l1473
  6622  0B8B                     u2430:
  6623  0B8B                     l3329:
  6624  0B8B  0829               	movf	__Umul8_16@word_mpld,w
  6625  0B8C  07A7               	addwf	__Umul8_16@product,f
  6626  0B8D  082A               	movf	__Umul8_16@word_mpld+1,w
  6627  0B8E  3DA8               	addwfc	__Umul8_16@product+1,f
  6628  0B8F                     l1473:
  6629  0B8F  3001               	movlw	1
  6630  0B90                     u2445:
  6631  0B90  35A9               	lslf	__Umul8_16@word_mpld,f
  6632  0B91  0DAA               	rlf	__Umul8_16@word_mpld+1,f
  6633  0B92  0B89               	decfsz	9,f
  6634  0B93  2B90               	goto	u2445
  6635  0B94  1003               	clrc
  6636  0B95  0CAB               	rrf	__Umul8_16@multiplier,f
  6637  0B96                     l3331:
  6638  0B96  082B               	movf	__Umul8_16@multiplier,w
  6639  0B97  1D03               	btfss	3,2
  6640  0B98  2B9A               	goto	u2451
  6641  0B99  2B9B               	goto	u2450
  6642  0B9A                     u2451:
  6643  0B9A  2B87               	goto	l3327
  6644  0B9B                     u2450:
  6645  0B9B                     l3333:
  6646  0B9B  0828               	movf	__Umul8_16@product+1,w
  6647  0B9C  00A4               	movwf	?__Umul8_16+1
  6648  0B9D  0827               	movf	__Umul8_16@product,w
  6649  0B9E  00A3               	movwf	?__Umul8_16
  6650  0B9F                     l1475:
  6651  0B9F  0008               	return
  6652  0BA0                     __end_of__Umul8_16:
  6653                           
  6654                           	psect	text11
  6655  02FA                     __ptext11:	
  6656 ;; *************** function ___fldiv *****************
  6657 ;; Defined at:
  6658 ;;		line 8 in file "C:\Program Files\Microchip\xc8\v2.32\pic\sources\c99\common\sprcdiv.c"
  6659 ;; Parameters:    Size  Location     Type
  6660 ;;  a               4   47[BANK0 ] unsigned int 
  6661 ;;  b               4   51[BANK0 ] unsigned int 
  6662 ;; Auto vars:     Size  Location     Type
  6663 ;;  grs             4   67[BANK0 ] unsigned long 
  6664 ;;  rem             4   60[BANK0 ] unsigned long 
  6665 ;;  new_exp         2   65[BANK0 ] int 
  6666 ;;  aexp            1   72[BANK0 ] unsigned char 
  6667 ;;  bexp            1   71[BANK0 ] unsigned char 
  6668 ;;  sign            1   64[BANK0 ] unsigned char 
  6669 ;; Return value:  Size  Location     Type
  6670 ;;                  4   47[BANK0 ] unsigned char 
  6671 ;; Registers used:
  6672 ;;		wreg, status,2, status,0
  6673 ;; Tracked objects:
  6674 ;;		On entry : 0/0
  6675 ;;		On exit  : 0/0
  6676 ;;		Unchanged: 0/0
  6677 ;; Data sizes:     COMMON   BANK0   BANK1   BANK2   BANK3   BANK4
  6678 ;;      Params:         0       8       0       0       0       0
  6679 ;;      Locals:         0      13       0       0       0       0
  6680 ;;      Temps:          0       5       0       0       0       0
  6681 ;;      Totals:         0      26       0       0       0       0
  6682 ;;Total ram usage:       26 bytes
  6683 ;; Hardware stack levels used: 1
  6684 ;; Hardware stack levels required when called: 6
  6685 ;; This function calls:
  6686 ;;		Nothing
  6687 ;; This function is called by:
  6688 ;;		_main
  6689 ;; This function uses a non-reentrant model
  6690 ;;
  6691                           
  6692                           
  6693                           ;psect for function ___fldiv
  6694  02FA                     ___fldiv:
  6695  02FA                     l3521:	
  6696                           ;incstack = 0
  6697                           ; Regs used in ___fldiv: [wreg+status,2+status,0]
  6698                           
  6699  02FA  0020               	movlb	0	; select bank0
  6700  02FB  0856               	movf	___fldiv@b+3,w
  6701  02FC  3980               	andlw	128
  6702  02FD  00D7               	movwf	??___fldiv
  6703  02FE  0857               	movf	??___fldiv,w
  6704  02FF  00E0               	movwf	___fldiv@sign
  6705  0300                     l3523:
  6706  0300  3556               	lslf	___fldiv@b+3,w
  6707  0301  00D7               	movwf	??___fldiv
  6708  0302  0857               	movf	??___fldiv,w
  6709  0303  00E7               	movwf	___fldiv@bexp
  6710  0304                     l3525:
  6711  0304  1FD5               	btfss	___fldiv@b+2,7
  6712  0305  2B07               	goto	u2711
  6713  0306  2B08               	goto	u2710
  6714  0307                     u2711:
  6715  0307  2B09               	goto	l3529
  6716  0308                     u2710:
  6717  0308                     l3527:
  6718  0308  1467               	bsf	___fldiv@bexp,0
  6719  0309                     l3529:
  6720  0309  0867               	movf	___fldiv@bexp,w
  6721  030A  1903               	btfsc	3,2
  6722  030B  2B0D               	goto	u2721
  6723  030C  2B0E               	goto	u2720
  6724  030D                     u2721:
  6725  030D  2B1E               	goto	l3539
  6726  030E                     u2720:
  6727  030E                     l3531:
  6728  030E  0A67               	incf	___fldiv@bexp,w
  6729  030F  1D03               	btfss	3,2
  6730  0310  2B12               	goto	u2731
  6731  0311  2B13               	goto	u2730
  6732  0312                     u2731:
  6733  0312  2B1B               	goto	l3535
  6734  0313                     u2730:
  6735  0313                     l3533:
  6736  0313  3000               	movlw	0
  6737  0314  00D6               	movwf	___fldiv@b+3
  6738  0315  3000               	movlw	0
  6739  0316  00D5               	movwf	___fldiv@b+2
  6740  0317  3000               	movlw	0
  6741  0318  00D4               	movwf	___fldiv@b+1
  6742  0319  3000               	movlw	0
  6743  031A  00D3               	movwf	___fldiv@b
  6744  031B                     l3535:
  6745  031B  17D5               	bsf	___fldiv@b+2,7
  6746  031C                     l3537:
  6747  031C  01D6               	clrf	___fldiv@b+3
  6748  031D  2B26               	goto	l3541
  6749  031E                     l3539:
  6750  031E  3000               	movlw	0
  6751  031F  00D6               	movwf	___fldiv@b+3
  6752  0320  3000               	movlw	0
  6753  0321  00D5               	movwf	___fldiv@b+2
  6754  0322  3000               	movlw	0
  6755  0323  00D4               	movwf	___fldiv@b+1
  6756  0324  3000               	movlw	0
  6757  0325  00D3               	movwf	___fldiv@b
  6758  0326                     l3541:
  6759  0326  0852               	movf	___fldiv@a+3,w
  6760  0327  3980               	andlw	128
  6761  0328  00D7               	movwf	??___fldiv
  6762  0329  0857               	movf	??___fldiv,w
  6763  032A  06E0               	xorwf	___fldiv@sign,f
  6764  032B                     l3543:
  6765  032B  3552               	lslf	___fldiv@a+3,w
  6766  032C  00D7               	movwf	??___fldiv
  6767  032D  0857               	movf	??___fldiv,w
  6768  032E  00E8               	movwf	___fldiv@aexp
  6769  032F                     l3545:
  6770  032F  1FD1               	btfss	___fldiv@a+2,7
  6771  0330  2B32               	goto	u2741
  6772  0331  2B33               	goto	u2740
  6773  0332                     u2741:
  6774  0332  2B34               	goto	l3549
  6775  0333                     u2740:
  6776  0333                     l3547:
  6777  0333  1468               	bsf	___fldiv@aexp,0
  6778  0334                     l3549:
  6779  0334  0868               	movf	___fldiv@aexp,w
  6780  0335  1903               	btfsc	3,2
  6781  0336  2B38               	goto	u2751
  6782  0337  2B39               	goto	u2750
  6783  0338                     u2751:
  6784  0338  2B49               	goto	l3559
  6785  0339                     u2750:
  6786  0339                     l3551:
  6787  0339  0A68               	incf	___fldiv@aexp,w
  6788  033A  1D03               	btfss	3,2
  6789  033B  2B3D               	goto	u2761
  6790  033C  2B3E               	goto	u2760
  6791  033D                     u2761:
  6792  033D  2B46               	goto	l3555
  6793  033E                     u2760:
  6794  033E                     l3553:
  6795  033E  3000               	movlw	0
  6796  033F  00D2               	movwf	___fldiv@a+3
  6797  0340  3000               	movlw	0
  6798  0341  00D1               	movwf	___fldiv@a+2
  6799  0342  3000               	movlw	0
  6800  0343  00D0               	movwf	___fldiv@a+1
  6801  0344  3000               	movlw	0
  6802  0345  00CF               	movwf	___fldiv@a
  6803  0346                     l3555:
  6804  0346  17D1               	bsf	___fldiv@a+2,7
  6805  0347                     l3557:
  6806  0347  01D2               	clrf	___fldiv@a+3
  6807  0348  2B51               	goto	l1414
  6808  0349                     l3559:
  6809  0349  3000               	movlw	0
  6810  034A  00D2               	movwf	___fldiv@a+3
  6811  034B  3000               	movlw	0
  6812  034C  00D1               	movwf	___fldiv@a+2
  6813  034D  3000               	movlw	0
  6814  034E  00D0               	movwf	___fldiv@a+1
  6815  034F  3000               	movlw	0
  6816  0350  00CF               	movwf	___fldiv@a
  6817  0351                     l1414:
  6818  0351  0852               	movf	___fldiv@a+3,w
  6819  0352  0451               	iorwf	___fldiv@a+2,w
  6820  0353  0450               	iorwf	___fldiv@a+1,w
  6821  0354  044F               	iorwf	___fldiv@a,w
  6822  0355  1D03               	skipz
  6823  0356  2B58               	goto	u2771
  6824  0357  2B59               	goto	u2770
  6825  0358                     u2771:
  6826  0358  2B72               	goto	l3569
  6827  0359                     u2770:
  6828  0359                     l3561:
  6829  0359  3000               	movlw	0
  6830  035A  00D6               	movwf	___fldiv@b+3
  6831  035B  3000               	movlw	0
  6832  035C  00D5               	movwf	___fldiv@b+2
  6833  035D  3000               	movlw	0
  6834  035E  00D4               	movwf	___fldiv@b+1
  6835  035F  3000               	movlw	0
  6836  0360  00D3               	movwf	___fldiv@b
  6837  0361  3080               	movlw	128
  6838  0362  04D5               	iorwf	___fldiv@b+2,f
  6839  0363  307F               	movlw	127
  6840  0364  04D6               	iorwf	___fldiv@b+3,f
  6841  0365                     l3563:
  6842  0365  0860               	movf	___fldiv@sign,w
  6843  0366  00D7               	movwf	??___fldiv
  6844  0367  0857               	movf	??___fldiv,w
  6845  0368  04D6               	iorwf	___fldiv@b+3,f
  6846  0369                     l3565:
  6847  0369  0856               	movf	___fldiv@b+3,w
  6848  036A  00D2               	movwf	?___fldiv+3
  6849  036B  0855               	movf	___fldiv@b+2,w
  6850  036C  00D1               	movwf	?___fldiv+2
  6851  036D  0854               	movf	___fldiv@b+1,w
  6852  036E  00D0               	movwf	?___fldiv+1
  6853  036F  0853               	movf	___fldiv@b,w
  6854  0370  00CF               	movwf	?___fldiv
  6855  0371  2CAD               	goto	l1416
  6856  0372                     l3569:
  6857  0372  0867               	movf	___fldiv@bexp,w
  6858  0373  1D03               	btfss	3,2
  6859  0374  2B76               	goto	u2781
  6860  0375  2B77               	goto	u2780
  6861  0376                     u2781:
  6862  0376  2B80               	goto	l3575
  6863  0377                     u2780:
  6864  0377                     l3571:
  6865  0377  3000               	movlw	0
  6866  0378  00D2               	movwf	?___fldiv+3
  6867  0379  3000               	movlw	0
  6868  037A  00D1               	movwf	?___fldiv+2
  6869  037B  3000               	movlw	0
  6870  037C  00D0               	movwf	?___fldiv+1
  6871  037D  3000               	movlw	0
  6872  037E  00CF               	movwf	?___fldiv
  6873  037F  2CAD               	goto	l1416
  6874  0380                     l3575:
  6875  0380  0867               	movf	___fldiv@bexp,w
  6876  0381  00D7               	movwf	??___fldiv
  6877  0382  01D8               	clrf	??___fldiv+1
  6878  0383  0858               	movf	??___fldiv+1,w
  6879  0384  00DA               	movwf	??___fldiv+3
  6880  0385  0868               	movf	___fldiv@aexp,w
  6881  0386  0257               	subwf	??___fldiv,w
  6882  0387  00D9               	movwf	??___fldiv+2
  6883  0388  1C03               	skipc
  6884  0389  03DA               	decf	??___fldiv+3,f
  6885  038A  0859               	movf	??___fldiv+2,w
  6886  038B  3E7F               	addlw	127
  6887  038C  00E1               	movwf	___fldiv@new_exp
  6888  038D  3000               	movlw	0
  6889  038E  3D5A               	addwfc	??___fldiv+3,w
  6890  038F  00E2               	movwf	___fldiv@new_exp+1
  6891  0390                     l3577:
  6892  0390  0856               	movf	___fldiv@b+3,w
  6893  0391  00DF               	movwf	___fldiv@rem+3
  6894  0392  0855               	movf	___fldiv@b+2,w
  6895  0393  00DE               	movwf	___fldiv@rem+2
  6896  0394  0854               	movf	___fldiv@b+1,w
  6897  0395  00DD               	movwf	___fldiv@rem+1
  6898  0396  0853               	movf	___fldiv@b,w
  6899  0397  00DC               	movwf	___fldiv@rem
  6900  0398                     l3579:
  6901  0398  3000               	movlw	0
  6902  0399  00D6               	movwf	___fldiv@b+3
  6903  039A  3000               	movlw	0
  6904  039B  00D5               	movwf	___fldiv@b+2
  6905  039C  3000               	movlw	0
  6906  039D  00D4               	movwf	___fldiv@b+1
  6907  039E  3000               	movlw	0
  6908  039F  00D3               	movwf	___fldiv@b
  6909  03A0                     l3581:
  6910  03A0  3000               	movlw	0
  6911  03A1  00E6               	movwf	___fldiv@grs+3
  6912  03A2  3000               	movlw	0
  6913  03A3  00E5               	movwf	___fldiv@grs+2
  6914  03A4  3000               	movlw	0
  6915  03A5  00E4               	movwf	___fldiv@grs+1
  6916  03A6  3000               	movlw	0
  6917  03A7  00E3               	movwf	___fldiv@grs
  6918  03A8                     l3583:
  6919  03A8  01E8               	clrf	___fldiv@aexp
  6920  03A9  2BE8               	goto	l3603
  6921  03AA                     l3585:
  6922  03AA  0868               	movf	___fldiv@aexp,w
  6923  03AB  1903               	btfsc	3,2
  6924  03AC  2BAE               	goto	u2791
  6925  03AD  2BAF               	goto	u2790
  6926  03AE                     u2791:
  6927  03AE  2BC9               	goto	l3595
  6928  03AF                     u2790:
  6929  03AF                     l3587:
  6930  03AF  3001               	movlw	1
  6931  03B0                     u2805:
  6932  03B0  35DC               	lslf	___fldiv@rem,f
  6933  03B1  0DDD               	rlf	___fldiv@rem+1,f
  6934  03B2  0DDE               	rlf	___fldiv@rem+2,f
  6935  03B3  0DDF               	rlf	___fldiv@rem+3,f
  6936  03B4  0B89               	decfsz	9,f
  6937  03B5  2BB0               	goto	u2805
  6938  03B6  3001               	movlw	1
  6939  03B7                     u2815:
  6940  03B7  35D3               	lslf	___fldiv@b,f
  6941  03B8  0DD4               	rlf	___fldiv@b+1,f
  6942  03B9  0DD5               	rlf	___fldiv@b+2,f
  6943  03BA  0DD6               	rlf	___fldiv@b+3,f
  6944  03BB  0B89               	decfsz	9,f
  6945  03BC  2BB7               	goto	u2815
  6946  03BD                     l3589:
  6947  03BD  1FE6               	btfss	___fldiv@grs+3,7
  6948  03BE  2BC0               	goto	u2821
  6949  03BF  2BC1               	goto	u2820
  6950  03C0                     u2821:
  6951  03C0  2BC2               	goto	l3593
  6952  03C1                     u2820:
  6953  03C1                     l3591:
  6954  03C1  1453               	bsf	___fldiv@b,0
  6955  03C2                     l3593:
  6956  03C2  3001               	movlw	1
  6957  03C3                     u2835:
  6958  03C3  35E3               	lslf	___fldiv@grs,f
  6959  03C4  0DE4               	rlf	___fldiv@grs+1,f
  6960  03C5  0DE5               	rlf	___fldiv@grs+2,f
  6961  03C6  0DE6               	rlf	___fldiv@grs+3,f
  6962  03C7  0B89               	decfsz	9,f
  6963  03C8  2BC3               	goto	u2835
  6964  03C9                     l3595:
  6965  03C9  0852               	movf	___fldiv@a+3,w
  6966  03CA  025F               	subwf	___fldiv@rem+3,w
  6967  03CB  1D03               	skipz
  6968  03CC  2BD7               	goto	u2845
  6969  03CD  0851               	movf	___fldiv@a+2,w
  6970  03CE  025E               	subwf	___fldiv@rem+2,w
  6971  03CF  1D03               	skipz
  6972  03D0  2BD7               	goto	u2845
  6973  03D1  0850               	movf	___fldiv@a+1,w
  6974  03D2  025D               	subwf	___fldiv@rem+1,w
  6975  03D3  1D03               	skipz
  6976  03D4  2BD7               	goto	u2845
  6977  03D5  084F               	movf	___fldiv@a,w
  6978  03D6  025C               	subwf	___fldiv@rem,w
  6979  03D7                     u2845:
  6980  03D7  1C03               	skipc
  6981  03D8  2BDA               	goto	u2841
  6982  03D9  2BDB               	goto	u2840
  6983  03DA                     u2841:
  6984  03DA  2BE4               	goto	l3601
  6985  03DB                     u2840:
  6986  03DB                     l3597:
  6987  03DB  1766               	bsf	___fldiv@grs+3,6
  6988  03DC                     l3599:
  6989  03DC  084F               	movf	___fldiv@a,w
  6990  03DD  02DC               	subwf	___fldiv@rem,f
  6991  03DE  0850               	movf	___fldiv@a+1,w
  6992  03DF  3BDD               	subwfb	___fldiv@rem+1,f
  6993  03E0  0851               	movf	___fldiv@a+2,w
  6994  03E1  3BDE               	subwfb	___fldiv@rem+2,f
  6995  03E2  0852               	movf	___fldiv@a+3,w
  6996  03E3  3BDF               	subwfb	___fldiv@rem+3,f
  6997  03E4                     l3601:
  6998  03E4  3001               	movlw	1
  6999  03E5  00D7               	movwf	??___fldiv
  7000  03E6  0857               	movf	??___fldiv,w
  7001  03E7  07E8               	addwf	___fldiv@aexp,f
  7002  03E8                     l3603:
  7003  03E8  301A               	movlw	26
  7004  03E9  0268               	subwf	___fldiv@aexp,w
  7005  03EA  1C03               	skipc
  7006  03EB  2BED               	goto	u2851
  7007  03EC  2BEE               	goto	u2850
  7008  03ED                     u2851:
  7009  03ED  2BAA               	goto	l3585
  7010  03EE                     u2850:
  7011  03EE                     l3605:
  7012  03EE  085F               	movf	___fldiv@rem+3,w
  7013  03EF  045E               	iorwf	___fldiv@rem+2,w
  7014  03F0  045D               	iorwf	___fldiv@rem+1,w
  7015  03F1  045C               	iorwf	___fldiv@rem,w
  7016  03F2  1903               	skipnz
  7017  03F3  2BF5               	goto	u2861
  7018  03F4  2BF6               	goto	u2860
  7019  03F5                     u2861:
  7020  03F5  2C0F               	goto	l3619
  7021  03F6                     u2860:
  7022  03F6                     l3607:
  7023  03F6  1463               	bsf	___fldiv@grs,0
  7024  03F7  2C0F               	goto	l3619
  7025  03F8                     l3609:
  7026  03F8  3001               	movlw	1
  7027  03F9                     u2875:
  7028  03F9  35D3               	lslf	___fldiv@b,f
  7029  03FA  0DD4               	rlf	___fldiv@b+1,f
  7030  03FB  0DD5               	rlf	___fldiv@b+2,f
  7031  03FC  0DD6               	rlf	___fldiv@b+3,f
  7032  03FD  0B89               	decfsz	9,f
  7033  03FE  2BF9               	goto	u2875
  7034  03FF                     l3611:
  7035  03FF  1FE6               	btfss	___fldiv@grs+3,7
  7036  0400  2C02               	goto	u2881
  7037  0401  2C03               	goto	u2880
  7038  0402                     u2881:
  7039  0402  2C04               	goto	l3615
  7040  0403                     u2880:
  7041  0403                     l3613:
  7042  0403  1453               	bsf	___fldiv@b,0
  7043  0404                     l3615:
  7044  0404  3001               	movlw	1
  7045  0405                     u2895:
  7046  0405  35E3               	lslf	___fldiv@grs,f
  7047  0406  0DE4               	rlf	___fldiv@grs+1,f
  7048  0407  0DE5               	rlf	___fldiv@grs+2,f
  7049  0408  0DE6               	rlf	___fldiv@grs+3,f
  7050  0409  0B89               	decfsz	9,f
  7051  040A  2C05               	goto	u2895
  7052  040B                     l3617:
  7053  040B  30FF               	movlw	255
  7054  040C  07E1               	addwf	___fldiv@new_exp,f
  7055  040D  30FF               	movlw	255
  7056  040E  3DE2               	addwfc	___fldiv@new_exp+1,f
  7057  040F                     l3619:
  7058  040F  1FD5               	btfss	___fldiv@b+2,7
  7059  0410  2C12               	goto	u2901
  7060  0411  2C13               	goto	u2900
  7061  0412                     u2901:
  7062  0412  2BF8               	goto	l3609
  7063  0413                     u2900:
  7064  0413                     l3621:
  7065  0413  01E8               	clrf	___fldiv@aexp
  7066  0414                     l3623:
  7067  0414  1FE6               	btfss	___fldiv@grs+3,7
  7068  0415  2C17               	goto	u2911
  7069  0416  2C18               	goto	u2910
  7070  0417                     u2911:
  7071  0417  2C34               	goto	l3631
  7072  0418                     u2910:
  7073  0418                     l3625:
  7074  0418  30FF               	movlw	255
  7075  0419  0563               	andwf	___fldiv@grs,w
  7076  041A  00D7               	movwf	??___fldiv
  7077  041B  30FF               	movlw	255
  7078  041C  0564               	andwf	___fldiv@grs+1,w
  7079  041D  00D8               	movwf	??___fldiv+1
  7080  041E  30FF               	movlw	255
  7081  041F  0565               	andwf	___fldiv@grs+2,w
  7082  0420  00D9               	movwf	??___fldiv+2
  7083  0421  307F               	movlw	127
  7084  0422  0566               	andwf	___fldiv@grs+3,w
  7085  0423  00DA               	movwf	??___fldiv+3
  7086  0424  085A               	movf	??___fldiv+3,w
  7087  0425  0459               	iorwf	??___fldiv+2,w
  7088  0426  0458               	iorwf	??___fldiv+1,w
  7089  0427  0457               	iorwf	??___fldiv,w
  7090  0428  1903               	skipnz
  7091  0429  2C2B               	goto	u2921
  7092  042A  2C2C               	goto	u2920
  7093  042B                     u2921:
  7094  042B  2C2F               	goto	l1430
  7095  042C                     u2920:
  7096  042C                     l3627:
  7097  042C  01E8               	clrf	___fldiv@aexp
  7098  042D  0AE8               	incf	___fldiv@aexp,f
  7099  042E  2C34               	goto	l3631
  7100  042F                     l1430:
  7101  042F  1C53               	btfss	___fldiv@b,0
  7102  0430  2C32               	goto	u2931
  7103  0431  2C33               	goto	u2930
  7104  0432                     u2931:
  7105  0432  2C34               	goto	l3631
  7106  0433                     u2930:
  7107  0433  2C2C               	goto	l3627
  7108  0434                     l3631:
  7109  0434  0868               	movf	___fldiv@aexp,w
  7110  0435  1903               	btfsc	3,2
  7111  0436  2C38               	goto	u2941
  7112  0437  2C39               	goto	u2940
  7113  0438                     u2941:
  7114  0438  2C61               	goto	l3641
  7115  0439                     u2940:
  7116  0439                     l3633:
  7117  0439  3001               	movlw	1
  7118  043A  07D3               	addwf	___fldiv@b,f
  7119  043B  3000               	movlw	0
  7120  043C  3DD4               	addwfc	___fldiv@b+1,f
  7121  043D  3000               	movlw	0
  7122  043E  3DD5               	addwfc	___fldiv@b+2,f
  7123  043F  3000               	movlw	0
  7124  0440  3DD6               	addwfc	___fldiv@b+3,f
  7125  0441                     l3635:
  7126  0441  1C56               	btfss	___fldiv@b+3,0
  7127  0442  2C44               	goto	u2951
  7128  0443  2C45               	goto	u2950
  7129  0444                     u2951:
  7130  0444  2C61               	goto	l3641
  7131  0445                     u2950:
  7132  0445                     l3637:
  7133  0445  0853               	movf	___fldiv@b,w
  7134  0446  00D7               	movwf	??___fldiv
  7135  0447  0854               	movf	___fldiv@b+1,w
  7136  0448  00D8               	movwf	??___fldiv+1
  7137  0449  0855               	movf	___fldiv@b+2,w
  7138  044A  00D9               	movwf	??___fldiv+2
  7139  044B  0856               	movf	___fldiv@b+3,w
  7140  044C  00DA               	movwf	??___fldiv+3
  7141  044D  3001               	movlw	1
  7142  044E  00DB               	movwf	??___fldiv+4
  7143  044F                     u2965:
  7144  044F  37DA               	asrf	??___fldiv+3,f
  7145  0450  0CD9               	rrf	??___fldiv+2,f
  7146  0451  0CD8               	rrf	??___fldiv+1,f
  7147  0452  0CD7               	rrf	??___fldiv,f
  7148  0453                     u2960:
  7149  0453  0BDB               	decfsz	??___fldiv+4,f
  7150  0454  2C4F               	goto	u2965
  7151  0455  085A               	movf	??___fldiv+3,w
  7152  0456  00D6               	movwf	___fldiv@b+3
  7153  0457  0859               	movf	??___fldiv+2,w
  7154  0458  00D5               	movwf	___fldiv@b+2
  7155  0459  0858               	movf	??___fldiv+1,w
  7156  045A  00D4               	movwf	___fldiv@b+1
  7157  045B  0857               	movf	??___fldiv,w
  7158  045C  00D3               	movwf	___fldiv@b
  7159  045D                     l3639:
  7160  045D  3001               	movlw	1
  7161  045E  07E1               	addwf	___fldiv@new_exp,f
  7162  045F  3000               	movlw	0
  7163  0460  3DE2               	addwfc	___fldiv@new_exp+1,f
  7164  0461                     l3641:
  7165  0461  0862               	movf	___fldiv@new_exp+1,w
  7166  0462  3A80               	xorlw	128
  7167  0463  00D7               	movwf	??___fldiv
  7168  0464  3080               	movlw	128
  7169  0465  0257               	subwf	??___fldiv,w
  7170  0466  1D03               	skipz
  7171  0467  2C6A               	goto	u2975
  7172  0468  30FF               	movlw	255
  7173  0469  0261               	subwf	___fldiv@new_exp,w
  7174  046A                     u2975:
  7175  046A  1C03               	skipc
  7176  046B  2C6D               	goto	u2971
  7177  046C  2C6E               	goto	u2970
  7178  046D                     u2971:
  7179  046D  2C7B               	goto	l1435
  7180  046E                     u2970:
  7181  046E                     l3643:
  7182  046E  30FF               	movlw	255
  7183  046F  0020               	movlb	0	; select bank0
  7184  0470  00E1               	movwf	___fldiv@new_exp
  7185  0471  3000               	movlw	0
  7186  0472  00E2               	movwf	___fldiv@new_exp+1
  7187  0473  3000               	movlw	0
  7188  0474  00D6               	movwf	___fldiv@b+3
  7189  0475  3000               	movlw	0
  7190  0476  00D5               	movwf	___fldiv@b+2
  7191  0477  3000               	movlw	0
  7192  0478  00D4               	movwf	___fldiv@b+1
  7193  0479  3000               	movlw	0
  7194  047A  00D3               	movwf	___fldiv@b
  7195  047B                     l1435:
  7196  047B  0020               	movlb	0	; select bank0
  7197  047C  0862               	movf	___fldiv@new_exp+1,w
  7198  047D  3A80               	xorlw	128
  7199  047E  00D7               	movwf	??___fldiv
  7200  047F  3080               	movlw	128
  7201  0480  0257               	subwf	??___fldiv,w
  7202  0481  1D03               	skipz
  7203  0482  2C85               	goto	u2985
  7204  0483  3001               	movlw	1
  7205  0484  0261               	subwf	___fldiv@new_exp,w
  7206  0485                     u2985:
  7207  0485  1803               	skipnc
  7208  0486  2C88               	goto	u2981
  7209  0487  2C89               	goto	u2980
  7210  0488                     u2981:
  7211  0488  2C95               	goto	l1436
  7212  0489                     u2980:
  7213  0489                     l3645:
  7214  0489  0020               	movlb	0	; select bank0
  7215  048A  01E1               	clrf	___fldiv@new_exp
  7216  048B  01E2               	clrf	___fldiv@new_exp+1
  7217  048C                     l3647:
  7218  048C  3000               	movlw	0
  7219  048D  00D6               	movwf	___fldiv@b+3
  7220  048E  3000               	movlw	0
  7221  048F  00D5               	movwf	___fldiv@b+2
  7222  0490  3000               	movlw	0
  7223  0491  00D4               	movwf	___fldiv@b+1
  7224  0492  3000               	movlw	0
  7225  0493  00D3               	movwf	___fldiv@b
  7226  0494                     l3649:
  7227  0494  01E0               	clrf	___fldiv@sign
  7228  0495                     l1436:
  7229  0495  0020               	movlb	0	; select bank0
  7230  0496  0861               	movf	___fldiv@new_exp,w
  7231  0497  00D7               	movwf	??___fldiv
  7232  0498  0857               	movf	??___fldiv,w
  7233  0499  00E7               	movwf	___fldiv@bexp
  7234  049A                     l3651:
  7235  049A  1C67               	btfss	___fldiv@bexp,0
  7236  049B  2C9D               	goto	u2991
  7237  049C  2C9E               	goto	u2990
  7238  049D                     u2991:
  7239  049D  2CA0               	goto	l3655
  7240  049E                     u2990:
  7241  049E                     l3653:
  7242  049E  17D5               	bsf	___fldiv@b+2,7
  7243  049F  2CA4               	goto	l1438
  7244  04A0                     l3655:
  7245  04A0  307F               	movlw	127
  7246  04A1  00D7               	movwf	??___fldiv
  7247  04A2  0857               	movf	??___fldiv,w
  7248  04A3  05D5               	andwf	___fldiv@b+2,f
  7249  04A4                     l1438:
  7250  04A4  3667               	lsrf	___fldiv@bexp,w
  7251  04A5  00D7               	movwf	??___fldiv
  7252  04A6  0857               	movf	??___fldiv,w
  7253  04A7  00D6               	movwf	___fldiv@b+3
  7254  04A8  0860               	movf	___fldiv@sign,w
  7255  04A9  00D7               	movwf	??___fldiv
  7256  04AA  0857               	movf	??___fldiv,w
  7257  04AB  04D6               	iorwf	___fldiv@b+3,f
  7258  04AC  2B69               	goto	l3565
  7259  04AD                     l1416:
  7260  04AD  0008               	return
  7261  04AE                     __end_of___fldiv:
  7262                           
  7263                           	psect	text12
  7264  0BF6                     __ptext12:	
  7265 ;; *************** function _SYSTEM_Initialize *****************
  7266 ;; Defined at:
  7267 ;;		line 50 in file "mcc_generated_files/mcc.c"
  7268 ;; Parameters:    Size  Location     Type
  7269 ;;		None
  7270 ;; Auto vars:     Size  Location     Type
  7271 ;;		None
  7272 ;; Return value:  Size  Location     Type
  7273 ;;                  1    wreg      void 
  7274 ;; Registers used:
  7275 ;;		wreg, status,2, status,0, pclath, cstack
  7276 ;; Tracked objects:
  7277 ;;		On entry : 0/0
  7278 ;;		On exit  : 0/0
  7279 ;;		Unchanged: 0/0
  7280 ;; Data sizes:     COMMON   BANK0   BANK1   BANK2   BANK3   BANK4
  7281 ;;      Params:         0       0       0       0       0       0
  7282 ;;      Locals:         0       0       0       0       0       0
  7283 ;;      Temps:          0       0       0       0       0       0
  7284 ;;      Totals:         0       0       0       0       0       0
  7285 ;;Total ram usage:        0 bytes
  7286 ;; Hardware stack levels used: 1
  7287 ;; Hardware stack levels required when called: 8
  7288 ;; This function calls:
  7289 ;;		_ADC_Initialize
  7290 ;;		_CCP4_Initialize
  7291 ;;		_CMP1_Initialize
  7292 ;;		_CMP2_Initialize
  7293 ;;		_DAC_Initialize
  7294 ;;		_EUSART_Initialize
  7295 ;;		_FVR_Initialize
  7296 ;;		_OSCILLATOR_Initialize
  7297 ;;		_PIN_MANAGER_Initialize
  7298 ;;		_PWM3_Initialize
  7299 ;;		_SPI1_Initialize
  7300 ;;		_TMR1_Initialize
  7301 ;;		_TMR2_Initialize
  7302 ;;		_TMR4_Initialize
  7303 ;;		_WDT_Initialize
  7304 ;; This function is called by:
  7305 ;;		_main
  7306 ;; This function uses a non-reentrant model
  7307 ;;
  7308                           
  7309                           
  7310                           ;psect for function _SYSTEM_Initialize
  7311  0BF6                     _SYSTEM_Initialize:
  7312  0BF6                     l3337:	
  7313                           ;incstack = 0
  7314                           ; Regs used in _SYSTEM_Initialize: [wreg+status,2+status,0+pclath+cstack]
  7315                           
  7316                           
  7317                           ;mcc_generated_files/mcc.c: 53:     SPI1_Initialize();
  7318  0BF6  3189  21F3  318B   	fcall	_SPI1_Initialize
  7319                           
  7320                           ;mcc_generated_files/mcc.c: 54:     PIN_MANAGER_Initialize();
  7321  0BF9  318C  2454  318B   	fcall	_PIN_MANAGER_Initialize
  7322                           
  7323                           ;mcc_generated_files/mcc.c: 55:     OSCILLATOR_Initialize();
  7324  0BFC  3189  2167  318B   	fcall	_OSCILLATOR_Initialize
  7325                           
  7326                           ;mcc_generated_files/mcc.c: 56:     WDT_Initialize();
  7327  0BFF  3189  2140  318B   	fcall	_WDT_Initialize
  7328                           
  7329                           ;mcc_generated_files/mcc.c: 57:     CMP2_Initialize();
  7330  0C02  318A  220A  318B   	fcall	_CMP2_Initialize
  7331                           
  7332                           ;mcc_generated_files/mcc.c: 58:     FVR_Initialize();
  7333  0C05  3189  213C  318B   	fcall	_FVR_Initialize
  7334                           
  7335                           ;mcc_generated_files/mcc.c: 59:     DAC_Initialize();
  7336  0C08  3189  2155  318B   	fcall	_DAC_Initialize
  7337                           
  7338                           ;mcc_generated_files/mcc.c: 60:     TMR4_Initialize();
  7339  0C0B  318A  2298  318B   	fcall	_TMR4_Initialize
  7340                           
  7341                           ;mcc_generated_files/mcc.c: 61:     TMR2_Initialize();
  7342  0C0E  3189  2176  318B   	fcall	_TMR2_Initialize
  7343                           
  7344                           ;mcc_generated_files/mcc.c: 62:     CMP1_Initialize();
  7345  0C11  3189  21FE  318B   	fcall	_CMP1_Initialize
  7346                           
  7347                           ;mcc_generated_files/mcc.c: 63:     ADC_Initialize();
  7348  0C14  3189  216E  318B   	fcall	_ADC_Initialize
  7349                           
  7350                           ;mcc_generated_files/mcc.c: 64:     CCP4_Initialize();
  7351  0C17  318A  2286  318B   	fcall	_CCP4_Initialize
  7352                           
  7353                           ;mcc_generated_files/mcc.c: 65:     PWM3_Initialize();
  7354  0C1A  3189  21D8  318B   	fcall	_PWM3_Initialize
  7355                           
  7356                           ;mcc_generated_files/mcc.c: 66:     TMR1_Initialize();
  7357  0C1D  318B  2306  318B   	fcall	_TMR1_Initialize
  7358                           
  7359                           ;mcc_generated_files/mcc.c: 67:     EUSART_Initialize();
  7360  0C20  318D  253D  318B   	fcall	_EUSART_Initialize
  7361  0C23                     l41:
  7362  0C23  0008               	return
  7363  0C24                     __end_of_SYSTEM_Initialize:
  7364                           
  7365                           	psect	text13
  7366  0940                     __ptext13:	
  7367 ;; *************** function _WDT_Initialize *****************
  7368 ;; Defined at:
  7369 ;;		line 80 in file "mcc_generated_files/mcc.c"
  7370 ;; Parameters:    Size  Location     Type
  7371 ;;		None
  7372 ;; Auto vars:     Size  Location     Type
  7373 ;;		None
  7374 ;; Return value:  Size  Location     Type
  7375 ;;                  1    wreg      void 
  7376 ;; Registers used:
  7377 ;;		wreg
  7378 ;; Tracked objects:
  7379 ;;		On entry : 0/0
  7380 ;;		On exit  : 0/0
  7381 ;;		Unchanged: 0/0
  7382 ;; Data sizes:     COMMON   BANK0   BANK1   BANK2   BANK3   BANK4
  7383 ;;      Params:         0       0       0       0       0       0
  7384 ;;      Locals:         0       0       0       0       0       0
  7385 ;;      Temps:          0       0       0       0       0       0
  7386 ;;      Totals:         0       0       0       0       0       0
  7387 ;;Total ram usage:        0 bytes
  7388 ;; Hardware stack levels used: 1
  7389 ;; Hardware stack levels required when called: 6
  7390 ;; This function calls:
  7391 ;;		Nothing
  7392 ;; This function is called by:
  7393 ;;		_SYSTEM_Initialize
  7394 ;; This function uses a non-reentrant model
  7395 ;;
  7396                           
  7397                           
  7398                           ;psect for function _WDT_Initialize
  7399  0940                     _WDT_Initialize:
  7400  0940                     l3095:	
  7401                           ;incstack = 0
  7402                           ; Regs used in _WDT_Initialize: [wreg]
  7403                           
  7404                           
  7405                           ;mcc_generated_files/mcc.c: 83:     WDTCON = 0x16;
  7406  0940  3016               	movlw	22
  7407  0941  0021               	movlb	1	; select bank1
  7408  0942  0097               	movwf	23	;volatile
  7409  0943                     l47:
  7410  0943  0008               	return
  7411  0944                     __end_of_WDT_Initialize:
  7412                           
  7413                           	psect	text14
  7414  0A98                     __ptext14:	
  7415 ;; *************** function _TMR4_Initialize *****************
  7416 ;; Defined at:
  7417 ;;		line 64 in file "mcc_generated_files/tmr4.c"
  7418 ;; Parameters:    Size  Location     Type
  7419 ;;		None
  7420 ;; Auto vars:     Size  Location     Type
  7421 ;;		None
  7422 ;; Return value:  Size  Location     Type
  7423 ;;                  1    wreg      void 
  7424 ;; Registers used:
  7425 ;;		wreg, status,2, status,0, pclath, cstack
  7426 ;; Tracked objects:
  7427 ;;		On entry : 0/0
  7428 ;;		On exit  : 0/0
  7429 ;;		Unchanged: 0/0
  7430 ;; Data sizes:     COMMON   BANK0   BANK1   BANK2   BANK3   BANK4
  7431 ;;      Params:         0       0       0       0       0       0
  7432 ;;      Locals:         0       0       0       0       0       0
  7433 ;;      Temps:          0       0       0       0       0       0
  7434 ;;      Totals:         0       0       0       0       0       0
  7435 ;;Total ram usage:        0 bytes
  7436 ;; Hardware stack levels used: 1
  7437 ;; Hardware stack levels required when called: 7
  7438 ;; This function calls:
  7439 ;;		_TMR4_SetInterruptHandler
  7440 ;; This function is called by:
  7441 ;;		_SYSTEM_Initialize
  7442 ;; This function uses a non-reentrant model
  7443 ;;
  7444                           
  7445                           
  7446                           ;psect for function _TMR4_Initialize
  7447  0A98                     _TMR4_Initialize:
  7448  0A98                     l3109:	
  7449                           ;incstack = 0
  7450                           ; Regs used in _TMR4_Initialize: [wreg+status,2+status,0+pclath+cstack]
  7451                           
  7452                           
  7453                           ;mcc_generated_files/tmr4.c: 69:     PR4 = 0xC2;
  7454  0A98  30C2               	movlw	194
  7455  0A99  0028               	movlb	8	; select bank8
  7456  0A9A  0096               	movwf	22	;volatile
  7457  0A9B                     l3111:
  7458                           
  7459                           ;mcc_generated_files/tmr4.c: 72:     TMR4 = 0x00;
  7460  0A9B  0195               	clrf	21	;volatile
  7461  0A9C                     l3113:
  7462                           
  7463                           ;mcc_generated_files/tmr4.c: 75:     PIR3bits.TMR4IF = 0;
  7464  0A9C  0020               	movlb	0	; select bank0
  7465  0A9D  1093               	bcf	19,1	;volatile
  7466  0A9E                     l3115:
  7467                           
  7468                           ;mcc_generated_files/tmr4.c: 78:     PIE3bits.TMR4IE = 1;
  7469  0A9E  0021               	movlb	1	; select bank1
  7470  0A9F  1493               	bsf	19,1	;volatile
  7471  0AA0                     l3117:
  7472                           
  7473                           ;mcc_generated_files/tmr4.c: 81:     TMR4_SetInterruptHandler(TMR4_DefaultInterruptHandl
      +                          er);
  7474  0AA0  3033               	movlw	low _TMR4_DefaultInterruptHandler
  7475  0AA1  0020               	movlb	0	; select bank0
  7476  0AA2  00A3               	movwf	TMR4_SetInterruptHandler@InterruptHandler
  7477  0AA3  3009               	movlw	high _TMR4_DefaultInterruptHandler
  7478  0AA4  00A4               	movwf	TMR4_SetInterruptHandler@InterruptHandler+1
  7479  0AA5  3189  21EA  318A   	fcall	_TMR4_SetInterruptHandler
  7480  0AA8                     l3119:
  7481                           
  7482                           ;mcc_generated_files/tmr4.c: 84:     T4CON = 0x1F;
  7483  0AA8  301F               	movlw	31
  7484  0AA9  0028               	movlb	8	; select bank8
  7485  0AAA  0097               	movwf	23	;volatile
  7486  0AAB                     l594:
  7487  0AAB  0008               	return
  7488  0AAC                     __end_of_TMR4_Initialize:
  7489                           
  7490                           	psect	text15
  7491  09EA                     __ptext15:	
  7492 ;; *************** function _TMR4_SetInterruptHandler *****************
  7493 ;; Defined at:
  7494 ;;		line 132 in file "mcc_generated_files/tmr4.c"
  7495 ;; Parameters:    Size  Location     Type
  7496 ;;  InterruptHan    2    3[BANK0 ] PTR FTN()void 
  7497 ;;		 -> comm(1), TMR4_DefaultInterruptHandler(1), 
  7498 ;; Auto vars:     Size  Location     Type
  7499 ;;		None
  7500 ;; Return value:  Size  Location     Type
  7501 ;;                  1    wreg      void 
  7502 ;; Registers used:
  7503 ;;		wreg
  7504 ;; Tracked objects:
  7505 ;;		On entry : 0/0
  7506 ;;		On exit  : 0/0
  7507 ;;		Unchanged: 0/0
  7508 ;; Data sizes:     COMMON   BANK0   BANK1   BANK2   BANK3   BANK4
  7509 ;;      Params:         0       2       0       0       0       0
  7510 ;;      Locals:         0       0       0       0       0       0
  7511 ;;      Temps:          0       0       0       0       0       0
  7512 ;;      Totals:         0       2       0       0       0       0
  7513 ;;Total ram usage:        2 bytes
  7514 ;; Hardware stack levels used: 1
  7515 ;; Hardware stack levels required when called: 6
  7516 ;; This function calls:
  7517 ;;		Nothing
  7518 ;; This function is called by:
  7519 ;;		_TMR4_Initialize
  7520 ;;		_main
  7521 ;; This function uses a non-reentrant model
  7522 ;;
  7523                           
  7524                           
  7525                           ;psect for function _TMR4_SetInterruptHandler
  7526  09EA                     _TMR4_SetInterruptHandler:
  7527  09EA                     l2991:	
  7528                           ;incstack = 0
  7529                           ; Regs used in _TMR4_SetInterruptHandler: [wreg]
  7530                           
  7531                           
  7532                           ;mcc_generated_files/tmr4.c: 133:     TMR4_InterruptHandler = InterruptHandler;
  7533  09EA  0020               	movlb	0	; select bank0
  7534  09EB  0824               	movf	TMR4_SetInterruptHandler@InterruptHandler+1,w
  7535  09EC  0021               	movlb	1	; select bank1
  7536  09ED  00D6               	movwf	(_TMR4_InterruptHandler+1)^(0+128)
  7537  09EE  0020               	movlb	0	; select bank0
  7538  09EF  0823               	movf	TMR4_SetInterruptHandler@InterruptHandler,w
  7539  09F0  0021               	movlb	1	; select bank1
  7540  09F1  00D5               	movwf	_TMR4_InterruptHandler^(0+128)
  7541  09F2                     l616:
  7542  09F2  0008               	return
  7543  09F3                     __end_of_TMR4_SetInterruptHandler:
  7544                           
  7545                           	psect	text16
  7546  0976                     __ptext16:	
  7547 ;; *************** function _TMR2_Initialize *****************
  7548 ;; Defined at:
  7549 ;;		line 62 in file "mcc_generated_files/tmr2.c"
  7550 ;; Parameters:    Size  Location     Type
  7551 ;;		None
  7552 ;; Auto vars:     Size  Location     Type
  7553 ;;		None
  7554 ;; Return value:  Size  Location     Type
  7555 ;;                  1    wreg      void 
  7556 ;; Registers used:
  7557 ;;		wreg, status,2
  7558 ;; Tracked objects:
  7559 ;;		On entry : 0/0
  7560 ;;		On exit  : 0/0
  7561 ;;		Unchanged: 0/0
  7562 ;; Data sizes:     COMMON   BANK0   BANK1   BANK2   BANK3   BANK4
  7563 ;;      Params:         0       0       0       0       0       0
  7564 ;;      Locals:         0       0       0       0       0       0
  7565 ;;      Temps:          0       0       0       0       0       0
  7566 ;;      Totals:         0       0       0       0       0       0
  7567 ;;Total ram usage:        0 bytes
  7568 ;; Hardware stack levels used: 1
  7569 ;; Hardware stack levels required when called: 6
  7570 ;; This function calls:
  7571 ;;		Nothing
  7572 ;; This function is called by:
  7573 ;;		_SYSTEM_Initialize
  7574 ;; This function uses a non-reentrant model
  7575 ;;
  7576                           
  7577                           
  7578                           ;psect for function _TMR2_Initialize
  7579  0976                     _TMR2_Initialize:
  7580  0976                     l3121:	
  7581                           ;incstack = 0
  7582                           ; Regs used in _TMR2_Initialize: [wreg+status,2]
  7583                           
  7584                           
  7585                           ;mcc_generated_files/tmr2.c: 67:     PR2 = 0x40;
  7586  0976  3040               	movlw	64
  7587  0977  0020               	movlb	0	; select bank0
  7588  0978  009B               	movwf	27	;volatile
  7589  0979                     l3123:
  7590                           
  7591                           ;mcc_generated_files/tmr2.c: 70:     TMR2 = 0x00;
  7592  0979  019A               	clrf	26	;volatile
  7593  097A                     l3125:
  7594                           
  7595                           ;mcc_generated_files/tmr2.c: 73:     PIR1bits.TMR2IF = 0;
  7596  097A  1091               	bcf	17,1	;volatile
  7597  097B                     l3127:
  7598                           
  7599                           ;mcc_generated_files/tmr2.c: 76:     T2CON = 0x04;
  7600  097B  3004               	movlw	4
  7601  097C  009C               	movwf	28	;volatile
  7602  097D                     l449:
  7603  097D  0008               	return
  7604  097E                     __end_of_TMR2_Initialize:
  7605                           
  7606                           	psect	text17
  7607  0B06                     __ptext17:	
  7608 ;; *************** function _TMR1_Initialize *****************
  7609 ;; Defined at:
  7610 ;;		line 64 in file "mcc_generated_files/tmr1.c"
  7611 ;; Parameters:    Size  Location     Type
  7612 ;;		None
  7613 ;; Auto vars:     Size  Location     Type
  7614 ;;		None
  7615 ;; Return value:  Size  Location     Type
  7616 ;;                  1    wreg      void 
  7617 ;; Registers used:
  7618 ;;		wreg, status,2, status,0, pclath, cstack
  7619 ;; Tracked objects:
  7620 ;;		On entry : 0/0
  7621 ;;		On exit  : 0/0
  7622 ;;		Unchanged: 0/0
  7623 ;; Data sizes:     COMMON   BANK0   BANK1   BANK2   BANK3   BANK4
  7624 ;;      Params:         0       0       0       0       0       0
  7625 ;;      Locals:         0       0       0       0       0       0
  7626 ;;      Temps:          0       0       0       0       0       0
  7627 ;;      Totals:         0       0       0       0       0       0
  7628 ;;Total ram usage:        0 bytes
  7629 ;; Hardware stack levels used: 1
  7630 ;; Hardware stack levels required when called: 7
  7631 ;; This function calls:
  7632 ;;		_TMR1_SetInterruptHandler
  7633 ;; This function is called by:
  7634 ;;		_SYSTEM_Initialize
  7635 ;; This function uses a non-reentrant model
  7636 ;;
  7637                           
  7638                           
  7639                           ;psect for function _TMR1_Initialize
  7640  0B06                     _TMR1_Initialize:
  7641  0B06                     l3163:	
  7642                           ;incstack = 0
  7643                           ; Regs used in _TMR1_Initialize: [wreg+status,2+status,0+pclath+cstack]
  7644                           
  7645                           
  7646                           ;mcc_generated_files/tmr1.c: 69:     T1GCON = 0x00;
  7647  0B06  0020               	movlb	0	; select bank0
  7648  0B07  0199               	clrf	25	;volatile
  7649  0B08                     l3165:
  7650                           
  7651                           ;mcc_generated_files/tmr1.c: 72:     TMR1H = 0x3C;
  7652  0B08  303C               	movlw	60
  7653  0B09  0097               	movwf	23	;volatile
  7654  0B0A                     l3167:
  7655                           
  7656                           ;mcc_generated_files/tmr1.c: 75:     TMR1L = 0xB0;
  7657  0B0A  30B0               	movlw	176
  7658  0B0B  0096               	movwf	22	;volatile
  7659  0B0C                     l3169:
  7660                           
  7661                           ;mcc_generated_files/tmr1.c: 78:     PIR1bits.TMR1IF = 0;
  7662  0B0C  1011               	bcf	17,0	;volatile
  7663  0B0D                     l3171:
  7664                           
  7665                           ;mcc_generated_files/tmr1.c: 81:     timer1ReloadVal=(uint16_t)((TMR1H << 8) | TMR1L);
  7666  0B0D  0817               	movf	23,w	;volatile
  7667  0B0E  0021               	movlb	1	; select bank1
  7668  0B0F  00DA               	movwf	(_timer1ReloadVal+1)^(0+128)	;volatile
  7669  0B10  0020               	movlb	0	; select bank0
  7670  0B11  0816               	movf	22,w	;volatile
  7671  0B12  0021               	movlb	1	; select bank1
  7672  0B13  00D9               	movwf	_timer1ReloadVal^(0+128)	;volatile
  7673  0B14                     l3173:
  7674                           
  7675                           ;mcc_generated_files/tmr1.c: 84:     PIE1bits.TMR1IE = 1;
  7676  0B14  1411               	bsf	17,0	;volatile
  7677  0B15                     l3175:
  7678                           
  7679                           ;mcc_generated_files/tmr1.c: 87:     TMR1_SetInterruptHandler(TMR1_DefaultInterruptHandl
      +                          er);
  7680  0B15  3032               	movlw	low _TMR1_DefaultInterruptHandler
  7681  0B16  0020               	movlb	0	; select bank0
  7682  0B17  00A3               	movwf	TMR1_SetInterruptHandler@InterruptHandler
  7683  0B18  3009               	movlw	high _TMR1_DefaultInterruptHandler
  7684  0B19  00A4               	movwf	TMR1_SetInterruptHandler@InterruptHandler+1
  7685  0B1A  3189  21E1  318B   	fcall	_TMR1_SetInterruptHandler
  7686  0B1D                     l3177:
  7687                           
  7688                           ;mcc_generated_files/tmr1.c: 90:     T1CON = 0x01;
  7689  0B1D  3001               	movlw	1
  7690  0B1E  0020               	movlb	0	; select bank0
  7691  0B1F  0098               	movwf	24	;volatile
  7692  0B20                     l403:
  7693  0B20  0008               	return
  7694  0B21                     __end_of_TMR1_Initialize:
  7695                           
  7696                           	psect	text18
  7697  09E1                     __ptext18:	
  7698 ;; *************** function _TMR1_SetInterruptHandler *****************
  7699 ;; Defined at:
  7700 ;;		line 171 in file "mcc_generated_files/tmr1.c"
  7701 ;; Parameters:    Size  Location     Type
  7702 ;;  InterruptHan    2    3[BANK0 ] PTR FTN()void 
  7703 ;;		 -> TMR1_DefaultInterruptHandler(1), 
  7704 ;; Auto vars:     Size  Location     Type
  7705 ;;		None
  7706 ;; Return value:  Size  Location     Type
  7707 ;;                  1    wreg      void 
  7708 ;; Registers used:
  7709 ;;		wreg
  7710 ;; Tracked objects:
  7711 ;;		On entry : 0/0
  7712 ;;		On exit  : 0/0
  7713 ;;		Unchanged: 0/0
  7714 ;; Data sizes:     COMMON   BANK0   BANK1   BANK2   BANK3   BANK4
  7715 ;;      Params:         0       2       0       0       0       0
  7716 ;;      Locals:         0       0       0       0       0       0
  7717 ;;      Temps:          0       0       0       0       0       0
  7718 ;;      Totals:         0       2       0       0       0       0
  7719 ;;Total ram usage:        2 bytes
  7720 ;; Hardware stack levels used: 1
  7721 ;; Hardware stack levels required when called: 6
  7722 ;; This function calls:
  7723 ;;		Nothing
  7724 ;; This function is called by:
  7725 ;;		_TMR1_Initialize
  7726 ;; This function uses a non-reentrant model
  7727 ;;
  7728                           
  7729                           
  7730                           ;psect for function _TMR1_SetInterruptHandler
  7731  09E1                     _TMR1_SetInterruptHandler:
  7732  09E1                     l2973:	
  7733                           ;incstack = 0
  7734                           ; Regs used in _TMR1_SetInterruptHandler: [wreg]
  7735                           
  7736                           
  7737                           ;mcc_generated_files/tmr1.c: 172:     TMR1_InterruptHandler = InterruptHandler;
  7738  09E1  0020               	movlb	0	; select bank0
  7739  09E2  0824               	movf	TMR1_SetInterruptHandler@InterruptHandler+1,w
  7740  09E3  0021               	movlb	1	; select bank1
  7741  09E4  00D8               	movwf	(_TMR1_InterruptHandler+1)^(0+128)
  7742  09E5  0020               	movlb	0	; select bank0
  7743  09E6  0823               	movf	TMR1_SetInterruptHandler@InterruptHandler,w
  7744  09E7  0021               	movlb	1	; select bank1
  7745  09E8  00D7               	movwf	_TMR1_InterruptHandler^(0+128)
  7746  09E9                     l433:
  7747  09E9  0008               	return
  7748  09EA                     __end_of_TMR1_SetInterruptHandler:
  7749                           
  7750                           	psect	text19
  7751  09F3                     __ptext19:	
  7752 ;; *************** function _SPI1_Initialize *****************
  7753 ;; Defined at:
  7754 ;;		line 62 in file "mcc_generated_files/spi1.c"
  7755 ;; Parameters:    Size  Location     Type
  7756 ;;		None
  7757 ;; Auto vars:     Size  Location     Type
  7758 ;;		None
  7759 ;; Return value:  Size  Location     Type
  7760 ;;                  1    wreg      void 
  7761 ;; Registers used:
  7762 ;;		wreg, status,2
  7763 ;; Tracked objects:
  7764 ;;		On entry : 0/0
  7765 ;;		On exit  : 0/0
  7766 ;;		Unchanged: 0/0
  7767 ;; Data sizes:     COMMON   BANK0   BANK1   BANK2   BANK3   BANK4
  7768 ;;      Params:         0       0       0       0       0       0
  7769 ;;      Locals:         0       0       0       0       0       0
  7770 ;;      Temps:          0       0       0       0       0       0
  7771 ;;      Totals:         0       0       0       0       0       0
  7772 ;;Total ram usage:        0 bytes
  7773 ;; Hardware stack levels used: 1
  7774 ;; Hardware stack levels required when called: 6
  7775 ;; This function calls:
  7776 ;;		Nothing
  7777 ;; This function is called by:
  7778 ;;		_SYSTEM_Initialize
  7779 ;; This function uses a non-reentrant model
  7780 ;;
  7781                           
  7782                           
  7783                           ;psect for function _SPI1_Initialize
  7784  09F3                     _SPI1_Initialize:
  7785  09F3                     l3053:	
  7786                           ;incstack = 0
  7787                           ; Regs used in _SPI1_Initialize: [wreg+status,2]
  7788                           
  7789                           
  7790                           ;mcc_generated_files/spi1.c: 65:     SSP1STAT = 0x40;
  7791  09F3  3040               	movlw	64
  7792  09F4  0024               	movlb	4	; select bank4
  7793  09F5  0094               	movwf	20	;volatile
  7794  09F6                     l3055:
  7795                           
  7796                           ;mcc_generated_files/spi1.c: 66:     SSP1CON1 = 0x00;
  7797  09F6  0195               	clrf	21	;volatile
  7798  09F7                     l3057:
  7799                           
  7800                           ;mcc_generated_files/spi1.c: 67:     SSP1ADD = 0x01;
  7801  09F7  3001               	movlw	1
  7802  09F8  0092               	movwf	18	;volatile
  7803  09F9                     l3059:
  7804                           
  7805                           ;mcc_generated_files/spi1.c: 68:     TRISBbits.TRISB4 = 0;
  7806  09F9  0021               	movlb	1	; select bank1
  7807  09FA  120D               	bcf	13,4	;volatile
  7808  09FB                     l3061:
  7809                           
  7810                           ;mcc_generated_files/spi1.c: 69:     SSP1CON1bits.SSPEN = 0;
  7811  09FB  0024               	movlb	4	; select bank4
  7812  09FC  1295               	bcf	21,5	;volatile
  7813  09FD                     l192:
  7814  09FD  0008               	return
  7815  09FE                     __end_of_SPI1_Initialize:
  7816                           
  7817                           	psect	text20
  7818  09D8                     __ptext20:	
  7819 ;; *************** function _PWM3_Initialize *****************
  7820 ;; Defined at:
  7821 ;;		line 64 in file "mcc_generated_files/pwm3.c"
  7822 ;; Parameters:    Size  Location     Type
  7823 ;;		None
  7824 ;; Auto vars:     Size  Location     Type
  7825 ;;		None
  7826 ;; Return value:  Size  Location     Type
  7827 ;;                  1    wreg      void 
  7828 ;; Registers used:
  7829 ;;		wreg, status,2, status,0
  7830 ;; Tracked objects:
  7831 ;;		On entry : 0/0
  7832 ;;		On exit  : 0/0
  7833 ;;		Unchanged: 0/0
  7834 ;; Data sizes:     COMMON   BANK0   BANK1   BANK2   BANK3   BANK4
  7835 ;;      Params:         0       0       0       0       0       0
  7836 ;;      Locals:         0       0       0       0       0       0
  7837 ;;      Temps:          0       0       0       0       0       0
  7838 ;;      Totals:         0       0       0       0       0       0
  7839 ;;Total ram usage:        0 bytes
  7840 ;; Hardware stack levels used: 1
  7841 ;; Hardware stack levels required when called: 6
  7842 ;; This function calls:
  7843 ;;		Nothing
  7844 ;; This function is called by:
  7845 ;;		_SYSTEM_Initialize
  7846 ;; This function uses a non-reentrant model
  7847 ;;
  7848                           
  7849                           
  7850                           ;psect for function _PWM3_Initialize
  7851  09D8                     _PWM3_Initialize:
  7852  09D8                     l3155:	
  7853                           ;incstack = 0
  7854                           ; Regs used in _PWM3_Initialize: [wreg+status,2+status,0]
  7855                           
  7856                           
  7857                           ;mcc_generated_files/pwm3.c: 69:  CCP3CON = 0x0C;
  7858  09D8  300C               	movlw	12
  7859  09D9  0026               	movlb	6	; select bank6
  7860  09DA  0093               	movwf	19	;volatile
  7861  09DB                     l3157:
  7862                           
  7863                           ;mcc_generated_files/pwm3.c: 72:  CCPR3L = 0x00;
  7864  09DB  0191               	clrf	17	;volatile
  7865  09DC                     l3159:
  7866                           
  7867                           ;mcc_generated_files/pwm3.c: 75:  CCPR3H = 0x00;
  7868  09DC  0192               	clrf	18	;volatile
  7869  09DD                     l3161:
  7870                           
  7871                           ;mcc_generated_files/pwm3.c: 78:  CCPTMRS0bits.C3TSEL = 0x0;
  7872  09DD  30CF               	movlw	-49
  7873  09DE  0025               	movlb	5	; select bank5
  7874  09DF  059E               	andwf	30,f	;volatile
  7875  09E0                     l479:
  7876  09E0  0008               	return
  7877  09E1                     __end_of_PWM3_Initialize:
  7878                           
  7879                           	psect	text21
  7880  0C54                     __ptext21:	
  7881 ;; *************** function _PIN_MANAGER_Initialize *****************
  7882 ;; Defined at:
  7883 ;;		line 58 in file "mcc_generated_files/pin_manager.c"
  7884 ;; Parameters:    Size  Location     Type
  7885 ;;		None
  7886 ;; Auto vars:     Size  Location     Type
  7887 ;;		None
  7888 ;; Return value:  Size  Location     Type
  7889 ;;                  1    wreg      void 
  7890 ;; Registers used:
  7891 ;;		wreg, status,2, status,0, pclath, cstack
  7892 ;; Tracked objects:
  7893 ;;		On entry : 0/0
  7894 ;;		On exit  : 0/0
  7895 ;;		Unchanged: 0/0
  7896 ;; Data sizes:     COMMON   BANK0   BANK1   BANK2   BANK3   BANK4
  7897 ;;      Params:         0       0       0       0       0       0
  7898 ;;      Locals:         0       0       0       0       0       0
  7899 ;;      Temps:          0       0       0       0       0       0
  7900 ;;      Totals:         0       0       0       0       0       0
  7901 ;;Total ram usage:        0 bytes
  7902 ;; Hardware stack levels used: 1
  7903 ;; Hardware stack levels required when called: 7
  7904 ;; This function calls:
  7905 ;;		_IOCBF0_SetInterruptHandler
  7906 ;;		_IOCBF3_SetInterruptHandler
  7907 ;; This function is called by:
  7908 ;;		_SYSTEM_Initialize
  7909 ;; This function uses a non-reentrant model
  7910 ;;
  7911                           
  7912                           
  7913                           ;psect for function _PIN_MANAGER_Initialize
  7914  0C54                     _PIN_MANAGER_Initialize:
  7915  0C54                     l3063:	
  7916                           ;incstack = 0
  7917                           ; Regs used in _PIN_MANAGER_Initialize: [wreg+status,2+status,0+pclath+cstack]
  7918                           
  7919                           
  7920                           ;mcc_generated_files/pin_manager.c: 63:     LATA = 0x03;
  7921  0C54  3003               	movlw	3
  7922  0C55  0022               	movlb	2	; select bank2
  7923  0C56  008C               	movwf	12	;volatile
  7924                           
  7925                           ;mcc_generated_files/pin_manager.c: 64:     LATB = 0x09;
  7926  0C57  3009               	movlw	9
  7927  0C58  008D               	movwf	13	;volatile
  7928                           
  7929                           ;mcc_generated_files/pin_manager.c: 69:     TRISA = 0x3F;
  7930  0C59  303F               	movlw	63
  7931  0C5A  0021               	movlb	1	; select bank1
  7932  0C5B  008C               	movwf	12	;volatile
  7933                           
  7934                           ;mcc_generated_files/pin_manager.c: 70:     TRISB = 0xED;
  7935  0C5C  30ED               	movlw	237
  7936  0C5D  008D               	movwf	13	;volatile
  7937                           
  7938                           ;mcc_generated_files/pin_manager.c: 75:     ANSELB = 0xC0;
  7939  0C5E  30C0               	movlw	192
  7940  0C5F  0023               	movlb	3	; select bank3
  7941  0C60  008D               	movwf	13	;volatile
  7942                           
  7943                           ;mcc_generated_files/pin_manager.c: 76:     ANSELA = 0x0F;
  7944  0C61  300F               	movlw	15
  7945  0C62  008C               	movwf	12	;volatile
  7946  0C63                     l3065:
  7947                           
  7948                           ;mcc_generated_files/pin_manager.c: 81:     WPUB = 0x00;
  7949  0C63  0024               	movlb	4	; select bank4
  7950  0C64  018D               	clrf	13	;volatile
  7951  0C65                     l3067:
  7952                           
  7953                           ;mcc_generated_files/pin_manager.c: 82:     WPUA = 0x00;
  7954  0C65  018C               	clrf	12	;volatile
  7955  0C66                     l3069:
  7956                           
  7957                           ;mcc_generated_files/pin_manager.c: 83:     OPTION_REGbits.nWPUEN = 1;
  7958  0C66  0021               	movlb	1	; select bank1
  7959  0C67  1795               	bsf	21,7	;volatile
  7960                           
  7961                           ;mcc_generated_files/pin_manager.c: 89:     APFCON0 = 0xC8;
  7962  0C68  30C8               	movlw	200
  7963  0C69  0022               	movlb	2	; select bank2
  7964  0C6A  009D               	movwf	29	;volatile
  7965                           
  7966                           ;mcc_generated_files/pin_manager.c: 90:     APFCON1 = 0x01;
  7967  0C6B  3001               	movlw	1
  7968  0C6C  009E               	movwf	30	;volatile
  7969  0C6D                     l3071:
  7970                           
  7971                           ;mcc_generated_files/pin_manager.c: 96:     IOCBFbits.IOCBF0 = 0;
  7972  0C6D  0027               	movlb	7	; select bank7
  7973  0C6E  1016               	bcf	22,0	;volatile
  7974  0C6F                     l3073:
  7975                           
  7976                           ;mcc_generated_files/pin_manager.c: 98:     IOCBFbits.IOCBF3 = 0;
  7977  0C6F  1196               	bcf	22,3	;volatile
  7978  0C70                     l3075:
  7979                           
  7980                           ;mcc_generated_files/pin_manager.c: 100:     IOCBNbits.IOCBN0 = 0;
  7981  0C70  1015               	bcf	21,0	;volatile
  7982  0C71                     l3077:
  7983                           
  7984                           ;mcc_generated_files/pin_manager.c: 102:     IOCBNbits.IOCBN3 = 0;
  7985  0C71  1195               	bcf	21,3	;volatile
  7986  0C72                     l3079:
  7987                           
  7988                           ;mcc_generated_files/pin_manager.c: 104:     IOCBPbits.IOCBP0 = 1;
  7989  0C72  1414               	bsf	20,0	;volatile
  7990  0C73                     l3081:
  7991                           
  7992                           ;mcc_generated_files/pin_manager.c: 106:     IOCBPbits.IOCBP3 = 1;
  7993  0C73  1594               	bsf	20,3	;volatile
  7994  0C74                     l3083:
  7995                           
  7996                           ;mcc_generated_files/pin_manager.c: 111:     IOCBF0_SetInterruptHandler(IOCBF0_DefaultIn
      +                          terruptHandler);
  7997  0C74  3030               	movlw	low _IOCBF0_DefaultInterruptHandler
  7998  0C75  0020               	movlb	0	; select bank0
  7999  0C76  00A3               	movwf	IOCBF0_SetInterruptHandler@InterruptHandler
  8000  0C77  3009               	movlw	high _IOCBF0_DefaultInterruptHandler
  8001  0C78  00A4               	movwf	IOCBF0_SetInterruptHandler@InterruptHandler+1
  8002  0C79  3189  21C6  318C   	fcall	_IOCBF0_SetInterruptHandler
  8003  0C7C                     l3085:
  8004                           
  8005                           ;mcc_generated_files/pin_manager.c: 112:     IOCBF3_SetInterruptHandler(IOCBF3_DefaultIn
      +                          terruptHandler);
  8006  0C7C  3031               	movlw	low _IOCBF3_DefaultInterruptHandler
  8007  0C7D  0020               	movlb	0	; select bank0
  8008  0C7E  00A3               	movwf	IOCBF3_SetInterruptHandler@InterruptHandler
  8009  0C7F  3009               	movlw	high _IOCBF3_DefaultInterruptHandler
  8010  0C80  00A4               	movwf	IOCBF3_SetInterruptHandler@InterruptHandler+1
  8011  0C81  3189  21CF  318C   	fcall	_IOCBF3_SetInterruptHandler
  8012  0C84                     l3087:
  8013                           
  8014                           ;mcc_generated_files/pin_manager.c: 115:     INTCONbits.IOCIE = 1;
  8015  0C84  158B               	bsf	11,3	;volatile
  8016  0C85                     l96:
  8017  0C85  0008               	return
  8018  0C86                     __end_of_PIN_MANAGER_Initialize:
  8019                           
  8020                           	psect	text22
  8021  09CF                     __ptext22:	
  8022 ;; *************** function _IOCBF3_SetInterruptHandler *****************
  8023 ;; Defined at:
  8024 ;;		line 181 in file "mcc_generated_files/pin_manager.c"
  8025 ;; Parameters:    Size  Location     Type
  8026 ;;  InterruptHan    2    3[BANK0 ] PTR FTN()void 
  8027 ;;		 -> S2(1), IOCBF3_DefaultInterruptHandler(1), 
  8028 ;; Auto vars:     Size  Location     Type
  8029 ;;		None
  8030 ;; Return value:  Size  Location     Type
  8031 ;;                  1    wreg      void 
  8032 ;; Registers used:
  8033 ;;		wreg
  8034 ;; Tracked objects:
  8035 ;;		On entry : 0/0
  8036 ;;		On exit  : 0/0
  8037 ;;		Unchanged: 0/0
  8038 ;; Data sizes:     COMMON   BANK0   BANK1   BANK2   BANK3   BANK4
  8039 ;;      Params:         0       2       0       0       0       0
  8040 ;;      Locals:         0       0       0       0       0       0
  8041 ;;      Temps:          0       0       0       0       0       0
  8042 ;;      Totals:         0       2       0       0       0       0
  8043 ;;Total ram usage:        2 bytes
  8044 ;; Hardware stack levels used: 1
  8045 ;; Hardware stack levels required when called: 6
  8046 ;; This function calls:
  8047 ;;		Nothing
  8048 ;; This function is called by:
  8049 ;;		_PIN_MANAGER_Initialize
  8050 ;;		_main
  8051 ;; This function uses a non-reentrant model
  8052 ;;
  8053                           
  8054                           
  8055                           ;psect for function _IOCBF3_SetInterruptHandler
  8056  09CF                     _IOCBF3_SetInterruptHandler:
  8057  09CF                     l2931:	
  8058                           ;incstack = 0
  8059                           ; Regs used in _IOCBF3_SetInterruptHandler: [wreg]
  8060                           
  8061                           
  8062                           ;mcc_generated_files/pin_manager.c: 182:     IOCBF3_InterruptHandler = InterruptHandler;
  8063  09CF  0020               	movlb	0	; select bank0
  8064  09D0  0824               	movf	IOCBF3_SetInterruptHandler@InterruptHandler+1,w
  8065  09D1  0021               	movlb	1	; select bank1
  8066  09D2  00DE               	movwf	(_IOCBF3_InterruptHandler+1)^(0+128)
  8067  09D3  0020               	movlb	0	; select bank0
  8068  09D4  0823               	movf	IOCBF3_SetInterruptHandler@InterruptHandler,w
  8069  09D5  0021               	movlb	1	; select bank1
  8070  09D6  00DD               	movwf	_IOCBF3_InterruptHandler^(0+128)
  8071  09D7                     l118:
  8072  09D7  0008               	return
  8073  09D8                     __end_of_IOCBF3_SetInterruptHandler:
  8074                           
  8075                           	psect	text23
  8076  09C6                     __ptext23:	
  8077 ;; *************** function _IOCBF0_SetInterruptHandler *****************
  8078 ;; Defined at:
  8079 ;;		line 151 in file "mcc_generated_files/pin_manager.c"
  8080 ;; Parameters:    Size  Location     Type
  8081 ;;  InterruptHan    2    3[BANK0 ] PTR FTN()void 
  8082 ;;		 -> S1(1), IOCBF0_DefaultInterruptHandler(1), 
  8083 ;; Auto vars:     Size  Location     Type
  8084 ;;		None
  8085 ;; Return value:  Size  Location     Type
  8086 ;;                  1    wreg      void 
  8087 ;; Registers used:
  8088 ;;		wreg
  8089 ;; Tracked objects:
  8090 ;;		On entry : 0/0
  8091 ;;		On exit  : 0/0
  8092 ;;		Unchanged: 0/0
  8093 ;; Data sizes:     COMMON   BANK0   BANK1   BANK2   BANK3   BANK4
  8094 ;;      Params:         0       2       0       0       0       0
  8095 ;;      Locals:         0       0       0       0       0       0
  8096 ;;      Temps:          0       0       0       0       0       0
  8097 ;;      Totals:         0       2       0       0       0       0
  8098 ;;Total ram usage:        2 bytes
  8099 ;; Hardware stack levels used: 1
  8100 ;; Hardware stack levels required when called: 6
  8101 ;; This function calls:
  8102 ;;		Nothing
  8103 ;; This function is called by:
  8104 ;;		_PIN_MANAGER_Initialize
  8105 ;;		_main
  8106 ;; This function uses a non-reentrant model
  8107 ;;
  8108                           
  8109                           
  8110                           ;psect for function _IOCBF0_SetInterruptHandler
  8111  09C6                     _IOCBF0_SetInterruptHandler:
  8112  09C6                     l2929:	
  8113                           ;incstack = 0
  8114                           ; Regs used in _IOCBF0_SetInterruptHandler: [wreg]
  8115                           
  8116                           
  8117                           ;mcc_generated_files/pin_manager.c: 152:     IOCBF0_InterruptHandler = InterruptHandler;
  8118  09C6  0020               	movlb	0	; select bank0
  8119  09C7  0824               	movf	IOCBF0_SetInterruptHandler@InterruptHandler+1,w
  8120  09C8  0021               	movlb	1	; select bank1
  8121  09C9  00E0               	movwf	(_IOCBF0_InterruptHandler+1)^(0+128)
  8122  09CA  0020               	movlb	0	; select bank0
  8123  09CB  0823               	movf	IOCBF0_SetInterruptHandler@InterruptHandler,w
  8124  09CC  0021               	movlb	1	; select bank1
  8125  09CD  00DF               	movwf	_IOCBF0_InterruptHandler^(0+128)
  8126  09CE                     l108:
  8127  09CE  0008               	return
  8128  09CF                     __end_of_IOCBF0_SetInterruptHandler:
  8129                           
  8130                           	psect	text24
  8131  0967                     __ptext24:	
  8132 ;; *************** function _OSCILLATOR_Initialize *****************
  8133 ;; Defined at:
  8134 ;;		line 70 in file "mcc_generated_files/mcc.c"
  8135 ;; Parameters:    Size  Location     Type
  8136 ;;		None
  8137 ;; Auto vars:     Size  Location     Type
  8138 ;;		None
  8139 ;; Return value:  Size  Location     Type
  8140 ;;                  1    wreg      void 
  8141 ;; Registers used:
  8142 ;;		wreg, status,2
  8143 ;; Tracked objects:
  8144 ;;		On entry : 0/0
  8145 ;;		On exit  : 0/0
  8146 ;;		Unchanged: 0/0
  8147 ;; Data sizes:     COMMON   BANK0   BANK1   BANK2   BANK3   BANK4
  8148 ;;      Params:         0       0       0       0       0       0
  8149 ;;      Locals:         0       0       0       0       0       0
  8150 ;;      Temps:          0       0       0       0       0       0
  8151 ;;      Totals:         0       0       0       0       0       0
  8152 ;;Total ram usage:        0 bytes
  8153 ;; Hardware stack levels used: 1
  8154 ;; Hardware stack levels required when called: 6
  8155 ;; This function calls:
  8156 ;;		Nothing
  8157 ;; This function is called by:
  8158 ;;		_SYSTEM_Initialize
  8159 ;; This function uses a non-reentrant model
  8160 ;;
  8161                           
  8162                           
  8163                           ;psect for function _OSCILLATOR_Initialize
  8164  0967                     _OSCILLATOR_Initialize:
  8165  0967                     l3089:	
  8166                           ;incstack = 0
  8167                           ; Regs used in _OSCILLATOR_Initialize: [wreg+status,2]
  8168                           
  8169                           
  8170                           ;mcc_generated_files/mcc.c: 73:     OSCCON = 0x60;
  8171  0967  3060               	movlw	96
  8172  0968  0021               	movlb	1	; select bank1
  8173  0969  0099               	movwf	25	;volatile
  8174  096A                     l3091:
  8175                           
  8176                           ;mcc_generated_files/mcc.c: 75:     OSCTUNE = 0x00;
  8177  096A  0198               	clrf	24	;volatile
  8178  096B                     l3093:
  8179                           
  8180                           ;mcc_generated_files/mcc.c: 77:     BORCON = 0x00;
  8181  096B  0022               	movlb	2	; select bank2
  8182  096C  0196               	clrf	22	;volatile
  8183  096D                     l44:
  8184  096D  0008               	return
  8185  096E                     __end_of_OSCILLATOR_Initialize:
  8186                           
  8187                           	psect	text25
  8188  093C                     __ptext25:	
  8189 ;; *************** function _FVR_Initialize *****************
  8190 ;; Defined at:
  8191 ;;		line 58 in file "mcc_generated_files/fvr.c"
  8192 ;; Parameters:    Size  Location     Type
  8193 ;;		None
  8194 ;; Auto vars:     Size  Location     Type
  8195 ;;		None
  8196 ;; Return value:  Size  Location     Type
  8197 ;;                  1    wreg      void 
  8198 ;; Registers used:
  8199 ;;		wreg
  8200 ;; Tracked objects:
  8201 ;;		On entry : 0/0
  8202 ;;		On exit  : 0/0
  8203 ;;		Unchanged: 0/0
  8204 ;; Data sizes:     COMMON   BANK0   BANK1   BANK2   BANK3   BANK4
  8205 ;;      Params:         0       0       0       0       0       0
  8206 ;;      Locals:         0       0       0       0       0       0
  8207 ;;      Temps:          0       0       0       0       0       0
  8208 ;;      Totals:         0       0       0       0       0       0
  8209 ;;Total ram usage:        0 bytes
  8210 ;; Hardware stack levels used: 1
  8211 ;; Hardware stack levels required when called: 6
  8212 ;; This function calls:
  8213 ;;		Nothing
  8214 ;; This function is called by:
  8215 ;;		_SYSTEM_Initialize
  8216 ;; This function uses a non-reentrant model
  8217 ;;
  8218                           
  8219                           
  8220                           ;psect for function _FVR_Initialize
  8221  093C                     _FVR_Initialize:
  8222  093C                     l3105:	
  8223                           ;incstack = 0
  8224                           ; Regs used in _FVR_Initialize: [wreg]
  8225                           
  8226                           
  8227                           ;mcc_generated_files/fvr.c: 61:     FVRCON = 0x1D;
  8228  093C  301D               	movlw	29
  8229  093D  0022               	movlb	2	; select bank2
  8230  093E  0097               	movwf	23	;volatile
  8231  093F                     l626:
  8232  093F  0008               	return
  8233  0940                     __end_of_FVR_Initialize:
  8234                           
  8235                           	psect	text26
  8236  0D3D                     __ptext26:	
  8237 ;; *************** function _EUSART_Initialize *****************
  8238 ;; Defined at:
  8239 ;;		line 88 in file "mcc_generated_files/eusart.c"
  8240 ;; Parameters:    Size  Location     Type
  8241 ;;		None
  8242 ;; Auto vars:     Size  Location     Type
  8243 ;;		None
  8244 ;; Return value:  Size  Location     Type
  8245 ;;                  1    wreg      void 
  8246 ;; Registers used:
  8247 ;;		wreg, status,2, status,0, pclath, cstack
  8248 ;; Tracked objects:
  8249 ;;		On entry : 0/0
  8250 ;;		On exit  : 0/0
  8251 ;;		Unchanged: 0/0
  8252 ;; Data sizes:     COMMON   BANK0   BANK1   BANK2   BANK3   BANK4
  8253 ;;      Params:         0       0       0       0       0       0
  8254 ;;      Locals:         0       0       0       0       0       0
  8255 ;;      Temps:          0       1       0       0       0       0
  8256 ;;      Totals:         0       1       0       0       0       0
  8257 ;;Total ram usage:        1 bytes
  8258 ;; Hardware stack levels used: 1
  8259 ;; Hardware stack levels required when called: 7
  8260 ;; This function calls:
  8261 ;;		_EUSART_SetErrorHandler
  8262 ;;		_EUSART_SetFramingErrorHandler
  8263 ;;		_EUSART_SetOverrunErrorHandler
  8264 ;;		_EUSART_SetRxInterruptHandler
  8265 ;;		_EUSART_SetTxInterruptHandler
  8266 ;; This function is called by:
  8267 ;;		_SYSTEM_Initialize
  8268 ;; This function uses a non-reentrant model
  8269 ;;
  8270                           
  8271                           
  8272                           ;psect for function _EUSART_Initialize
  8273  0D3D                     _EUSART_Initialize:
  8274  0D3D                     l3179:	
  8275                           ;incstack = 0
  8276                           ; Regs used in _EUSART_Initialize: [wreg+status,2+status,0+pclath+cstack]
  8277                           
  8278                           
  8279                           ;mcc_generated_files/eusart.c: 91:     PIE1bits.RCIE = 0;
  8280  0D3D  0021               	movlb	1	; select bank1
  8281  0D3E  1291               	bcf	17,5	;volatile
  8282  0D3F                     l3181:
  8283                           
  8284                           ;mcc_generated_files/eusart.c: 92:     EUSART_SetRxInterruptHandler(EUSART_Receive_ISR);
  8285  0D3F  30BC               	movlw	low _EUSART_Receive_ISR
  8286  0D40  0020               	movlb	0	; select bank0
  8287  0D41  00A3               	movwf	EUSART_SetRxInterruptHandler@interruptHandler
  8288  0D42  300C               	movlw	high _EUSART_Receive_ISR
  8289  0D43  00A4               	movwf	EUSART_SetRxInterruptHandler@interruptHandler+1
  8290  0D44  3189  21B4  318D   	fcall	_EUSART_SetRxInterruptHandler
  8291  0D47                     l3183:
  8292                           
  8293                           ;mcc_generated_files/eusart.c: 93:     PIE1bits.TXIE = 0;
  8294  0D47  0021               	movlb	1	; select bank1
  8295  0D48  1211               	bcf	17,4	;volatile
  8296                           
  8297                           ;mcc_generated_files/eusart.c: 94:     EUSART_SetTxInterruptHandler(EUSART_Transmit_ISR)
      +                          ;
  8298  0D49  305B               	movlw	low _EUSART_Transmit_ISR
  8299  0D4A  0020               	movlb	0	; select bank0
  8300  0D4B  00A3               	movwf	EUSART_SetTxInterruptHandler@interruptHandler
  8301  0D4C  300B               	movlw	high _EUSART_Transmit_ISR
  8302  0D4D  00A4               	movwf	EUSART_SetTxInterruptHandler@interruptHandler+1
  8303  0D4E  3189  21BD  318D   	fcall	_EUSART_SetTxInterruptHandler
  8304  0D51                     l3185:
  8305                           
  8306                           ;mcc_generated_files/eusart.c: 98:     BAUDCON = 0x08;
  8307  0D51  3008               	movlw	8
  8308  0D52  0023               	movlb	3	; select bank3
  8309  0D53  009F               	movwf	31	;volatile
  8310  0D54                     l3187:
  8311                           
  8312                           ;mcc_generated_files/eusart.c: 101:     RCSTA = 0x90;
  8313  0D54  3090               	movlw	144
  8314  0D55  009D               	movwf	29	;volatile
  8315  0D56                     l3189:
  8316                           
  8317                           ;mcc_generated_files/eusart.c: 104:     TXSTA = 0x24;
  8318  0D56  3024               	movlw	36
  8319  0D57  009E               	movwf	30	;volatile
  8320  0D58                     l3191:
  8321                           
  8322                           ;mcc_generated_files/eusart.c: 107:     SPBRGL = 0x19;
  8323  0D58  3019               	movlw	25
  8324  0D59  009B               	movwf	27	;volatile
  8325  0D5A                     l3193:
  8326                           
  8327                           ;mcc_generated_files/eusart.c: 110:     SPBRGH = 0x00;
  8328  0D5A  019C               	clrf	28	;volatile
  8329  0D5B                     l3195:
  8330                           
  8331                           ;mcc_generated_files/eusart.c: 113:     EUSART_SetFramingErrorHandler(EUSART_DefaultFram
      +                          ingErrorHandler);
  8332  0D5B  302F               	movlw	low _EUSART_DefaultFramingErrorHandler
  8333  0D5C  0020               	movlb	0	; select bank0
  8334  0D5D  00A3               	movwf	EUSART_SetFramingErrorHandler@interruptHandler
  8335  0D5E  3009               	movlw	high _EUSART_DefaultFramingErrorHandler
  8336  0D5F  00A4               	movwf	EUSART_SetFramingErrorHandler@interruptHandler+1
  8337  0D60  3189  21A2  318D   	fcall	_EUSART_SetFramingErrorHandler
  8338  0D63                     l3197:
  8339                           
  8340                           ;mcc_generated_files/eusart.c: 114:     EUSART_SetOverrunErrorHandler(EUSART_DefaultOver
      +                          runErrorHandler);
  8341  0D63  3038               	movlw	low _EUSART_DefaultOverrunErrorHandler
  8342  0D64  0020               	movlb	0	; select bank0
  8343  0D65  00A3               	movwf	EUSART_SetOverrunErrorHandler@interruptHandler
  8344  0D66  3009               	movlw	high _EUSART_DefaultOverrunErrorHandler
  8345  0D67  00A4               	movwf	EUSART_SetOverrunErrorHandler@interruptHandler+1
  8346  0D68  3189  21AB  318D   	fcall	_EUSART_SetOverrunErrorHandler
  8347  0D6B                     l3199:
  8348                           
  8349                           ;mcc_generated_files/eusart.c: 115:     EUSART_SetErrorHandler(EUSART_DefaultErrorHandle
      +                          r);
  8350  0D6B  3034               	movlw	low _EUSART_DefaultErrorHandler
  8351  0D6C  0020               	movlb	0	; select bank0
  8352  0D6D  00A3               	movwf	EUSART_SetErrorHandler@interruptHandler
  8353  0D6E  3009               	movlw	high _EUSART_DefaultErrorHandler
  8354  0D6F  00A4               	movwf	EUSART_SetErrorHandler@interruptHandler+1
  8355  0D70  3189  2199  318D   	fcall	_EUSART_SetErrorHandler
  8356                           
  8357                           ;mcc_generated_files/eusart.c: 117:     eusartRxLastError.status = 0;
  8358  0D73  0021               	movlb	1	; select bank1
  8359  0D74  01C2               	clrf	_eusartRxLastError^(0+128)	;volatile
  8360                           
  8361                           ;mcc_generated_files/eusart.c: 120:     eusartTxHead = 0;
  8362  0D75  01C6               	clrf	_eusartTxHead^(0+128)	;volatile
  8363                           
  8364                           ;mcc_generated_files/eusart.c: 121:     eusartTxTail = 0;
  8365  0D76  01C5               	clrf	_eusartTxTail^(0+128)	;volatile
  8366  0D77                     l3201:
  8367                           
  8368                           ;mcc_generated_files/eusart.c: 122:     eusartTxBufferRemaining = sizeof(eusartTxBuffer)
      +                          ;
  8369  0D77  3008               	movlw	8
  8370  0D78  0020               	movlb	0	; select bank0
  8371  0D79  00A5               	movwf	??_EUSART_Initialize
  8372  0D7A  0825               	movf	??_EUSART_Initialize,w
  8373  0D7B  0021               	movlb	1	; select bank1
  8374  0D7C  00E1               	movwf	_eusartTxBufferRemaining^(0+128)	;volatile
  8375  0D7D                     l3203:
  8376                           
  8377                           ;mcc_generated_files/eusart.c: 124:     eusartRxHead = 0;
  8378  0D7D  0020               	movlb	0	; select bank0
  8379  0D7E  01EB               	clrf	_eusartRxHead	;volatile
  8380  0D7F                     l3205:
  8381                           
  8382                           ;mcc_generated_files/eusart.c: 125:     eusartRxTail = 0;
  8383  0D7F  0021               	movlb	1	; select bank1
  8384  0D80  01C4               	clrf	_eusartRxTail^(0+128)	;volatile
  8385  0D81                     l3207:
  8386                           
  8387                           ;mcc_generated_files/eusart.c: 126:     eusartRxCount = 0;
  8388  0D81  01C3               	clrf	_eusartRxCount^(0+128)	;volatile
  8389  0D82                     l3209:
  8390                           
  8391                           ;mcc_generated_files/eusart.c: 129:     PIE1bits.RCIE = 1;
  8392  0D82  1691               	bsf	17,5	;volatile
  8393  0D83                     l307:
  8394  0D83  0008               	return
  8395  0D84                     __end_of_EUSART_Initialize:
  8396                           
  8397                           	psect	text27
  8398  09BD                     __ptext27:	
  8399 ;; *************** function _EUSART_SetTxInterruptHandler *****************
  8400 ;; Defined at:
  8401 ;;		line 276 in file "mcc_generated_files/eusart.c"
  8402 ;; Parameters:    Size  Location     Type
  8403 ;;  interruptHan    2    3[BANK0 ] PTR FTN()void 
  8404 ;;		 -> EUSART_Transmit_ISR(1), 
  8405 ;; Auto vars:     Size  Location     Type
  8406 ;;		None
  8407 ;; Return value:  Size  Location     Type
  8408 ;;                  1    wreg      void 
  8409 ;; Registers used:
  8410 ;;		wreg
  8411 ;; Tracked objects:
  8412 ;;		On entry : 0/0
  8413 ;;		On exit  : 0/0
  8414 ;;		Unchanged: 0/0
  8415 ;; Data sizes:     COMMON   BANK0   BANK1   BANK2   BANK3   BANK4
  8416 ;;      Params:         0       2       0       0       0       0
  8417 ;;      Locals:         0       0       0       0       0       0
  8418 ;;      Temps:          0       0       0       0       0       0
  8419 ;;      Totals:         0       2       0       0       0       0
  8420 ;;Total ram usage:        2 bytes
  8421 ;; Hardware stack levels used: 1
  8422 ;; Hardware stack levels required when called: 6
  8423 ;; This function calls:
  8424 ;;		Nothing
  8425 ;; This function is called by:
  8426 ;;		_EUSART_Initialize
  8427 ;; This function uses a non-reentrant model
  8428 ;;
  8429                           
  8430                           
  8431                           ;psect for function _EUSART_SetTxInterruptHandler
  8432  09BD                     _EUSART_SetTxInterruptHandler:
  8433  09BD                     l2937:	
  8434                           ;incstack = 0
  8435                           ; Regs used in _EUSART_SetTxInterruptHandler: [wreg]
  8436                           
  8437                           
  8438                           ;mcc_generated_files/eusart.c: 277:     EUSART_TxDefaultInterruptHandler = interruptHand
      +                          ler;
  8439  09BD  0020               	movlb	0	; select bank0
  8440  09BE  0824               	movf	EUSART_SetTxInterruptHandler@interruptHandler+1,w
  8441  09BF  0021               	movlb	1	; select bank1
  8442  09C0  00DC               	movwf	(_EUSART_TxDefaultInterruptHandler+1)^(0+128)
  8443  09C1  0020               	movlb	0	; select bank0
  8444  09C2  0823               	movf	EUSART_SetTxInterruptHandler@interruptHandler,w
  8445  09C3  0021               	movlb	1	; select bank1
  8446  09C4  00DB               	movwf	_EUSART_TxDefaultInterruptHandler^(0+128)
  8447  09C5                     l373:
  8448  09C5  0008               	return
  8449  09C6                     __end_of_EUSART_SetTxInterruptHandler:
  8450                           
  8451                           	psect	text28
  8452  09B4                     __ptext28:	
  8453 ;; *************** function _EUSART_SetRxInterruptHandler *****************
  8454 ;; Defined at:
  8455 ;;		line 280 in file "mcc_generated_files/eusart.c"
  8456 ;; Parameters:    Size  Location     Type
  8457 ;;  interruptHan    2    3[BANK0 ] PTR FTN()void 
  8458 ;;		 -> recepcao(1), EUSART_Receive_ISR(1), 
  8459 ;; Auto vars:     Size  Location     Type
  8460 ;;		None
  8461 ;; Return value:  Size  Location     Type
  8462 ;;                  1    wreg      void 
  8463 ;; Registers used:
  8464 ;;		wreg
  8465 ;; Tracked objects:
  8466 ;;		On entry : 0/0
  8467 ;;		On exit  : 0/0
  8468 ;;		Unchanged: 0/0
  8469 ;; Data sizes:     COMMON   BANK0   BANK1   BANK2   BANK3   BANK4
  8470 ;;      Params:         0       2       0       0       0       0
  8471 ;;      Locals:         0       0       0       0       0       0
  8472 ;;      Temps:          0       0       0       0       0       0
  8473 ;;      Totals:         0       2       0       0       0       0
  8474 ;;Total ram usage:        2 bytes
  8475 ;; Hardware stack levels used: 1
  8476 ;; Hardware stack levels required when called: 6
  8477 ;; This function calls:
  8478 ;;		Nothing
  8479 ;; This function is called by:
  8480 ;;		_EUSART_Initialize
  8481 ;;		_main
  8482 ;; This function uses a non-reentrant model
  8483 ;;
  8484                           
  8485                           
  8486                           ;psect for function _EUSART_SetRxInterruptHandler
  8487  09B4                     _EUSART_SetRxInterruptHandler:
  8488  09B4                     l2935:	
  8489                           ;incstack = 0
  8490                           ; Regs used in _EUSART_SetRxInterruptHandler: [wreg]
  8491                           
  8492                           
  8493                           ;mcc_generated_files/eusart.c: 281:     EUSART_RxDefaultInterruptHandler = interruptHand
      +                          ler;
  8494  09B4  0020               	movlb	0	; select bank0
  8495  09B5  0824               	movf	EUSART_SetRxInterruptHandler@interruptHandler+1,w
  8496  09B6  0022               	movlb	2	; select bank2
  8497  09B7  00C9               	movwf	(_EUSART_RxDefaultInterruptHandler+1)^(0+256)
  8498  09B8  0020               	movlb	0	; select bank0
  8499  09B9  0823               	movf	EUSART_SetRxInterruptHandler@interruptHandler,w
  8500  09BA  0022               	movlb	2	; select bank2
  8501  09BB  00C8               	movwf	_EUSART_RxDefaultInterruptHandler^(0+256)
  8502  09BC                     l376:
  8503  09BC  0008               	return
  8504  09BD                     __end_of_EUSART_SetRxInterruptHandler:
  8505                           
  8506                           	psect	text29
  8507  09AB                     __ptext29:	
  8508 ;; *************** function _EUSART_SetOverrunErrorHandler *****************
  8509 ;; Defined at:
  8510 ;;		line 268 in file "mcc_generated_files/eusart.c"
  8511 ;; Parameters:    Size  Location     Type
  8512 ;;  interruptHan    2    3[BANK0 ] PTR FTN()void 
  8513 ;;		 -> EUSART_DefaultOverrunErrorHandler(1), 
  8514 ;; Auto vars:     Size  Location     Type
  8515 ;;		None
  8516 ;; Return value:  Size  Location     Type
  8517 ;;                  1    wreg      void 
  8518 ;; Registers used:
  8519 ;;		wreg
  8520 ;; Tracked objects:
  8521 ;;		On entry : 0/0
  8522 ;;		On exit  : 0/0
  8523 ;;		Unchanged: 0/0
  8524 ;; Data sizes:     COMMON   BANK0   BANK1   BANK2   BANK3   BANK4
  8525 ;;      Params:         0       2       0       0       0       0
  8526 ;;      Locals:         0       0       0       0       0       0
  8527 ;;      Temps:          0       0       0       0       0       0
  8528 ;;      Totals:         0       2       0       0       0       0
  8529 ;;Total ram usage:        2 bytes
  8530 ;; Hardware stack levels used: 1
  8531 ;; Hardware stack levels required when called: 6
  8532 ;; This function calls:
  8533 ;;		Nothing
  8534 ;; This function is called by:
  8535 ;;		_EUSART_Initialize
  8536 ;; This function uses a non-reentrant model
  8537 ;;
  8538                           
  8539                           
  8540                           ;psect for function _EUSART_SetOverrunErrorHandler
  8541  09AB                     _EUSART_SetOverrunErrorHandler:
  8542  09AB                     l2941:	
  8543                           ;incstack = 0
  8544                           ; Regs used in _EUSART_SetOverrunErrorHandler: [wreg]
  8545                           
  8546                           
  8547                           ;mcc_generated_files/eusart.c: 269:     EUSART_OverrunErrorHandler = interruptHandler;
  8548  09AB  0020               	movlb	0	; select bank0
  8549  09AC  0824               	movf	EUSART_SetOverrunErrorHandler@interruptHandler+1,w
  8550  09AD  0022               	movlb	2	; select bank2
  8551  09AE  00C5               	movwf	(_EUSART_OverrunErrorHandler+1)^(0+256)
  8552  09AF  0020               	movlb	0	; select bank0
  8553  09B0  0823               	movf	EUSART_SetOverrunErrorHandler@interruptHandler,w
  8554  09B1  0022               	movlb	2	; select bank2
  8555  09B2  00C4               	movwf	_EUSART_OverrunErrorHandler^(0+256)
  8556  09B3                     l367:
  8557  09B3  0008               	return
  8558  09B4                     __end_of_EUSART_SetOverrunErrorHandler:
  8559                           
  8560                           	psect	text30
  8561  09A2                     __ptext30:	
  8562 ;; *************** function _EUSART_SetFramingErrorHandler *****************
  8563 ;; Defined at:
  8564 ;;		line 264 in file "mcc_generated_files/eusart.c"
  8565 ;; Parameters:    Size  Location     Type
  8566 ;;  interruptHan    2    3[BANK0 ] PTR FTN()void 
  8567 ;;		 -> EUSART_DefaultFramingErrorHandler(1), 
  8568 ;; Auto vars:     Size  Location     Type
  8569 ;;		None
  8570 ;; Return value:  Size  Location     Type
  8571 ;;                  1    wreg      void 
  8572 ;; Registers used:
  8573 ;;		wreg
  8574 ;; Tracked objects:
  8575 ;;		On entry : 0/0
  8576 ;;		On exit  : 0/0
  8577 ;;		Unchanged: 0/0
  8578 ;; Data sizes:     COMMON   BANK0   BANK1   BANK2   BANK3   BANK4
  8579 ;;      Params:         0       2       0       0       0       0
  8580 ;;      Locals:         0       0       0       0       0       0
  8581 ;;      Temps:          0       0       0       0       0       0
  8582 ;;      Totals:         0       2       0       0       0       0
  8583 ;;Total ram usage:        2 bytes
  8584 ;; Hardware stack levels used: 1
  8585 ;; Hardware stack levels required when called: 6
  8586 ;; This function calls:
  8587 ;;		Nothing
  8588 ;; This function is called by:
  8589 ;;		_EUSART_Initialize
  8590 ;; This function uses a non-reentrant model
  8591 ;;
  8592                           
  8593                           
  8594                           ;psect for function _EUSART_SetFramingErrorHandler
  8595  09A2                     _EUSART_SetFramingErrorHandler:
  8596  09A2                     l2939:	
  8597                           ;incstack = 0
  8598                           ; Regs used in _EUSART_SetFramingErrorHandler: [wreg]
  8599                           
  8600                           
  8601                           ;mcc_generated_files/eusart.c: 265:     EUSART_FramingErrorHandler = interruptHandler;
  8602  09A2  0020               	movlb	0	; select bank0
  8603  09A3  0824               	movf	EUSART_SetFramingErrorHandler@interruptHandler+1,w
  8604  09A4  0022               	movlb	2	; select bank2
  8605  09A5  00C7               	movwf	(_EUSART_FramingErrorHandler+1)^(0+256)
  8606  09A6  0020               	movlb	0	; select bank0
  8607  09A7  0823               	movf	EUSART_SetFramingErrorHandler@interruptHandler,w
  8608  09A8  0022               	movlb	2	; select bank2
  8609  09A9  00C6               	movwf	_EUSART_FramingErrorHandler^(0+256)
  8610  09AA                     l364:
  8611  09AA  0008               	return
  8612  09AB                     __end_of_EUSART_SetFramingErrorHandler:
  8613                           
  8614                           	psect	text31
  8615  0999                     __ptext31:	
  8616 ;; *************** function _EUSART_SetErrorHandler *****************
  8617 ;; Defined at:
  8618 ;;		line 272 in file "mcc_generated_files/eusart.c"
  8619 ;; Parameters:    Size  Location     Type
  8620 ;;  interruptHan    2    3[BANK0 ] PTR FTN()void 
  8621 ;;		 -> EUSART_DefaultErrorHandler(1), 
  8622 ;; Auto vars:     Size  Location     Type
  8623 ;;		None
  8624 ;; Return value:  Size  Location     Type
  8625 ;;                  1    wreg      void 
  8626 ;; Registers used:
  8627 ;;		wreg
  8628 ;; Tracked objects:
  8629 ;;		On entry : 0/0
  8630 ;;		On exit  : 0/0
  8631 ;;		Unchanged: 0/0
  8632 ;; Data sizes:     COMMON   BANK0   BANK1   BANK2   BANK3   BANK4
  8633 ;;      Params:         0       2       0       0       0       0
  8634 ;;      Locals:         0       0       0       0       0       0
  8635 ;;      Temps:          0       0       0       0       0       0
  8636 ;;      Totals:         0       2       0       0       0       0
  8637 ;;Total ram usage:        2 bytes
  8638 ;; Hardware stack levels used: 1
  8639 ;; Hardware stack levels required when called: 6
  8640 ;; This function calls:
  8641 ;;		Nothing
  8642 ;; This function is called by:
  8643 ;;		_EUSART_Initialize
  8644 ;; This function uses a non-reentrant model
  8645 ;;
  8646                           
  8647                           
  8648                           ;psect for function _EUSART_SetErrorHandler
  8649  0999                     _EUSART_SetErrorHandler:
  8650  0999                     l2943:	
  8651                           ;incstack = 0
  8652                           ; Regs used in _EUSART_SetErrorHandler: [wreg]
  8653                           
  8654                           
  8655                           ;mcc_generated_files/eusart.c: 273:     EUSART_ErrorHandler = interruptHandler;
  8656  0999  0020               	movlb	0	; select bank0
  8657  099A  0824               	movf	EUSART_SetErrorHandler@interruptHandler+1,w
  8658  099B  0022               	movlb	2	; select bank2
  8659  099C  00C3               	movwf	(_EUSART_ErrorHandler+1)^(0+256)
  8660  099D  0020               	movlb	0	; select bank0
  8661  099E  0823               	movf	EUSART_SetErrorHandler@interruptHandler,w
  8662  099F  0022               	movlb	2	; select bank2
  8663  09A0  00C2               	movwf	_EUSART_ErrorHandler^(0+256)
  8664  09A1                     l370:
  8665  09A1  0008               	return
  8666  09A2                     __end_of_EUSART_SetErrorHandler:
  8667                           
  8668                           	psect	text32
  8669  0955                     __ptext32:	
  8670 ;; *************** function _DAC_Initialize *****************
  8671 ;; Defined at:
  8672 ;;		line 58 in file "mcc_generated_files/dac.c"
  8673 ;; Parameters:    Size  Location     Type
  8674 ;;		None
  8675 ;; Auto vars:     Size  Location     Type
  8676 ;;		None
  8677 ;; Return value:  Size  Location     Type
  8678 ;;                  1    wreg      void 
  8679 ;; Registers used:
  8680 ;;		wreg
  8681 ;; Tracked objects:
  8682 ;;		On entry : 0/0
  8683 ;;		On exit  : 0/0
  8684 ;;		Unchanged: 0/0
  8685 ;; Data sizes:     COMMON   BANK0   BANK1   BANK2   BANK3   BANK4
  8686 ;;      Params:         0       0       0       0       0       0
  8687 ;;      Locals:         0       0       0       0       0       0
  8688 ;;      Temps:          0       0       0       0       0       0
  8689 ;;      Totals:         0       0       0       0       0       0
  8690 ;;Total ram usage:        0 bytes
  8691 ;; Hardware stack levels used: 1
  8692 ;; Hardware stack levels required when called: 6
  8693 ;; This function calls:
  8694 ;;		Nothing
  8695 ;; This function is called by:
  8696 ;;		_SYSTEM_Initialize
  8697 ;; This function uses a non-reentrant model
  8698 ;;
  8699                           
  8700                           
  8701                           ;psect for function _DAC_Initialize
  8702  0955                     _DAC_Initialize:
  8703  0955                     l3107:	
  8704                           ;incstack = 0
  8705                           ; Regs used in _DAC_Initialize: [wreg]
  8706                           
  8707                           
  8708                           ;mcc_generated_files/dac.c: 61:     DACCON0 = 0x88;
  8709  0955  3088               	movlw	136
  8710  0956  0022               	movlb	2	; select bank2
  8711  0957  0098               	movwf	24	;volatile
  8712                           
  8713                           ;mcc_generated_files/dac.c: 63:     DACCON1 = 0x08;
  8714  0958  3008               	movlw	8
  8715  0959  0099               	movwf	25	;volatile
  8716  095A                     l694:
  8717  095A  0008               	return
  8718  095B                     __end_of_DAC_Initialize:
  8719                           
  8720                           	psect	text33
  8721  0A0A                     __ptext33:	
  8722 ;; *************** function _CMP2_Initialize *****************
  8723 ;; Defined at:
  8724 ;;		line 58 in file "mcc_generated_files/cmp2.c"
  8725 ;; Parameters:    Size  Location     Type
  8726 ;;		None
  8727 ;; Auto vars:     Size  Location     Type
  8728 ;;		None
  8729 ;; Return value:  Size  Location     Type
  8730 ;;                  1    wreg      void 
  8731 ;; Registers used:
  8732 ;;		wreg
  8733 ;; Tracked objects:
  8734 ;;		On entry : 0/0
  8735 ;;		On exit  : 0/0
  8736 ;;		Unchanged: 0/0
  8737 ;; Data sizes:     COMMON   BANK0   BANK1   BANK2   BANK3   BANK4
  8738 ;;      Params:         0       0       0       0       0       0
  8739 ;;      Locals:         0       0       0       0       0       0
  8740 ;;      Temps:          0       0       0       0       0       0
  8741 ;;      Totals:         0       0       0       0       0       0
  8742 ;;Total ram usage:        0 bytes
  8743 ;; Hardware stack levels used: 1
  8744 ;; Hardware stack levels required when called: 6
  8745 ;; This function calls:
  8746 ;;		Nothing
  8747 ;; This function is called by:
  8748 ;;		_SYSTEM_Initialize
  8749 ;; This function uses a non-reentrant model
  8750 ;;
  8751                           
  8752                           
  8753                           ;psect for function _CMP2_Initialize
  8754  0A0A                     _CMP2_Initialize:
  8755  0A0A                     l3097:	
  8756                           ;incstack = 0
  8757                           ; Regs used in _CMP2_Initialize: [wreg]
  8758                           
  8759                           
  8760                           ;mcc_generated_files/cmp2.c: 65:     PIE2bits.C2IE = 0;
  8761  0A0A  0021               	movlb	1	; select bank1
  8762  0A0B  1312               	bcf	18,6	;volatile
  8763  0A0C                     l3099:
  8764                           
  8765                           ;mcc_generated_files/cmp2.c: 68:     CM2CON0 = 0x86;
  8766  0A0C  3086               	movlw	134
  8767  0A0D  0022               	movlb	2	; select bank2
  8768  0A0E  0093               	movwf	19	;volatile
  8769                           
  8770                           ;mcc_generated_files/cmp2.c: 71:     CM2CON1 = 0x51;
  8771  0A0F  3051               	movlw	81
  8772  0A10  0094               	movwf	20	;volatile
  8773  0A11                     l3101:
  8774                           
  8775                           ;mcc_generated_files/cmp2.c: 74:     PIR2bits.C2IF = 0;
  8776  0A11  0020               	movlb	0	; select bank0
  8777  0A12  1312               	bcf	18,6	;volatile
  8778  0A13                     l3103:
  8779                           
  8780                           ;mcc_generated_files/cmp2.c: 77:     PIE2bits.C2IE = 1;
  8781  0A13  0021               	movlb	1	; select bank1
  8782  0A14  1712               	bsf	18,6	;volatile
  8783  0A15                     l684:
  8784  0A15  0008               	return
  8785  0A16                     __end_of_CMP2_Initialize:
  8786                           
  8787                           	psect	text34
  8788  09FE                     __ptext34:	
  8789 ;; *************** function _CMP1_Initialize *****************
  8790 ;; Defined at:
  8791 ;;		line 58 in file "mcc_generated_files/cmp1.c"
  8792 ;; Parameters:    Size  Location     Type
  8793 ;;		None
  8794 ;; Auto vars:     Size  Location     Type
  8795 ;;		None
  8796 ;; Return value:  Size  Location     Type
  8797 ;;                  1    wreg      void 
  8798 ;; Registers used:
  8799 ;;		wreg
  8800 ;; Tracked objects:
  8801 ;;		On entry : 0/0
  8802 ;;		On exit  : 0/0
  8803 ;;		Unchanged: 0/0
  8804 ;; Data sizes:     COMMON   BANK0   BANK1   BANK2   BANK3   BANK4
  8805 ;;      Params:         0       0       0       0       0       0
  8806 ;;      Locals:         0       0       0       0       0       0
  8807 ;;      Temps:          0       0       0       0       0       0
  8808 ;;      Totals:         0       0       0       0       0       0
  8809 ;;Total ram usage:        0 bytes
  8810 ;; Hardware stack levels used: 1
  8811 ;; Hardware stack levels required when called: 6
  8812 ;; This function calls:
  8813 ;;		Nothing
  8814 ;; This function is called by:
  8815 ;;		_SYSTEM_Initialize
  8816 ;; This function uses a non-reentrant model
  8817 ;;
  8818                           
  8819                           
  8820                           ;psect for function _CMP1_Initialize
  8821  09FE                     _CMP1_Initialize:
  8822  09FE                     l3129:	
  8823                           ;incstack = 0
  8824                           ; Regs used in _CMP1_Initialize: [wreg]
  8825                           
  8826                           
  8827                           ;mcc_generated_files/cmp1.c: 65:     PIE2bits.C1IE = 0;
  8828  09FE  0021               	movlb	1	; select bank1
  8829  09FF  1292               	bcf	18,5	;volatile
  8830  0A00                     l3131:
  8831                           
  8832                           ;mcc_generated_files/cmp1.c: 68:     CM1CON0 = 0x86;
  8833  0A00  3086               	movlw	134
  8834  0A01  0022               	movlb	2	; select bank2
  8835  0A02  0091               	movwf	17	;volatile
  8836                           
  8837                           ;mcc_generated_files/cmp1.c: 71:     CM1CON1 = 0x50;
  8838  0A03  3050               	movlw	80
  8839  0A04  0092               	movwf	18	;volatile
  8840  0A05                     l3133:
  8841                           
  8842                           ;mcc_generated_files/cmp1.c: 74:     PIR2bits.C1IF = 0;
  8843  0A05  0020               	movlb	0	; select bank0
  8844  0A06  1292               	bcf	18,5	;volatile
  8845  0A07                     l3135:
  8846                           
  8847                           ;mcc_generated_files/cmp1.c: 77:     PIE2bits.C1IE = 1;
  8848  0A07  0021               	movlb	1	; select bank1
  8849  0A08  1692               	bsf	18,5	;volatile
  8850  0A09                     l668:
  8851  0A09  0008               	return
  8852  0A0A                     __end_of_CMP1_Initialize:
  8853                           
  8854                           	psect	text35
  8855  0A86                     __ptext35:	
  8856 ;; *************** function _CCP4_Initialize *****************
  8857 ;; Defined at:
  8858 ;;		line 65 in file "mcc_generated_files/ccp4.c"
  8859 ;; Parameters:    Size  Location     Type
  8860 ;;		None
  8861 ;; Auto vars:     Size  Location     Type
  8862 ;;		None
  8863 ;; Return value:  Size  Location     Type
  8864 ;;                  1    wreg      void 
  8865 ;; Registers used:
  8866 ;;		wreg, status,2, status,0, pclath, cstack
  8867 ;; Tracked objects:
  8868 ;;		On entry : 0/0
  8869 ;;		On exit  : 0/0
  8870 ;;		Unchanged: 0/0
  8871 ;; Data sizes:     COMMON   BANK0   BANK1   BANK2   BANK3   BANK4
  8872 ;;      Params:         0       0       0       0       0       0
  8873 ;;      Locals:         0       0       0       0       0       0
  8874 ;;      Temps:          0       0       0       0       0       0
  8875 ;;      Totals:         0       0       0       0       0       0
  8876 ;;Total ram usage:        0 bytes
  8877 ;; Hardware stack levels used: 1
  8878 ;; Hardware stack levels required when called: 7
  8879 ;; This function calls:
  8880 ;;		_CCP4_SetCallBack
  8881 ;; This function is called by:
  8882 ;;		_SYSTEM_Initialize
  8883 ;; This function uses a non-reentrant model
  8884 ;;
  8885                           
  8886                           
  8887                           ;psect for function _CCP4_Initialize
  8888  0A86                     _CCP4_Initialize:
  8889  0A86                     l3143:	
  8890                           ;incstack = 0
  8891                           ; Regs used in _CCP4_Initialize: [wreg+status,2+status,0+pclath+cstack]
  8892                           
  8893                           
  8894                           ;mcc_generated_files/ccp4.c: 70:  CCP4CON = 0x04;
  8895  0A86  3004               	movlw	4
  8896  0A87  0026               	movlb	6	; select bank6
  8897  0A88  009A               	movwf	26	;volatile
  8898  0A89                     l3145:
  8899                           
  8900                           ;mcc_generated_files/ccp4.c: 73:  CCPR4L = 0x00;
  8901  0A89  0198               	clrf	24	;volatile
  8902  0A8A                     l3147:
  8903                           
  8904                           ;mcc_generated_files/ccp4.c: 76:  CCPR4H = 0x00;
  8905  0A8A  0199               	clrf	25	;volatile
  8906  0A8B                     l3149:
  8907                           
  8908                           ;mcc_generated_files/ccp4.c: 79:     CCP4_SetCallBack(CCP4_DefaultCallBack);
  8909  0A8B  302E               	movlw	low _CCP4_DefaultCallBack
  8910  0A8C  0020               	movlb	0	; select bank0
  8911  0A8D  00A3               	movwf	CCP4_SetCallBack@customCallBack
  8912  0A8E  3009               	movlw	high _CCP4_DefaultCallBack
  8913  0A8F  00A4               	movwf	CCP4_SetCallBack@customCallBack+1
  8914  0A90  3189  2190  318A   	fcall	_CCP4_SetCallBack
  8915  0A93                     l3151:
  8916                           
  8917                           ;mcc_generated_files/ccp4.c: 83:     PIR3bits.CCP4IF = 0;
  8918  0A93  0020               	movlb	0	; select bank0
  8919  0A94  1293               	bcf	19,5	;volatile
  8920  0A95                     l3153:
  8921                           
  8922                           ;mcc_generated_files/ccp4.c: 86:     PIE3bits.CCP4IE = 1;
  8923  0A95  0021               	movlb	1	; select bank1
  8924  0A96  1693               	bsf	19,5	;volatile
  8925  0A97                     l649:
  8926  0A97  0008               	return
  8927  0A98                     __end_of_CCP4_Initialize:
  8928                           
  8929                           	psect	text36
  8930  0990                     __ptext36:	
  8931 ;; *************** function _CCP4_SetCallBack *****************
  8932 ;; Defined at:
  8933 ;;		line 104 in file "mcc_generated_files/ccp4.c"
  8934 ;; Parameters:    Size  Location     Type
  8935 ;;  customCallBa    2    3[BANK0 ] PTR FTN(unsigned short ,
  8936 ;;		 -> Enc(1), CCP4_DefaultCallBack(1), 
  8937 ;; Auto vars:     Size  Location     Type
  8938 ;;		None
  8939 ;; Return value:  Size  Location     Type
  8940 ;;                  1    wreg      void 
  8941 ;; Registers used:
  8942 ;;		wreg
  8943 ;; Tracked objects:
  8944 ;;		On entry : 0/0
  8945 ;;		On exit  : 0/0
  8946 ;;		Unchanged: 0/0
  8947 ;; Data sizes:     COMMON   BANK0   BANK1   BANK2   BANK3   BANK4
  8948 ;;      Params:         0       2       0       0       0       0
  8949 ;;      Locals:         0       0       0       0       0       0
  8950 ;;      Temps:          0       0       0       0       0       0
  8951 ;;      Totals:         0       2       0       0       0       0
  8952 ;;Total ram usage:        2 bytes
  8953 ;; Hardware stack levels used: 1
  8954 ;; Hardware stack levels required when called: 6
  8955 ;; This function calls:
  8956 ;;		Nothing
  8957 ;; This function is called by:
  8958 ;;		_CCP4_Initialize
  8959 ;;		_main
  8960 ;; This function uses a non-reentrant model
  8961 ;;
  8962                           
  8963                           
  8964                           ;psect for function _CCP4_SetCallBack
  8965  0990                     _CCP4_SetCallBack:
  8966  0990                     l2993:	
  8967                           ;incstack = 0
  8968                           ; Regs used in _CCP4_SetCallBack: [wreg]
  8969                           
  8970                           
  8971                           ;mcc_generated_files/ccp4.c: 105:     CCP4_CallBack = customCallBack;
  8972  0990  0020               	movlb	0	; select bank0
  8973  0991  0824               	movf	CCP4_SetCallBack@customCallBack+1,w
  8974  0992  0022               	movlb	2	; select bank2
  8975  0993  00C1               	movwf	(_CCP4_CallBack+1)^(0+256)
  8976  0994  0020               	movlb	0	; select bank0
  8977  0995  0823               	movf	CCP4_SetCallBack@customCallBack,w
  8978  0996  0022               	movlb	2	; select bank2
  8979  0997  00C0               	movwf	_CCP4_CallBack^(0+256)
  8980  0998                     l655:
  8981  0998  0008               	return
  8982  0999                     __end_of_CCP4_SetCallBack:
  8983                           
  8984                           	psect	text37
  8985  096E                     __ptext37:	
  8986 ;; *************** function _ADC_Initialize *****************
  8987 ;; Defined at:
  8988 ;;		line 67 in file "mcc_generated_files/adc.c"
  8989 ;; Parameters:    Size  Location     Type
  8990 ;;		None
  8991 ;; Auto vars:     Size  Location     Type
  8992 ;;		None
  8993 ;; Return value:  Size  Location     Type
  8994 ;;                  1    wreg      void 
  8995 ;; Registers used:
  8996 ;;		wreg, status,2
  8997 ;; Tracked objects:
  8998 ;;		On entry : 0/0
  8999 ;;		On exit  : 0/0
  9000 ;;		Unchanged: 0/0
  9001 ;; Data sizes:     COMMON   BANK0   BANK1   BANK2   BANK3   BANK4
  9002 ;;      Params:         0       0       0       0       0       0
  9003 ;;      Locals:         0       0       0       0       0       0
  9004 ;;      Temps:          0       0       0       0       0       0
  9005 ;;      Totals:         0       0       0       0       0       0
  9006 ;;Total ram usage:        0 bytes
  9007 ;; Hardware stack levels used: 1
  9008 ;; Hardware stack levels required when called: 6
  9009 ;; This function calls:
  9010 ;;		Nothing
  9011 ;; This function is called by:
  9012 ;;		_SYSTEM_Initialize
  9013 ;; This function uses a non-reentrant model
  9014 ;;
  9015                           
  9016                           
  9017                           ;psect for function _ADC_Initialize
  9018  096E                     _ADC_Initialize:
  9019  096E                     l3137:	
  9020                           ;incstack = 0
  9021                           ; Regs used in _ADC_Initialize: [wreg+status,2]
  9022                           
  9023                           
  9024                           ;mcc_generated_files/adc.c: 72:     ADCON1 = 0x83;
  9025  096E  3083               	movlw	131
  9026  096F  0021               	movlb	1	; select bank1
  9027  0970  009E               	movwf	30	;volatile
  9028  0971                     l3139:
  9029                           
  9030                           ;mcc_generated_files/adc.c: 75:     ADRESL = 0x00;
  9031  0971  019B               	clrf	27	;volatile
  9032  0972                     l3141:
  9033                           
  9034                           ;mcc_generated_files/adc.c: 78:     ADRESH = 0x00;
  9035  0972  019C               	clrf	28	;volatile
  9036                           
  9037                           ;mcc_generated_files/adc.c: 81:     ADCON0 = 0x01;
  9038  0973  3001               	movlw	1
  9039  0974  009D               	movwf	29	;volatile
  9040  0975                     l499:
  9041  0975  0008               	return
  9042  0976                     __end_of_ADC_Initialize:
  9043                           
  9044                           	psect	text38
  9045  0D84                     __ptext38:	
  9046 ;; *************** function _SPI1_Open *****************
  9047 ;; Defined at:
  9048 ;;		line 72 in file "mcc_generated_files/spi1.c"
  9049 ;; Parameters:    Size  Location     Type
  9050 ;;  spi1UniqueCo    1    wreg     enum E355
  9051 ;; Auto vars:     Size  Location     Type
  9052 ;;  spi1UniqueCo    1    6[BANK0 ] enum E355
  9053 ;; Return value:  Size  Location     Type
  9054 ;;                  1    wreg      _Bool 
  9055 ;; Registers used:
  9056 ;;		wreg, fsr0l, fsr0h, status,2, status,0, pclath
  9057 ;; Tracked objects:
  9058 ;;		On entry : 0/0
  9059 ;;		On exit  : 0/0
  9060 ;;		Unchanged: 0/0
  9061 ;; Data sizes:     COMMON   BANK0   BANK1   BANK2   BANK3   BANK4
  9062 ;;      Params:         0       0       0       0       0       0
  9063 ;;      Locals:         0       1       0       0       0       0
  9064 ;;      Temps:          0       3       0       0       0       0
  9065 ;;      Totals:         0       4       0       0       0       0
  9066 ;;Total ram usage:        4 bytes
  9067 ;; Hardware stack levels used: 1
  9068 ;; Hardware stack levels required when called: 6
  9069 ;; This function calls:
  9070 ;;		Nothing
  9071 ;; This function is called by:
  9072 ;;		_main
  9073 ;; This function uses a non-reentrant model
  9074 ;;
  9075                           
  9076                           
  9077                           ;psect for function _SPI1_Open
  9078  0D84                     _SPI1_Open:
  9079                           
  9080                           ;incstack = 0
  9081                           ; Regs used in _SPI1_Open: [wreg-fsr0h+status,2+status,0+pclath]
  9082                           ;SPI1_Open@spi1UniqueConfiguration stored from wreg
  9083  0D84  0020               	movlb	0	; select bank0
  9084  0D85  00A6               	movwf	SPI1_Open@spi1UniqueConfiguration
  9085  0D86                     l3361:
  9086                           
  9087                           ;mcc_generated_files/spi1.c: 72: _Bool SPI1_Open(spi1_modes_t spi1UniqueConfiguration);m
      +                          cc_generated_files/spi1.c: 73: {;mcc_generated_files/spi1.c: 74:     if(!SSP1CON1bits.SS
      +                          PEN)
  9088  0D86  0024               	movlb	4	; select bank4
  9089  0D87  1A95               	btfsc	21,5	;volatile
  9090  0D88  2D8A               	goto	u2481
  9091  0D89  2D8B               	goto	u2480
  9092  0D8A                     u2481:
  9093  0D8A  2DDA               	goto	l196
  9094  0D8B                     u2480:
  9095  0D8B                     l3363:
  9096                           
  9097                           ;mcc_generated_files/spi1.c: 75:     {;mcc_generated_files/spi1.c: 76:         SSP1STAT 
      +                          = spi1_configuration[spi1UniqueConfiguration].stat;
  9098  0D8B  0020               	movlb	0	; select bank0
  9099  0D8C  0826               	movf	SPI1_Open@spi1UniqueConfiguration,w
  9100  0D8D  00A3               	movwf	??_SPI1_Open
  9101  0D8E  01A4               	clrf	??_SPI1_Open+1
  9102  0D8F  35A3               	lslf	??_SPI1_Open,f
  9103  0D90  0DA4               	rlf	??_SPI1_Open+1,f
  9104  0D91  35A3               	lslf	??_SPI1_Open,f
  9105  0D92  0DA4               	rlf	??_SPI1_Open+1,f
  9106  0D93  3000               	movlw	low ((_spi1_configuration+1)| (0+32768))
  9107  0D94  0723               	addwf	??_SPI1_Open,w
  9108  0D95  0084               	movwf	4
  9109  0D96  3088               	movlw	high ((_spi1_configuration+1)| (0+32768))
  9110  0D97  3D24               	addwfc	??_SPI1_Open+1,w
  9111  0D98  0085               	movwf	5
  9112  0D99  0800               	movf	0,w	;code access
  9113  0D9A  0024               	movlb	4	; select bank4
  9114  0D9B  0094               	movwf	20	;volatile
  9115                           
  9116                           ;mcc_generated_files/spi1.c: 77:         SSP1CON1 = spi1_configuration[spi1UniqueConfigu
      +                          ration].con1;
  9117  0D9C  0020               	movlb	0	; select bank0
  9118  0D9D  0826               	movf	SPI1_Open@spi1UniqueConfiguration,w
  9119  0D9E  00A3               	movwf	??_SPI1_Open
  9120  0D9F  01A4               	clrf	??_SPI1_Open+1
  9121  0DA0  35A3               	lslf	??_SPI1_Open,f
  9122  0DA1  0DA4               	rlf	??_SPI1_Open+1,f
  9123  0DA2  35A3               	lslf	??_SPI1_Open,f
  9124  0DA3  0DA4               	rlf	??_SPI1_Open+1,f
  9125  0DA4  30FF               	movlw	low (_spi1_configuration| (0+32768))
  9126  0DA5  0723               	addwf	??_SPI1_Open,w
  9127  0DA6  0084               	movwf	4
  9128  0DA7  3087               	movlw	high (_spi1_configuration| (0+32768))
  9129  0DA8  3D24               	addwfc	??_SPI1_Open+1,w
  9130  0DA9  0085               	movwf	5
  9131  0DAA  0800               	movf	0,w	;code access
  9132  0DAB  0024               	movlb	4	; select bank4
  9133  0DAC  0095               	movwf	21	;volatile
  9134  0DAD                     l3365:
  9135                           
  9136                           ;mcc_generated_files/spi1.c: 78:         SSP1CON2 = 0x00;
  9137  0DAD  0196               	clrf	22	;volatile
  9138  0DAE                     l3367:
  9139                           
  9140                           ;mcc_generated_files/spi1.c: 79:         SSP1ADD = spi1_configuration[spi1UniqueConfigur
      +                          ation].add;
  9141  0DAE  0020               	movlb	0	; select bank0
  9142  0DAF  0826               	movf	SPI1_Open@spi1UniqueConfiguration,w
  9143  0DB0  00A3               	movwf	??_SPI1_Open
  9144  0DB1  01A4               	clrf	??_SPI1_Open+1
  9145  0DB2  35A3               	lslf	??_SPI1_Open,f
  9146  0DB3  0DA4               	rlf	??_SPI1_Open+1,f
  9147  0DB4  35A3               	lslf	??_SPI1_Open,f
  9148  0DB5  0DA4               	rlf	??_SPI1_Open+1,f
  9149  0DB6  3001               	movlw	low ((_spi1_configuration+2)| (0+32768))
  9150  0DB7  0723               	addwf	??_SPI1_Open,w
  9151  0DB8  0084               	movwf	4
  9152  0DB9  3088               	movlw	high ((_spi1_configuration+2)| (0+32768))
  9153  0DBA  3D24               	addwfc	??_SPI1_Open+1,w
  9154  0DBB  0085               	movwf	5
  9155  0DBC  0800               	movf	0,w	;code access
  9156  0DBD  0024               	movlb	4	; select bank4
  9157  0DBE  0092               	movwf	18	;volatile
  9158  0DBF                     l3369:
  9159                           
  9160                           ;mcc_generated_files/spi1.c: 80:         TRISBbits.TRISB4 = spi1_configuration[spi1Uniqu
      +                          eConfiguration].operation;
  9161  0DBF  0020               	movlb	0	; select bank0
  9162  0DC0  0826               	movf	SPI1_Open@spi1UniqueConfiguration,w
  9163  0DC1  00A3               	movwf	??_SPI1_Open
  9164  0DC2  01A4               	clrf	??_SPI1_Open+1
  9165  0DC3  35A3               	lslf	??_SPI1_Open,f
  9166  0DC4  0DA4               	rlf	??_SPI1_Open+1,f
  9167  0DC5  35A3               	lslf	??_SPI1_Open,f
  9168  0DC6  0DA4               	rlf	??_SPI1_Open+1,f
  9169  0DC7  3002               	movlw	low ((_spi1_configuration+3)| (0+32768))
  9170  0DC8  0723               	addwf	??_SPI1_Open,w
  9171  0DC9  0084               	movwf	4
  9172  0DCA  3088               	movlw	high ((_spi1_configuration+3)| (0+32768))
  9173  0DCB  3D24               	addwfc	??_SPI1_Open+1,w
  9174  0DCC  0085               	movwf	5
  9175  0DCD  0800               	movf	0,w	;code access
  9176  0DCE  00A5               	movwf	??_SPI1_Open+2
  9177  0DCF  0EA5               	swapf	??_SPI1_Open+2,f
  9178  0DD0  0021               	movlb	1	; select bank1
  9179  0DD1  080D               	movf	13,w	;volatile
  9180  0DD2  0020               	movlb	0	; select bank0
  9181  0DD3  0625               	xorwf	??_SPI1_Open+2,w
  9182  0DD4  39EF               	andlw	-17
  9183  0DD5  0625               	xorwf	??_SPI1_Open+2,w
  9184  0DD6  0021               	movlb	1	; select bank1
  9185  0DD7  008D               	movwf	13	;volatile
  9186  0DD8                     l3371:
  9187                           
  9188                           ;mcc_generated_files/spi1.c: 81:         SSP1CON1bits.SSPEN = 1;
  9189  0DD8  0024               	movlb	4	; select bank4
  9190  0DD9  1695               	bsf	21,5	;volatile
  9191  0DDA                     l196:
  9192  0DDA  0008               	return
  9193  0DDB                     __end_of_SPI1_Open:
  9194                           
  9195                           	psect	text39
  9196  0B3D                     __ptext39:	
  9197 ;; *************** function _ADC_GetConversion *****************
  9198 ;; Defined at:
  9199 ;;		line 112 in file "mcc_generated_files/adc.c"
  9200 ;; Parameters:    Size  Location     Type
  9201 ;;  channel         1    wreg     enum E2476
  9202 ;; Auto vars:     Size  Location     Type
  9203 ;;  channel         1    6[BANK0 ] enum E2476
  9204 ;; Return value:  Size  Location     Type
  9205 ;;                  2    3[BANK0 ] unsigned short 
  9206 ;; Registers used:
  9207 ;;		wreg, status,2, status,0
  9208 ;; Tracked objects:
  9209 ;;		On entry : 0/0
  9210 ;;		On exit  : 0/0
  9211 ;;		Unchanged: 0/0
  9212 ;; Data sizes:     COMMON   BANK0   BANK1   BANK2   BANK3   BANK4
  9213 ;;      Params:         0       2       0       0       0       0
  9214 ;;      Locals:         0       1       0       0       0       0
  9215 ;;      Temps:          0       1       0       0       0       0
  9216 ;;      Totals:         0       4       0       0       0       0
  9217 ;;Total ram usage:        4 bytes
  9218 ;; Hardware stack levels used: 1
  9219 ;; Hardware stack levels required when called: 6
  9220 ;; This function calls:
  9221 ;;		Nothing
  9222 ;; This function is called by:
  9223 ;;		_main
  9224 ;; This function uses a non-reentrant model
  9225 ;;
  9226                           
  9227                           
  9228                           ;psect for function _ADC_GetConversion
  9229  0B3D                     _ADC_GetConversion:
  9230                           
  9231                           ;incstack = 0
  9232                           ; Regs used in _ADC_GetConversion: [wreg+status,2+status,0]
  9233                           ;ADC_GetConversion@channel stored from wreg
  9234  0B3D  0020               	movlb	0	; select bank0
  9235  0B3E  00A6               	movwf	ADC_GetConversion@channel
  9236  0B3F                     l3415:
  9237                           
  9238                           ;mcc_generated_files/adc.c: 112: adc_result_t ADC_GetConversion(adc_channel_t channel);m
      +                          cc_generated_files/adc.c: 113: {;mcc_generated_files/adc.c: 115:     ADCON0bits.CHS = ch
      +                          annel;
  9239  0B3F  0826               	movf	ADC_GetConversion@channel,w
  9240  0B40  00A5               	movwf	??_ADC_GetConversion
  9241  0B41  0DA5               	rlf	??_ADC_GetConversion,f
  9242  0B42  0DA5               	rlf	??_ADC_GetConversion,f
  9243  0B43  0021               	movlb	1	; select bank1
  9244  0B44  081D               	movf	29,w	;volatile
  9245  0B45  0020               	movlb	0	; select bank0
  9246  0B46  0625               	xorwf	??_ADC_GetConversion,w
  9247  0B47  3983               	andlw	-125
  9248  0B48  0625               	xorwf	??_ADC_GetConversion,w
  9249  0B49  0021               	movlb	1	; select bank1
  9250  0B4A  009D               	movwf	29	;volatile
  9251  0B4B                     l3417:
  9252                           
  9253                           ;mcc_generated_files/adc.c: 118:     ADCON0bits.ADON = 1;
  9254  0B4B  141D               	bsf	29,0	;volatile
  9255  0B4C                     l3419:
  9256                           
  9257                           ;mcc_generated_files/adc.c: 121:     _delay((unsigned long)((5)*(2000000/4000000.0)));
  9258  0B4C  3200               	nop2	;2 cycle nop
  9259  0B4D                     l3421:
  9260                           
  9261                           ;mcc_generated_files/adc.c: 124:     ADCON0bits.GO_nDONE = 1;
  9262  0B4D  0021               	movlb	1	; select bank1
  9263  0B4E  149D               	bsf	29,1	;volatile
  9264  0B4F                     l514:	
  9265                           ;mcc_generated_files/adc.c: 128:     {;mcc_generated_files/adc.c: 129:     }
  9266                           
  9267                           
  9268                           ;mcc_generated_files/adc.c: 127:     while (ADCON0bits.GO_nDONE)
  9269  0B4F  189D               	btfsc	29,1	;volatile
  9270  0B50  2B52               	goto	u2551
  9271  0B51  2B53               	goto	u2550
  9272  0B52                     u2551:
  9273  0B52  2B4F               	goto	l514
  9274  0B53                     u2550:
  9275  0B53                     l3423:
  9276                           
  9277                           ;mcc_generated_files/adc.c: 132:     return ((adc_result_t)((ADRESH << 8) + ADRESL));
  9278  0B53  081C               	movf	28,w	;volatile
  9279  0B54  0020               	movlb	0	; select bank0
  9280  0B55  00A4               	movwf	?_ADC_GetConversion+1
  9281  0B56  0021               	movlb	1	; select bank1
  9282  0B57  081B               	movf	27,w	;volatile
  9283  0B58  0020               	movlb	0	; select bank0
  9284  0B59  00A3               	movwf	?_ADC_GetConversion
  9285  0B5A                     l517:
  9286  0B5A  0008               	return
  9287  0B5B                     __end_of_ADC_GetConversion:
  9288                           
  9289                           	psect	intentry
  9290  0004                     __pintentry:	
  9291 ;; *************** function _INTERRUPT_InterruptManager *****************
  9292 ;; Defined at:
  9293 ;;		line 52 in file "mcc_generated_files/interrupt_manager.c"
  9294 ;; Parameters:    Size  Location     Type
  9295 ;;		None
  9296 ;; Auto vars:     Size  Location     Type
  9297 ;;		None
  9298 ;; Return value:  Size  Location     Type
  9299 ;;                  1    wreg      void 
  9300 ;; Registers used:
  9301 ;;		wreg, fsr1l, fsr1h, status,2, status,0, pclath, cstack
  9302 ;; Tracked objects:
  9303 ;;		On entry : 0/0
  9304 ;;		On exit  : 0/0
  9305 ;;		Unchanged: 0/0
  9306 ;; Data sizes:     COMMON   BANK0   BANK1   BANK2   BANK3   BANK4
  9307 ;;      Params:         0       0       0       0       0       0
  9308 ;;      Locals:         0       0       0       0       0       0
  9309 ;;      Temps:          0       0       0       0       0       0
  9310 ;;      Totals:         0       0       0       0       0       0
  9311 ;;Total ram usage:        0 bytes
  9312 ;; Hardware stack levels used: 1
  9313 ;; Hardware stack levels required when called: 5
  9314 ;; This function calls:
  9315 ;;		Absolute function
  9316 ;;		_CCP4_CaptureISR
  9317 ;;		_CMP1_ISR
  9318 ;;		_CMP2_ISR
  9319 ;;		_EUSART_Receive_ISR
  9320 ;;		_EUSART_Transmit_ISR
  9321 ;;		_PIN_MANAGER_IOC
  9322 ;;		_TMR1_ISR
  9323 ;;		_TMR4_ISR
  9324 ;;		_recepcao
  9325 ;; This function is called by:
  9326 ;;		Interrupt level 1
  9327 ;; This function uses a non-reentrant model
  9328 ;;
  9329                           
  9330  0004                     _INTERRUPT_InterruptManager:
  9331                           
  9332                           ;incstack = 0
  9333  0004  147E               	bsf	int$flags,0	;set compiler interrupt flag (level 1)
  9334                           
  9335                           ; Regs used in _INTERRUPT_InterruptManager: [wreg+fsr1l+fsr1h+status,2+status,0+pclath+c
      +                          stack]
  9336  0005  3180               	pagesel	$
  9337  0006                     i1l3867:
  9338                           
  9339                           ;mcc_generated_files/interrupt_manager.c: 55:     if(INTCONbits.IOCIE == 1 && INTCONbits
      +                          .IOCIF == 1)
  9340  0006  1D8B               	btfss	11,3	;volatile
  9341  0007  2809               	goto	u342_21
  9342  0008  280A               	goto	u342_20
  9343  0009                     u342_21:
  9344  0009  2812               	goto	i1l555
  9345  000A                     u342_20:
  9346  000A                     i1l3869:
  9347  000A  1C0B               	btfss	11,0	;volatile
  9348  000B  280D               	goto	u343_21
  9349  000C  280E               	goto	u343_20
  9350  000D                     u343_21:
  9351  000D  2812               	goto	i1l555
  9352  000E                     u343_20:
  9353  000E                     i1l3871:
  9354                           
  9355                           ;mcc_generated_files/interrupt_manager.c: 56:     {;mcc_generated_files/interrupt_manage
      +                          r.c: 57:         PIN_MANAGER_IOC();
  9356  000E  318A  2263  3180   	fcall	_PIN_MANAGER_IOC
  9357                           
  9358                           ;mcc_generated_files/interrupt_manager.c: 58:     }
  9359  0011  287E               	goto	i1l573
  9360  0012                     i1l555:	
  9361                           ;mcc_generated_files/interrupt_manager.c: 59:     else if(INTCONbits.PEIE == 1)
  9362                           
  9363  0012  1F0B               	btfss	11,6	;volatile
  9364  0013  2815               	goto	u344_21
  9365  0014  2816               	goto	u344_20
  9366  0015                     u344_21:
  9367  0015  287E               	goto	i1l573
  9368  0016                     u344_20:
  9369  0016                     i1l3873:
  9370                           
  9371                           ;mcc_generated_files/interrupt_manager.c: 60:     {;mcc_generated_files/interrupt_manage
      +                          r.c: 61:         if(PIE1bits.TXIE == 1 && PIR1bits.TXIF == 1)
  9372  0016  0021               	movlb	1	; select bank1
  9373  0017  1E11               	btfss	17,4	;volatile
  9374  0018  281A               	goto	u345_21
  9375  0019  281B               	goto	u345_20
  9376  001A                     u345_21:
  9377  001A  2827               	goto	i1l558
  9378  001B                     u345_20:
  9379  001B                     i1l3875:
  9380  001B  0020               	movlb	0	; select bank0
  9381  001C  1E11               	btfss	17,4	;volatile
  9382  001D  281F               	goto	u346_21
  9383  001E  2820               	goto	u346_20
  9384  001F                     u346_21:
  9385  001F  2827               	goto	i1l558
  9386  0020                     u346_20:
  9387  0020                     i1l3877:
  9388                           
  9389                           ;mcc_generated_files/interrupt_manager.c: 62:         {;mcc_generated_files/interrupt_ma
      +                          nager.c: 63:             EUSART_TxDefaultInterruptHandler();
  9390  0020  0021               	movlb	1	; select bank1
  9391  0021  085C               	movf	(_EUSART_TxDefaultInterruptHandler+1)^(0+128),w
  9392  0022  008A               	movwf	10
  9393  0023  085B               	movf	_EUSART_TxDefaultInterruptHandler^(0+128),w
  9394  0024  000A               	callw
  9395  0025  3180               	pagesel	$
  9396                           
  9397                           ;mcc_generated_files/interrupt_manager.c: 64:         }
  9398  0026  287E               	goto	i1l573
  9399  0027                     i1l558:	
  9400                           ;mcc_generated_files/interrupt_manager.c: 65:         else if(PIE1bits.RCIE == 1 && PIR1
      +                          bits.RCIF == 1)
  9401                           
  9402  0027  0021               	movlb	1	; select bank1
  9403  0028  1E91               	btfss	17,5	;volatile
  9404  0029  282B               	goto	u347_21
  9405  002A  282C               	goto	u347_20
  9406  002B                     u347_21:
  9407  002B  2838               	goto	i1l560
  9408  002C                     u347_20:
  9409  002C                     i1l3879:
  9410  002C  0020               	movlb	0	; select bank0
  9411  002D  1E91               	btfss	17,5	;volatile
  9412  002E  2830               	goto	u348_21
  9413  002F  2831               	goto	u348_20
  9414  0030                     u348_21:
  9415  0030  2838               	goto	i1l560
  9416  0031                     u348_20:
  9417  0031                     i1l3881:
  9418                           
  9419                           ;mcc_generated_files/interrupt_manager.c: 66:         {;mcc_generated_files/interrupt_ma
      +                          nager.c: 67:             EUSART_RxDefaultInterruptHandler();
  9420  0031  0022               	movlb	2	; select bank2
  9421  0032  0849               	movf	(_EUSART_RxDefaultInterruptHandler+1)^(0+256),w
  9422  0033  008A               	movwf	10
  9423  0034  0848               	movf	_EUSART_RxDefaultInterruptHandler^(0+256),w
  9424  0035  000A               	callw
  9425  0036  3180               	pagesel	$
  9426                           
  9427                           ;mcc_generated_files/interrupt_manager.c: 68:         }
  9428  0037  287E               	goto	i1l573
  9429  0038                     i1l560:	
  9430                           ;mcc_generated_files/interrupt_manager.c: 69:         else if(PIE2bits.C2IE == 1 && PIR2
      +                          bits.C2IF == 1)
  9431                           
  9432  0038  0021               	movlb	1	; select bank1
  9433  0039  1F12               	btfss	18,6	;volatile
  9434  003A  283C               	goto	u349_21
  9435  003B  283D               	goto	u349_20
  9436  003C                     u349_21:
  9437  003C  2846               	goto	i1l562
  9438  003D                     u349_20:
  9439  003D                     i1l3883:
  9440  003D  0020               	movlb	0	; select bank0
  9441  003E  1F12               	btfss	18,6	;volatile
  9442  003F  2841               	goto	u350_21
  9443  0040  2842               	goto	u350_20
  9444  0041                     u350_21:
  9445  0041  2846               	goto	i1l562
  9446  0042                     u350_20:
  9447  0042                     i1l3885:
  9448                           
  9449                           ;mcc_generated_files/interrupt_manager.c: 70:         {;mcc_generated_files/interrupt_ma
      +                          nager.c: 71:             CMP2_ISR();
  9450  0042  3189  214F  3180   	fcall	_CMP2_ISR
  9451                           
  9452                           ;mcc_generated_files/interrupt_manager.c: 72:         }
  9453  0045  287E               	goto	i1l573
  9454  0046                     i1l562:	
  9455                           ;mcc_generated_files/interrupt_manager.c: 73:         else if(PIE2bits.C1IE == 1 && PIR2
      +                          bits.C1IF == 1)
  9456                           
  9457  0046  0021               	movlb	1	; select bank1
  9458  0047  1E92               	btfss	18,5	;volatile
  9459  0048  284A               	goto	u351_21
  9460  0049  284B               	goto	u351_20
  9461  004A                     u351_21:
  9462  004A  2854               	goto	i1l564
  9463  004B                     u351_20:
  9464  004B                     i1l3887:
  9465  004B  0020               	movlb	0	; select bank0
  9466  004C  1E92               	btfss	18,5	;volatile
  9467  004D  284F               	goto	u352_21
  9468  004E  2850               	goto	u352_20
  9469  004F                     u352_21:
  9470  004F  2854               	goto	i1l564
  9471  0050                     u352_20:
  9472  0050                     i1l3889:
  9473                           
  9474                           ;mcc_generated_files/interrupt_manager.c: 74:         {;mcc_generated_files/interrupt_ma
      +                          nager.c: 75:             CMP1_ISR();
  9475  0050  3189  2149  3180   	fcall	_CMP1_ISR
  9476                           
  9477                           ;mcc_generated_files/interrupt_manager.c: 76:         }
  9478  0053  287E               	goto	i1l573
  9479  0054                     i1l564:	
  9480                           ;mcc_generated_files/interrupt_manager.c: 77:         else if(PIE3bits.CCP4IE == 1 && PI
      +                          R3bits.CCP4IF == 1)
  9481                           
  9482  0054  0021               	movlb	1	; select bank1
  9483  0055  1E93               	btfss	19,5	;volatile
  9484  0056  2858               	goto	u353_21
  9485  0057  2859               	goto	u353_20
  9486  0058                     u353_21:
  9487  0058  2862               	goto	i1l566
  9488  0059                     u353_20:
  9489  0059                     i1l3891:
  9490  0059  0020               	movlb	0	; select bank0
  9491  005A  1E93               	btfss	19,5	;volatile
  9492  005B  285D               	goto	u354_21
  9493  005C  285E               	goto	u354_20
  9494  005D                     u354_21:
  9495  005D  2862               	goto	i1l566
  9496  005E                     u354_20:
  9497  005E                     i1l3893:
  9498                           
  9499                           ;mcc_generated_files/interrupt_manager.c: 78:         {;mcc_generated_files/interrupt_ma
      +                          nager.c: 79:             CCP4_CaptureISR();
  9500  005E  318A  22AC  3180   	fcall	_CCP4_CaptureISR
  9501                           
  9502                           ;mcc_generated_files/interrupt_manager.c: 80:         }
  9503  0061  287E               	goto	i1l573
  9504  0062                     i1l566:	
  9505                           ;mcc_generated_files/interrupt_manager.c: 81:         else if(PIE3bits.TMR4IE == 1 && PI
      +                          R3bits.TMR4IF == 1)
  9506                           
  9507  0062  0021               	movlb	1	; select bank1
  9508  0063  1C93               	btfss	19,1	;volatile
  9509  0064  2866               	goto	u355_21
  9510  0065  2867               	goto	u355_20
  9511  0066                     u355_21:
  9512  0066  2870               	goto	i1l568
  9513  0067                     u355_20:
  9514  0067                     i1l3895:
  9515  0067  0020               	movlb	0	; select bank0
  9516  0068  1C93               	btfss	19,1	;volatile
  9517  0069  286B               	goto	u356_21
  9518  006A  286C               	goto	u356_20
  9519  006B                     u356_21:
  9520  006B  2870               	goto	i1l568
  9521  006C                     u356_20:
  9522  006C                     i1l3897:
  9523                           
  9524                           ;mcc_generated_files/interrupt_manager.c: 82:         {;mcc_generated_files/interrupt_ma
      +                          nager.c: 83:             TMR4_ISR();
  9525  006C  318A  2234  3180   	fcall	_TMR4_ISR
  9526                           
  9527                           ;mcc_generated_files/interrupt_manager.c: 84:         }
  9528  006F  287E               	goto	i1l573
  9529  0070                     i1l568:	
  9530                           ;mcc_generated_files/interrupt_manager.c: 85:         else if(PIE1bits.TMR1IE == 1 && PI
      +                          R1bits.TMR1IF == 1)
  9531                           
  9532  0070  0021               	movlb	1	; select bank1
  9533  0071  1C11               	btfss	17,0	;volatile
  9534  0072  2874               	goto	u357_21
  9535  0073  2875               	goto	u357_20
  9536  0074                     u357_21:
  9537  0074  287E               	goto	i1l567
  9538  0075                     u357_20:
  9539  0075                     i1l3899:
  9540  0075  0020               	movlb	0	; select bank0
  9541  0076  1C11               	btfss	17,0	;volatile
  9542  0077  2879               	goto	u358_21
  9543  0078  287A               	goto	u358_20
  9544  0079                     u358_21:
  9545  0079  287E               	goto	i1l567
  9546  007A                     u358_20:
  9547  007A                     i1l3901:
  9548                           
  9549                           ;mcc_generated_files/interrupt_manager.c: 86:         {;mcc_generated_files/interrupt_ma
      +                          nager.c: 87:             TMR1_ISR();
  9550  007A  318A  22EF  3180   	fcall	_TMR1_ISR
  9551                           
  9552                           ;mcc_generated_files/interrupt_manager.c: 88:         }
  9553  007D  287E               	goto	i1l573
  9554  007E                     i1l567:
  9555  007E                     i1l573:
  9556  007E  107E               	bcf	int$flags,0	;clear compiler interrupt flag (level 1)
  9557  007F  0009               	retfie
  9558  0080                     __end_of_INTERRUPT_InterruptManager:
  9559                           
  9560                           	psect	text41
  9561  0CBC                     __ptext41:	
  9562 ;; *************** function _EUSART_Receive_ISR *****************
  9563 ;; Defined at:
  9564 ;;		line 216 in file "mcc_generated_files/eusart.c"
  9565 ;; Parameters:    Size  Location     Type
  9566 ;;		None
  9567 ;; Auto vars:     Size  Location     Type
  9568 ;;		None
  9569 ;; Return value:  Size  Location     Type
  9570 ;;                  1    wreg      void 
  9571 ;; Registers used:
  9572 ;;		wreg, fsr1l, fsr1h, status,2, status,0, pclath, cstack
  9573 ;; Tracked objects:
  9574 ;;		On entry : 0/0
  9575 ;;		On exit  : 0/0
  9576 ;;		Unchanged: 0/0
  9577 ;; Data sizes:     COMMON   BANK0   BANK1   BANK2   BANK3   BANK4
  9578 ;;      Params:         0       0       0       0       0       0
  9579 ;;      Locals:         0       0       0       0       0       0
  9580 ;;      Temps:          0       0       0       0       0       0
  9581 ;;      Totals:         0       0       0       0       0       0
  9582 ;;Total ram usage:        0 bytes
  9583 ;; Hardware stack levels used: 1
  9584 ;; Hardware stack levels required when called: 2
  9585 ;; This function calls:
  9586 ;;		Absolute function
  9587 ;;		_EUSART_DefaultErrorHandler
  9588 ;;		_EUSART_DefaultFramingErrorHandler
  9589 ;;		_EUSART_DefaultOverrunErrorHandler
  9590 ;;		_EUSART_RxDataHandler
  9591 ;; This function is called by:
  9592 ;;		_EUSART_Initialize
  9593 ;;		_INTERRUPT_InterruptManager
  9594 ;; This function uses a non-reentrant model
  9595 ;;
  9596                           
  9597                           
  9598                           ;psect for function _EUSART_Receive_ISR
  9599  0CBC                     _EUSART_Receive_ISR:
  9600  0CBC                     i1l3387:	
  9601                           ;incstack = 0
  9602                           ; Regs used in _EUSART_Receive_ISR: [wreg+fsr1l+fsr1h+status,2+status,0+pclath+cstack]
  9603                           
  9604                           
  9605                           ;mcc_generated_files/eusart.c: 219:     eusartRxStatusBuffer[eusartRxHead].status = 0;
  9606  0CBC  0020               	movlb	0	; select bank0
  9607  0CBD  086B               	movf	_eusartRxHead,w	;volatile
  9608  0CBE  3EA0               	addlw	(low (_eusartRxStatusBuffer| 0))& (0+255)
  9609  0CBF  0086               	movwf	6
  9610  0CC0  0187               	clrf	7
  9611  0CC1  0181               	clrf	1
  9612  0CC2                     i1l3389:
  9613                           
  9614                           ;mcc_generated_files/eusart.c: 221:     if(RCSTAbits.FERR){
  9615  0CC2  0023               	movlb	3	; select bank3
  9616  0CC3  1D1D               	btfss	29,2	;volatile
  9617  0CC4  2CC6               	goto	u251_21
  9618  0CC5  2CC7               	goto	u251_20
  9619  0CC6                     u251_21:
  9620  0CC6  2CD3               	goto	i1l3395
  9621  0CC7                     u251_20:
  9622  0CC7                     i1l3391:
  9623                           
  9624                           ;mcc_generated_files/eusart.c: 222:         eusartRxStatusBuffer[eusartRxHead].ferr = 1;
  9625  0CC7  0020               	movlb	0	; select bank0
  9626  0CC8  086B               	movf	_eusartRxHead,w	;volatile
  9627  0CC9  3EA0               	addlw	(low (_eusartRxStatusBuffer| 0))& (0+255)
  9628  0CCA  0086               	movwf	6
  9629  0CCB  0187               	clrf	7
  9630  0CCC  1481               	bsf	1,1
  9631  0CCD                     i1l3393:
  9632                           
  9633                           ;mcc_generated_files/eusart.c: 223:         EUSART_FramingErrorHandler();
  9634  0CCD  0022               	movlb	2	; select bank2
  9635  0CCE  0847               	movf	(_EUSART_FramingErrorHandler+1)^(0+256),w
  9636  0CCF  008A               	movwf	10
  9637  0CD0  0846               	movf	_EUSART_FramingErrorHandler^(0+256),w
  9638  0CD1  000A               	callw
  9639  0CD2  318C               	pagesel	$
  9640  0CD3                     i1l3395:
  9641                           
  9642                           ;mcc_generated_files/eusart.c: 226:     if(RCSTAbits.OERR){
  9643  0CD3  0023               	movlb	3	; select bank3
  9644  0CD4  1C9D               	btfss	29,1	;volatile
  9645  0CD5  2CD7               	goto	u252_21
  9646  0CD6  2CD8               	goto	u252_20
  9647  0CD7                     u252_21:
  9648  0CD7  2CE4               	goto	i1l3401
  9649  0CD8                     u252_20:
  9650  0CD8                     i1l3397:
  9651                           
  9652                           ;mcc_generated_files/eusart.c: 227:         eusartRxStatusBuffer[eusartRxHead].oerr = 1;
  9653  0CD8  0020               	movlb	0	; select bank0
  9654  0CD9  086B               	movf	_eusartRxHead,w	;volatile
  9655  0CDA  3EA0               	addlw	(low (_eusartRxStatusBuffer| 0))& (0+255)
  9656  0CDB  0086               	movwf	6
  9657  0CDC  0187               	clrf	7
  9658  0CDD  1501               	bsf	1,2
  9659  0CDE                     i1l3399:
  9660                           
  9661                           ;mcc_generated_files/eusart.c: 228:         EUSART_OverrunErrorHandler();
  9662  0CDE  0022               	movlb	2	; select bank2
  9663  0CDF  0845               	movf	(_EUSART_OverrunErrorHandler+1)^(0+256),w
  9664  0CE0  008A               	movwf	10
  9665  0CE1  0844               	movf	_EUSART_OverrunErrorHandler^(0+256),w
  9666  0CE2  000A               	callw
  9667  0CE3  318C               	pagesel	$
  9668  0CE4                     i1l3401:
  9669                           
  9670                           ;mcc_generated_files/eusart.c: 231:     if(eusartRxStatusBuffer[eusartRxHead].status){
  9671  0CE4  0020               	movlb	0	; select bank0
  9672  0CE5  086B               	movf	_eusartRxHead,w	;volatile
  9673  0CE6  3EA0               	addlw	(low (_eusartRxStatusBuffer| 0))& (0+255)
  9674  0CE7  0086               	movwf	6
  9675  0CE8  0187               	clrf	7
  9676  0CE9  0801               	movf	1,w
  9677  0CEA  1903               	btfsc	3,2
  9678  0CEB  2CED               	goto	u253_21
  9679  0CEC  2CEE               	goto	u253_20
  9680  0CED                     u253_21:
  9681  0CED  2CF5               	goto	i1l3405
  9682  0CEE                     u253_20:
  9683  0CEE                     i1l3403:
  9684                           
  9685                           ;mcc_generated_files/eusart.c: 232:         EUSART_ErrorHandler();
  9686  0CEE  0022               	movlb	2	; select bank2
  9687  0CEF  0843               	movf	(_EUSART_ErrorHandler+1)^(0+256),w
  9688  0CF0  008A               	movwf	10
  9689  0CF1  0842               	movf	_EUSART_ErrorHandler^(0+256),w
  9690  0CF2  000A               	callw
  9691  0CF3  318C               	pagesel	$
  9692                           
  9693                           ;mcc_generated_files/eusart.c: 233:     } else {
  9694  0CF4  2CF8               	goto	i1l348
  9695  0CF5                     i1l3405:
  9696                           
  9697                           ;mcc_generated_files/eusart.c: 234:         EUSART_RxDataHandler();
  9698  0CF5  318B  2321  318C   	fcall	_EUSART_RxDataHandler
  9699  0CF8                     i1l348:
  9700  0CF8  0008               	return
  9701  0CF9                     __end_of_EUSART_Receive_ISR:
  9702                           
  9703                           	psect	text42
  9704  0A43                     __ptext42:	
  9705 ;; *************** function _recepcao *****************
  9706 ;; Defined at:
  9707 ;;		line 89 in file "main.c"
  9708 ;; Parameters:    Size  Location     Type
  9709 ;;		None
  9710 ;; Auto vars:     Size  Location     Type
  9711 ;;		None
  9712 ;; Return value:  Size  Location     Type
  9713 ;;                  1    wreg      void 
  9714 ;; Registers used:
  9715 ;;		wreg, status,2
  9716 ;; Tracked objects:
  9717 ;;		On entry : 0/0
  9718 ;;		On exit  : 0/0
  9719 ;;		Unchanged: 0/0
  9720 ;; Data sizes:     COMMON   BANK0   BANK1   BANK2   BANK3   BANK4
  9721 ;;      Params:         0       0       0       0       0       0
  9722 ;;      Locals:         0       0       0       0       0       0
  9723 ;;      Temps:          2       0       0       0       0       0
  9724 ;;      Totals:         2       0       0       0       0       0
  9725 ;;Total ram usage:        2 bytes
  9726 ;; Hardware stack levels used: 1
  9727 ;; This function calls:
  9728 ;;		Nothing
  9729 ;; This function is called by:
  9730 ;;		_main
  9731 ;;		_INTERRUPT_InterruptManager
  9732 ;; This function uses a non-reentrant model
  9733 ;;
  9734                           
  9735                           
  9736                           ;psect for function _recepcao
  9737  0A43                     _recepcao:
  9738  0A43                     i1l3447:	
  9739                           ;incstack = 0
  9740                           ; Regs used in _recepcao: [wreg+status,2]
  9741                           
  9742                           
  9743                           ;main.c: 91:     rxByte = RCREG;
  9744  0A43  0023               	movlb	3	; select bank3
  9745  0A44  0819               	movf	25,w	;volatile
  9746  0A45  00F0               	movwf	??_recepcao
  9747  0A46  0870               	movf	??_recepcao,w
  9748  0A47  0021               	movlb	1	; select bank1
  9749  0A48  00C1               	movwf	_rxByte^(0+128)
  9750  0A49                     i1l3449:
  9751                           
  9752                           ;main.c: 92:     pos_final = (int)(rxByte & 0x03);
  9753  0A49  0841               	movf	_rxByte^(0+128),w
  9754  0A4A  3903               	andlw	3
  9755  0A4B  00F0               	movwf	??_recepcao
  9756  0A4C  01F1               	clrf	??_recepcao+1
  9757  0A4D  0870               	movf	??_recepcao,w
  9758  0A4E  00BC               	movwf	_pos_final^(0+128)
  9759  0A4F  0871               	movf	??_recepcao+1,w
  9760  0A50  00BD               	movwf	(_pos_final+1)^(0+128)
  9761  0A51                     i1l789:
  9762  0A51  0008               	return
  9763  0A52                     __end_of_recepcao:
  9764                           
  9765                           	psect	text43
  9766  0A34                     __ptext43:	
  9767 ;; *************** function _TMR4_ISR *****************
  9768 ;; Defined at:
  9769 ;;		line 119 in file "mcc_generated_files/tmr4.c"
  9770 ;; Parameters:    Size  Location     Type
  9771 ;;		None
  9772 ;; Auto vars:     Size  Location     Type
  9773 ;;		None
  9774 ;; Return value:  Size  Location     Type
  9775 ;;                  1    wreg      void 
  9776 ;; Registers used:
  9777 ;;		wreg, fsr1l, fsr1h, status,2, status,0, pclath, cstack
  9778 ;; Tracked objects:
  9779 ;;		On entry : 0/0
  9780 ;;		On exit  : 0/0
  9781 ;;		Unchanged: 0/0
  9782 ;; Data sizes:     COMMON   BANK0   BANK1   BANK2   BANK3   BANK4
  9783 ;;      Params:         0       0       0       0       0       0
  9784 ;;      Locals:         0       0       0       0       0       0
  9785 ;;      Temps:          0       0       0       0       0       0
  9786 ;;      Totals:         0       0       0       0       0       0
  9787 ;;Total ram usage:        0 bytes
  9788 ;; Hardware stack levels used: 1
  9789 ;; Hardware stack levels required when called: 4
  9790 ;; This function calls:
  9791 ;;		Absolute function
  9792 ;;		_TMR4_DefaultInterruptHandler
  9793 ;;		_comm
  9794 ;; This function is called by:
  9795 ;;		_INTERRUPT_InterruptManager
  9796 ;; This function uses a non-reentrant model
  9797 ;;
  9798                           
  9799                           
  9800                           ;psect for function _TMR4_ISR
  9801  0A34                     _TMR4_ISR:
  9802  0A34                     i1l3441:	
  9803                           ;incstack = 0
  9804                           ; Regs used in _TMR4_ISR: [wreg+fsr1l+fsr1h+status,2+status,0+pclath+cstack]
  9805                           
  9806                           
  9807                           ;mcc_generated_files/tmr4.c: 123:     PIR3bits.TMR4IF = 0;
  9808  0A34  0020               	movlb	0	; select bank0
  9809  0A35  1093               	bcf	19,1	;volatile
  9810  0A36                     i1l3443:
  9811                           
  9812                           ;mcc_generated_files/tmr4.c: 125:     if(TMR4_InterruptHandler)
  9813  0A36  0021               	movlb	1	; select bank1
  9814  0A37  0855               	movf	_TMR4_InterruptHandler^(0+128),w
  9815  0A38  0456               	iorwf	(_TMR4_InterruptHandler+1)^(0+128),w
  9816  0A39  1903               	btfsc	3,2
  9817  0A3A  2A3C               	goto	u256_21
  9818  0A3B  2A3D               	goto	u256_20
  9819  0A3C                     u256_21:
  9820  0A3C  2A42               	goto	i1l613
  9821  0A3D                     u256_20:
  9822  0A3D                     i1l3445:
  9823                           
  9824                           ;mcc_generated_files/tmr4.c: 126:     {;mcc_generated_files/tmr4.c: 127:         TMR4_In
      +                          terruptHandler();
  9825  0A3D  0856               	movf	(_TMR4_InterruptHandler+1)^(0+128),w
  9826  0A3E  008A               	movwf	10
  9827  0A3F  0855               	movf	_TMR4_InterruptHandler^(0+128),w
  9828  0A40  000A               	callw
  9829  0A41  318A               	pagesel	$
  9830  0A42                     i1l613:
  9831  0A42  0008               	return
  9832  0A43                     __end_of_TMR4_ISR:
  9833                           
  9834                           	psect	text44
  9835  0933                     __ptext44:	
  9836 ;; *************** function _TMR4_DefaultInterruptHandler *****************
  9837 ;; Defined at:
  9838 ;;		line 136 in file "mcc_generated_files/tmr4.c"
  9839 ;; Parameters:    Size  Location     Type
  9840 ;;		None
  9841 ;; Auto vars:     Size  Location     Type
  9842 ;;		None
  9843 ;; Return value:  Size  Location     Type
  9844 ;;                  1    wreg      void 
  9845 ;; Registers used:
  9846 ;;		None
  9847 ;; Tracked objects:
  9848 ;;		On entry : 0/0
  9849 ;;		On exit  : 0/0
  9850 ;;		Unchanged: 0/0
  9851 ;; Data sizes:     COMMON   BANK0   BANK1   BANK2   BANK3   BANK4
  9852 ;;      Params:         0       0       0       0       0       0
  9853 ;;      Locals:         0       0       0       0       0       0
  9854 ;;      Temps:          0       0       0       0       0       0
  9855 ;;      Totals:         0       0       0       0       0       0
  9856 ;;Total ram usage:        0 bytes
  9857 ;; Hardware stack levels used: 1
  9858 ;; This function calls:
  9859 ;;		Nothing
  9860 ;; This function is called by:
  9861 ;;		_TMR4_Initialize
  9862 ;;		_TMR4_ISR
  9863 ;; This function uses a non-reentrant model
  9864 ;;
  9865                           
  9866                           
  9867                           ;psect for function _TMR4_DefaultInterruptHandler
  9868  0933                     _TMR4_DefaultInterruptHandler:
  9869  0933                     i1l619:	
  9870                           ;incstack = 0
  9871                           ; Regs used in _TMR4_DefaultInterruptHandler: []
  9872                           
  9873  0933  0008               	return
  9874  0934                     __end_of_TMR4_DefaultInterruptHandler:
  9875                           
  9876                           	psect	text45
  9877  0DDB                     __ptext45:	
  9878 ;; *************** function _comm *****************
  9879 ;; Defined at:
  9880 ;;		line 76 in file "main.c"
  9881 ;; Parameters:    Size  Location     Type
  9882 ;;		None
  9883 ;; Auto vars:     Size  Location     Type
  9884 ;;  i               2   12[COMMON] int 
  9885 ;; Return value:  Size  Location     Type
  9886 ;;                  1    wreg      void 
  9887 ;; Registers used:
  9888 ;;		wreg, fsr1l, fsr1h, status,2, status,0, pclath, cstack
  9889 ;; Tracked objects:
  9890 ;;		On entry : 0/0
  9891 ;;		On exit  : 0/0
  9892 ;;		Unchanged: 0/0
  9893 ;; Data sizes:     COMMON   BANK0   BANK1   BANK2   BANK3   BANK4
  9894 ;;      Params:         0       0       0       0       0       0
  9895 ;;      Locals:         2       0       0       0       0       0
  9896 ;;      Temps:          0       3       0       0       0       0
  9897 ;;      Totals:         2       3       0       0       0       0
  9898 ;;Total ram usage:        5 bytes
  9899 ;; Hardware stack levels used: 1
  9900 ;; Hardware stack levels required when called: 3
  9901 ;; This function calls:
  9902 ;;		_EUSART_Write
  9903 ;;		_leds
  9904 ;;		i1___fltol
  9905 ;; This function is called by:
  9906 ;;		_main
  9907 ;;		_TMR4_ISR
  9908 ;; This function uses a non-reentrant model
  9909 ;;
  9910                           
  9911                           
  9912                           ;psect for function _comm
  9913  0DDB                     _comm:
  9914  0DDB                     i1l3235:	
  9915                           ;incstack = 0
  9916                           ; Regs used in _comm: [wreg+fsr1l+fsr1h+status,2+status,0+pclath+cstack]
  9917                           
  9918                           
  9919                           ;main.c: 78:     txByte[0] = 0xBF & ((uint8_t)motor<<4 | (0b10000000) | (pos_atual & 0x0
      +                          3));
  9920  0DDB  3003               	movlw	3
  9921  0DDC  0020               	movlb	0	; select bank0
  9922  0DDD  0569               	andwf	_pos_atual,w
  9923  0DDE  00A0               	movwf	??_comm
  9924  0DDF  0021               	movlb	1	; select bank1
  9925  0DE0  084F               	movf	_motor^(0+128),w
  9926  0DE1  0020               	movlb	0	; select bank0
  9927  0DE2  00A1               	movwf	??_comm+1
  9928  0DE3  3003               	movlw	3
  9929  0DE4                     u227_25:
  9930  0DE4  35A1               	lslf	??_comm+1,f
  9931  0DE5  3EFF               	addlw	-1
  9932  0DE6  1D03               	skipz
  9933  0DE7  2DE4               	goto	u227_25
  9934  0DE8  3521               	lslf	??_comm+1,w
  9935  0DE9  0420               	iorwf	??_comm,w
  9936  0DEA  3880               	iorlw	128
  9937  0DEB  39BF               	andlw	191
  9938  0DEC  00A2               	movwf	??_comm+2
  9939  0DED  0822               	movf	??_comm+2,w
  9940  0DEE  0021               	movlb	1	; select bank1
  9941  0DEF  00B0               	movwf	_txByte^(0+128)
  9942  0DF0                     i1l3237:
  9943                           
  9944                           ;main.c: 79:     txByte[1] = 0x7F & (((uint8_t)position)>>1);
  9945  0DF0  084A               	movf	(_position+3)^(0+128),w
  9946  0DF1  00F3               	movwf	i1___fltol@f1+3
  9947  0DF2  0849               	movf	(_position+2)^(0+128),w
  9948  0DF3  00F2               	movwf	i1___fltol@f1+2
  9949  0DF4  0848               	movf	(_position+1)^(0+128),w
  9950  0DF5  00F1               	movwf	i1___fltol@f1+1
  9951  0DF6  0847               	movf	_position^(0+128),w
  9952  0DF7  00F0               	movwf	i1___fltol@f1
  9953  0DF8  318F  2717  318D   	fcall	i1___fltol
  9954  0DFB  3670               	lsrf	?i1___fltol,w
  9955  0DFC  397F               	andlw	127
  9956  0DFD  0020               	movlb	0	; select bank0
  9957  0DFE  00A0               	movwf	??_comm
  9958  0DFF  0820               	movf	??_comm,w
  9959  0E00  0021               	movlb	1	; select bank1
  9960  0E01  00B1               	movwf	(_txByte^(0+128)+1)
  9961  0E02                     i1l3239:
  9962                           
  9963                           ;main.c: 80:     txByte[2] = 0x7F & (((uint8_t)speed)<<2);
  9964  0E02  0851               	movf	_speed^(0+128),w
  9965  0E03  0020               	movlb	0	; select bank0
  9966  0E04  00A0               	movwf	??_comm
  9967  0E05  3001               	movlw	1
  9968  0E06                     u228_25:
  9969  0E06  35A0               	lslf	??_comm,f
  9970  0E07  3EFF               	addlw	-1
  9971  0E08  1D03               	skipz
  9972  0E09  2E06               	goto	u228_25
  9973  0E0A  3520               	lslf	??_comm,w
  9974  0E0B  397F               	andlw	127
  9975  0E0C  00A1               	movwf	??_comm+1
  9976  0E0D  0821               	movf	??_comm+1,w
  9977  0E0E  0021               	movlb	1	; select bank1
  9978  0E0F  00B2               	movwf	(_txByte^(0+128)+2)
  9979  0E10                     i1l3241:
  9980                           
  9981                           ;main.c: 81:     txByte[3] = 0x7F & ((temp)<<1);
  9982  0E10  3553               	lslf	_temp^(0+128),w
  9983  0E11  397F               	andlw	127
  9984  0E12  0020               	movlb	0	; select bank0
  9985  0E13  00A0               	movwf	??_comm
  9986  0E14  0820               	movf	??_comm,w
  9987  0E15  0021               	movlb	1	; select bank1
  9988  0E16  00B3               	movwf	(_txByte^(0+128)+3)
  9989  0E17                     i1l3243:
  9990                           
  9991                           ;main.c: 83:     for (int i=0;i<4;i++){
  9992  0E17  01FC               	clrf	comm@i
  9993  0E18  01FD               	clrf	comm@i+1
  9994  0E19                     i1l3249:
  9995                           
  9996                           ;main.c: 84:       EUSART_Write(txByte[i]);
  9997  0E19  087C               	movf	comm@i,w
  9998  0E1A  3EB0               	addlw	(low (_txByte| 0))& (0+255)
  9999  0E1B  0086               	movwf	6
 10000  0E1C  0187               	clrf	7
 10001  0E1D  0801               	movf	1,w
 10002  0E1E  318B  23A0  318D   	fcall	_EUSART_Write
 10003  0E21                     i1l3251:
 10004                           
 10005                           ;main.c: 85:     }
 10006  0E21  3001               	movlw	1
 10007  0E22  07FC               	addwf	comm@i,f
 10008  0E23  3000               	movlw	0
 10009  0E24  3DFD               	addwfc	comm@i+1,f
 10010  0E25                     i1l3253:
 10011  0E25  087D               	movf	comm@i+1,w
 10012  0E26  3A80               	xorlw	128
 10013  0E27  0020               	movlb	0	; select bank0
 10014  0E28  00A0               	movwf	??_comm
 10015  0E29  3080               	movlw	128
 10016  0E2A  0220               	subwf	??_comm,w
 10017  0E2B  1D03               	skipz
 10018  0E2C  2E2F               	goto	u229_25
 10019  0E2D  3004               	movlw	4
 10020  0E2E  027C               	subwf	comm@i,w
 10021  0E2F                     u229_25:
 10022  0E2F  1C03               	skipc
 10023  0E30  2E32               	goto	u229_21
 10024  0E31  2E33               	goto	u229_20
 10025  0E32                     u229_21:
 10026  0E32  2E19               	goto	i1l3249
 10027  0E33                     u229_20:
 10028  0E33                     i1l3255:
 10029                           
 10030                           ;main.c: 86:     leds();
 10031  0E33  318C  2486  318D   	fcall	_leds
 10032  0E36                     i1l786:
 10033  0E36  0008               	return
 10034  0E37                     __end_of_comm:
 10035                           
 10036                           	psect	text46
 10037  0F17                     __ptext46:	
 10038 ;; *************** function i1___fltol *****************
 10039 ;; Defined at:
 10040 ;;		line 43 in file "C:\Program Files\Microchip\xc8\v2.32\pic\sources\c99\common\fltol.c"
 10041 ;; Parameters:    Size  Location     Type
 10042 ;;  f1              4    0[COMMON] void 
 10043 ;; Auto vars:     Size  Location     Type
 10044 ;;  exp1            1   10[COMMON] unsigned char 
 10045 ;;  sign1           1    9[COMMON] unsigned char 
 10046 ;; Return value:  Size  Location     Type
 10047 ;;                  4    0[COMMON] long 
 10048 ;; Registers used:
 10049 ;;		wreg, status,2, status,0
 10050 ;; Tracked objects:
 10051 ;;		On entry : 0/0
 10052 ;;		On exit  : 0/0
 10053 ;;		Unchanged: 0/0
 10054 ;; Data sizes:     COMMON   BANK0   BANK1   BANK2   BANK3   BANK4
 10055 ;;      Params:         4       0       0       0       0       0
 10056 ;;      Locals:         2       0       0       0       0       0
 10057 ;;      Temps:          5       0       0       0       0       0
 10058 ;;      Totals:        11       0       0       0       0       0
 10059 ;;Total ram usage:       11 bytes
 10060 ;; Hardware stack levels used: 1
 10061 ;; This function calls:
 10062 ;;		Nothing
 10063 ;; This function is called by:
 10064 ;;		_comm
 10065 ;; This function uses a non-reentrant model
 10066 ;;
 10067                           
 10068                           
 10069                           ;psect for function i1___fltol
 10070  0F17                     i1___fltol:
 10071  0F17                     i1l3017:	
 10072                           ;incstack = 0
 10073                           ; Regs used in i1___fltol: [wreg+status,2+status,0]
 10074                           
 10075  0F17  1003               	clrc
 10076  0F18  0D72               	rlf	i1___fltol@f1+2,w
 10077  0F19  0D73               	rlf	i1___fltol@f1+3,w
 10078  0F1A  00F4               	movwf	??i1___fltol
 10079  0F1B  0874               	movf	??i1___fltol,w
 10080  0F1C  00FA               	movwf	i1___fltol@exp1
 10081  0F1D  087A               	movf	i1___fltol@exp1,w
 10082  0F1E  1D03               	btfss	3,2
 10083  0F1F  2F21               	goto	u211_21
 10084  0F20  2F22               	goto	u211_20
 10085  0F21                     u211_21:
 10086  0F21  2F2B               	goto	i1l3023
 10087  0F22                     u211_20:
 10088  0F22                     i1l3019:
 10089  0F22  3000               	movlw	0
 10090  0F23  00F3               	movwf	?i1___fltol+3
 10091  0F24  3000               	movlw	0
 10092  0F25  00F2               	movwf	?i1___fltol+2
 10093  0F26  3000               	movlw	0
 10094  0F27  00F1               	movwf	?i1___fltol+1
 10095  0F28  3000               	movlw	0
 10096  0F29  00F0               	movwf	?i1___fltol
 10097  0F2A  2F8A               	goto	i1l1251
 10098  0F2B                     i1l3023:
 10099  0F2B  0870               	movf	i1___fltol@f1,w
 10100  0F2C  00F4               	movwf	??i1___fltol
 10101  0F2D  0871               	movf	i1___fltol@f1+1,w
 10102  0F2E  00F5               	movwf	??i1___fltol+1
 10103  0F2F  0872               	movf	i1___fltol@f1+2,w
 10104  0F30  00F6               	movwf	??i1___fltol+2
 10105  0F31  0873               	movf	i1___fltol@f1+3,w
 10106  0F32  00F7               	movwf	??i1___fltol+3
 10107  0F33  301F               	movlw	31
 10108  0F34                     u212_25:
 10109  0F34  36F7               	lsrf	??i1___fltol+3,f
 10110  0F35  0CF6               	rrf	??i1___fltol+2,f
 10111  0F36  0CF5               	rrf	??i1___fltol+1,f
 10112  0F37  0CF4               	rrf	??i1___fltol,f
 10113  0F38                     u212_20:
 10114  0F38  0B89               	decfsz	9,f
 10115  0F39  2F34               	goto	u212_25
 10116  0F3A  0874               	movf	??i1___fltol,w
 10117  0F3B  00F8               	movwf	??i1___fltol+4
 10118  0F3C  0878               	movf	??i1___fltol+4,w
 10119  0F3D  00F9               	movwf	i1___fltol@sign1
 10120  0F3E                     i1l3025:
 10121  0F3E  17F2               	bsf	i1___fltol@f1+2,7
 10122  0F3F                     i1l3027:
 10123  0F3F  30FF               	movlw	255
 10124  0F40  05F0               	andwf	i1___fltol@f1,f
 10125  0F41  30FF               	movlw	255
 10126  0F42  05F1               	andwf	i1___fltol@f1+1,f
 10127  0F43  30FF               	movlw	255
 10128  0F44  05F2               	andwf	i1___fltol@f1+2,f
 10129  0F45  3000               	movlw	0
 10130  0F46  05F3               	andwf	i1___fltol@f1+3,f
 10131  0F47                     i1l3029:
 10132  0F47  3096               	movlw	150
 10133  0F48  02FA               	subwf	i1___fltol@exp1,f
 10134  0F49                     i1l3031:
 10135  0F49  1FFA               	btfss	i1___fltol@exp1,7
 10136  0F4A  2F4C               	goto	u213_21
 10137  0F4B  2F4D               	goto	u213_20
 10138  0F4C                     u213_21:
 10139  0F4C  2F65               	goto	i1l3041
 10140  0F4D                     u213_20:
 10141  0F4D                     i1l3033:
 10142  0F4D  087A               	movf	i1___fltol@exp1,w
 10143  0F4E  3A80               	xorlw	128
 10144  0F4F  3E97               	addlw	151
 10145  0F50  1803               	skipnc
 10146  0F51  2F53               	goto	u214_21
 10147  0F52  2F54               	goto	u214_20
 10148  0F53                     u214_21:
 10149  0F53  2F55               	goto	i1l3039
 10150  0F54                     u214_20:
 10151  0F54  2F22               	goto	i1l3019
 10152  0F55                     i1l3039:
 10153  0F55  3001               	movlw	1
 10154  0F56                     u215_25:
 10155  0F56  36F3               	lsrf	i1___fltol@f1+3,f
 10156  0F57  0CF2               	rrf	i1___fltol@f1+2,f
 10157  0F58  0CF1               	rrf	i1___fltol@f1+1,f
 10158  0F59  0CF0               	rrf	i1___fltol@f1,f
 10159  0F5A  0B89               	decfsz	9,f
 10160  0F5B  2F56               	goto	u215_25
 10161  0F5C  3001               	movlw	1
 10162  0F5D  00F4               	movwf	??i1___fltol
 10163  0F5E  0874               	movf	??i1___fltol,w
 10164  0F5F  07FA               	addwf	i1___fltol@exp1,f
 10165  0F60  1D03               	btfss	3,2
 10166  0F61  2F63               	goto	u216_21
 10167  0F62  2F64               	goto	u216_20
 10168  0F63                     u216_21:
 10169  0F63  2F55               	goto	i1l3039
 10170  0F64                     u216_20:
 10171  0F64  2F7A               	goto	i1l3049
 10172  0F65                     i1l3041:
 10173  0F65  3020               	movlw	32
 10174  0F66  027A               	subwf	i1___fltol@exp1,w
 10175  0F67  1C03               	skipc
 10176  0F68  2F6A               	goto	u217_21
 10177  0F69  2F6B               	goto	u217_20
 10178  0F6A                     u217_21:
 10179  0F6A  2F75               	goto	i1l1258
 10180  0F6B                     u217_20:
 10181  0F6B  2F22               	goto	i1l3019
 10182  0F6C                     i1l3047:
 10183  0F6C  3001               	movlw	1
 10184  0F6D                     u218_25:
 10185  0F6D  35F0               	lslf	i1___fltol@f1,f
 10186  0F6E  0DF1               	rlf	i1___fltol@f1+1,f
 10187  0F6F  0DF2               	rlf	i1___fltol@f1+2,f
 10188  0F70  0DF3               	rlf	i1___fltol@f1+3,f
 10189  0F71  0B89               	decfsz	9,f
 10190  0F72  2F6D               	goto	u218_25
 10191  0F73  3001               	movlw	1
 10192  0F74  02FA               	subwf	i1___fltol@exp1,f
 10193  0F75                     i1l1258:
 10194  0F75  087A               	movf	i1___fltol@exp1,w
 10195  0F76  1D03               	btfss	3,2
 10196  0F77  2F79               	goto	u219_21
 10197  0F78  2F7A               	goto	u219_20
 10198  0F79                     u219_21:
 10199  0F79  2F6C               	goto	i1l3047
 10200  0F7A                     u219_20:
 10201  0F7A                     i1l3049:
 10202  0F7A  0879               	movf	i1___fltol@sign1,w
 10203  0F7B  1903               	btfsc	3,2
 10204  0F7C  2F7E               	goto	u220_21
 10205  0F7D  2F7F               	goto	u220_20
 10206  0F7E                     u220_21:
 10207  0F7E  2F8A               	goto	i1l1261
 10208  0F7F                     u220_20:
 10209  0F7F                     i1l3051:
 10210  0F7F  09F0               	comf	i1___fltol@f1,f
 10211  0F80  09F1               	comf	i1___fltol@f1+1,f
 10212  0F81  09F2               	comf	i1___fltol@f1+2,f
 10213  0F82  09F3               	comf	i1___fltol@f1+3,f
 10214  0F83  0AF0               	incf	i1___fltol@f1,f
 10215  0F84  1903               	skipnz
 10216  0F85  0AF1               	incf	i1___fltol@f1+1,f
 10217  0F86  1903               	skipnz
 10218  0F87  0AF2               	incf	i1___fltol@f1+2,f
 10219  0F88  1903               	skipnz
 10220  0F89  0AF3               	incf	i1___fltol@f1+3,f
 10221  0F8A                     i1l1261:
 10222  0F8A                     i1l1251:
 10223  0F8A  0008               	return
 10224  0F8B                     __end_ofi1___fltol:
 10225                           
 10226                           	psect	text47
 10227  0C86                     __ptext47:	
 10228 ;; *************** function _leds *****************
 10229 ;; Defined at:
 10230 ;;		line 67 in file "main.c"
 10231 ;; Parameters:    Size  Location     Type
 10232 ;;		None
 10233 ;; Auto vars:     Size  Location     Type
 10234 ;;  i               2   10[COMMON] int 
 10235 ;; Return value:  Size  Location     Type
 10236 ;;                  1    wreg      void 
 10237 ;; Registers used:
 10238 ;;		wreg, fsr1l, fsr1h, status,2, status,0, pclath, cstack
 10239 ;; Tracked objects:
 10240 ;;		On entry : 0/0
 10241 ;;		On exit  : 0/0
 10242 ;;		Unchanged: 0/0
 10243 ;; Data sizes:     COMMON   BANK0   BANK1   BANK2   BANK3   BANK4
 10244 ;;      Params:         0       0       0       0       0       0
 10245 ;;      Locals:         2       0       0       0       0       0
 10246 ;;      Temps:          5       0       0       0       0       0
 10247 ;;      Totals:         7       0       0       0       0       0
 10248 ;;Total ram usage:        7 bytes
 10249 ;; Hardware stack levels used: 1
 10250 ;; Hardware stack levels required when called: 2
 10251 ;; This function calls:
 10252 ;;		i1_txMAX7219
 10253 ;; This function is called by:
 10254 ;;		_comm
 10255 ;; This function uses a non-reentrant model
 10256 ;;
 10257                           
 10258                           
 10259                           ;psect for function _leds
 10260  0C86                     _leds:
 10261  0C86                     i1l2995:	
 10262                           ;incstack = 0
 10263                           ; Regs used in _leds: [wreg+fsr1l+fsr1h+status,2+status,0+pclath+cstack]
 10264                           
 10265                           
 10266                           ;main.c: 68:     for (int i =1;i<8;i++)
 10267  0C86  3001               	movlw	1
 10268  0C87  00FA               	movwf	leds@i
 10269  0C88  3000               	movlw	0
 10270  0C89  00FB               	movwf	leds@i+1
 10271  0C8A                     i1l2999:
 10272                           
 10273                           ;main.c: 69:     {;main.c: 70:         txMAX7219(i, LED[8-i],i, LED[8-i]);
 10274  0C8A  3038               	movlw	(low ((_LED| (0+256)+8)))& (0+255)
 10275  0C8B  00F5               	movwf	??_leds
 10276  0C8C  087A               	movf	leds@i,w
 10277  0C8D  02F5               	subwf	??_leds,f
 10278  0C8E  0875               	movf	??_leds,w
 10279  0C8F  0086               	movwf	6
 10280  0C90  3001               	movlw	1	; select bank2/3
 10281  0C91  0087               	movwf	7
 10282  0C92  0801               	movf	1,w
 10283  0C93  00F6               	movwf	??_leds+1
 10284  0C94  0876               	movf	??_leds+1,w
 10285  0C95  00F1               	movwf	i1txMAX7219@dat0
 10286  0C96  087A               	movf	leds@i,w
 10287  0C97  00F7               	movwf	??_leds+2
 10288  0C98  0877               	movf	??_leds+2,w
 10289  0C99  00F2               	movwf	i1txMAX7219@addr1
 10290  0C9A  3038               	movlw	(low ((_LED| (0+256)+8)))& (0+255)
 10291  0C9B  00F8               	movwf	??_leds+3
 10292  0C9C  087A               	movf	leds@i,w
 10293  0C9D  02F8               	subwf	??_leds+3,f
 10294  0C9E  0878               	movf	??_leds+3,w
 10295  0C9F  0086               	movwf	6
 10296  0CA0  3001               	movlw	1	; select bank2/3
 10297  0CA1  0087               	movwf	7
 10298  0CA2  0801               	movf	1,w
 10299  0CA3  00F9               	movwf	??_leds+4
 10300  0CA4  0879               	movf	??_leds+4,w
 10301  0CA5  00F3               	movwf	i1txMAX7219@dat1
 10302  0CA6  087A               	movf	leds@i,w
 10303  0CA7  318B  23C8  318C   	fcall	i1_txMAX7219
 10304  0CAA                     i1l3001:
 10305                           
 10306                           ;main.c: 72:     }
 10307  0CAA  3001               	movlw	1
 10308  0CAB  07FA               	addwf	leds@i,f
 10309  0CAC  3000               	movlw	0
 10310  0CAD  3DFB               	addwfc	leds@i+1,f
 10311  0CAE                     i1l3003:
 10312  0CAE  087B               	movf	leds@i+1,w
 10313  0CAF  3A80               	xorlw	128
 10314  0CB0  00F5               	movwf	??_leds
 10315  0CB1  3080               	movlw	128
 10316  0CB2  0275               	subwf	??_leds,w
 10317  0CB3  1D03               	skipz
 10318  0CB4  2CB7               	goto	u210_25
 10319  0CB5  3008               	movlw	8
 10320  0CB6  027A               	subwf	leds@i,w
 10321  0CB7                     u210_25:
 10322  0CB7  1C03               	skipc
 10323  0CB8  2CBA               	goto	u210_21
 10324  0CB9  2CBB               	goto	u210_20
 10325  0CBA                     u210_21:
 10326  0CBA  2C8A               	goto	i1l2999
 10327  0CBB                     u210_20:
 10328  0CBB                     i1l781:
 10329  0CBB  0008               	return
 10330  0CBC                     __end_of_leds:
 10331                           
 10332                           	psect	text48
 10333  0BC8                     __ptext48:	
 10334 ;; *************** function i1_txMAX7219 *****************
 10335 ;; Defined at:
 10336 ;;		line 56 in file "ledMatrix.c"
 10337 ;; Parameters:    Size  Location     Type
 10338 ;;  addr0           1    wreg     unsigned char 
 10339 ;;  dat0            1    1[COMMON] unsigned char 
 10340 ;;  addr1           1    2[COMMON] unsigned char 
 10341 ;;  dat1            1    3[COMMON] unsigned char 
 10342 ;; Auto vars:     Size  Location     Type
 10343 ;;  addr0           1    4[COMMON] unsigned char 
 10344 ;; Return value:  Size  Location     Type
 10345 ;;                  1    wreg      void 
 10346 ;; Registers used:
 10347 ;;		wreg, status,2, status,0, pclath, cstack
 10348 ;; Tracked objects:
 10349 ;;		On entry : 0/0
 10350 ;;		On exit  : 0/0
 10351 ;;		Unchanged: 0/0
 10352 ;; Data sizes:     COMMON   BANK0   BANK1   BANK2   BANK3   BANK4
 10353 ;;      Params:         3       0       0       0       0       0
 10354 ;;      Locals:         1       0       0       0       0       0
 10355 ;;      Temps:          0       0       0       0       0       0
 10356 ;;      Totals:         4       0       0       0       0       0
 10357 ;;Total ram usage:        4 bytes
 10358 ;; Hardware stack levels used: 1
 10359 ;; Hardware stack levels required when called: 1
 10360 ;; This function calls:
 10361 ;;		i1_SPI1_WriteByte
 10362 ;; This function is called by:
 10363 ;;		_leds
 10364 ;; This function uses a non-reentrant model
 10365 ;;
 10366                           
 10367                           
 10368                           ;psect for function i1_txMAX7219
 10369  0BC8                     i1_txMAX7219:
 10370                           
 10371                           ;incstack = 0
 10372                           ; Regs used in i1_txMAX7219: [wreg+status,2+status,0+pclath+cstack]
 10373                           ;i1txMAX7219@addr0 stored from wreg
 10374  0BC8  00F4               	movwf	i1txMAX7219@addr0
 10375  0BC9                     i1l878:	
 10376                           ;ledMatrix.c: 58:     do { LATBbits.LATB1 = 0; } while(0);
 10377                           
 10378  0BC9  0022               	movlb	2	; select bank2
 10379  0BCA  108D               	bcf	13,1	;volatile
 10380  0BCB                     i1l2921:
 10381                           
 10382                           ;ledMatrix.c: 59:     SPI1_WriteByte(addr0);
 10383  0BCB  0874               	movf	i1txMAX7219@addr0,w
 10384  0BCC  3189  2144  318B   	fcall	i1_SPI1_WriteByte
 10385  0BCF                     i1l880:	
 10386                           ;ledMatrix.c: 60:     while(!PIR1bits.SSP1IF);
 10387                           
 10388  0BCF  0020               	movlb	0	; select bank0
 10389  0BD0  1D91               	btfss	17,3	;volatile
 10390  0BD1  2BD3               	goto	u200_21
 10391  0BD2  2BD4               	goto	u200_20
 10392  0BD3                     u200_21:
 10393  0BD3  2BCF               	goto	i1l880
 10394  0BD4                     u200_20:
 10395  0BD4                     i1l882:
 10396                           
 10397                           ;ledMatrix.c: 61:     PIR1bits.SSP1IF = 0;
 10398  0BD4  1191               	bcf	17,3	;volatile
 10399  0BD5                     i1l2923:
 10400                           
 10401                           ;ledMatrix.c: 62:     SPI1_WriteByte(dat0);
 10402  0BD5  0871               	movf	i1txMAX7219@dat0,w
 10403  0BD6  3189  2144  318B   	fcall	i1_SPI1_WriteByte
 10404  0BD9                     i1l883:	
 10405                           ;ledMatrix.c: 63:     while(!PIR1bits.SSP1IF);
 10406                           
 10407  0BD9  0020               	movlb	0	; select bank0
 10408  0BDA  1D91               	btfss	17,3	;volatile
 10409  0BDB  2BDD               	goto	u201_21
 10410  0BDC  2BDE               	goto	u201_20
 10411  0BDD                     u201_21:
 10412  0BDD  2BD9               	goto	i1l883
 10413  0BDE                     u201_20:
 10414  0BDE                     i1l885:
 10415                           
 10416                           ;ledMatrix.c: 64:     PIR1bits.SSP1IF = 0;
 10417  0BDE  1191               	bcf	17,3	;volatile
 10418  0BDF                     i1l2925:
 10419                           
 10420                           ;ledMatrix.c: 65:     SPI1_WriteByte(addr1);
 10421  0BDF  0872               	movf	i1txMAX7219@addr1,w
 10422  0BE0  3189  2144  318B   	fcall	i1_SPI1_WriteByte
 10423  0BE3                     i1l886:	
 10424                           ;ledMatrix.c: 66:     while(!PIR1bits.SSP1IF);
 10425                           
 10426  0BE3  0020               	movlb	0	; select bank0
 10427  0BE4  1D91               	btfss	17,3	;volatile
 10428  0BE5  2BE7               	goto	u202_21
 10429  0BE6  2BE8               	goto	u202_20
 10430  0BE7                     u202_21:
 10431  0BE7  2BE3               	goto	i1l886
 10432  0BE8                     u202_20:
 10433  0BE8                     i1l888:
 10434                           
 10435                           ;ledMatrix.c: 67:     PIR1bits.SSP1IF = 0;
 10436  0BE8  1191               	bcf	17,3	;volatile
 10437  0BE9                     i1l2927:
 10438                           
 10439                           ;ledMatrix.c: 68:     SPI1_WriteByte(dat1);
 10440  0BE9  0873               	movf	i1txMAX7219@dat1,w
 10441  0BEA  3189  2144  318B   	fcall	i1_SPI1_WriteByte
 10442  0BED                     i1l889:	
 10443                           ;ledMatrix.c: 69:     while(!PIR1bits.SSP1IF);
 10444                           
 10445  0BED  0020               	movlb	0	; select bank0
 10446  0BEE  1D91               	btfss	17,3	;volatile
 10447  0BEF  2BF1               	goto	u203_21
 10448  0BF0  2BF2               	goto	u203_20
 10449  0BF1                     u203_21:
 10450  0BF1  2BED               	goto	i1l889
 10451  0BF2                     u203_20:
 10452  0BF2                     i1l891:
 10453                           
 10454                           ;ledMatrix.c: 70:     PIR1bits.SSP1IF = 0;
 10455  0BF2  1191               	bcf	17,3	;volatile
 10456  0BF3                     i1l892:	
 10457                           ;ledMatrix.c: 71:     do { LATBbits.LATB1 = 1; } while(0);
 10458                           
 10459  0BF3  0022               	movlb	2	; select bank2
 10460  0BF4  148D               	bsf	13,1	;volatile
 10461  0BF5                     i1l894:
 10462  0BF5  0008               	return
 10463  0BF6                     __end_ofi1_txMAX7219:
 10464                           
 10465                           	psect	text49
 10466  0944                     __ptext49:	
 10467 ;; *************** function i1_SPI1_WriteByte *****************
 10468 ;; Defined at:
 10469 ;;		line 131 in file "mcc_generated_files/spi1.c"
 10470 ;; Parameters:    Size  Location     Type
 10471 ;;  byte            1    wreg     unsigned char 
 10472 ;; Auto vars:     Size  Location     Type
 10473 ;;  byte            1    0[COMMON] unsigned char 
 10474 ;; Return value:  Size  Location     Type
 10475 ;;                  1    wreg      void 
 10476 ;; Registers used:
 10477 ;;		wreg
 10478 ;; Tracked objects:
 10479 ;;		On entry : 0/0
 10480 ;;		On exit  : 0/0
 10481 ;;		Unchanged: 0/0
 10482 ;; Data sizes:     COMMON   BANK0   BANK1   BANK2   BANK3   BANK4
 10483 ;;      Params:         0       0       0       0       0       0
 10484 ;;      Locals:         1       0       0       0       0       0
 10485 ;;      Temps:          0       0       0       0       0       0
 10486 ;;      Totals:         1       0       0       0       0       0
 10487 ;;Total ram usage:        1 bytes
 10488 ;; Hardware stack levels used: 1
 10489 ;; This function calls:
 10490 ;;		Nothing
 10491 ;; This function is called by:
 10492 ;;		i1_txMAX7219
 10493 ;; This function uses a non-reentrant model
 10494 ;;
 10495                           
 10496                           
 10497                           ;psect for function i1_SPI1_WriteByte
 10498  0944                     i1_SPI1_WriteByte:
 10499                           
 10500                           ;incstack = 0
 10501                           ; Regs used in i1_SPI1_WriteByte: [wreg]
 10502                           ;i1SPI1_WriteByte@byte stored from wreg
 10503  0944  00F0               	movwf	i1SPI1_WriteByte@byte
 10504  0945                     i1l2885:
 10505                           
 10506                           ;mcc_generated_files/spi1.c: 131: void SPI1_WriteByte(uint8_t byte);mcc_generated_files/
      +                          spi1.c: 132: {;mcc_generated_files/spi1.c: 133:     SSP1BUF = byte;
 10507  0945  0870               	movf	i1SPI1_WriteByte@byte,w
 10508  0946  0024               	movlb	4	; select bank4
 10509  0947  0091               	movwf	17	;volatile
 10510  0948                     i1l229:
 10511  0948  0008               	return
 10512  0949                     __end_ofi1_SPI1_WriteByte:
 10513                           
 10514                           	psect	text50
 10515  0BA0                     __ptext50:	
 10516 ;; *************** function _EUSART_Write *****************
 10517 ;; Defined at:
 10518 ;;		line 173 in file "mcc_generated_files/eusart.c"
 10519 ;; Parameters:    Size  Location     Type
 10520 ;;  txData          1    wreg     unsigned char 
 10521 ;; Auto vars:     Size  Location     Type
 10522 ;;  txData          1    1[COMMON] unsigned char 
 10523 ;; Return value:  Size  Location     Type
 10524 ;;                  1    wreg      void 
 10525 ;; Registers used:
 10526 ;;		wreg, fsr1l, fsr1h, status,2, status,0
 10527 ;; Tracked objects:
 10528 ;;		On entry : 0/0
 10529 ;;		On exit  : 0/0
 10530 ;;		Unchanged: 0/0
 10531 ;; Data sizes:     COMMON   BANK0   BANK1   BANK2   BANK3   BANK4
 10532 ;;      Params:         0       0       0       0       0       0
 10533 ;;      Locals:         1       0       0       0       0       0
 10534 ;;      Temps:          1       0       0       0       0       0
 10535 ;;      Totals:         2       0       0       0       0       0
 10536 ;;Total ram usage:        2 bytes
 10537 ;; Hardware stack levels used: 1
 10538 ;; This function calls:
 10539 ;;		Nothing
 10540 ;; This function is called by:
 10541 ;;		_comm
 10542 ;; This function uses a non-reentrant model
 10543 ;;
 10544                           
 10545                           
 10546                           ;psect for function _EUSART_Write
 10547  0BA0                     _EUSART_Write:
 10548                           
 10549                           ;incstack = 0
 10550                           ; Regs used in _EUSART_Write: [wreg+fsr1l+fsr1h+status,2+status,0]
 10551                           ;EUSART_Write@txData stored from wreg
 10552  0BA0  00F1               	movwf	EUSART_Write@txData
 10553  0BA1                     i1l2945:
 10554  0BA1                     i1l2947:	
 10555                           ;mcc_generated_files/eusart.c: 173: void EUSART_Write(uint8_t txData);mcc_generated_file
      +                          s/eusart.c: 174: {;mcc_generated_files/eusart.c: 175:     while(0 == eusartTxBufferRemai
      +                          ning)
 10556                           
 10557                           
 10558                           ;mcc_generated_files/eusart.c: 175:     while(0 == eusartTxBufferRemaining)
 10559  0BA1  0021               	movlb	1	; select bank1
 10560  0BA2  0861               	movf	_eusartTxBufferRemaining^(0+128),w	;volatile
 10561  0BA3  1903               	btfsc	3,2
 10562  0BA4  2BA6               	goto	u204_21
 10563  0BA5  2BA7               	goto	u204_20
 10564  0BA6                     u204_21:
 10565  0BA6  2BA1               	goto	i1l2947
 10566  0BA7                     u204_20:
 10567  0BA7                     i1l331:
 10568                           
 10569                           ;mcc_generated_files/eusart.c: 179:     if(0 == PIE1bits.TXIE)
 10570  0BA7  1A11               	btfsc	17,4	;volatile
 10571  0BA8  2BAA               	goto	u205_21
 10572  0BA9  2BAB               	goto	u205_20
 10573  0BAA                     u205_21:
 10574  0BAA  2BAF               	goto	i1l332
 10575  0BAB                     u205_20:
 10576  0BAB                     i1l2949:
 10577                           
 10578                           ;mcc_generated_files/eusart.c: 180:     {;mcc_generated_files/eusart.c: 181:         TXR
      +                          EG = txData;
 10579  0BAB  0871               	movf	EUSART_Write@txData,w
 10580  0BAC  0023               	movlb	3	; select bank3
 10581  0BAD  009A               	movwf	26	;volatile
 10582                           
 10583                           ;mcc_generated_files/eusart.c: 182:     }
 10584  0BAE  2BC5               	goto	i1l2961
 10585  0BAF                     i1l332:	
 10586                           ;mcc_generated_files/eusart.c: 183:     else
 10587                           
 10588                           
 10589                           ;mcc_generated_files/eusart.c: 184:     {;mcc_generated_files/eusart.c: 185:         PIE
      +                          1bits.TXIE = 0;
 10590  0BAF  1211               	bcf	17,4	;volatile
 10591  0BB0                     i1l2951:
 10592                           
 10593                           ;mcc_generated_files/eusart.c: 186:         eusartTxBuffer[eusartTxHead++] = txData;
 10594  0BB0  0871               	movf	EUSART_Write@txData,w
 10595  0BB1  00F0               	movwf	??_EUSART_Write
 10596  0BB2  0846               	movf	_eusartTxHead^(0+128),w
 10597  0BB3  3EA8               	addlw	(low (_eusartTxBuffer| 0))& (0+255)
 10598  0BB4  0086               	movwf	6
 10599  0BB5  0187               	clrf	7
 10600  0BB6  0870               	movf	??_EUSART_Write,w
 10601  0BB7  0081               	movwf	1
 10602  0BB8                     i1l2953:
 10603  0BB8  3001               	movlw	1
 10604  0BB9  00F0               	movwf	??_EUSART_Write
 10605  0BBA  0870               	movf	??_EUSART_Write,w
 10606  0BBB  07C6               	addwf	_eusartTxHead^(0+128),f	;volatile
 10607  0BBC                     i1l2955:
 10608                           
 10609                           ;mcc_generated_files/eusart.c: 187:         if(sizeof(eusartTxBuffer) <= eusartTxHead)
 10610  0BBC  3008               	movlw	8
 10611  0BBD  0246               	subwf	_eusartTxHead^(0+128),w	;volatile
 10612  0BBE  1C03               	skipc
 10613  0BBF  2BC1               	goto	u206_21
 10614  0BC0  2BC2               	goto	u206_20
 10615  0BC1                     u206_21:
 10616  0BC1  2BC3               	goto	i1l2959
 10617  0BC2                     u206_20:
 10618  0BC2                     i1l2957:
 10619                           
 10620                           ;mcc_generated_files/eusart.c: 188:         {;mcc_generated_files/eusart.c: 189:        
      +                               eusartTxHead = 0;
 10621  0BC2  01C6               	clrf	_eusartTxHead^(0+128)	;volatile
 10622  0BC3                     i1l2959:
 10623                           
 10624                           ;mcc_generated_files/eusart.c: 191:         eusartTxBufferRemaining--;
 10625  0BC3  3001               	movlw	1
 10626  0BC4  02E1               	subwf	_eusartTxBufferRemaining^(0+128),f	;volatile
 10627  0BC5                     i1l2961:
 10628                           
 10629                           ;mcc_generated_files/eusart.c: 193:     PIE1bits.TXIE = 1;
 10630  0BC5  0021               	movlb	1	; select bank1
 10631  0BC6  1611               	bsf	17,4	;volatile
 10632  0BC7                     i1l335:
 10633  0BC7  0008               	return
 10634  0BC8                     __end_of_EUSART_Write:
 10635                           
 10636                           	psect	text51
 10637  0AEF                     __ptext51:	
 10638 ;; *************** function _TMR1_ISR *****************
 10639 ;; Defined at:
 10640 ;;		line 157 in file "mcc_generated_files/tmr1.c"
 10641 ;; Parameters:    Size  Location     Type
 10642 ;;		None
 10643 ;; Auto vars:     Size  Location     Type
 10644 ;;		None
 10645 ;; Return value:  Size  Location     Type
 10646 ;;                  1    wreg      void 
 10647 ;; Registers used:
 10648 ;;		wreg, status,2, status,0, pclath, cstack
 10649 ;; Tracked objects:
 10650 ;;		On entry : 0/0
 10651 ;;		On exit  : 0/0
 10652 ;;		Unchanged: 0/0
 10653 ;; Data sizes:     COMMON   BANK0   BANK1   BANK2   BANK3   BANK4
 10654 ;;      Params:         0       0       0       0       0       0
 10655 ;;      Locals:         0       0       0       0       0       0
 10656 ;;      Temps:          0       0       0       0       0       0
 10657 ;;      Totals:         0       0       0       0       0       0
 10658 ;;Total ram usage:        0 bytes
 10659 ;; Hardware stack levels used: 1
 10660 ;; Hardware stack levels required when called: 1
 10661 ;; This function calls:
 10662 ;;		Absolute function
 10663 ;;		_TMR1_DefaultInterruptHandler
 10664 ;;		_TMR1_WriteTimer
 10665 ;; This function is called by:
 10666 ;;		_INTERRUPT_InterruptManager
 10667 ;; This function uses a non-reentrant model
 10668 ;;
 10669                           
 10670                           
 10671                           ;psect for function _TMR1_ISR
 10672  0AEF                     _TMR1_ISR:
 10673  0AEF                     i1l3407:	
 10674                           ;incstack = 0
 10675                           ; Regs used in _TMR1_ISR: [wreg+status,2+status,0+pclath+cstack]
 10676                           
 10677                           
 10678                           ;mcc_generated_files/tmr1.c: 161:     PIR1bits.TMR1IF = 0;
 10679  0AEF  0020               	movlb	0	; select bank0
 10680  0AF0  1011               	bcf	17,0	;volatile
 10681  0AF1                     i1l3409:
 10682                           
 10683                           ;mcc_generated_files/tmr1.c: 162:     TMR1_WriteTimer(timer1ReloadVal);
 10684  0AF1  0021               	movlb	1	; select bank1
 10685  0AF2  085A               	movf	(_timer1ReloadVal+1)^(0+128),w	;volatile
 10686  0AF3  00F1               	movwf	TMR1_WriteTimer@timerVal+1
 10687  0AF4  0859               	movf	_timer1ReloadVal^(0+128),w	;volatile
 10688  0AF5  00F0               	movwf	TMR1_WriteTimer@timerVal
 10689  0AF6  318A  2252  318A   	fcall	_TMR1_WriteTimer
 10690  0AF9                     i1l3411:
 10691                           
 10692                           ;mcc_generated_files/tmr1.c: 164:     if(TMR1_InterruptHandler)
 10693  0AF9  0021               	movlb	1	; select bank1
 10694  0AFA  0857               	movf	_TMR1_InterruptHandler^(0+128),w
 10695  0AFB  0458               	iorwf	(_TMR1_InterruptHandler+1)^(0+128),w
 10696  0AFC  1903               	btfsc	3,2
 10697  0AFD  2AFF               	goto	u254_21
 10698  0AFE  2B00               	goto	u254_20
 10699  0AFF                     u254_21:
 10700  0AFF  2B05               	goto	i1l430
 10701  0B00                     u254_20:
 10702  0B00                     i1l3413:
 10703                           
 10704                           ;mcc_generated_files/tmr1.c: 165:     {;mcc_generated_files/tmr1.c: 166:         TMR1_In
      +                          terruptHandler();
 10705  0B00  0858               	movf	(_TMR1_InterruptHandler+1)^(0+128),w
 10706  0B01  008A               	movwf	10
 10707  0B02  0857               	movf	_TMR1_InterruptHandler^(0+128),w
 10708  0B03  000A               	callw
 10709  0B04  318A               	pagesel	$
 10710  0B05                     i1l430:
 10711  0B05  0008               	return
 10712  0B06                     __end_of_TMR1_ISR:
 10713                           
 10714                           	psect	text52
 10715  0932                     __ptext52:	
 10716 ;; *************** function _TMR1_DefaultInterruptHandler *****************
 10717 ;; Defined at:
 10718 ;;		line 175 in file "mcc_generated_files/tmr1.c"
 10719 ;; Parameters:    Size  Location     Type
 10720 ;;		None
 10721 ;; Auto vars:     Size  Location     Type
 10722 ;;		None
 10723 ;; Return value:  Size  Location     Type
 10724 ;;                  1    wreg      void 
 10725 ;; Registers used:
 10726 ;;		None
 10727 ;; Tracked objects:
 10728 ;;		On entry : 0/0
 10729 ;;		On exit  : 0/0
 10730 ;;		Unchanged: 0/0
 10731 ;; Data sizes:     COMMON   BANK0   BANK1   BANK2   BANK3   BANK4
 10732 ;;      Params:         0       0       0       0       0       0
 10733 ;;      Locals:         0       0       0       0       0       0
 10734 ;;      Temps:          0       0       0       0       0       0
 10735 ;;      Totals:         0       0       0       0       0       0
 10736 ;;Total ram usage:        0 bytes
 10737 ;; Hardware stack levels used: 1
 10738 ;; This function calls:
 10739 ;;		Nothing
 10740 ;; This function is called by:
 10741 ;;		_TMR1_Initialize
 10742 ;;		_TMR1_ISR
 10743 ;; This function uses a non-reentrant model
 10744 ;;
 10745                           
 10746                           
 10747                           ;psect for function _TMR1_DefaultInterruptHandler
 10748  0932                     _TMR1_DefaultInterruptHandler:
 10749  0932                     i1l436:	
 10750                           ;incstack = 0
 10751                           ; Regs used in _TMR1_DefaultInterruptHandler: []
 10752                           
 10753  0932  0008               	return
 10754  0933                     __end_of_TMR1_DefaultInterruptHandler:
 10755                           
 10756                           	psect	text53
 10757  0A63                     __ptext53:	
 10758 ;; *************** function _PIN_MANAGER_IOC *****************
 10759 ;; Defined at:
 10760 ;;		line 119 in file "mcc_generated_files/pin_manager.c"
 10761 ;; Parameters:    Size  Location     Type
 10762 ;;		None
 10763 ;; Auto vars:     Size  Location     Type
 10764 ;;		None
 10765 ;; Return value:  Size  Location     Type
 10766 ;;                  1    wreg      void 
 10767 ;; Registers used:
 10768 ;;		wreg, status,2, status,0, pclath, cstack
 10769 ;; Tracked objects:
 10770 ;;		On entry : 0/0
 10771 ;;		On exit  : 0/0
 10772 ;;		Unchanged: 0/0
 10773 ;; Data sizes:     COMMON   BANK0   BANK1   BANK2   BANK3   BANK4
 10774 ;;      Params:         0       0       0       0       0       0
 10775 ;;      Locals:         0       0       0       0       0       0
 10776 ;;      Temps:          0       0       0       0       0       0
 10777 ;;      Totals:         0       0       0       0       0       0
 10778 ;;Total ram usage:        0 bytes
 10779 ;; Hardware stack levels used: 1
 10780 ;; Hardware stack levels required when called: 4
 10781 ;; This function calls:
 10782 ;;		_IOCBF0_ISR
 10783 ;;		_IOCBF3_ISR
 10784 ;; This function is called by:
 10785 ;;		_INTERRUPT_InterruptManager
 10786 ;; This function uses a non-reentrant model
 10787 ;;
 10788                           
 10789                           
 10790                           ;psect for function _PIN_MANAGER_IOC
 10791  0A63                     _PIN_MANAGER_IOC:
 10792  0A63                     i1l3339:	
 10793                           ;incstack = 0
 10794                           ; Regs used in _PIN_MANAGER_IOC: [wreg+status,2+status,0+pclath+cstack]
 10795                           
 10796                           
 10797                           ;mcc_generated_files/pin_manager.c: 122:     if(IOCBFbits.IOCBF0 == 1)
 10798  0A63  0027               	movlb	7	; select bank7
 10799  0A64  1C16               	btfss	22,0	;volatile
 10800  0A65  2A67               	goto	u246_21
 10801  0A66  2A68               	goto	u246_20
 10802  0A67                     u246_21:
 10803  0A67  2A6B               	goto	i1l3343
 10804  0A68                     u246_20:
 10805  0A68                     i1l3341:
 10806                           
 10807                           ;mcc_generated_files/pin_manager.c: 123:     {;mcc_generated_files/pin_manager.c: 124:  
      +                                 IOCBF0_ISR();
 10808  0A68  318A  2216  318A   	fcall	_IOCBF0_ISR
 10809  0A6B                     i1l3343:
 10810                           
 10811                           ;mcc_generated_files/pin_manager.c: 127:     if(IOCBFbits.IOCBF3 == 1)
 10812  0A6B  0027               	movlb	7	; select bank7
 10813  0A6C  1D96               	btfss	22,3	;volatile
 10814  0A6D  2A6F               	goto	u247_21
 10815  0A6E  2A70               	goto	u247_20
 10816  0A6F                     u247_21:
 10817  0A6F  2A73               	goto	i1l101
 10818  0A70                     u247_20:
 10819  0A70                     i1l3345:
 10820                           
 10821                           ;mcc_generated_files/pin_manager.c: 128:     {;mcc_generated_files/pin_manager.c: 129:  
      +                                 IOCBF3_ISR();
 10822  0A70  318A  2225  318A   	fcall	_IOCBF3_ISR
 10823  0A73                     i1l101:
 10824  0A73  0008               	return
 10825  0A74                     __end_of_PIN_MANAGER_IOC:
 10826                           
 10827                           	psect	text54
 10828  0A25                     __ptext54:	
 10829 ;; *************** function _IOCBF3_ISR *****************
 10830 ;; Defined at:
 10831 ;;		line 166 in file "mcc_generated_files/pin_manager.c"
 10832 ;; Parameters:    Size  Location     Type
 10833 ;;		None
 10834 ;; Auto vars:     Size  Location     Type
 10835 ;;		None
 10836 ;; Return value:  Size  Location     Type
 10837 ;;                  1    wreg      void 
 10838 ;; Registers used:
 10839 ;;		wreg, status,2, status,0, pclath, cstack
 10840 ;; Tracked objects:
 10841 ;;		On entry : 0/0
 10842 ;;		On exit  : 0/0
 10843 ;;		Unchanged: 0/0
 10844 ;; Data sizes:     COMMON   BANK0   BANK1   BANK2   BANK3   BANK4
 10845 ;;      Params:         0       0       0       0       0       0
 10846 ;;      Locals:         0       0       0       0       0       0
 10847 ;;      Temps:          0       0       0       0       0       0
 10848 ;;      Totals:         0       0       0       0       0       0
 10849 ;;Total ram usage:        0 bytes
 10850 ;; Hardware stack levels used: 1
 10851 ;; Hardware stack levels required when called: 3
 10852 ;; This function calls:
 10853 ;;		Absolute function
 10854 ;;		_IOCBF3_DefaultInterruptHandler
 10855 ;;		_S2
 10856 ;; This function is called by:
 10857 ;;		_PIN_MANAGER_IOC
 10858 ;; This function uses a non-reentrant model
 10859 ;;
 10860                           
 10861                           
 10862                           ;psect for function _IOCBF3_ISR
 10863  0A25                     _IOCBF3_ISR:
 10864  0A25                     i1l3217:	
 10865                           ;incstack = 0
 10866                           ; Regs used in _IOCBF3_ISR: [wreg+status,2+status,0+pclath+cstack]
 10867                           
 10868                           
 10869                           ;mcc_generated_files/pin_manager.c: 171:     if(IOCBF3_InterruptHandler)
 10870  0A25  0021               	movlb	1	; select bank1
 10871  0A26  085D               	movf	_IOCBF3_InterruptHandler^(0+128),w
 10872  0A27  045E               	iorwf	(_IOCBF3_InterruptHandler+1)^(0+128),w
 10873  0A28  1903               	btfsc	3,2
 10874  0A29  2A2B               	goto	u222_21
 10875  0A2A  2A2C               	goto	u222_20
 10876  0A2B                     u222_21:
 10877  0A2B  2A31               	goto	i1l3221
 10878  0A2C                     u222_20:
 10879  0A2C                     i1l3219:
 10880                           
 10881                           ;mcc_generated_files/pin_manager.c: 172:     {;mcc_generated_files/pin_manager.c: 173:  
      +                                 IOCBF3_InterruptHandler();
 10882  0A2C  085E               	movf	(_IOCBF3_InterruptHandler+1)^(0+128),w
 10883  0A2D  008A               	movwf	10
 10884  0A2E  085D               	movf	_IOCBF3_InterruptHandler^(0+128),w
 10885  0A2F  000A               	callw
 10886  0A30  318A               	pagesel	$
 10887  0A31                     i1l3221:
 10888                           
 10889                           ;mcc_generated_files/pin_manager.c: 175:     IOCBFbits.IOCBF3 = 0;
 10890  0A31  0027               	movlb	7	; select bank7
 10891  0A32  1196               	bcf	22,3	;volatile
 10892  0A33                     i1l115:
 10893  0A33  0008               	return
 10894  0A34                     __end_of_IOCBF3_ISR:
 10895                           
 10896                           	psect	text55
 10897  0931                     __ptext55:	
 10898 ;; *************** function _IOCBF3_DefaultInterruptHandler *****************
 10899 ;; Defined at:
 10900 ;;		line 188 in file "mcc_generated_files/pin_manager.c"
 10901 ;; Parameters:    Size  Location     Type
 10902 ;;		None
 10903 ;; Auto vars:     Size  Location     Type
 10904 ;;		None
 10905 ;; Return value:  Size  Location     Type
 10906 ;;                  1    wreg      void 
 10907 ;; Registers used:
 10908 ;;		None
 10909 ;; Tracked objects:
 10910 ;;		On entry : 0/0
 10911 ;;		On exit  : 0/0
 10912 ;;		Unchanged: 0/0
 10913 ;; Data sizes:     COMMON   BANK0   BANK1   BANK2   BANK3   BANK4
 10914 ;;      Params:         0       0       0       0       0       0
 10915 ;;      Locals:         0       0       0       0       0       0
 10916 ;;      Temps:          0       0       0       0       0       0
 10917 ;;      Totals:         0       0       0       0       0       0
 10918 ;;Total ram usage:        0 bytes
 10919 ;; Hardware stack levels used: 1
 10920 ;; This function calls:
 10921 ;;		Nothing
 10922 ;; This function is called by:
 10923 ;;		_PIN_MANAGER_Initialize
 10924 ;;		_IOCBF3_ISR
 10925 ;; This function uses a non-reentrant model
 10926 ;;
 10927                           
 10928                           
 10929                           ;psect for function _IOCBF3_DefaultInterruptHandler
 10930  0931                     _IOCBF3_DefaultInterruptHandler:
 10931  0931                     i1l121:	
 10932                           ;incstack = 0
 10933                           ; Regs used in _IOCBF3_DefaultInterruptHandler: []
 10934                           
 10935  0931  0008               	return
 10936  0932                     __end_of_IOCBF3_DefaultInterruptHandler:
 10937                           
 10938                           	psect	text56
 10939  0987                     __ptext56:	
 10940 ;; *************** function _S2 *****************
 10941 ;; Defined at:
 10942 ;;		line 195 in file "main.c"
 10943 ;; Parameters:    Size  Location     Type
 10944 ;;		None
 10945 ;; Auto vars:     Size  Location     Type
 10946 ;;		None
 10947 ;; Return value:  Size  Location     Type
 10948 ;;                  1    wreg      void 
 10949 ;; Registers used:
 10950 ;;		wreg, status,2, status,0, pclath, cstack
 10951 ;; Tracked objects:
 10952 ;;		On entry : 0/0
 10953 ;;		On exit  : 0/0
 10954 ;;		Unchanged: 0/0
 10955 ;; Data sizes:     COMMON   BANK0   BANK1   BANK2   BANK3   BANK4
 10956 ;;      Params:         0       0       0       0       0       0
 10957 ;;      Locals:         0       0       0       0       0       0
 10958 ;;      Temps:          0       0       0       0       0       0
 10959 ;;      Totals:         0       0       0       0       0       0
 10960 ;;Total ram usage:        0 bytes
 10961 ;; Hardware stack levels used: 1
 10962 ;; Hardware stack levels required when called: 2
 10963 ;; This function calls:
 10964 ;;		i1_deslocamento
 10965 ;; This function is called by:
 10966 ;;		_main
 10967 ;;		_IOCBF3_ISR
 10968 ;; This function uses a non-reentrant model
 10969 ;;
 10970                           
 10971                           
 10972                           ;psect for function _S2
 10973  0987                     _S2:
 10974  0987                     i1l3013:	
 10975                           ;incstack = 0
 10976                           ; Regs used in _S2: [wreg+status,2+status,0+pclath+cstack]
 10977                           
 10978                           
 10979                           ;main.c: 196:  pos_atual = 1;
 10980  0987  3001               	movlw	1
 10981  0988  0020               	movlb	0	; select bank0
 10982  0989  00E9               	movwf	_pos_atual
 10983  098A  3000               	movlw	0
 10984  098B  00EA               	movwf	_pos_atual+1
 10985  098C                     i1l3015:
 10986                           
 10987                           ;main.c: 197:  deslocamento();
 10988  098C  3187  2738  3189   	fcall	i1_deslocamento
 10989  098F                     i1l840:
 10990  098F  0008               	return
 10991  0990                     __end_of_S2:
 10992                           
 10993                           	psect	text57
 10994  0A16                     __ptext57:	
 10995 ;; *************** function _IOCBF0_ISR *****************
 10996 ;; Defined at:
 10997 ;;		line 136 in file "mcc_generated_files/pin_manager.c"
 10998 ;; Parameters:    Size  Location     Type
 10999 ;;		None
 11000 ;; Auto vars:     Size  Location     Type
 11001 ;;		None
 11002 ;; Return value:  Size  Location     Type
 11003 ;;                  1    wreg      void 
 11004 ;; Registers used:
 11005 ;;		wreg, status,2, status,0, pclath, cstack
 11006 ;; Tracked objects:
 11007 ;;		On entry : 0/0
 11008 ;;		On exit  : 0/0
 11009 ;;		Unchanged: 0/0
 11010 ;; Data sizes:     COMMON   BANK0   BANK1   BANK2   BANK3   BANK4
 11011 ;;      Params:         0       0       0       0       0       0
 11012 ;;      Locals:         0       0       0       0       0       0
 11013 ;;      Temps:          0       0       0       0       0       0
 11014 ;;      Totals:         0       0       0       0       0       0
 11015 ;;Total ram usage:        0 bytes
 11016 ;; Hardware stack levels used: 1
 11017 ;; Hardware stack levels required when called: 2
 11018 ;; This function calls:
 11019 ;;		Absolute function
 11020 ;;		_IOCBF0_DefaultInterruptHandler
 11021 ;;		_S1
 11022 ;; This function is called by:
 11023 ;;		_PIN_MANAGER_IOC
 11024 ;; This function uses a non-reentrant model
 11025 ;;
 11026                           
 11027                           
 11028                           ;psect for function _IOCBF0_ISR
 11029  0A16                     _IOCBF0_ISR:
 11030  0A16                     i1l3211:	
 11031                           ;incstack = 0
 11032                           ; Regs used in _IOCBF0_ISR: [wreg+status,2+status,0+pclath+cstack]
 11033                           
 11034                           
 11035                           ;mcc_generated_files/pin_manager.c: 141:     if(IOCBF0_InterruptHandler)
 11036  0A16  0021               	movlb	1	; select bank1
 11037  0A17  085F               	movf	_IOCBF0_InterruptHandler^(0+128),w
 11038  0A18  0460               	iorwf	(_IOCBF0_InterruptHandler+1)^(0+128),w
 11039  0A19  1903               	btfsc	3,2
 11040  0A1A  2A1C               	goto	u221_21
 11041  0A1B  2A1D               	goto	u221_20
 11042  0A1C                     u221_21:
 11043  0A1C  2A22               	goto	i1l3215
 11044  0A1D                     u221_20:
 11045  0A1D                     i1l3213:
 11046                           
 11047                           ;mcc_generated_files/pin_manager.c: 142:     {;mcc_generated_files/pin_manager.c: 143:  
      +                                 IOCBF0_InterruptHandler();
 11048  0A1D  0860               	movf	(_IOCBF0_InterruptHandler+1)^(0+128),w
 11049  0A1E  008A               	movwf	10
 11050  0A1F  085F               	movf	_IOCBF0_InterruptHandler^(0+128),w
 11051  0A20  000A               	callw
 11052  0A21  318A               	pagesel	$
 11053  0A22                     i1l3215:
 11054                           
 11055                           ;mcc_generated_files/pin_manager.c: 145:     IOCBFbits.IOCBF0 = 0;
 11056  0A22  0027               	movlb	7	; select bank7
 11057  0A23  1016               	bcf	22,0	;volatile
 11058  0A24                     i1l105:
 11059  0A24  0008               	return
 11060  0A25                     __end_of_IOCBF0_ISR:
 11061                           
 11062                           	psect	text58
 11063  0930                     __ptext58:	
 11064 ;; *************** function _IOCBF0_DefaultInterruptHandler *****************
 11065 ;; Defined at:
 11066 ;;		line 158 in file "mcc_generated_files/pin_manager.c"
 11067 ;; Parameters:    Size  Location     Type
 11068 ;;		None
 11069 ;; Auto vars:     Size  Location     Type
 11070 ;;		None
 11071 ;; Return value:  Size  Location     Type
 11072 ;;                  1    wreg      void 
 11073 ;; Registers used:
 11074 ;;		None
 11075 ;; Tracked objects:
 11076 ;;		On entry : 0/0
 11077 ;;		On exit  : 0/0
 11078 ;;		Unchanged: 0/0
 11079 ;; Data sizes:     COMMON   BANK0   BANK1   BANK2   BANK3   BANK4
 11080 ;;      Params:         0       0       0       0       0       0
 11081 ;;      Locals:         0       0       0       0       0       0
 11082 ;;      Temps:          0       0       0       0       0       0
 11083 ;;      Totals:         0       0       0       0       0       0
 11084 ;;Total ram usage:        0 bytes
 11085 ;; Hardware stack levels used: 1
 11086 ;; This function calls:
 11087 ;;		Nothing
 11088 ;; This function is called by:
 11089 ;;		_PIN_MANAGER_Initialize
 11090 ;;		_IOCBF0_ISR
 11091 ;; This function uses a non-reentrant model
 11092 ;;
 11093                           
 11094                           
 11095                           ;psect for function _IOCBF0_DefaultInterruptHandler
 11096  0930                     _IOCBF0_DefaultInterruptHandler:
 11097  0930                     i1l111:	
 11098                           ;incstack = 0
 11099                           ; Regs used in _IOCBF0_DefaultInterruptHandler: []
 11100                           
 11101  0930  0008               	return
 11102  0931                     __end_of_IOCBF0_DefaultInterruptHandler:
 11103                           
 11104                           	psect	text59
 11105  0A74                     __ptext59:	
 11106 ;; *************** function _S1 *****************
 11107 ;; Defined at:
 11108 ;;		line 187 in file "main.c"
 11109 ;; Parameters:    Size  Location     Type
 11110 ;;		None
 11111 ;; Auto vars:     Size  Location     Type
 11112 ;;		None
 11113 ;; Return value:  Size  Location     Type
 11114 ;;                  1    wreg      void 
 11115 ;; Registers used:
 11116 ;;		wreg, status,2, status,0, pclath, cstack
 11117 ;; Tracked objects:
 11118 ;;		On entry : 0/0
 11119 ;;		On exit  : 0/0
 11120 ;;		Unchanged: 0/0
 11121 ;; Data sizes:     COMMON   BANK0   BANK1   BANK2   BANK3   BANK4
 11122 ;;      Params:         0       0       0       0       0       0
 11123 ;;      Locals:         0       0       0       0       0       0
 11124 ;;      Temps:          0       0       0       0       0       0
 11125 ;;      Totals:         0       0       0       0       0       0
 11126 ;;Total ram usage:        0 bytes
 11127 ;; Hardware stack levels used: 1
 11128 ;; Hardware stack levels required when called: 1
 11129 ;; This function calls:
 11130 ;;		i1_PWM3_LoadDutyValue
 11131 ;; This function is called by:
 11132 ;;		_main
 11133 ;;		_IOCBF0_ISR
 11134 ;; This function uses a non-reentrant model
 11135 ;;
 11136                           
 11137                           
 11138                           ;psect for function _S1
 11139  0A74                     _S1:
 11140  0A74                     i1l3005:	
 11141                           ;incstack = 0
 11142                           ; Regs used in _S1: [wreg+status,2+status,0+pclath+cstack]
 11143                           
 11144                           
 11145                           ;main.c: 188:  pos_atual = 0;
 11146  0A74  0020               	movlb	0	; select bank0
 11147  0A75  01E9               	clrf	_pos_atual
 11148  0A76  01EA               	clrf	_pos_atual+1
 11149                           
 11150                           ;main.c: 189:  pulsos = 0;
 11151  0A77  0021               	movlb	1	; select bank1
 11152  0A78  01CD               	clrf	_pulsos^(0+128)
 11153  0A79  01CE               	clrf	(_pulsos+1)^(0+128)
 11154  0A7A                     i1l3007:
 11155                           
 11156                           ;main.c: 190:     PWM3_LoadDutyValue(0);
 11157  0A7A  3000               	movlw	0
 11158  0A7B  00F0               	movwf	i1PWM3_LoadDutyValue@dutyValue
 11159  0A7C  00F1               	movwf	i1PWM3_LoadDutyValue@dutyValue+1
 11160  0A7D  318A  22D8  318A   	fcall	i1_PWM3_LoadDutyValue
 11161  0A80                     i1l3009:
 11162                           
 11163                           ;main.c: 191:     motor = 0;
 11164  0A80  0021               	movlb	1	; select bank1
 11165  0A81  01CF               	clrf	_motor^(0+128)
 11166  0A82  01D0               	clrf	(_motor+1)^(0+128)
 11167  0A83                     i1l3011:
 11168  0A83  0022               	movlb	2	; select bank2
 11169  0A84  178C               	bsf	12,7	;volatile
 11170  0A85                     i1l837:
 11171  0A85  0008               	return
 11172  0A86                     __end_of_S1:
 11173                           
 11174                           	psect	text60
 11175  0B5B                     __ptext60:	
 11176 ;; *************** function _EUSART_Transmit_ISR *****************
 11177 ;; Defined at:
 11178 ;;		line 197 in file "mcc_generated_files/eusart.c"
 11179 ;; Parameters:    Size  Location     Type
 11180 ;;		None
 11181 ;; Auto vars:     Size  Location     Type
 11182 ;;		None
 11183 ;; Return value:  Size  Location     Type
 11184 ;;                  1    wreg      void 
 11185 ;; Registers used:
 11186 ;;		wreg, fsr1l, fsr1h, status,2, status,0
 11187 ;; Tracked objects:
 11188 ;;		On entry : 0/0
 11189 ;;		On exit  : 0/0
 11190 ;;		Unchanged: 0/0
 11191 ;; Data sizes:     COMMON   BANK0   BANK1   BANK2   BANK3   BANK4
 11192 ;;      Params:         0       0       0       0       0       0
 11193 ;;      Locals:         0       0       0       0       0       0
 11194 ;;      Temps:          1       0       0       0       0       0
 11195 ;;      Totals:         1       0       0       0       0       0
 11196 ;;Total ram usage:        1 bytes
 11197 ;; Hardware stack levels used: 1
 11198 ;; This function calls:
 11199 ;;		Nothing
 11200 ;; This function is called by:
 11201 ;;		_EUSART_Initialize
 11202 ;;		_INTERRUPT_InterruptManager
 11203 ;; This function uses a non-reentrant model
 11204 ;;
 11205                           
 11206                           
 11207                           ;psect for function _EUSART_Transmit_ISR
 11208  0B5B                     _EUSART_Transmit_ISR:
 11209  0B5B                     i1l3375:	
 11210                           ;incstack = 0
 11211                           ; Regs used in _EUSART_Transmit_ISR: [wreg+fsr1l+fsr1h+status,2+status,0]
 11212                           
 11213                           
 11214                           ;mcc_generated_files/eusart.c: 201:     if(sizeof(eusartTxBuffer) > eusartTxBufferRemain
      +                          ing)
 11215  0B5B  3008               	movlw	8
 11216  0B5C  0021               	movlb	1	; select bank1
 11217  0B5D  0261               	subwf	_eusartTxBufferRemaining^(0+128),w	;volatile
 11218  0B5E  1803               	skipnc
 11219  0B5F  2B61               	goto	u249_21
 11220  0B60  2B62               	goto	u249_20
 11221  0B61                     u249_21:
 11222  0B61  2B7A               	goto	i1l338
 11223  0B62                     u249_20:
 11224  0B62                     i1l3377:
 11225                           
 11226                           ;mcc_generated_files/eusart.c: 202:     {;mcc_generated_files/eusart.c: 203:         TXR
      +                          EG = eusartTxBuffer[eusartTxTail++];
 11227  0B62  0845               	movf	_eusartTxTail^(0+128),w
 11228  0B63  3EA8               	addlw	(low (_eusartTxBuffer| 0))& (0+255)
 11229  0B64  0086               	movwf	6
 11230  0B65  0187               	clrf	7
 11231  0B66  0801               	movf	1,w
 11232  0B67  0023               	movlb	3	; select bank3
 11233  0B68  009A               	movwf	26	;volatile
 11234  0B69                     i1l3379:
 11235  0B69  3001               	movlw	1
 11236  0B6A  00F0               	movwf	??_EUSART_Transmit_ISR
 11237  0B6B  0870               	movf	??_EUSART_Transmit_ISR,w
 11238  0B6C  0021               	movlb	1	; select bank1
 11239  0B6D  07C5               	addwf	_eusartTxTail^(0+128),f	;volatile
 11240  0B6E                     i1l3381:
 11241                           
 11242                           ;mcc_generated_files/eusart.c: 204:         if(sizeof(eusartTxBuffer) <= eusartTxTail)
 11243  0B6E  3008               	movlw	8
 11244  0B6F  0245               	subwf	_eusartTxTail^(0+128),w	;volatile
 11245  0B70  1C03               	skipc
 11246  0B71  2B73               	goto	u250_21
 11247  0B72  2B74               	goto	u250_20
 11248  0B73                     u250_21:
 11249  0B73  2B75               	goto	i1l3385
 11250  0B74                     u250_20:
 11251  0B74                     i1l3383:
 11252                           
 11253                           ;mcc_generated_files/eusart.c: 205:         {;mcc_generated_files/eusart.c: 206:        
      +                               eusartTxTail = 0;
 11254  0B74  01C5               	clrf	_eusartTxTail^(0+128)	;volatile
 11255  0B75                     i1l3385:
 11256                           
 11257                           ;mcc_generated_files/eusart.c: 208:         eusartTxBufferRemaining++;
 11258  0B75  3001               	movlw	1
 11259  0B76  00F0               	movwf	??_EUSART_Transmit_ISR
 11260  0B77  0870               	movf	??_EUSART_Transmit_ISR,w
 11261  0B78  07E1               	addwf	_eusartTxBufferRemaining^(0+128),f	;volatile
 11262                           
 11263                           ;mcc_generated_files/eusart.c: 209:     }
 11264  0B79  2B7B               	goto	i1l341
 11265  0B7A                     i1l338:	
 11266                           ;mcc_generated_files/eusart.c: 210:     else
 11267                           
 11268                           
 11269                           ;mcc_generated_files/eusart.c: 211:     {;mcc_generated_files/eusart.c: 212:         PIE
      +                          1bits.TXIE = 0;
 11270  0B7A  1211               	bcf	17,4	;volatile
 11271  0B7B                     i1l341:
 11272  0B7B  0008               	return
 11273  0B7C                     __end_of_EUSART_Transmit_ISR:
 11274                           
 11275                           	psect	text61
 11276  0938                     __ptext61:	
 11277 ;; *************** function _EUSART_DefaultOverrunErrorHandler *****************
 11278 ;; Defined at:
 11279 ;;		line 252 in file "mcc_generated_files/eusart.c"
 11280 ;; Parameters:    Size  Location     Type
 11281 ;;		None
 11282 ;; Auto vars:     Size  Location     Type
 11283 ;;		None
 11284 ;; Return value:  Size  Location     Type
 11285 ;;                  1    wreg      void 
 11286 ;; Registers used:
 11287 ;;		None
 11288 ;; Tracked objects:
 11289 ;;		On entry : 0/0
 11290 ;;		On exit  : 0/0
 11291 ;;		Unchanged: 0/0
 11292 ;; Data sizes:     COMMON   BANK0   BANK1   BANK2   BANK3   BANK4
 11293 ;;      Params:         0       0       0       0       0       0
 11294 ;;      Locals:         0       0       0       0       0       0
 11295 ;;      Temps:          0       0       0       0       0       0
 11296 ;;      Totals:         0       0       0       0       0       0
 11297 ;;Total ram usage:        0 bytes
 11298 ;; Hardware stack levels used: 1
 11299 ;; This function calls:
 11300 ;;		Nothing
 11301 ;; This function is called by:
 11302 ;;		_EUSART_Initialize
 11303 ;;		_EUSART_Receive_ISR
 11304 ;; This function uses a non-reentrant model
 11305 ;;
 11306                           
 11307                           
 11308                           ;psect for function _EUSART_DefaultOverrunErrorHandler
 11309  0938                     _EUSART_DefaultOverrunErrorHandler:
 11310  0938                     i1l3223:	
 11311                           ;incstack = 0
 11312                           ; Regs used in _EUSART_DefaultOverrunErrorHandler: []
 11313                           
 11314                           
 11315                           ;mcc_generated_files/eusart.c: 255:     RCSTAbits.CREN = 0;
 11316  0938  0023               	movlb	3	; select bank3
 11317  0939  121D               	bcf	29,4	;volatile
 11318                           
 11319                           ;mcc_generated_files/eusart.c: 256:     RCSTAbits.CREN = 1;
 11320  093A  161D               	bsf	29,4	;volatile
 11321  093B                     i1l358:
 11322  093B  0008               	return
 11323  093C                     __end_of_EUSART_DefaultOverrunErrorHandler:
 11324                           
 11325                           	psect	text62
 11326  092F                     __ptext62:	
 11327 ;; *************** function _EUSART_DefaultFramingErrorHandler *****************
 11328 ;; Defined at:
 11329 ;;		line 250 in file "mcc_generated_files/eusart.c"
 11330 ;; Parameters:    Size  Location     Type
 11331 ;;		None
 11332 ;; Auto vars:     Size  Location     Type
 11333 ;;		None
 11334 ;; Return value:  Size  Location     Type
 11335 ;;                  1    wreg      void 
 11336 ;; Registers used:
 11337 ;;		None
 11338 ;; Tracked objects:
 11339 ;;		On entry : 0/0
 11340 ;;		On exit  : 0/0
 11341 ;;		Unchanged: 0/0
 11342 ;; Data sizes:     COMMON   BANK0   BANK1   BANK2   BANK3   BANK4
 11343 ;;      Params:         0       0       0       0       0       0
 11344 ;;      Locals:         0       0       0       0       0       0
 11345 ;;      Temps:          0       0       0       0       0       0
 11346 ;;      Totals:         0       0       0       0       0       0
 11347 ;;Total ram usage:        0 bytes
 11348 ;; Hardware stack levels used: 1
 11349 ;; This function calls:
 11350 ;;		Nothing
 11351 ;; This function is called by:
 11352 ;;		_EUSART_Initialize
 11353 ;;		_EUSART_Receive_ISR
 11354 ;; This function uses a non-reentrant model
 11355 ;;
 11356                           
 11357                           
 11358                           ;psect for function _EUSART_DefaultFramingErrorHandler
 11359  092F                     _EUSART_DefaultFramingErrorHandler:
 11360  092F                     i1l355:	
 11361                           ;incstack = 0
 11362                           ; Regs used in _EUSART_DefaultFramingErrorHandler: []
 11363                           
 11364  092F  0008               	return
 11365  0930                     __end_of_EUSART_DefaultFramingErrorHandler:
 11366                           
 11367                           	psect	text63
 11368  0934                     __ptext63:	
 11369 ;; *************** function _EUSART_DefaultErrorHandler *****************
 11370 ;; Defined at:
 11371 ;;		line 260 in file "mcc_generated_files/eusart.c"
 11372 ;; Parameters:    Size  Location     Type
 11373 ;;		None
 11374 ;; Auto vars:     Size  Location     Type
 11375 ;;		None
 11376 ;; Return value:  Size  Location     Type
 11377 ;;                  1    wreg      void 
 11378 ;; Registers used:
 11379 ;;		wreg, fsr1l, fsr1h, status,2, status,0, pclath, cstack
 11380 ;; Tracked objects:
 11381 ;;		On entry : 0/0
 11382 ;;		On exit  : 0/0
 11383 ;;		Unchanged: 0/0
 11384 ;; Data sizes:     COMMON   BANK0   BANK1   BANK2   BANK3   BANK4
 11385 ;;      Params:         0       0       0       0       0       0
 11386 ;;      Locals:         0       0       0       0       0       0
 11387 ;;      Temps:          0       0       0       0       0       0
 11388 ;;      Totals:         0       0       0       0       0       0
 11389 ;;Total ram usage:        0 bytes
 11390 ;; Hardware stack levels used: 1
 11391 ;; Hardware stack levels required when called: 1
 11392 ;; This function calls:
 11393 ;;		_EUSART_RxDataHandler
 11394 ;; This function is called by:
 11395 ;;		_EUSART_Initialize
 11396 ;;		_EUSART_Receive_ISR
 11397 ;; This function uses a non-reentrant model
 11398 ;;
 11399                           
 11400                           
 11401                           ;psect for function _EUSART_DefaultErrorHandler
 11402  0934                     _EUSART_DefaultErrorHandler:
 11403  0934                     i1l3225:	
 11404                           ;incstack = 0
 11405                           ; Regs used in _EUSART_DefaultErrorHandler: [wreg+fsr1l+fsr1h+status,2+status,0+pclath+c
      +                          stack]
 11406                           
 11407                           
 11408                           ;mcc_generated_files/eusart.c: 261:     EUSART_RxDataHandler();
 11409  0934  318B  2321  3189   	fcall	_EUSART_RxDataHandler
 11410  0937                     i1l361:
 11411  0937  0008               	return
 11412  0938                     __end_of_EUSART_DefaultErrorHandler:
 11413                           
 11414                           	psect	text64
 11415  0B21                     __ptext64:	
 11416 ;; *************** function _EUSART_RxDataHandler *****************
 11417 ;; Defined at:
 11418 ;;		line 240 in file "mcc_generated_files/eusart.c"
 11419 ;; Parameters:    Size  Location     Type
 11420 ;;		None
 11421 ;; Auto vars:     Size  Location     Type
 11422 ;;		None
 11423 ;; Return value:  Size  Location     Type
 11424 ;;                  1    wreg      void 
 11425 ;; Registers used:
 11426 ;;		wreg, fsr1l, fsr1h, status,2, status,0
 11427 ;; Tracked objects:
 11428 ;;		On entry : 0/0
 11429 ;;		On exit  : 0/0
 11430 ;;		Unchanged: 0/0
 11431 ;; Data sizes:     COMMON   BANK0   BANK1   BANK2   BANK3   BANK4
 11432 ;;      Params:         0       0       0       0       0       0
 11433 ;;      Locals:         0       0       0       0       0       0
 11434 ;;      Temps:          1       0       0       0       0       0
 11435 ;;      Totals:         1       0       0       0       0       0
 11436 ;;Total ram usage:        1 bytes
 11437 ;; Hardware stack levels used: 1
 11438 ;; This function calls:
 11439 ;;		Nothing
 11440 ;; This function is called by:
 11441 ;;		_EUSART_Receive_ISR
 11442 ;;		_EUSART_DefaultErrorHandler
 11443 ;; This function uses a non-reentrant model
 11444 ;;
 11445                           
 11446                           
 11447                           ;psect for function _EUSART_RxDataHandler
 11448  0B21                     _EUSART_RxDataHandler:
 11449  0B21                     i1l2963:	
 11450                           ;incstack = 0
 11451                           ; Regs used in _EUSART_RxDataHandler: [wreg+fsr1l+fsr1h+status,2+status,0]
 11452                           
 11453                           
 11454                           ;mcc_generated_files/eusart.c: 242:     eusartRxBuffer[eusartRxHead++] = RCREG;
 11455  0B21  0023               	movlb	3	; select bank3
 11456  0B22  0819               	movf	25,w	;volatile
 11457  0B23  00F0               	movwf	??_EUSART_RxDataHandler
 11458  0B24  0020               	movlb	0	; select bank0
 11459  0B25  086B               	movf	_eusartRxHead,w
 11460  0B26  3E38               	addlw	(low (_eusartRxBuffer| (0+256)))& (0+255)
 11461  0B27  0086               	movwf	6
 11462  0B28  3001               	movlw	1	; select bank2/3
 11463  0B29  0087               	movwf	7
 11464  0B2A  0870               	movf	??_EUSART_RxDataHandler,w
 11465  0B2B  0081               	movwf	1
 11466  0B2C                     i1l2965:
 11467  0B2C  3001               	movlw	1
 11468  0B2D  00F0               	movwf	??_EUSART_RxDataHandler
 11469  0B2E  0870               	movf	??_EUSART_RxDataHandler,w
 11470  0B2F  07EB               	addwf	_eusartRxHead,f	;volatile
 11471  0B30                     i1l2967:
 11472                           
 11473                           ;mcc_generated_files/eusart.c: 243:     if(sizeof(eusartRxBuffer) <= eusartRxHead)
 11474  0B30  3008               	movlw	8
 11475  0B31  026B               	subwf	_eusartRxHead,w	;volatile
 11476  0B32  1C03               	skipc
 11477  0B33  2B35               	goto	u207_21
 11478  0B34  2B36               	goto	u207_20
 11479  0B35                     u207_21:
 11480  0B35  2B37               	goto	i1l2971
 11481  0B36                     u207_20:
 11482  0B36                     i1l2969:
 11483                           
 11484                           ;mcc_generated_files/eusart.c: 244:     {;mcc_generated_files/eusart.c: 245:         eus
      +                          artRxHead = 0;
 11485  0B36  01EB               	clrf	_eusartRxHead	;volatile
 11486  0B37                     i1l2971:
 11487                           
 11488                           ;mcc_generated_files/eusart.c: 247:     eusartRxCount++;
 11489  0B37  3001               	movlw	1
 11490  0B38  00F0               	movwf	??_EUSART_RxDataHandler
 11491  0B39  0870               	movf	??_EUSART_RxDataHandler,w
 11492  0B3A  0021               	movlb	1	; select bank1
 11493  0B3B  07C3               	addwf	_eusartRxCount^(0+128),f	;volatile
 11494  0B3C                     i1l352:
 11495  0B3C  0008               	return
 11496  0B3D                     __end_of_EUSART_RxDataHandler:
 11497                           
 11498                           	psect	text65
 11499  094F                     __ptext65:	
 11500 ;; *************** function _CMP2_ISR *****************
 11501 ;; Defined at:
 11502 ;;		line 220 in file "main.c"
 11503 ;; Parameters:    Size  Location     Type
 11504 ;;		None
 11505 ;; Auto vars:     Size  Location     Type
 11506 ;;		None
 11507 ;; Return value:  Size  Location     Type
 11508 ;;                  1    wreg      void 
 11509 ;; Registers used:
 11510 ;;		wreg, status,2, status,0, pclath, cstack
 11511 ;; Tracked objects:
 11512 ;;		On entry : 0/0
 11513 ;;		On exit  : 0/0
 11514 ;;		Unchanged: 0/0
 11515 ;; Data sizes:     COMMON   BANK0   BANK1   BANK2   BANK3   BANK4
 11516 ;;      Params:         0       0       0       0       0       0
 11517 ;;      Locals:         0       0       0       0       0       0
 11518 ;;      Temps:          0       0       0       0       0       0
 11519 ;;      Totals:         0       0       0       0       0       0
 11520 ;;Total ram usage:        0 bytes
 11521 ;; Hardware stack levels used: 1
 11522 ;; Hardware stack levels required when called: 2
 11523 ;; This function calls:
 11524 ;;		_S4
 11525 ;; This function is called by:
 11526 ;;		_INTERRUPT_InterruptManager
 11527 ;; This function uses a non-reentrant model
 11528 ;;
 11529                           
 11530                           
 11531                           ;psect for function _CMP2_ISR
 11532  094F                     _CMP2_ISR:
 11533  094F                     i1l3427:	
 11534                           ;incstack = 0
 11535                           ; Regs used in _CMP2_ISR: [wreg+status,2+status,0+pclath+cstack]
 11536                           
 11537                           
 11538                           ;main.c: 221:     S4();
 11539  094F  318A  22C2  3189   	fcall	_S4
 11540  0952                     i1l3429:
 11541                           
 11542                           ;main.c: 223:     PIR2bits.C1IF = 0;
 11543  0952  0020               	movlb	0	; select bank0
 11544  0953  1292               	bcf	18,5	;volatile
 11545  0954                     i1l854:
 11546  0954  0008               	return
 11547  0955                     __end_of_CMP2_ISR:
 11548                           
 11549                           	psect	text66
 11550  0AC2                     __ptext66:	
 11551 ;; *************** function _S4 *****************
 11552 ;; Defined at:
 11553 ;;		line 211 in file "main.c"
 11554 ;; Parameters:    Size  Location     Type
 11555 ;;		None
 11556 ;; Auto vars:     Size  Location     Type
 11557 ;;		None
 11558 ;; Return value:  Size  Location     Type
 11559 ;;                  1    wreg      void 
 11560 ;; Registers used:
 11561 ;;		wreg, status,2, status,0, pclath, cstack
 11562 ;; Tracked objects:
 11563 ;;		On entry : 0/0
 11564 ;;		On exit  : 0/0
 11565 ;;		Unchanged: 0/0
 11566 ;; Data sizes:     COMMON   BANK0   BANK1   BANK2   BANK3   BANK4
 11567 ;;      Params:         0       0       0       0       0       0
 11568 ;;      Locals:         0       0       0       0       0       0
 11569 ;;      Temps:          0       0       0       0       0       0
 11570 ;;      Totals:         0       0       0       0       0       0
 11571 ;;Total ram usage:        0 bytes
 11572 ;; Hardware stack levels used: 1
 11573 ;; Hardware stack levels required when called: 1
 11574 ;; This function calls:
 11575 ;;		i1_PWM3_LoadDutyValue
 11576 ;; This function is called by:
 11577 ;;		_CMP2_ISR
 11578 ;; This function uses a non-reentrant model
 11579 ;;
 11580                           
 11581                           
 11582                           ;psect for function _S4
 11583  0AC2                     _S4:
 11584  0AC2                     i1l3315:	
 11585                           ;incstack = 0
 11586                           ; Regs used in _S4: [wreg+status,2+status,0+pclath+cstack]
 11587                           
 11588                           
 11589                           ;main.c: 212:  pos_atual = 3;
 11590  0AC2  3003               	movlw	3
 11591  0AC3  0020               	movlb	0	; select bank0
 11592  0AC4  00E9               	movwf	_pos_atual
 11593  0AC5  3000               	movlw	0
 11594  0AC6  00EA               	movwf	_pos_atual+1
 11595                           
 11596                           ;main.c: 213:  pulsos = 215;
 11597  0AC7  30D7               	movlw	215
 11598  0AC8  0021               	movlb	1	; select bank1
 11599  0AC9  00CD               	movwf	_pulsos^(0+128)
 11600  0ACA  3000               	movlw	0
 11601  0ACB  00CE               	movwf	(_pulsos^(0+128)+1)
 11602  0ACC                     i1l3317:
 11603                           
 11604                           ;main.c: 214:     PWM3_LoadDutyValue(0);
 11605  0ACC  3000               	movlw	0
 11606  0ACD  00F0               	movwf	i1PWM3_LoadDutyValue@dutyValue
 11607  0ACE  00F1               	movwf	i1PWM3_LoadDutyValue@dutyValue+1
 11608  0ACF  318A  22D8  318A   	fcall	i1_PWM3_LoadDutyValue
 11609  0AD2                     i1l3319:
 11610                           
 11611                           ;main.c: 215:     motor = 0;
 11612  0AD2  0021               	movlb	1	; select bank1
 11613  0AD3  01CF               	clrf	_motor^(0+128)
 11614  0AD4  01D0               	clrf	(_motor+1)^(0+128)
 11615  0AD5                     i1l3321:
 11616  0AD5  0022               	movlb	2	; select bank2
 11617  0AD6  138C               	bcf	12,7	;volatile
 11618  0AD7                     i1l851:
 11619  0AD7  0008               	return
 11620  0AD8                     __end_of_S4:
 11621                           
 11622                           	psect	text67
 11623  0949                     __ptext67:	
 11624 ;; *************** function _CMP1_ISR *****************
 11625 ;; Defined at:
 11626 ;;		line 205 in file "main.c"
 11627 ;; Parameters:    Size  Location     Type
 11628 ;;		None
 11629 ;; Auto vars:     Size  Location     Type
 11630 ;;		None
 11631 ;; Return value:  Size  Location     Type
 11632 ;;                  1    wreg      void 
 11633 ;; Registers used:
 11634 ;;		wreg, status,2, status,0, pclath, cstack
 11635 ;; Tracked objects:
 11636 ;;		On entry : 0/0
 11637 ;;		On exit  : 0/0
 11638 ;;		Unchanged: 0/0
 11639 ;; Data sizes:     COMMON   BANK0   BANK1   BANK2   BANK3   BANK4
 11640 ;;      Params:         0       0       0       0       0       0
 11641 ;;      Locals:         0       0       0       0       0       0
 11642 ;;      Temps:          0       0       0       0       0       0
 11643 ;;      Totals:         0       0       0       0       0       0
 11644 ;;Total ram usage:        0 bytes
 11645 ;; Hardware stack levels used: 1
 11646 ;; Hardware stack levels required when called: 3
 11647 ;; This function calls:
 11648 ;;		_S3
 11649 ;; This function is called by:
 11650 ;;		_INTERRUPT_InterruptManager
 11651 ;; This function uses a non-reentrant model
 11652 ;;
 11653                           
 11654                           
 11655                           ;psect for function _CMP1_ISR
 11656  0949                     _CMP1_ISR:
 11657  0949                     i1l3431:	
 11658                           ;incstack = 0
 11659                           ; Regs used in _CMP1_ISR: [wreg+status,2+status,0+pclath+cstack]
 11660                           
 11661                           
 11662                           ;main.c: 206:     S3();
 11663  0949  3189  217E  3189   	fcall	_S3
 11664  094C                     i1l3433:
 11665                           
 11666                           ;main.c: 208:     PIR2bits.C1IF = 0;
 11667  094C  0020               	movlb	0	; select bank0
 11668  094D  1292               	bcf	18,5	;volatile
 11669  094E                     i1l846:
 11670  094E  0008               	return
 11671  094F                     __end_of_CMP1_ISR:
 11672                           
 11673                           	psect	text68
 11674  097E                     __ptext68:	
 11675 ;; *************** function _S3 *****************
 11676 ;; Defined at:
 11677 ;;		line 200 in file "main.c"
 11678 ;; Parameters:    Size  Location     Type
 11679 ;;		None
 11680 ;; Auto vars:     Size  Location     Type
 11681 ;;		None
 11682 ;; Return value:  Size  Location     Type
 11683 ;;                  1    wreg      void 
 11684 ;; Registers used:
 11685 ;;		wreg, status,2, status,0, pclath, cstack
 11686 ;; Tracked objects:
 11687 ;;		On entry : 0/0
 11688 ;;		On exit  : 0/0
 11689 ;;		Unchanged: 0/0
 11690 ;; Data sizes:     COMMON   BANK0   BANK1   BANK2   BANK3   BANK4
 11691 ;;      Params:         0       0       0       0       0       0
 11692 ;;      Locals:         0       0       0       0       0       0
 11693 ;;      Temps:          0       0       0       0       0       0
 11694 ;;      Totals:         0       0       0       0       0       0
 11695 ;;Total ram usage:        0 bytes
 11696 ;; Hardware stack levels used: 1
 11697 ;; Hardware stack levels required when called: 2
 11698 ;; This function calls:
 11699 ;;		i1_deslocamento
 11700 ;; This function is called by:
 11701 ;;		_CMP1_ISR
 11702 ;; This function uses a non-reentrant model
 11703 ;;
 11704                           
 11705                           
 11706                           ;psect for function _S3
 11707  097E                     _S3:
 11708  097E                     i1l3311:	
 11709                           ;incstack = 0
 11710                           ; Regs used in _S3: [wreg+status,2+status,0+pclath+cstack]
 11711                           
 11712                           
 11713                           ;main.c: 201:  pos_atual = 2;
 11714  097E  3002               	movlw	2
 11715  097F  0020               	movlb	0	; select bank0
 11716  0980  00E9               	movwf	_pos_atual
 11717  0981  3000               	movlw	0
 11718  0982  00EA               	movwf	_pos_atual+1
 11719  0983                     i1l3313:
 11720                           
 11721                           ;main.c: 202:  deslocamento();
 11722  0983  3187  2738  3189   	fcall	i1_deslocamento
 11723  0986                     i1l843:
 11724  0986  0008               	return
 11725  0987                     __end_of_S3:
 11726                           
 11727                           	psect	text69
 11728  0738                     __ptext69:	
 11729 ;; *************** function i1_deslocamento *****************
 11730 ;; Defined at:
 11731 ;;		line 111 in file "main.c"
 11732 ;; Parameters:    Size  Location     Type
 11733 ;;		None
 11734 ;; Auto vars:     Size  Location     Type
 11735 ;;		None
 11736 ;; Return value:  Size  Location     Type
 11737 ;;                  1    wreg      void 
 11738 ;; Registers used:
 11739 ;;		wreg, status,2, status,0, pclath, cstack
 11740 ;; Tracked objects:
 11741 ;;		On entry : 0/0
 11742 ;;		On exit  : 0/0
 11743 ;;		Unchanged: 0/0
 11744 ;; Data sizes:     COMMON   BANK0   BANK1   BANK2   BANK3   BANK4
 11745 ;;      Params:         0       0       0       0       0       0
 11746 ;;      Locals:         0       0       0       0       0       0
 11747 ;;      Temps:          2       0       0       0       0       0
 11748 ;;      Totals:         2       0       0       0       0       0
 11749 ;;Total ram usage:        2 bytes
 11750 ;; Hardware stack levels used: 1
 11751 ;; Hardware stack levels required when called: 1
 11752 ;; This function calls:
 11753 ;;		i1_PWM3_LoadDutyValue
 11754 ;; This function is called by:
 11755 ;;		_S2
 11756 ;;		_S3
 11757 ;; This function uses a non-reentrant model
 11758 ;;
 11759                           
 11760                           
 11761                           ;psect for function i1_deslocamento
 11762  0738                     i1_deslocamento:
 11763  0738                     i1l2889:	
 11764                           ;incstack = 0
 11765                           ; Regs used in i1_deslocamento: [wreg+status,2+status,0+pclath+cstack]
 11766                           
 11767                           
 11768                           ;main.c: 114:     if(pos_final==pos_atual){
 11769  0738  0020               	movlb	0	; select bank0
 11770  0739  086A               	movf	_pos_atual+1,w
 11771  073A  0021               	movlb	1	; select bank1
 11772  073B  063D               	xorwf	(_pos_final+1)^(0+128),w
 11773  073C  1D03               	skipz
 11774  073D  2F42               	goto	u191_25
 11775  073E  0020               	movlb	0	; select bank0
 11776  073F  0869               	movf	_pos_atual,w
 11777  0740  0021               	movlb	1	; select bank1
 11778  0741  063C               	xorwf	_pos_final^(0+128),w
 11779  0742                     u191_25:
 11780  0742  1D03               	skipz
 11781  0743  2F45               	goto	u191_21
 11782  0744  2F46               	goto	u191_20
 11783  0745                     u191_21:
 11784  0745  2F5B               	goto	i1l2897
 11785  0746                     u191_20:
 11786  0746                     i1l2891:
 11787                           
 11788                           ;main.c: 115:          PWM3_LoadDutyValue(0);
 11789  0746  3000               	movlw	0
 11790  0747  00F0               	movwf	i1PWM3_LoadDutyValue@dutyValue
 11791  0748  00F1               	movwf	i1PWM3_LoadDutyValue@dutyValue+1
 11792  0749  318A  22D8  3187   	fcall	i1_PWM3_LoadDutyValue
 11793  074C                     i1l2893:
 11794                           
 11795                           ;main.c: 116:          motor = 0;
 11796  074C  0021               	movlb	1	; select bank1
 11797  074D  01CF               	clrf	_motor^(0+128)
 11798  074E  01D0               	clrf	(_motor+1)^(0+128)
 11799  074F                     i1l2895:
 11800                           
 11801                           ;main.c: 117:          _delay((unsigned long)((2000)*(2000000/4000.0)));
 11802  074F  3006               	movlw	6
 11803  0750  00F5               	movwf	??i1_deslocamento+1
 11804  0751  3013               	movlw	19
 11805  0752  00F4               	movwf	??i1_deslocamento
 11806  0753  30AE               	movlw	174
 11807  0754                     u384_27:
 11808  0754  0B89               	decfsz	9,f
 11809  0755  2F54               	goto	u384_27
 11810  0756  0BF4               	decfsz	??i1_deslocamento,f
 11811  0757  2F54               	goto	u384_27
 11812  0758  0BF5               	decfsz	??i1_deslocamento+1,f
 11813  0759  2F54               	goto	u384_27
 11814                           
 11815                           ;main.c: 118:     }else if (pos_final > pos_atual & PORTAbits.RA7==1) {
 11816  075A  2FE2               	goto	i1l812
 11817  075B                     i1l2897:
 11818  075B  0020               	movlb	0	; select bank0
 11819  075C  1B8C               	btfsc	12,7	;volatile
 11820  075D  2F5F               	goto	u192_21
 11821  075E  2F61               	goto	u192_20
 11822  075F                     u192_21:
 11823  075F  3001               	movlw	1
 11824  0760  2F62               	goto	u192_22
 11825  0761                     u192_20:
 11826  0761  3000               	movlw	0
 11827  0762                     u192_22:
 11828  0762  00F4               	movwf	??i1_deslocamento
 11829  0763  086A               	movf	_pos_atual+1,w
 11830  0764  3A80               	xorlw	128
 11831  0765  00F5               	movwf	??i1_deslocamento+1
 11832  0766  0021               	movlb	1	; select bank1
 11833  0767  083D               	movf	(_pos_final+1)^(0+128),w
 11834  0768  3A80               	xorlw	128
 11835  0769  0275               	subwf	??i1_deslocamento+1,w
 11836  076A  1D03               	skipz
 11837  076B  2F6F               	goto	u193_25
 11838  076C  083C               	movf	_pos_final^(0+128),w
 11839  076D  0020               	movlb	0	; select bank0
 11840  076E  0269               	subwf	_pos_atual,w
 11841  076F                     u193_25:
 11842  076F  1C03               	skipc
 11843  0770  2F72               	goto	u193_21
 11844  0771  2F74               	goto	u193_20
 11845  0772                     u193_21:
 11846  0772  3001               	movlw	1
 11847  0773  2F75               	goto	u193_22
 11848  0774                     u193_20:
 11849  0774  3000               	movlw	0
 11850  0775                     u193_22:
 11851  0775  0574               	andwf	??i1_deslocamento,w
 11852  0776  3800               	iorlw	0
 11853  0777  1903               	skipnz
 11854  0778  2F7A               	goto	u194_21
 11855  0779  2F7B               	goto	u194_20
 11856  077A                     u194_21:
 11857  077A  2F83               	goto	i1l2901
 11858  077B                     u194_20:
 11859  077B                     i1l2899:
 11860                           
 11861                           ;main.c: 119:         PWM3_LoadDutyValue(409);
 11862  077B  3099               	movlw	153
 11863  077C  00F0               	movwf	i1PWM3_LoadDutyValue@dutyValue
 11864  077D  3001               	movlw	1
 11865  077E  00F1               	movwf	i1PWM3_LoadDutyValue@dutyValue+1
 11866  077F  318A  22D8  3187   	fcall	i1_PWM3_LoadDutyValue
 11867                           
 11868                           ;main.c: 120:     }else if(pos_final < pos_atual & PORTAbits.RA7==0){
 11869  0782  2FE2               	goto	i1l812
 11870  0783                     i1l2901:
 11871  0783  0020               	movlb	0	; select bank0
 11872  0784  1F8C               	btfss	12,7	;volatile
 11873  0785  2F87               	goto	u195_21
 11874  0786  2F89               	goto	u195_20
 11875  0787                     u195_21:
 11876  0787  3001               	movlw	1
 11877  0788  2F8A               	goto	u195_22
 11878  0789                     u195_20:
 11879  0789  3000               	movlw	0
 11880  078A                     u195_22:
 11881  078A  00F4               	movwf	??i1_deslocamento
 11882  078B  0021               	movlb	1	; select bank1
 11883  078C  083D               	movf	(_pos_final+1)^(0+128),w
 11884  078D  3A80               	xorlw	128
 11885  078E  00F5               	movwf	??i1_deslocamento+1
 11886  078F  0020               	movlb	0	; select bank0
 11887  0790  086A               	movf	_pos_atual+1,w
 11888  0791  3A80               	xorlw	128
 11889  0792  0275               	subwf	??i1_deslocamento+1,w
 11890  0793  1D03               	skipz
 11891  0794  2F98               	goto	u196_25
 11892  0795  0869               	movf	_pos_atual,w
 11893  0796  0021               	movlb	1	; select bank1
 11894  0797  023C               	subwf	_pos_final^(0+128),w
 11895  0798                     u196_25:
 11896  0798  1C03               	skipc
 11897  0799  2F9B               	goto	u196_21
 11898  079A  2F9D               	goto	u196_20
 11899  079B                     u196_21:
 11900  079B  3001               	movlw	1
 11901  079C  2F9E               	goto	u196_22
 11902  079D                     u196_20:
 11903  079D  3000               	movlw	0
 11904  079E                     u196_22:
 11905  079E  0574               	andwf	??i1_deslocamento,w
 11906  079F  3800               	iorlw	0
 11907  07A0  1903               	skipnz
 11908  07A1  2FA3               	goto	u197_21
 11909  07A2  2FA4               	goto	u197_20
 11910  07A3                     u197_21:
 11911  07A3  2FA5               	goto	i1l803
 11912  07A4                     u197_20:
 11913  07A4  2F7B               	goto	i1l2899
 11914  07A5                     i1l803:
 11915  07A5  0020               	movlb	0	; select bank0
 11916  07A6  1F8C               	btfss	12,7	;volatile
 11917  07A7  2FA9               	goto	u198_21
 11918  07A8  2FAA               	goto	u198_20
 11919  07A9                     u198_21:
 11920  07A9  2FCA               	goto	i1l805
 11921  07AA                     u198_20:
 11922  07AA                     i1l2905:
 11923                           
 11924                           ;main.c: 123:         PWM3_LoadDutyValue(0);
 11925  07AA  3000               	movlw	0
 11926  07AB  00F0               	movwf	i1PWM3_LoadDutyValue@dutyValue
 11927  07AC  00F1               	movwf	i1PWM3_LoadDutyValue@dutyValue+1
 11928  07AD  318A  22D8  3187   	fcall	i1_PWM3_LoadDutyValue
 11929  07B0                     i1l2907:
 11930                           
 11931                           ;main.c: 124:         _delay((unsigned long)((500)*(2000000/4000.0)));
 11932  07B0  3002               	movlw	2
 11933  07B1  00F5               	movwf	??i1_deslocamento+1
 11934  07B2  3045               	movlw	69
 11935  07B3  00F4               	movwf	??i1_deslocamento
 11936  07B4  30AA               	movlw	170
 11937  07B5                     u385_27:
 11938  07B5  0B89               	decfsz	9,f
 11939  07B6  2FB5               	goto	u385_27
 11940  07B7  0BF4               	decfsz	??i1_deslocamento,f
 11941  07B8  2FB5               	goto	u385_27
 11942  07B9  0BF5               	decfsz	??i1_deslocamento+1,f
 11943  07BA  2FB5               	goto	u385_27
 11944  07BB                     i1l2909:
 11945  07BB  0022               	movlb	2	; select bank2
 11946  07BC  138C               	bcf	12,7	;volatile
 11947  07BD                     i1l2911:
 11948                           
 11949                           ;main.c: 126:         motor = 2;
 11950  07BD  3002               	movlw	2
 11951  07BE  0021               	movlb	1	; select bank1
 11952  07BF  00CF               	movwf	_motor^(0+128)
 11953  07C0  3000               	movlw	0
 11954  07C1  00D0               	movwf	(_motor^(0+128)+1)
 11955                           
 11956                           ;main.c: 127:         PWM3_LoadDutyValue(409);
 11957  07C2  3099               	movlw	153
 11958  07C3  00F0               	movwf	i1PWM3_LoadDutyValue@dutyValue
 11959  07C4  3001               	movlw	1
 11960  07C5  00F1               	movwf	i1PWM3_LoadDutyValue@dutyValue+1
 11961  07C6  318A  22D8  3187   	fcall	i1_PWM3_LoadDutyValue
 11962                           
 11963                           ;main.c: 128:     }else if (PORTAbits.RA7==1) {
 11964  07C9  2FE2               	goto	i1l812
 11965  07CA                     i1l805:
 11966  07CA  1F8C               	btfss	12,7	;volatile
 11967  07CB  2FCD               	goto	u199_21
 11968  07CC  2FCE               	goto	u199_20
 11969  07CD                     u199_21:
 11970  07CD  2FE2               	goto	i1l802
 11971  07CE                     u199_20:
 11972  07CE                     i1l2913:
 11973                           
 11974                           ;main.c: 129:         PWM3_LoadDutyValue(0);
 11975  07CE  3000               	movlw	0
 11976  07CF  00F0               	movwf	i1PWM3_LoadDutyValue@dutyValue
 11977  07D0  00F1               	movwf	i1PWM3_LoadDutyValue@dutyValue+1
 11978  07D1  318A  22D8  3187   	fcall	i1_PWM3_LoadDutyValue
 11979  07D4                     i1l2915:
 11980                           
 11981                           ;main.c: 130:         _delay((unsigned long)((500)*(2000000/4000.0)));
 11982  07D4  3002               	movlw	2
 11983  07D5  00F5               	movwf	??i1_deslocamento+1
 11984  07D6  3045               	movlw	69
 11985  07D7  00F4               	movwf	??i1_deslocamento
 11986  07D8  30AA               	movlw	170
 11987  07D9                     u386_27:
 11988  07D9  0B89               	decfsz	9,f
 11989  07DA  2FD9               	goto	u386_27
 11990  07DB  0BF4               	decfsz	??i1_deslocamento,f
 11991  07DC  2FD9               	goto	u386_27
 11992  07DD  0BF5               	decfsz	??i1_deslocamento+1,f
 11993  07DE  2FD9               	goto	u386_27
 11994  07DF                     i1l2917:
 11995  07DF  0022               	movlb	2	; select bank2
 11996  07E0  178C               	bsf	12,7	;volatile
 11997  07E1  2FBD               	goto	i1l2911
 11998  07E2                     i1l802:
 11999  07E2                     i1l812:
 12000  07E2  0008               	return
 12001  07E3                     __end_ofi1_deslocamento:
 12002                           
 12003                           	psect	text70
 12004  0AAC                     __ptext70:	
 12005 ;; *************** function _CCP4_CaptureISR *****************
 12006 ;; Defined at:
 12007 ;;		line 89 in file "mcc_generated_files/ccp4.c"
 12008 ;; Parameters:    Size  Location     Type
 12009 ;;		None
 12010 ;; Auto vars:     Size  Location     Type
 12011 ;;  module          2    8[COMMON] struct CCPR4Reg_tag
 12012 ;; Return value:  Size  Location     Type
 12013 ;;                  1    wreg      void 
 12014 ;; Registers used:
 12015 ;;		wreg, status,2, status,0, pclath, cstack
 12016 ;; Tracked objects:
 12017 ;;		On entry : 0/0
 12018 ;;		On exit  : 0/0
 12019 ;;		Unchanged: 0/0
 12020 ;; Data sizes:     COMMON   BANK0   BANK1   BANK2   BANK3   BANK4
 12021 ;;      Params:         0       0       0       0       0       0
 12022 ;;      Locals:         2       0       0       0       0       0
 12023 ;;      Temps:          1       0       0       0       0       0
 12024 ;;      Totals:         3       0       0       0       0       0
 12025 ;;Total ram usage:        3 bytes
 12026 ;; Hardware stack levels used: 1
 12027 ;; Hardware stack levels required when called: 2
 12028 ;; This function calls:
 12029 ;;		Absolute function
 12030 ;;		_CCP4_DefaultCallBack
 12031 ;;		_Enc
 12032 ;; This function is called by:
 12033 ;;		_INTERRUPT_InterruptManager
 12034 ;; This function uses a non-reentrant model
 12035 ;;
 12036                           
 12037                           
 12038                           ;psect for function _CCP4_CaptureISR
 12039  0AAC                     _CCP4_CaptureISR:
 12040  0AAC                     i1l3435:	
 12041                           ;incstack = 0
 12042                           ; Regs used in _CCP4_CaptureISR: [wreg+status,2+status,0+pclath+cstack]
 12043                           
 12044                           
 12045                           ;mcc_generated_files/ccp4.c: 91:     CCP4_PERIOD_REG_T module;;mcc_generated_files/ccp4.
      +                          c: 94:     PIR3bits.CCP4IF = 0;
 12046  0AAC  0020               	movlb	0	; select bank0
 12047  0AAD  1293               	bcf	19,5	;volatile
 12048  0AAE                     i1l3437:
 12049                           
 12050                           ;mcc_generated_files/ccp4.c: 97:     module.ccpr4l = CCPR4L;
 12051  0AAE  0026               	movlb	6	; select bank6
 12052  0AAF  0818               	movf	24,w	;volatile
 12053  0AB0  00F7               	movwf	??_CCP4_CaptureISR
 12054  0AB1  0877               	movf	??_CCP4_CaptureISR,w
 12055  0AB2  00F8               	movwf	CCP4_CaptureISR@module
 12056                           
 12057                           ;mcc_generated_files/ccp4.c: 98:     module.ccpr4h = CCPR4H;
 12058  0AB3  0819               	movf	25,w	;volatile
 12059  0AB4  00F7               	movwf	??_CCP4_CaptureISR
 12060  0AB5  0877               	movf	??_CCP4_CaptureISR,w
 12061  0AB6  00F9               	movwf	CCP4_CaptureISR@module+1
 12062  0AB7                     i1l3439:
 12063                           
 12064                           ;mcc_generated_files/ccp4.c: 101:     CCP4_CallBack(module.ccpr4_16Bit);
 12065  0AB7  0879               	movf	CCP4_CaptureISR@module+1,w
 12066  0AB8  00F5               	movwf	Enc@colect_value+1
 12067  0AB9  0878               	movf	CCP4_CaptureISR@module,w
 12068  0ABA  00F4               	movwf	Enc@colect_value
 12069  0ABB  0022               	movlb	2	; select bank2
 12070  0ABC  0841               	movf	(_CCP4_CallBack+1)^(0+256),w
 12071  0ABD  008A               	movwf	10
 12072  0ABE  0840               	movf	_CCP4_CallBack^(0+256),w
 12073  0ABF  000A               	callw
 12074  0AC0  318A               	pagesel	$
 12075  0AC1                     i1l652:
 12076  0AC1  0008               	return
 12077  0AC2                     __end_of_CCP4_CaptureISR:
 12078                           
 12079                           	psect	text71
 12080  092E                     __ptext71:	
 12081 ;; *************** function _CCP4_DefaultCallBack *****************
 12082 ;; Defined at:
 12083 ;;		line 60 in file "mcc_generated_files/ccp4.c"
 12084 ;; Parameters:    Size  Location     Type
 12085 ;;  capturedValu    2    4[COMMON] unsigned short 
 12086 ;; Auto vars:     Size  Location     Type
 12087 ;;		None
 12088 ;; Return value:  Size  Location     Type
 12089 ;;                  1    wreg      void 
 12090 ;; Registers used:
 12091 ;;		None
 12092 ;; Tracked objects:
 12093 ;;		On entry : 0/0
 12094 ;;		On exit  : 0/0
 12095 ;;		Unchanged: 0/0
 12096 ;; Data sizes:     COMMON   BANK0   BANK1   BANK2   BANK3   BANK4
 12097 ;;      Params:         2       0       0       0       0       0
 12098 ;;      Locals:         0       0       0       0       0       0
 12099 ;;      Temps:          0       0       0       0       0       0
 12100 ;;      Totals:         2       0       0       0       0       0
 12101 ;;Total ram usage:        2 bytes
 12102 ;; Hardware stack levels used: 1
 12103 ;; This function calls:
 12104 ;;		Nothing
 12105 ;; This function is called by:
 12106 ;;		_CCP4_Initialize
 12107 ;;		_CCP4_CaptureISR
 12108 ;; This function uses a non-reentrant model
 12109 ;;
 12110                           
 12111                           
 12112                           ;psect for function _CCP4_DefaultCallBack
 12113  092E                     _CCP4_DefaultCallBack:
 12114  092E                     i1l646:	
 12115                           ;incstack = 0
 12116                           ; Regs used in _CCP4_DefaultCallBack: []
 12117                           
 12118  092E  0008               	return
 12119  092F                     __end_of_CCP4_DefaultCallBack:
 12120                           
 12121                           	psect	text72
 12122  0CF9                     __ptext72:	
 12123 ;; *************** function _Enc *****************
 12124 ;; Defined at:
 12125 ;;		line 167 in file "main.c"
 12126 ;; Parameters:    Size  Location     Type
 12127 ;;  colect_value    2    4[COMMON] unsigned short 
 12128 ;; Auto vars:     Size  Location     Type
 12129 ;;		None
 12130 ;; Return value:  Size  Location     Type
 12131 ;;                  1    wreg      void 
 12132 ;; Registers used:
 12133 ;;		wreg, status,2, status,0, pclath, cstack
 12134 ;; Tracked objects:
 12135 ;;		On entry : 0/0
 12136 ;;		On exit  : 0/0
 12137 ;;		Unchanged: 0/0
 12138 ;; Data sizes:     COMMON   BANK0   BANK1   BANK2   BANK3   BANK4
 12139 ;;      Params:         2       0       0       0       0       0
 12140 ;;      Locals:         0       0       0       0       0       0
 12141 ;;      Temps:          1       0       0       0       0       0
 12142 ;;      Totals:         3       0       0       0       0       0
 12143 ;;Total ram usage:        3 bytes
 12144 ;; Hardware stack levels used: 1
 12145 ;; Hardware stack levels required when called: 1
 12146 ;; This function calls:
 12147 ;;		_TMR1_WriteTimer
 12148 ;;		i1_PWM3_LoadDutyValue
 12149 ;; This function is called by:
 12150 ;;		_main
 12151 ;;		_CCP4_CaptureISR
 12152 ;; This function uses a non-reentrant model
 12153 ;;
 12154                           
 12155                           
 12156                           ;psect for function _Enc
 12157  0CF9                     _Enc:
 12158  0CF9                     i1l3289:	
 12159                           ;incstack = 0
 12160                           ; Regs used in _Enc: [wreg+status,2+status,0+pclath+cstack]
 12161                           
 12162                           
 12163                           ;main.c: 169:     TMR1_WriteTimer(0);
 12164  0CF9  3000               	movlw	0
 12165  0CFA  00F0               	movwf	TMR1_WriteTimer@timerVal
 12166  0CFB  00F1               	movwf	TMR1_WriteTimer@timerVal+1
 12167  0CFC  318A  2252  318C   	fcall	_TMR1_WriteTimer
 12168  0CFF                     i1l3291:
 12169                           
 12170                           ;main.c: 171:     if(motor==2 && pulsos >= 0){
 12171  0CFF  3002               	movlw	2
 12172  0D00  0021               	movlb	1	; select bank1
 12173  0D01  064F               	xorwf	_motor^(0+128),w
 12174  0D02  0450               	iorwf	(_motor+1)^(0+128),w
 12175  0D03  1D03               	btfss	3,2
 12176  0D04  2D06               	goto	u239_21
 12177  0D05  2D07               	goto	u239_20
 12178  0D06                     u239_21:
 12179  0D06  2D10               	goto	i1l3297
 12180  0D07                     u239_20:
 12181  0D07                     i1l3293:
 12182  0D07  1BCE               	btfsc	(_pulsos+1)^(0+128),7
 12183  0D08  2D0A               	goto	u240_21
 12184  0D09  2D0B               	goto	u240_20
 12185  0D0A                     u240_21:
 12186  0D0A  2D10               	goto	i1l3297
 12187  0D0B                     u240_20:
 12188  0D0B                     i1l3295:
 12189                           
 12190                           ;main.c: 172:         pulsos--;
 12191  0D0B  30FF               	movlw	255
 12192  0D0C  07CD               	addwf	_pulsos^(0+128),f
 12193  0D0D  30FF               	movlw	255
 12194  0D0E  3DCE               	addwfc	(_pulsos+1)^(0+128),f
 12195                           
 12196                           ;main.c: 173:     }
 12197  0D0F  2D3C               	goto	i1l832
 12198  0D10                     i1l3297:
 12199  0D10  034F               	decf	_motor^(0+128),w
 12200  0D11  0450               	iorwf	(_motor+1)^(0+128),w
 12201  0D12  1D03               	btfss	3,2
 12202  0D13  2D15               	goto	u241_21
 12203  0D14  2D16               	goto	u241_20
 12204  0D15                     u241_21:
 12205  0D15  2D29               	goto	i1l3303
 12206  0D16                     u241_20:
 12207  0D16                     i1l3299:
 12208  0D16  084E               	movf	(_pulsos+1)^(0+128),w
 12209  0D17  3A80               	xorlw	128
 12210  0D18  00F6               	movwf	??_Enc
 12211  0D19  3080               	movlw	128
 12212  0D1A  0276               	subwf	??_Enc,w
 12213  0D1B  1D03               	skipz
 12214  0D1C  2D1F               	goto	u242_25
 12215  0D1D  30D8               	movlw	216
 12216  0D1E  024D               	subwf	_pulsos^(0+128),w
 12217  0D1F                     u242_25:
 12218  0D1F  1803               	skipnc
 12219  0D20  2D22               	goto	u242_21
 12220  0D21  2D23               	goto	u242_20
 12221  0D22                     u242_21:
 12222  0D22  2D29               	goto	i1l3303
 12223  0D23                     u242_20:
 12224  0D23                     i1l3301:
 12225                           
 12226                           ;main.c: 175:         pulsos++;
 12227  0D23  3001               	movlw	1
 12228  0D24  0021               	movlb	1	; select bank1
 12229  0D25  07CD               	addwf	_pulsos^(0+128),f
 12230  0D26  3000               	movlw	0
 12231  0D27  3DCE               	addwfc	(_pulsos+1)^(0+128),f
 12232                           
 12233                           ;main.c: 176:     }
 12234  0D28  2D3C               	goto	i1l832
 12235  0D29                     i1l3303:
 12236                           
 12237                           ;main.c: 178:         pulsos = 0;
 12238  0D29  0021               	movlb	1	; select bank1
 12239  0D2A  01CD               	clrf	_pulsos^(0+128)
 12240  0D2B  01CE               	clrf	(_pulsos+1)^(0+128)
 12241  0D2C                     i1l3305:
 12242                           
 12243                           ;main.c: 179:         position = 0;
 12244  0D2C  3000               	movlw	0
 12245  0D2D  00CA               	movwf	(_position+3)^(0+128)
 12246  0D2E  3000               	movlw	0
 12247  0D2F  00C9               	movwf	(_position+2)^(0+128)
 12248  0D30  3000               	movlw	0
 12249  0D31  00C8               	movwf	(_position+1)^(0+128)
 12250  0D32  3000               	movlw	0
 12251  0D33  00C7               	movwf	_position^(0+128)
 12252  0D34                     i1l3307:
 12253                           
 12254                           ;main.c: 180:         speed = 0;
 12255  0D34  01D1               	clrf	_speed^(0+128)
 12256  0D35  01D2               	clrf	(_speed+1)^(0+128)
 12257  0D36                     i1l3309:
 12258                           
 12259                           ;main.c: 181:         PWM3_LoadDutyValue(0);
 12260  0D36  3000               	movlw	0
 12261  0D37  00F0               	movwf	i1PWM3_LoadDutyValue@dutyValue
 12262  0D38  00F1               	movwf	i1PWM3_LoadDutyValue@dutyValue+1
 12263  0D39  318A  22D8  318C   	fcall	i1_PWM3_LoadDutyValue
 12264  0D3C                     i1l832:
 12265  0D3C  0008               	return
 12266  0D3D                     __end_of_Enc:
 12267                           
 12268                           	psect	text73
 12269  0AD8                     __ptext73:	
 12270 ;; *************** function i1_PWM3_LoadDutyValue *****************
 12271 ;; Defined at:
 12272 ;;		line 82 in file "mcc_generated_files/pwm3.c"
 12273 ;; Parameters:    Size  Location     Type
 12274 ;;  dutyValue       2    0[COMMON] unsigned short 
 12275 ;; Auto vars:     Size  Location     Type
 12276 ;;		None
 12277 ;; Return value:  Size  Location     Type
 12278 ;;                  1    wreg      void 
 12279 ;; Registers used:
 12280 ;;		wreg, status,2, status,0
 12281 ;; Tracked objects:
 12282 ;;		On entry : 0/0
 12283 ;;		On exit  : 0/0
 12284 ;;		Unchanged: 0/0
 12285 ;; Data sizes:     COMMON   BANK0   BANK1   BANK2   BANK3   BANK4
 12286 ;;      Params:         2       0       0       0       0       0
 12287 ;;      Locals:         0       0       0       0       0       0
 12288 ;;      Temps:          2       0       0       0       0       0
 12289 ;;      Totals:         4       0       0       0       0       0
 12290 ;;Total ram usage:        4 bytes
 12291 ;; Hardware stack levels used: 1
 12292 ;; This function calls:
 12293 ;;		Nothing
 12294 ;; This function is called by:
 12295 ;;		_Enc
 12296 ;;		_S1
 12297 ;;		_S4
 12298 ;;		i1_deslocamento
 12299 ;; This function uses a non-reentrant model
 12300 ;;
 12301                           
 12302                           
 12303                           ;psect for function i1_PWM3_LoadDutyValue
 12304  0AD8                     i1_PWM3_LoadDutyValue:
 12305  0AD8                     i1l2887:	
 12306                           ;incstack = 0
 12307                           ; Regs used in i1_PWM3_LoadDutyValue: [wreg+status,2+status,0]
 12308                           
 12309                           
 12310                           ;mcc_generated_files/pwm3.c: 82: void PWM3_LoadDutyValue(uint16_t dutyValue);mcc_generat
      +                          ed_files/pwm3.c: 83: {;mcc_generated_files/pwm3.c: 85:     CCPR3L = ((dutyValue & 0x03FC
      +                          )>>2);
 12311  0AD8  0871               	movf	i1PWM3_LoadDutyValue@dutyValue+1,w
 12312  0AD9  00F3               	movwf	??i1_PWM3_LoadDutyValue+1
 12313  0ADA  0870               	movf	i1PWM3_LoadDutyValue@dutyValue,w
 12314  0ADB  00F2               	movwf	??i1_PWM3_LoadDutyValue
 12315  0ADC  36F3               	lsrf	??i1_PWM3_LoadDutyValue+1,f
 12316  0ADD  0CF2               	rrf	??i1_PWM3_LoadDutyValue,f
 12317  0ADE  36F3               	lsrf	??i1_PWM3_LoadDutyValue+1,f
 12318  0ADF  0CF2               	rrf	??i1_PWM3_LoadDutyValue,f
 12319  0AE0  0872               	movf	??i1_PWM3_LoadDutyValue,w
 12320  0AE1  0026               	movlb	6	; select bank6
 12321  0AE2  0091               	movwf	17	;volatile
 12322                           
 12323                           ;mcc_generated_files/pwm3.c: 88:     CCP3CON = ((uint8_t)(CCP3CON & 0xCF) | ((dutyValue 
      +                          & 0x0003)<<4));
 12324  0AE3  0870               	movf	i1PWM3_LoadDutyValue@dutyValue,w
 12325  0AE4  3903               	andlw	3
 12326  0AE5  00F2               	movwf	??i1_PWM3_LoadDutyValue
 12327  0AE6  3004               	movlw	4
 12328  0AE7                     u190_25:
 12329  0AE7  35F2               	lslf	??i1_PWM3_LoadDutyValue,f
 12330  0AE8  0B89               	decfsz	9,f
 12331  0AE9  2AE7               	goto	u190_25
 12332  0AEA  0813               	movf	19,w	;volatile
 12333  0AEB  39CF               	andlw	207
 12334  0AEC  0472               	iorwf	??i1_PWM3_LoadDutyValue,w
 12335  0AED  0093               	movwf	19	;volatile
 12336  0AEE                     i1l482:
 12337  0AEE  0008               	return
 12338  0AEF                     __end_ofi1_PWM3_LoadDutyValue:
 12339                           
 12340                           	psect	text74
 12341  0A52                     __ptext74:	
 12342 ;; *************** function _TMR1_WriteTimer *****************
 12343 ;; Defined at:
 12344 ;;		line 120 in file "mcc_generated_files/tmr1.c"
 12345 ;; Parameters:    Size  Location     Type
 12346 ;;  timerVal        2    0[COMMON] unsigned short 
 12347 ;; Auto vars:     Size  Location     Type
 12348 ;;		None
 12349 ;; Return value:  Size  Location     Type
 12350 ;;                  1    wreg      void 
 12351 ;; Registers used:
 12352 ;;		wreg, status,2
 12353 ;; Tracked objects:
 12354 ;;		On entry : 0/0
 12355 ;;		On exit  : 0/0
 12356 ;;		Unchanged: 0/0
 12357 ;; Data sizes:     COMMON   BANK0   BANK1   BANK2   BANK3   BANK4
 12358 ;;      Params:         2       0       0       0       0       0
 12359 ;;      Locals:         0       0       0       0       0       0
 12360 ;;      Temps:          0       0       0       0       0       0
 12361 ;;      Totals:         2       0       0       0       0       0
 12362 ;;Total ram usage:        2 bytes
 12363 ;; Hardware stack levels used: 1
 12364 ;; This function calls:
 12365 ;;		Nothing
 12366 ;; This function is called by:
 12367 ;;		_TMR1_ISR
 12368 ;;		_Enc
 12369 ;;		_TMR1_Reload
 12370 ;; This function uses a non-reentrant model
 12371 ;;
 12372                           
 12373                           
 12374                           ;psect for function _TMR1_WriteTimer
 12375  0A52                     _TMR1_WriteTimer:
 12376  0A52                     i1l2975:	
 12377                           ;incstack = 0
 12378                           ; Regs used in _TMR1_WriteTimer: [wreg+status,2]
 12379                           
 12380                           
 12381                           ;mcc_generated_files/tmr1.c: 120: void TMR1_WriteTimer(uint16_t timerVal);mcc_generated_
      +                          files/tmr1.c: 121: {;mcc_generated_files/tmr1.c: 122:     if (T1CONbits.nT1SYNC == 1)
 12382  0A52  0020               	movlb	0	; select bank0
 12383  0A53  1D18               	btfss	24,2	;volatile
 12384  0A54  2A56               	goto	u208_21
 12385  0A55  2A57               	goto	u208_20
 12386  0A56                     u208_21:
 12387  0A56  2A5E               	goto	i1l2985
 12388  0A57                     u208_20:
 12389  0A57                     i1l2977:
 12390                           
 12391                           ;mcc_generated_files/tmr1.c: 123:     {;mcc_generated_files/tmr1.c: 125:         T1CONbi
      +                          ts.TMR1ON = 0;
 12392  0A57  1018               	bcf	24,0	;volatile
 12393  0A58                     i1l2979:
 12394                           
 12395                           ;mcc_generated_files/tmr1.c: 128:         TMR1H = (uint8_t)(timerVal >> 8);
 12396  0A58  0871               	movf	TMR1_WriteTimer@timerVal+1,w
 12397  0A59  0097               	movwf	23	;volatile
 12398  0A5A                     i1l2981:
 12399                           
 12400                           ;mcc_generated_files/tmr1.c: 129:         TMR1L = (uint8_t)timerVal;
 12401  0A5A  0870               	movf	TMR1_WriteTimer@timerVal,w
 12402  0A5B  0096               	movwf	22	;volatile
 12403  0A5C                     i1l2983:
 12404                           
 12405                           ;mcc_generated_files/tmr1.c: 132:         T1CONbits.TMR1ON =1;
 12406  0A5C  1418               	bsf	24,0	;volatile
 12407                           
 12408                           ;mcc_generated_files/tmr1.c: 133:     }
 12409  0A5D  2A62               	goto	i1l417
 12410  0A5E                     i1l2985:
 12411                           
 12412                           ;mcc_generated_files/tmr1.c: 135:     {;mcc_generated_files/tmr1.c: 137:         TMR1H =
      +                           (uint8_t)(timerVal >> 8);
 12413  0A5E  0871               	movf	TMR1_WriteTimer@timerVal+1,w
 12414  0A5F  0097               	movwf	23	;volatile
 12415  0A60                     i1l2987:
 12416                           
 12417                           ;mcc_generated_files/tmr1.c: 138:         TMR1L = (uint8_t)timerVal;
 12418  0A60  0870               	movf	TMR1_WriteTimer@timerVal,w
 12419  0A61  0096               	movwf	22	;volatile
 12420  0A62                     i1l417:
 12421  0A62  0008               	return
 12422  0A63                     __end_of_TMR1_WriteTimer:
 12423  007E                     btemp	set	126	;btemp
 12424  007E                     int$flags	set	126
 12425  007E                     wtemp0	set	126
 12426                           
 12427                           	psect	idloc
 12428                           
 12429                           ;Config register IDLOC0 @ 0x8000
 12430                           ;	unspecified, using default values
 12431  8000                     	org	32768
 12432  8000  3FFF               	dw	16383
 12433                           
 12434                           ;Config register IDLOC1 @ 0x8001
 12435                           ;	unspecified, using default values
 12436  8001                     	org	32769
 12437  8001  3FFF               	dw	16383
 12438                           
 12439                           ;Config register IDLOC2 @ 0x8002
 12440                           ;	unspecified, using default values
 12441  8002                     	org	32770
 12442  8002  3FFF               	dw	16383
 12443                           
 12444                           ;Config register IDLOC3 @ 0x8003
 12445                           ;	unspecified, using default values
 12446  8003                     	org	32771
 12447  8003  3FFF               	dw	16383
 12448                           
 12449                           	psect	config
 12450                           
 12451                           ;Config register CONFIG1 @ 0x8007
 12452                           ;	Oscillator Selection
 12453                           ;	FOSC = INTOSC, INTOSC oscillator: I/O function on CLKIN pin
 12454                           ;	Watchdog Timer Enable
 12455                           ;	WDTE = OFF, WDT disabled
 12456                           ;	Power-up Timer Enable
 12457                           ;	PWRTE = OFF, PWRT disabled
 12458                           ;	MCLR Pin Function Select
 12459                           ;	MCLRE = ON, MCLR/VPP pin function is MCLR
 12460                           ;	Flash Program Memory Code Protection
 12461                           ;	CP = OFF, Program memory code protection is disabled
 12462                           ;	Data Memory Code Protection
 12463                           ;	CPD = OFF, Data memory code protection is disabled
 12464                           ;	Brown-out Reset Enable
 12465                           ;	BOREN = ON, Brown-out Reset enabled
 12466                           ;	Clock Out Enable
 12467                           ;	CLKOUTEN = OFF, CLKOUT function is disabled. I/O or oscillator function on the CLKOUT 
      +                          pin
 12468                           ;	Internal/External Switchover
 12469                           ;	IESO = ON, Internal/External Switchover mode is enabled
 12470                           ;	Fail-Safe Clock Monitor Enable
 12471                           ;	FCMEN = ON, Fail-Safe Clock Monitor is enabled
 12472  8007                     	org	32775
 12473  8007  3FE4               	dw	16356
 12474                           
 12475                           ;Config register CONFIG2 @ 0x8008
 12476                           ;	Flash Memory Self-Write Protection
 12477                           ;	WRT = OFF, Write protection off
 12478                           ;	PLL Enable
 12479                           ;	PLLEN = OFF, 4x PLL disabled
 12480                           ;	Stack Overflow/Underflow Reset Enable
 12481                           ;	STVREN = ON, Stack Overflow or Underflow will cause a Reset
 12482                           ;	Brown-out Reset Voltage Selection
 12483                           ;	BORV = LO, Brown-out Reset Voltage (Vbor), low trip point selected.
 12484                           ;	Low-Voltage Programming Enable
 12485                           ;	LVP = ON, Low-voltage programming enabled
 12486  8008                     	org	32776
 12487  8008  3EFF               	dw	16127

Data Sizes:
    Strings     0
    Constant    4
    Data        2
    BSS         88
    Persistent  55
    Stack       0

Auto Spaces:
    Space          Size  Autos    Used
    COMMON           14     14      14
    BANK0            80     73      76
    BANK1            80     11      79
    BANK2            80      4      46
    BANK3            80      0       0
    BANK4            48      0       0

Pointer List with Targets:

    ADC_InterruptHandler	PTR FTN()void  size(2) Largest target is 1
		 -> Absolute function(), 

    CCP4_SetCallBack@customCallBack	PTR FTN(unsigned short ,)void  size(2) Largest target is 1
		 -> Enc(), CCP4_DefaultCallBack(), 

    CCP4_CallBack	PTR FTN(unsigned short ,)void  size(2) Largest target is 1
		 -> Enc(), CCP4_DefaultCallBack(), Absolute function(), 

    TMR4_SetInterruptHandler@InterruptHandler	PTR FTN()void  size(2) Largest target is 1
		 -> comm(), TMR4_DefaultInterruptHandler(), 

    TMR4_InterruptHandler	PTR FTN()void  size(2) Largest target is 1
		 -> comm(), TMR4_DefaultInterruptHandler(), Absolute function(), 

    TMR1_SetInterruptHandler@InterruptHandler	PTR FTN()void  size(2) Largest target is 1
		 -> TMR1_DefaultInterruptHandler(), 

    TMR1_InterruptHandler	PTR FTN()void  size(2) Largest target is 1
		 -> TMR1_DefaultInterruptHandler(), Absolute function(), 

    EUSART_SetRxInterruptHandler@interruptHandler	PTR FTN()void  size(2) Largest target is 1
		 -> recepcao(), EUSART_Receive_ISR(), 

    EUSART_RxDefaultInterruptHandler	PTR FTN()void  size(2) Largest target is 1
		 -> recepcao(), EUSART_Receive_ISR(), Absolute function(), 

    EUSART_SetTxInterruptHandler@interruptHandler	PTR FTN()void  size(2) Largest target is 1
		 -> EUSART_Transmit_ISR(), 

    EUSART_TxDefaultInterruptHandler	PTR FTN()void  size(2) Largest target is 1
		 -> EUSART_Transmit_ISR(), Absolute function(), 

    EUSART_SetErrorHandler@interruptHandler	PTR FTN()void  size(2) Largest target is 1
		 -> EUSART_DefaultErrorHandler(), 

    EUSART_SetOverrunErrorHandler@interruptHandler	PTR FTN()void  size(2) Largest target is 1
		 -> EUSART_DefaultOverrunErrorHandler(), 

    EUSART_SetFramingErrorHandler@interruptHandler	PTR FTN()void  size(2) Largest target is 1
		 -> EUSART_DefaultFramingErrorHandler(), 

    EUSART_ErrorHandler	PTR FTN()void  size(2) Largest target is 1
		 -> EUSART_DefaultErrorHandler(), Absolute function(), 

    EUSART_OverrunErrorHandler	PTR FTN()void  size(2) Largest target is 1
		 -> EUSART_DefaultOverrunErrorHandler(), Absolute function(), 

    EUSART_FramingErrorHandler	PTR FTN()void  size(2) Largest target is 1
		 -> EUSART_DefaultFramingErrorHandler(), Absolute function(), 

    IOCBF3_SetInterruptHandler@InterruptHandler	PTR FTN()void  size(2) Largest target is 1
		 -> S2(), IOCBF3_DefaultInterruptHandler(), 

    IOCBF3_InterruptHandler	PTR FTN()void  size(2) Largest target is 1
		 -> S2(), Absolute function(), IOCBF3_DefaultInterruptHandler(), 

    IOCBF0_SetInterruptHandler@InterruptHandler	PTR FTN()void  size(2) Largest target is 1
		 -> S1(), IOCBF0_DefaultInterruptHandler(), 

    IOCBF0_InterruptHandler	PTR FTN()void  size(2) Largest target is 1
		 -> S1(), Absolute function(), IOCBF0_DefaultInterruptHandler(), 


Critical Paths under _main in COMMON

    None.

Critical Paths under _INTERRUPT_InterruptManager in COMMON

    _TMR4_ISR->_comm
    _comm->_leds
    _leds->i1_txMAX7219
    i1_txMAX7219->i1_SPI1_WriteByte
    _TMR1_ISR->_TMR1_WriteTimer
    _S2->i1_deslocamento
    _S1->i1_PWM3_LoadDutyValue
    _EUSART_Receive_ISR->_EUSART_RxDataHandler
    _EUSART_DefaultErrorHandler->_EUSART_RxDataHandler
    _S4->i1_PWM3_LoadDutyValue
    _S3->i1_deslocamento
    i1_deslocamento->i1_PWM3_LoadDutyValue
    _CCP4_CaptureISR->_Enc
    _Enc->i1_PWM3_LoadDutyValue

Critical Paths under _main in BANK0

    _main->___fldiv
    _initMAX7219->_txMAX7219
    _txMAX7219->_SPI1_WriteByte
    _controle->_deslocamento
    _deslocamento->_PWM3_LoadDutyValue
    ___xxtofl->_ADC_GetConversion
    ___fltol->___fldiv
    ___flmul->___xxtofl
    ___fldiv->___flmul
    _SYSTEM_Initialize->_EUSART_Initialize
    _TMR4_Initialize->_TMR4_SetInterruptHandler
    _TMR1_Initialize->_TMR1_SetInterruptHandler
    _PIN_MANAGER_Initialize->_IOCBF0_SetInterruptHandler
    _PIN_MANAGER_Initialize->_IOCBF3_SetInterruptHandler
    _EUSART_Initialize->_EUSART_SetErrorHandler
    _EUSART_Initialize->_EUSART_SetFramingErrorHandler
    _EUSART_Initialize->_EUSART_SetOverrunErrorHandler
    _EUSART_Initialize->_EUSART_SetRxInterruptHandler
    _EUSART_Initialize->_EUSART_SetTxInterruptHandler
    _CCP4_Initialize->_CCP4_SetCallBack

Critical Paths under _INTERRUPT_InterruptManager in BANK0

    _TMR4_ISR->_comm

Critical Paths under _main in BANK1

    _main->___fltol

Critical Paths under _INTERRUPT_InterruptManager in BANK1

    None.

Critical Paths under _main in BANK2

    None.

Critical Paths under _INTERRUPT_InterruptManager in BANK2

    None.

Critical Paths under _main in BANK3

    None.

Critical Paths under _INTERRUPT_InterruptManager in BANK3

    None.

Critical Paths under _main in BANK4

    None.

Critical Paths under _INTERRUPT_InterruptManager in BANK4

    None.

Call Graph Tables:

 ---------------------------------------------------------------------------------
 (Depth) Function   	        Calls       Base Space   Used Autos Params    Refs
 ---------------------------------------------------------------------------------
 (0) _main                                                 4     4      0   11524
                                              0 BANK2      4     4      0
                  _ADC_GetConversion
                   _CCP4_SetCallBack
       _EUSART_SetRxInterruptHandler
         _IOCBF0_SetInterruptHandler
         _IOCBF3_SetInterruptHandler
                          _SPI1_Open
                  _SYSTEM_Initialize
           _TMR4_SetInterruptHandler
                            ___fldiv
                            ___flmul
                            ___fltol
                           ___xxtofl
                           _controle
                        _initMAX7219
 ---------------------------------------------------------------------------------
 (1) _initMAX7219                                          3     3      0    2312
                                              8 BANK0      3     3      0
                          _txMAX7219
 ---------------------------------------------------------------------------------
 (2) _txMAX7219                                            4     1      3    2312
                                              4 BANK0      4     1      3
                     _SPI1_WriteByte
 ---------------------------------------------------------------------------------
 (3) _SPI1_WriteByte                                       1     1      0      22
                                              3 BANK0      1     1      0
 ---------------------------------------------------------------------------------
 (1) _controle                                             2     2      0    1756
                                              9 BANK0      2     2      0
                 _PWM3_LoadDutyValue
                       _deslocamento
 ---------------------------------------------------------------------------------
 (2) _deslocamento                                         2     2      0     878
                                              7 BANK0      2     2      0
                 _PWM3_LoadDutyValue
 ---------------------------------------------------------------------------------
 (3) _PWM3_LoadDutyValue                                   4     2      2     878
                                              3 BANK0      4     2      2
 ---------------------------------------------------------------------------------
 (1) ___xxtofl                                            14    10      4     550
                                              7 BANK0     14    10      4
                  _ADC_GetConversion (ARG)
 ---------------------------------------------------------------------------------
 (1) ___fltol                                             11     7      4     572
                                              0 BANK1     11     7      4
                  _ADC_GetConversion (ARG)
                            ___fldiv (ARG)
                            ___flmul (ARG)
                           ___xxtofl (ARG)
 ---------------------------------------------------------------------------------
 (1) ___flmul                                             26    18      8    2569
                                             21 BANK0     26    18      8
                          __Umul8_16
                           ___xxtofl (ARG)
 ---------------------------------------------------------------------------------
 (2) __Umul8_16                                            9     7      2     799
                                              3 BANK0      9     7      2
 ---------------------------------------------------------------------------------
 (1) ___fldiv                                             26    18      8    1425
                                             47 BANK0     26    18      8
                  _ADC_GetConversion (ARG)
                            ___flmul (ARG)
                           ___xxtofl (ARG)
 ---------------------------------------------------------------------------------
 (1) _SYSTEM_Initialize                                    0     0      0    1360
                     _ADC_Initialize
                    _CCP4_Initialize
                    _CMP1_Initialize
                    _CMP2_Initialize
                     _DAC_Initialize
                  _EUSART_Initialize
                     _FVR_Initialize
              _OSCILLATOR_Initialize
             _PIN_MANAGER_Initialize
                    _PWM3_Initialize
                    _SPI1_Initialize
                    _TMR1_Initialize
                    _TMR2_Initialize
                    _TMR4_Initialize
                     _WDT_Initialize
 ---------------------------------------------------------------------------------
 (2) _WDT_Initialize                                       0     0      0       0
 ---------------------------------------------------------------------------------
 (2) _TMR4_Initialize                                      0     0      0     174
           _TMR4_SetInterruptHandler
 ---------------------------------------------------------------------------------
 (1) _TMR4_SetInterruptHandler                             2     0      2     174
                                              3 BANK0      2     0      2
 ---------------------------------------------------------------------------------
 (2) _TMR2_Initialize                                      0     0      0       0
 ---------------------------------------------------------------------------------
 (2) _TMR1_Initialize                                      0     0      0      98
           _TMR1_SetInterruptHandler
 ---------------------------------------------------------------------------------
 (3) _TMR1_SetInterruptHandler                             2     0      2      98
                                              3 BANK0      2     0      2
 ---------------------------------------------------------------------------------
 (2) _SPI1_Initialize                                      0     0      0       0
 ---------------------------------------------------------------------------------
 (2) _PWM3_Initialize                                      0     0      0       0
 ---------------------------------------------------------------------------------
 (2) _PIN_MANAGER_Initialize                               0     0      0     348
         _IOCBF0_SetInterruptHandler
         _IOCBF3_SetInterruptHandler
 ---------------------------------------------------------------------------------
 (3) _IOCBF3_SetInterruptHandler                           2     0      2     174
                                              3 BANK0      2     0      2
 ---------------------------------------------------------------------------------
 (3) _IOCBF0_SetInterruptHandler                           2     0      2     174
                                              3 BANK0      2     0      2
 ---------------------------------------------------------------------------------
 (2) _OSCILLATOR_Initialize                                0     0      0       0
 ---------------------------------------------------------------------------------
 (2) _FVR_Initialize                                       0     0      0       0
 ---------------------------------------------------------------------------------
 (2) _EUSART_Initialize                                    1     1      0     566
                                              5 BANK0      1     1      0
             _EUSART_SetErrorHandler
      _EUSART_SetFramingErrorHandler
      _EUSART_SetOverrunErrorHandler
       _EUSART_SetRxInterruptHandler
       _EUSART_SetTxInterruptHandler
 ---------------------------------------------------------------------------------
 (3) _EUSART_SetTxInterruptHandler                         2     0      2      98
                                              3 BANK0      2     0      2
 ---------------------------------------------------------------------------------
 (3) _EUSART_SetRxInterruptHandler                         2     0      2     174
                                              3 BANK0      2     0      2
 ---------------------------------------------------------------------------------
 (3) _EUSART_SetOverrunErrorHandler                        2     0      2      98
                                              3 BANK0      2     0      2
 ---------------------------------------------------------------------------------
 (3) _EUSART_SetFramingErrorHandler                        2     0      2      98
                                              3 BANK0      2     0      2
 ---------------------------------------------------------------------------------
 (3) _EUSART_SetErrorHandler                               2     0      2      98
                                              3 BANK0      2     0      2
 ---------------------------------------------------------------------------------
 (2) _DAC_Initialize                                       0     0      0       0
 ---------------------------------------------------------------------------------
 (2) _CMP2_Initialize                                      0     0      0       0
 ---------------------------------------------------------------------------------
 (2) _CMP1_Initialize                                      0     0      0       0
 ---------------------------------------------------------------------------------
 (2) _CCP4_Initialize                                      0     0      0     174
                   _CCP4_SetCallBack
 ---------------------------------------------------------------------------------
 (3) _CCP4_SetCallBack                                     2     0      2     174
                                              3 BANK0      2     0      2
 ---------------------------------------------------------------------------------
 (2) _ADC_Initialize                                       0     0      0       0
 ---------------------------------------------------------------------------------
 (1) _SPI1_Open                                            4     4      0      88
                                              3 BANK0      4     4      0
 ---------------------------------------------------------------------------------
 (1) _ADC_GetConversion                                    4     2      2      22
                                              3 BANK0      4     2      2
 ---------------------------------------------------------------------------------
 Estimated maximum stack depth 3
 ---------------------------------------------------------------------------------
 (Depth) Function   	        Calls       Base Space   Used Autos Params    Refs
 ---------------------------------------------------------------------------------
 (4) _INTERRUPT_InterruptManager                           0     0      0    2941
                   Absolute function *
                    _CCP4_CaptureISR
                           _CMP1_ISR
                           _CMP2_ISR
                 _EUSART_Receive_ISR *
                _EUSART_Transmit_ISR *
                    _PIN_MANAGER_IOC
                           _TMR1_ISR
                           _TMR4_ISR
                           _recepcao *
 ---------------------------------------------------------------------------------
 (5) _recepcao                                             2     2      0       0
                                              0 COMMON     2     2      0
 ---------------------------------------------------------------------------------
 (5) _TMR4_ISR                                             0     0      0     689
                   Absolute function *
       _TMR4_DefaultInterruptHandler *
                               _comm *
 ---------------------------------------------------------------------------------
 (6) _comm                                                 5     5      0     689
                                             12 COMMON     2     2      0
                                              0 BANK0      3     3      0
                       _EUSART_Write
                               _leds
                          i1___fltol
 ---------------------------------------------------------------------------------
 (7) i1___fltol                                           11     7      4     255
                                              0 COMMON    11     7      4
 ---------------------------------------------------------------------------------
 (7) _leds                                                 7     7      0     322
                                              5 COMMON     7     7      0
                        i1_txMAX7219
 ---------------------------------------------------------------------------------
 (8) i1_txMAX7219                                          4     1      3     188
                                              1 COMMON     4     1      3
                   i1_SPI1_WriteByte
 ---------------------------------------------------------------------------------
 (9) i1_SPI1_WriteByte                                     1     1      0      22
                                              0 COMMON     1     1      0
 ---------------------------------------------------------------------------------
 (7) _EUSART_Write                                         2     2      0      44
                                              0 COMMON     2     2      0
 ---------------------------------------------------------------------------------
 (6) _TMR4_DefaultInterruptHandler                         0     0      0       0
 ---------------------------------------------------------------------------------
 (5) _TMR1_ISR                                             0     0      0     316
                   Absolute function *
       _TMR1_DefaultInterruptHandler *
                    _TMR1_WriteTimer
 ---------------------------------------------------------------------------------
 (6) _TMR1_DefaultInterruptHandler                         0     0      0       0
 ---------------------------------------------------------------------------------
 (5) _PIN_MANAGER_IOC                                      0     0      0     608
                         _IOCBF0_ISR
                         _IOCBF3_ISR
 ---------------------------------------------------------------------------------
 (6) _IOCBF3_ISR                                           0     0      0     304
                   Absolute function *
     _IOCBF3_DefaultInterruptHandler *
                                 _S2 *
 ---------------------------------------------------------------------------------
 (7) _S2                                                   0     0      0     304
                     i1_deslocamento
 ---------------------------------------------------------------------------------
 (7) _IOCBF3_DefaultInterruptHandler                       0     0      0       0
 ---------------------------------------------------------------------------------
 (6) _IOCBF0_ISR                                           0     0      0     304
                   Absolute function *
     _IOCBF0_DefaultInterruptHandler *
                                 _S1 *
 ---------------------------------------------------------------------------------
 (7) _S1                                                   0     0      0     304
               i1_PWM3_LoadDutyValue
 ---------------------------------------------------------------------------------
 (7) _IOCBF0_DefaultInterruptHandler                       0     0      0       0
 ---------------------------------------------------------------------------------
 (5) _EUSART_Transmit_ISR                                  1     1      0       0
                                              0 COMMON     1     1      0
 ---------------------------------------------------------------------------------
 (5) _EUSART_Receive_ISR                                   0     0      0       0
                   Absolute function *
         _EUSART_DefaultErrorHandler *
  _EUSART_DefaultFramingErrorHandler *
  _EUSART_DefaultOverrunErrorHandler *
               _EUSART_RxDataHandler
 ---------------------------------------------------------------------------------
 (6) _EUSART_DefaultOverrunErrorHandler                    0     0      0       0
 ---------------------------------------------------------------------------------
 (6) _EUSART_DefaultFramingErrorHandler                    0     0      0       0
 ---------------------------------------------------------------------------------
 (6) _EUSART_DefaultErrorHandler                           0     0      0       0
               _EUSART_RxDataHandler
 ---------------------------------------------------------------------------------
 (6) _EUSART_RxDataHandler                                 1     1      0       0
                                              0 COMMON     1     1      0
 ---------------------------------------------------------------------------------
 (5) _CMP2_ISR                                             0     0      0     304
                                 _S4
 ---------------------------------------------------------------------------------
 (6) _S4                                                   0     0      0     304
               i1_PWM3_LoadDutyValue
 ---------------------------------------------------------------------------------
 (5) _CMP1_ISR                                             0     0      0     304
                                 _S3
 ---------------------------------------------------------------------------------
 (6) _S3                                                   0     0      0     304
                     i1_deslocamento
 ---------------------------------------------------------------------------------
 (8) i1_deslocamento                                       2     2      0     304
                                              4 COMMON     2     2      0
               i1_PWM3_LoadDutyValue
 ---------------------------------------------------------------------------------
 (5) _CCP4_CaptureISR                                      3     3      0     720
                                              7 COMMON     3     3      0
                   Absolute function *
               _CCP4_DefaultCallBack *
                                _Enc *
 ---------------------------------------------------------------------------------
 (6) _Enc                                                  3     1      2     673
                                              4 COMMON     3     1      2
                    _TMR1_WriteTimer
               i1_PWM3_LoadDutyValue
 ---------------------------------------------------------------------------------
 (9) i1_PWM3_LoadDutyValue                                 4     2      2     304
                                              0 COMMON     4     2      2
 ---------------------------------------------------------------------------------
 (6) _TMR1_WriteTimer                                      2     0      2     316
                                              0 COMMON     2     0      2
 ---------------------------------------------------------------------------------
 (6) _CCP4_DefaultCallBack                                 2     0      2       0
                                              4 COMMON     2     0      2
 ---------------------------------------------------------------------------------
 (6) Absolute function(Fake)                               0     0      0       0
 ---------------------------------------------------------------------------------
 Estimated maximum stack depth 9
 ---------------------------------------------------------------------------------

 Call Graph Graphs:

 _main (ROOT)
   _ADC_GetConversion
   _CCP4_SetCallBack
   _EUSART_SetRxInterruptHandler
   _IOCBF0_SetInterruptHandler
   _IOCBF3_SetInterruptHandler
   _SPI1_Open
   _SYSTEM_Initialize
     _ADC_Initialize
     _CCP4_Initialize
       _CCP4_SetCallBack
     _CMP1_Initialize
     _CMP2_Initialize
     _DAC_Initialize
     _EUSART_Initialize
       _EUSART_SetErrorHandler
       _EUSART_SetFramingErrorHandler
       _EUSART_SetOverrunErrorHandler
       _EUSART_SetRxInterruptHandler
       _EUSART_SetTxInterruptHandler
     _FVR_Initialize
     _OSCILLATOR_Initialize
     _PIN_MANAGER_Initialize
       _IOCBF0_SetInterruptHandler
       _IOCBF3_SetInterruptHandler
     _PWM3_Initialize
     _SPI1_Initialize
     _TMR1_Initialize
       _TMR1_SetInterruptHandler
     _TMR2_Initialize
     _TMR4_Initialize
       _TMR4_SetInterruptHandler
     _WDT_Initialize
   _TMR4_SetInterruptHandler
   ___fldiv
     _ADC_GetConversion (ARG)
     ___flmul (ARG)
       __Umul8_16
       ___xxtofl (ARG)
         _ADC_GetConversion (ARG)
     ___xxtofl (ARG)
   ___flmul
   ___fltol
     _ADC_GetConversion (ARG)
     ___fldiv (ARG)
     ___flmul (ARG)
     ___xxtofl (ARG)
   ___xxtofl
   _controle
     _PWM3_LoadDutyValue
     _deslocamento
       _PWM3_LoadDutyValue
   _initMAX7219
     _txMAX7219
       _SPI1_WriteByte

 _INTERRUPT_InterruptManager (ROOT)
   Absolute function(Fake) *
   _CCP4_CaptureISR *
     Absolute function(Fake) *
     _CCP4_DefaultCallBack *
     _Enc *
       _TMR1_WriteTimer
       i1_PWM3_LoadDutyValue
   _CMP1_ISR *
     _S3
       i1_deslocamento
         i1_PWM3_LoadDutyValue
   _CMP2_ISR *
     _S4
       i1_PWM3_LoadDutyValue
   _EUSART_Receive_ISR *
     Absolute function(Fake) *
     _EUSART_DefaultErrorHandler *
       _EUSART_RxDataHandler
     _EUSART_DefaultFramingErrorHandler *
     _EUSART_DefaultOverrunErrorHandler *
     _EUSART_RxDataHandler *
   _EUSART_Transmit_ISR *
   _PIN_MANAGER_IOC *
     _IOCBF0_ISR
       Absolute function(Fake) *
       _IOCBF0_DefaultInterruptHandler *
       _S1 *
         i1_PWM3_LoadDutyValue
     _IOCBF3_ISR
       Absolute function(Fake) *
       _IOCBF3_DefaultInterruptHandler *
       _S2 *
         i1_deslocamento
   _TMR1_ISR *
     Absolute function(Fake) *
     _TMR1_DefaultInterruptHandler *
     _TMR1_WriteTimer *
   _TMR4_ISR *
     Absolute function(Fake) *
     _TMR4_DefaultInterruptHandler *
     _comm *
       _EUSART_Write
       _leds
         i1_txMAX7219
           i1_SPI1_WriteByte
       i1___fltol
   _recepcao *

 Address spaces:
Name               Size   Autos  Total    Cost      Usage
BIGRAM             170      0       0       0        0.0%
EEDATA             100      0       0       0        0.0%
NULL                 0      0       0       0        0.0%
CODE                 0      0       0       0        0.0%
BITCOMMON            E      0       0       1        0.0%
BITSFR0              0      0       0       1        0.0%
SFR0                 0      0       0       1        0.0%
COMMON               E      E       E       2      100.0%
BITSFR1              0      0       0       2        0.0%
SFR1                 0      0       0       2        0.0%
BITSFR2              0      0       0       3        0.0%
SFR2                 0      0       0       3        0.0%
STACK                0      0       0       3        0.0%
BITSFR3              0      0       0       4        0.0%
SFR3                 0      0       0       4        0.0%
ABS                  0      0      D7       4        0.0%
BITBANK0            50      0       0       5        0.0%
BITSFR4              0      0       0       5        0.0%
SFR4                 0      0       0       5        0.0%
BANK0               50     49      4C       6       95.0%
BITSFR5              0      0       0       6        0.0%
SFR5                 0      0       0       6        0.0%
BITBANK1            50      0       0       7        0.0%
BITSFR6              0      0       0       7        0.0%
SFR6                 0      0       0       7        0.0%
BANK1               50      B      4F       8       98.8%
BITSFR7              0      0       0       8        0.0%
SFR7                 0      0       0       8        0.0%
BITBANK2            50      0       0       9        0.0%
BITSFR8              0      0       0       9        0.0%
SFR8                 0      0       0       9        0.0%
BANK2               50      4      2E      10       57.5%
BITSFR9              0      0       0      10        0.0%
SFR9                 0      0       0      10        0.0%
BITBANK3            50      0       0      11        0.0%
BITSFR10             0      0       0      11        0.0%
SFR10                0      0       0      11        0.0%
BANK3               50      0       0      12        0.0%
BITSFR11             0      0       0      12        0.0%
SFR11                0      0       0      12        0.0%
BITBANK4            30      0       0      13        0.0%
BITSFR12             0      0       0      13        0.0%
SFR12                0      0       0      13        0.0%
BANK4               30      0       0      14        0.0%
BITSFR13             0      0       0      14        0.0%
SFR13                0      0       0      14        0.0%
BITSFR14             0      0       0      15        0.0%
SFR14                0      0       0      15        0.0%
DATA                 0      0      D7      15        0.0%
BITSFR15             0      0       0      16        0.0%
SFR15                0      0       0      16        0.0%
BITSFR16             0      0       0      17        0.0%
SFR16                0      0       0      17        0.0%
BITSFR17             0      0       0      18        0.0%
SFR17                0      0       0      18        0.0%
BITSFR18             0      0       0      19        0.0%
SFR18                0      0       0      19        0.0%
BITSFR19             0      0       0      20        0.0%
SFR19                0      0       0      20        0.0%
BITSFR20             0      0       0      21        0.0%
SFR20                0      0       0      21        0.0%
BITSFR21             0      0       0      22        0.0%
SFR21                0      0       0      22        0.0%
BITSFR22             0      0       0      23        0.0%
SFR22                0      0       0      23        0.0%
BITSFR23             0      0       0      24        0.0%
SFR23                0      0       0      24        0.0%
BITSFR24             0      0       0      25        0.0%
SFR24                0      0       0      25        0.0%
BITSFR25             0      0       0      26        0.0%
SFR25                0      0       0      26        0.0%
BITSFR26             0      0       0      27        0.0%
SFR26                0      0       0      27        0.0%
BITSFR27             0      0       0      28        0.0%
SFR27                0      0       0      28        0.0%
BITSFR28             0      0       0      29        0.0%
SFR28                0      0       0      29        0.0%
BITSFR29             0      0       0      30        0.0%
SFR29                0      0       0      30        0.0%
BITSFR30             0      0       0      31        0.0%
SFR30                0      0       0      31        0.0%
BITSFR31             0      0       0      32        0.0%
SFR31                0      0       0      32        0.0%


Microchip Technology PIC Macro Assembler V2.32 build 20210201212658 
Symbol Table                                                                                   Wed Sep 21 00:21:54 2022

                              _CCP4_Initialize 0A86                  ?_EUSART_SetRxInterruptHandler 0023  
                           SPI1_WriteByte@byte 0023                                   ___fldiv@aexp 0068  
                                 ___fldiv@bexp 0067                                              _u 00BA  
             ??_IOCBF3_DefaultInterruptHandler 0070                ?_IOCBF3_DefaultInterruptHandler 0070  
                                 ___fldiv@sign 0060                                             l41 0C23  
                                           l44 096D                                             l47 0943  
                            ??_CMP1_Initialize 0023                                             _S1 0A74  
                                           _S2 0987                                             _S3 097E  
                                           _S4 0AC2                                             l96 0C85  
                       __end_of_FVR_Initialize 0940                            __Umul8_16@word_mpld 0029  
                                          ?_S1 0070                                            ?_S2 0070  
                                          ?_S3 0070                                            ?_S4 0070  
                                          l108 09CE                                            l118 09D7  
                                          l307 0D83                                            l403 0B20  
                                          l229 0960                                            l192 09FD  
                                          l433 09E9                                            l514 0B4F  
                                          l370 09A1                                            _BCD 00B8  
                                          l196 0DDA                                            l364 09AA  
                                          l517 0B5A                                            l373 09C5  
                                          l367 09B3                                            l376 09BC  
                                          l616 09F2                                            l449 097D  
                                          l626 093F                                            l482 07FE  
                                          l802 068A                                            l803 0649  
                                          l812 068A                                            l805 0670  
                                          l655 0998                                            l479 09E0  
                                          l649 0A97                                            l825 0EA4  
                                          l594 0AAB                                            l499 0975  
                                          l668 0A09                                            l684 0A15  
                                          l694 095A                                            l880 0C2D  
                                          l882 0C32                                            l891 0C50  
                                          l883 0C37                                            l892 0C51  
                                          l885 0C3C                                            l894 0C53  
                                          l886 0C41                                            l878 0C26  
                                          l888 0C46                                            l889 0C4B  
                                          l897 0F16                                            _LED 0130  
                                          _PR2 001B                                            _PR4 0416  
                                          _Enc 0CF9                                _timer1ReloadVal 00D9  
                       ??_EUSART_RxDataHandler 0070                                            _iRx 00B4  
                                          _pwm 00B6                 ?_EUSART_SetFramingErrorHandler 0023  
                                 i1___fltol@f1 0070                                _TMR2_Initialize 0976  
               CCP4_SetCallBack@customCallBack 0023                                            wreg 0009  
                             _CCP4_SetCallBack 0990                                   ___flmul@aexp 0047  
                                 ___flmul@bexp 0048                                   ?_initMAX7219 0070  
                                 ___flmul@sign 0042                                   ___flmul@temp 004D  
                                 ___flmul@prod 0049                        __end_of_CCP4_CaptureISR 0AC2  
                                         ??_S1 0074                                           ??_S2 0076  
                                         ??_S3 0076                                           ??_S4 0074  
                                         ?_Enc 0074                                   ___fltol@exp1 00EC  
                                         l1251 0FFF                                           l1500 0737  
                                         l3101 0A11                                           l1261 0FFF  
                                         l1430 042F                                           l1414 0351  
                                         l3103 0A13                                           l3111 0A9B  
                                         l1511 0703                                           l1416 04AD  
                                         l1512 070F                                           l1504 06E9  
                                         l3201 0D77                                           l3105 093C  
                                         l3121 0976                                           l3113 0A9C  
                                         l4001 0FBC                                           l1258 0FEA  
                                         l3131 0A00                                           l3107 0955  
                                         l3203 0D7D                                           l3123 0979  
                                         l3115 0A9E                                           l1435 047B  
                                         l4011 0FCA                                           l4003 0FBE  
                                         l1436 0495                                           l1460 0275  
                                         l3141 0972                                           l3133 0A05  
                                         l3205 0D7F                                           l3061 09FB  
                                         l3053 09F3                                           l3125 097A  
                                         l3117 0AA0                                           l3109 0A98  
                                         l4021 0FEF                                           l4005 0FC2  
                                         l4013 0FDA                                           l1438 04A4  
                                         l1454 02F9                                           l3151 0A93  
                                         l3143 0A86                                           l3135 0A07  
                                         l3207 0D81                                           l3071 0C6D  
                                         l3063 0C54                                           l3055 09F6  
                                         l3127 097B                                           l3119 0AA8  
                                         l4023 0FF4                                           l3231 0C3D  
                                         l4031 04B8                                           l3137 096E  
                                         l3153 0A95                                           l3145 0A89  
                                         l3129 09FE                                           l3209 0D82  
                                         l3081 0C73                                           l3073 0C6F  
                                         l3065 0C63                                           l3161 09DD  
                                         l3057 09F7                                           l1473 0B8F  
                                         l3233 0C47                                           l4041 04D2  
                                         l4033 04B9                                           l4025 04AE  
                                         l1466 02ED                                           l3139 0971  
                                         l3147 0A8A                                           l3091 096A  
                                         l3083 0C74                                           l3075 0C70  
                                         l3067 0C65                                           l3155 09D8  
                                         l3059 09F9                                           l3171 0B0D  
                                         l3163 0B06                                           l1475 0B9F  
                                         l3331 0B96                                           l3323 0B7E  
                                         l4019 0FE1                                           l3227 0C28  
                                         l4051 05C2                                           l4043 04DA  
                                         l4035 04BA                                           l4027 04B1  
                                         l3421 0B4D                                           l3149 0A8B  
                                         l3181 0D3F                                           l3093 096B  
                                         l3085 0C7C                                           l3077 0C71  
                                         l3069 0C66                                           l3157 09DB  
                                         l3173 0B14                                           l3165 0B08  
                                         l3333 0B9B                                           l3325 0B80  
                                         l3261 05EB                                           l3229 0C33  
                                         l4053 05D0                                           l4045 04E2  
                                         l4037 04C2                                           l4029 04B5  
                                         l3423 0B53                                           l3415 0B3F  
                                         l3191 0D58                                           l3183 0D47  
                                         l3087 0C84                                           l3079 0C72  
                                         l3159 09DC                                           l3175 0B15  
                                         l3167 0B0A                                           l3095 0940  
                                         l3327 0B87                                           l3263 05EE  
                                         l4047 052F                                           l4039 04CA  
                                         l3417 0B4B                                           l3361 0D86  
                                         l3097 0A0A                                           l3193 0D5A  
                                         l3185 0D51                                           l3089 0967  
                                         l3177 0B1D                                           l3169 0B0C  
                                         l3337 0BF6                                           l3601 03E4  
                                         l3521 02FA                                           l3329 0B8B  
                                         l3281 0674                                           l3273 064D  
                                         l3265 05FC                                           l3257 05D6  
                                         l4049 058C                                           l1498 06AE  
                                         l3419 0B4C                                           l3371 0DD8  
                                         l3363 0D8B                                           l3099 0A0C  
                                         l3195 0D5B                                           l3187 0D54  
                                         l3179 0D3D                                           l3611 03FF  
                                         l3603 03E8                                           l3531 030E  
                                         l3523 0300                                           l3283 067A  
                                         l3275 0653                                           l3267 061F  
                                         l3259 05E4                                           l3451 0E37  
                                         l3365 0DAD                                           l3197 0D63  
                                         l3189 0D56                                           l3621 0413  
                                         l3613 0403                                           l3605 03EE  
                                         l3541 0326                                           l3533 0313  
                                         l3525 0304                                           l3701 0102  
                                         l3285 0687                                           l3277 0660  
                                         l3269 0627                                           l3461 0E64  
                                         l3453 0E4A                                           l3367 0DAE  
                                         l3199 0D6B                                           l3631 0434  
                                         l3623 0414                                           l3615 0404  
                                         l3607 03F6                                           l3551 0339  
                                         l3543 032B                                           l3535 031B  
                                         l3527 0308                                           l3711 013F  
                                         l3279 0662                                           l3471 0E96  
                                         l3455 0E4F                                           l3463 0E6D  
                                         l3369 0DBF                                           l3633 0439  
                                         l3641 0461                                           l3625 0418  
                                         l3617 040B                                           l3609 03F8  
                                         l3561 0359                                           l3553 033E  
                                         l3545 032F                                           l3537 031C  
                                         l3529 0309                                           l3721 0187  
                                         l3713 014C                                           l3705 010B  
                                         l3801 068D                                           l3473 0E98  
                                         l3465 0E7E                                           l3457 0E55  
                                         l3481 0EFE                                           l2931 09CF  
                                         l3651 049A                                           l3643 046E  
                                         l3635 0441                                           l3627 042C  
                                         l3619 040F                                           l3571 0377  
                                         l3563 0365                                           l3555 0346  
                                         l3547 0333                                           l3539 031E  
                                         l3731 01C3                                           l3723 0194  
                                         l3715 0166                                           l3707 0118  
                                         l3803 0692                                           l3467 0E83  
                                         l3475 0EA1                                           l3459 0E62  
                                         l3483 0F09                                           l2941 09AB  
                                         l3653 049E                                           l3645 0489  
                                         l3637 0445                                           l3581 03A0  
                                         l3565 0369                                           l3557 0347  
                                         l3549 0334                                           l3741 0214  
                                         l3733 01CA                                           l3725 019B  
                                         l3717 0173                                           l3709 0125  
                                         l3661 00A3                                           l3821 06DA  
                                         l3813 06BF                                           l3805 0696  
                                         l3469 0E89                                           l2933 095D  
                                         l3477 0EA5                                           l2943 0999  
                                         l2935 09B4                                           l3655 04A0  
                                         l3647 048C                                           l3639 045D  
                                         l3591 03C1                                           l3583 03A8  
                                         l3575 0380                                           l3559 0349  
                                         l3751 0249                                           l3743 022B  
                                         l3735 01DE                                           l3727 01A8  
                                         l3719 0180                                           l3671 00B7  
                                         l3663 00A9                                           l3831 0707  
                                         l3823 06E2                                           l3815 06C4  
                                         l3807 06A6                                           l3479 0EF1  
                                         l2937 09BD                                           l2929 09C6  
                                         l3649 0494                                           l3593 03C2  
                                         l3585 03AA                                           l3577 0390  
                                         l3569 0372                                           l3761 025A  
                                         l3753 024A                                           l3745 0232  
                                         l3737 01EB                                           l3729 01AF  
                                         l3681 00D3                                           l3673 00BC  
                                         l3665 00AD                                           l3841 072F  
                                         l3833 0711                                           l3825 06F0  
                                         l3817 06CF                                           l3809 06B6  
                                         l2939 09A2                                           l3587 03AF  
                                         l3595 03C9                                           l3579 0398  
                                         l3771 027F                                           l3763 025E  
                                         l3755 0251                                           l3747 023E  
                                         l3739 01FF                                           l3691 00E6  
                                         l3683 00D7                                           l3675 00C4  
                                         l3667 00B1                                           l3835 0725  
                                         l3827 06F9                                           l3819 06D6  
                                         l2973 09E1                                           l3597 03DB  
                                         l3589 03BD                                           l3781 02B4  
                                         l3773 0287                                           l3765 0272  
                                         l3749 0245                                           l3757 0255  
                                         l3693 00EE                                           l3685 00DB  
                                         l3677 00C6                                           l3669 00B2  
                                         l3837 072A                                           l3829 06FD  
                                         l2991 09EA                                           l3599 03DC  
                                         l3791 02E4                                           l3783 02BE  
                                         l3775 028B                                           l3759 0259  
                                         l3695 00F0                                           l3687 00DC  
                                         l3679 00CE                                           l3839 072E  
                                         l2993 0990                                           l3793 02E8  
                                         l3785 02CC                                           l3777 02A3  
                                         l3769 027A                                           l3697 00F8  
                                         l3689 00E1                                           l3795 02E9  
                                         l3787 02D5                                           l3779 02A7  
                                         l3699 00FD                                           l3797 02F1  
                                         l3789 02D7                                           l2989 07E3  
                                         l3991 0F97                                           l3995 0FA0  
                                         l3997 0FB3                                           l3989 0F8B  
                                         l3999 0FB4                                           u3000 00B1  
                                         u3001 00B0                                           u3010 00B7  
                                         u3011 00B6                                           u3100 020A  
                                         u3020 00BC                                           u2300 05E4  
                                         u3021 00BB                                           u2301 05E3  
                                         _LATA 010C                                           u3110 0221  
                                         u3030 00DB                                           u2310 0602  
                                         u2230 0C32                                           _LATB 010D  
                                         u3031 00DA                                           u2311 0600  
                                         u2231 0C31                                           u3200 027F  
                                         u3040 00E1                                           u2320 0617  
                                         u2312 0603                                           u2240 0C3C  
                                         u3201 027E                                           u3105 0206  
                                         u3041 00E0                                           u2321 0615  
                                         u2305 05E0                                           u2241 0C3B  
                                         u3210 028B                                           u3050 00E6  
                                         u2330 061F                                           u2322 0618  
                                         u2250 0C46                                           u3211 028A  
                                         u3115 021D                                           u3051 00E5  
                                         u2331 061E                                           u2251 0C45  
                                         u3220 0299                                           u3140 0249  
                                         u3060 00FD                                           u3300 06D5  
                                         u2340 062C                                           u2260 0C50  
                                         u3141 0248                                           u3125 022C  
                                         u3061 00FC                                           u3301 06D4  
                                         u2341 062A                                           u2325 0612  
                                         u2261 0C4F                                           u2430 0B8B  
                                         u3230 02B4                                           u3070 0102  
                                         u2350 0640                                           u2342 062D  
                                         u2431 0B8A                                           u3231 02B3  
                                         u3135 023F                                           u3071 0101  
                                         u2095 07F4                                           u2351 063E  
                                         u3240 02CC                                           u3160 0259  
                                         u3320 06EF                                           u2360 0648  
                                         u2352 0641                                           u2600 0E83  
                                         u3241 02CB                                           u3225 0295  
                                         u3161 0258                                           u3321 06EE  
                                         u2361 0647                                           u2601 0E82  
                                         u2450 0B9B                                           u3250 02E8  
                                         u3170 025E                                           u2370 064D  
                                         u2451 0B9A                                           u3251 02E7  
                                         u3235 02B0                                           u3171 025D  
                                         u3155 024B                                           u3315 06E3  
                                         u2371 064C                                           u2355 063B  
                                         u3180 0272                                           u3340 06FD  
                                         u3260 0692                                           u2380 0674  
                                         u2445 0B90                                           u3245 02C8  
                                         u3181 0271                                           u3085 0181  
                                         u3341 06FC                                           u3261 0691  
                                         u2381 0673                                           u2550 0B53  
                                         u2710 0308                                           u3190 0279  
                                         u3350 0703                                           u3270 0696  
                                         u2551 0B52                                           u2711 0307  
                                         u3191 0278                                           u3095 01B0  
                                         u3351 0702                                           u3335 06F3  
                                         u3271 0695                                           u2480 0D8B  
                                         u2720 030E                                           u3360 0707  
                                         u3280 06B6                                           u2481 0D8A  
                                         u2721 030D                                           u3361 0706  
                                         u3281 06B5                                           u2730 0313  
                                         u3370 071B                                           u2570 0E4A  
                            ??_CMP2_Initialize 0023                                           u2731 0312  
                                         u2571 0E49                                           u2900 0413  
                                         u2820 03C1                                           u2740 0333  
                                         u3700 0FC9                                           u3380 072A  
                                         u2580 0E4F                                           u2901 0412  
                                         u2821 03C0                                           u2805 03B0  
                                         u2741 0332                                           u3701 0FC8  
                                         u3381 0729                                           u2581 0E4E  
                                         u2910 0418                                           u2750 0339  
                                         u3390 072E                                           u2590 0E7E  
                                         u2911 0417                                           u2815 03B7  
                                         u2751 0338                                           u3391 072D  
                                         u3375 0717                                           u3295 06C9  
                                         u2591 0E7D                                           u2575 0E46  
                                         u2920 042C                                           u2840 03DB  
                                         u2760 033E                                           u3720 0FD9  
                                         u2921 042B                                           u2841 03DA  
                                         u2761 033D                                           u3721 0FD8  
                                         u2930 0433                                           u2850 03EE  
                                         u2770 0359                                           u3730 0FE0  
                                         u2931 0432                                           u2851 03ED  
                                         u2835 03C3                                           u2771 0358  
                                         u3731 0FDF                                           u3715 0FCB  
                                         u2595 0E7A                                           u2940 0439  
                                         u2860 03F6                                           u2780 0377  
                                         u2941 0438                                           u2861 03F5  
                                         u2845 03D7                                           u2781 0376  
                                         u2950 0445                                           u2790 03AF  
                                         u3750 0FEF                                           u3670 0F97  
                                         u2951 0444                                           u2791 03AE  
                                         u3751 0FEE                                           u3671 0F96  
                                         u3807 0E8F                                           u2960 0453  
                                         u2880 0403                                           u3760 0FF4  
                                         u3680 0FAD                                           u2881 0402  
                                         u3761 0FF3                                           u3745 0FE2  
                                         u3817 05F4                                           u2970 046E  
                                         u3690 0FC2                                           u3770 05D0  
                                         u2971 046D                                           u2875 03F9  
                                         u3691 0FC1                                           u3827 0659  
                                         u3771 05CF                                           u2980 0489  
                                         u2981 0488                                           u2965 044F  
                                         u3685 0FA9                                           u3837 0680  
                                         u2990 049E                                           u2991 049D  
                                         u2975 046A                                           u2895 0405  
                                         u3775 05CC                                           u2985 0485  
                                         u3787 0EF7                                           u3797 0E5B  
                                         _TMR2 001A                                           _TMR4 0415  
                                         _WPUA 020C                                           _WPUB 020D  
                                         _comm 0DDB                                           _main 04AE  
                                         _leds 0C86                                           _temp 00D3  
                                         fsr0h 0005                                           fsr1h 0007  
                                         indf0 0000                                           fsr0l 0004  
                                         indf1 0001                                           fsr1l 0006  
                                         btemp 007E                                           start 0080  
                              ___fldiv@new_exp 0061                               __end_of_CMP1_ISR 094F  
                             __end_of_CMP2_ISR 0955                     ??_TMR1_SetInterruptHandler 0025  
                   ??_TMR4_SetInterruptHandler 0025                                          ??_Enc 0076  
                              ?_FVR_Initialize 0070                                  ?_EUSART_Write 0070  
               __size_of_OSCILLATOR_Initialize 0007                            __size_of_IOCBF0_ISR 000F  
                          __size_of_IOCBF3_ISR 000F                  __end_of_OSCILLATOR_Initialize 096E  
                                ___fltol@sign1 00EB                                          ?_comm 0070  
                                        ?_main 0070                                          ?_leds 0070  
                __size_ofi1_PWM3_LoadDutyValue 0017                                __end_of___fldiv 04AE  
                                  i1_txMAX7219 0BC8                         ??_CCP4_DefaultCallBack 0076  
                              __end_of___flmul 02FA               SPI1_Open@spi1UniqueConfiguration 0026  
                              __end_of___fltol 1000                                          _T1CON 0018  
                                        _T2CON 001C                                          _T4CON 0417  
                                        i1l101 0A73                                          i1l111 0930  
                                        i1l105 0A24                                          i1l121 0931  
                                        i1l115 0A33                                          i1l331 0BA7  
                                        i1l332 0BAF                                          i1l341 0B7B  
                                        i1l229 0948                                          i1l430 0B05  
                                        i1l335 0BC7                                          i1l352 0B3C  
                                        i1l417 0A62                                          i1l361 0937  
                                        i1l338 0B7A                                          i1l355 092F  
                                        i1l436 0932                                          i1l348 0CF8  
                                        i1l613 0A42                                          i1l358 093B  
                                        i1l560 0038                                          i1l482 0AEE  
                                        i1l802 07E2                                          i1l562 0046  
                                        i1l803 07A5                                          i1l619 0933  
                                        i1l555 0012                                          i1l652 0AC1  
                                        i1l812 07E2                                          i1l564 0054  
                                        i1l805 07CA                                          i1l573 007E  
                                        i1l646 092E                                          i1l566 0062  
                                        i1l558 0027                                          i1l567 007E  
                                        i1l832 0D3C                                          i1l840 098F  
                                        i1l568 0070                                          i1l843 0986  
                                        i1l851 0AD7                                          i1l837 0A85  
                                        i1l781 0CBB                                          i1l846 094E  
                                        i1l854 0954                                          i1l880 0BCF  
                                        i1l882 0BD4                                          i1l786 0E36  
                                        i1l891 0BF2                                          i1l883 0BD9  
                                        i1l892 0BF3                                          i1l885 0BDE  
                                        i1l789 0A51                                          i1l894 0BF5  
                                        i1l886 0BE3                                          i1l878 0BC9  
                                        i1l888 0BE8                                          i1l889 0BED  
                                        _RCREG 0199                                          _RCSTA 019D  
                                        _TMR1H 0017                                          _TMR1L 0016  
                                        _TRISA 008C                                          _TRISB 008D  
                                        _TXREG 019A                                          _TXSTA 019E  
                           __size_of_SPI1_Open 0057                                _TMR4_Initialize 0A98  
                             __end_of_TMR1_ISR 0B06                               __end_of_TMR4_ISR 0A43  
                      __end_of_PIN_MANAGER_IOC 0A74                                 _WDT_Initialize 0940  
                                        _count 00ED                                          _motor 00CF  
                                        _speed 00D1                                          comm@i 007C  
                                        leds@i 007A                        __end_of_PWM3_Initialize 09E1  
                      __end_of_TMR1_Initialize 0B21                                          pclath 000A  
                               i1___fltol@exp1 007A                                          status 0003  
                      __end_of_CCP4_Initialize 0A98                                          wtemp0 007E  
                           __size_ofi1___fltol 0074                              ?i1_SPI1_WriteByte 0070  
                              _TMR1_WriteTimer 0A52                       __size_of_SPI1_Initialize 000B  
                      __size_of_SPI1_WriteByte 0006                             ??i1_SPI1_WriteByte 0070  
                             ??_DAC_Initialize 0023                                __initialization 0082  
                                 __end_of_comm 0E37                                   __end_of_main 05D6  
                                 __end_of_leds 0CBC                                 ??_EUSART_Write 0070  
                      __end_of_TMR2_Initialize 097E                    ?_INTERRUPT_InterruptManager 0070  
               ??_EUSART_SetRxInterruptHandler 0025                                         ??_comm 0020  
                                       ??_main 014A                                         ??_leds 0075  
                      _IOCBF0_InterruptHandler 00DF                         __end_of_WDT_Initialize 0944  
                             ?_CCP4_CaptureISR 0070                           __end_of_deslocamento 068B  
    __end_of_EUSART_DefaultFramingErrorHandler 0930     __size_of_EUSART_DefaultFramingErrorHandler 0001  
          ??_EUSART_DefaultFramingErrorHandler 0070             ?_EUSART_DefaultFramingErrorHandler 0070  
            _EUSART_DefaultFramingErrorHandler 092F                                         _ADCON0 009D  
                                       _ADCON1 009E                     _EUSART_OverrunErrorHandler 0144  
                                       _ADRESH 009C                                         _EEADRH 0192  
                                       _ADRESL 009B                                         _EEADRL 0191  
                                       _EEDATH 0194                                         _CCPR3H 0312  
                                       _CCPR4H 0319                                         _EEDATL 0193  
                                       _CCPR3L 0311                                         _CCPR4L 0318  
                                       _EECON2 0196                                         _ANSELA 018C  
                                       _ANSELB 018D                                         _BORCON 0116  
                                       _T1GCON 0019                        TMR1_WriteTimer@timerVal 0070  
                                       i1l3001 0CAA                                         i1l3011 0A83  
                                       i1l3003 0CAE                                         i1l1251 0F8A  
                                       i1l3005 0A74                                         i1l3013 0987  
                                       i1l1261 0F8A                                         i1l3007 0A7A  
                                       i1l3015 098C                                         i1l3031 0F49  
                                       i1l3023 0F2B                                         u200_20 0BD4  
                                       i1l3009 0A80                                         u200_21 0BD3  
                                       i1l3033 0F4D                                         i1l3041 0F65  
                                       i1l3025 0F3E                                         i1l3017 0F17  
                                       i1l1258 0F75                                         i1l3211 0A16  
                                       i1l3051 0F7F                                         i1l3027 0F3F  
                                       i1l3019 0F22                                         i1l3301 0D23  
                                       i1l3213 0A1D                                         i1l3221 0A31  
                                       i1l3029 0F47                                         i1l3303 0D29  
                                       i1l3311 097E                                         i1l3223 0938  
                                       i1l3215 0A22                                         i1l3047 0F6C  
                                       i1l3039 0F55                                         u201_20 0BDE  
                                       i1l3305 0D2C                                         i1l3313 0983  
                                       i1l3321 0AD5                                         i1l3225 0934  
                                       i1l3217 0A25                                         u201_21 0BDD  
                                       i1l3049 0F7A                                         i1l3241 0E10  
                                       i1l3401 0CE4                                         i1l3307 0D34  
                                       i1l3315 0AC2                                         i1l3219 0A2C  
                                       i1l3411 0AF9                                         i1l3251 0E21  
                                       i1l3243 0E17                                         i1l3235 0DDB  
                                       i1l3403 0CEE                                         i1l3309 0D36  
                                       i1l3317 0ACC                                         i1l3341 0A68  
                                       i1l3413 0B00                                         i1l3253 0E25  
                                       i1l3237 0DF0                                         i1l3405 0CF5  
                                       i1l3431 0949                                         i1l3319 0AD2  
                                       i1l3343 0A6B                                         i1l3407 0AEF  
                                       i1l3255 0E33                                         i1l3239 0E02  
                                       u202_20 0BE8                                         u210_20 0CBB  
                                       i1l3433 094C                                         i1l3345 0A70  
                                       i1l3409 0AF1                                         u202_21 0BE7  
                                       u210_21 0CBA                                         i1l3249 0E19  
                                       i1l3441 0A34                                         i1l3291 0CFF  
                                       i1l3435 0AAC                                         i1l3427 094F  
                                       i1l3339 0A63                                         i1l3443 0A36  
                                       i1l3293 0D07                                         i1l3437 0AAE  
                                       i1l2901 0783                                         i1l3429 0952  
                                       i1l3381 0B6E                                         u210_25 0CB7  
                                       i1l3445 0A3D                                         i1l3295 0D0B  
                                       i1l3439 0AB7                                         i1l2911 07BD  
                                       i1l3383 0B74                                         i1l3375 0B5B  
                                       i1l3447 0A43                                         i1l3391 0CC7  
                                       u203_20 0BF2                                         u211_20 0F22  
                                       i1l3297 0D10                                         i1l3289 0CF9  
                                       i1l2913 07CE                                         i1l2905 07AA  
                                       i1l3385 0B75                                         i1l3377 0B62  
                                       u203_21 0BF1                                         i1l2921 0BCB  
                                       u211_21 0F21                                         i1l3449 0A49  
                                       i1l3393 0CCD                                         i1l3299 0D16  
                                       i1l2915 07D4                                         i1l2907 07B0  
                                       i1l3379 0B69                                         i1l2923 0BD5  
                                       i1l3395 0CD3                                         i1l3387 0CBC  
                                       i1l2917 07DF                                         i1l2909 07BB  
                                       i1l2925 0BDF                                         i1l3397 0CD8  
                                       i1l3389 0CC2                                         i1l3901 007A  
                                       i1l2951 0BB0                                         i1l2927 0BE9  
                                       i1l3399 0CDE                                         u204_20 0BA7  
                                       u220_20 0F7F                                         u212_20 0F38  
                                       i1l2953 0BB8                                         i1l2961 0BC5  
                                       u204_21 0BA6                                         i1l2945 0BA1  
                                       u220_21 0F7E                                         i1l2891 0746  
                                       i1l2971 0B37                                         i1l2963 0B21  
                                       i1l2955 0BBC                                         i1l2947 0BA1  
                                       i1l2981 0A5A                                         i1l2893 074C  
                                       i1l2965 0B2C                                         i1l2957 0BC2  
                                       i1l2949 0BAB                                         i1l2885 0945  
                                       u212_25 0F34                                         i1l2983 0A5C  
                                       i1l2975 0A52                                         i1l2887 0AD8  
                                       i1l2895 074F                                         i1l2967 0B30  
                                       i1l2959 0BC3                                         i1l3871 000E  
                                       u221_20 0A1D                                         u205_20 0BAB  
                                       u213_20 0F4D                                         i1l2977 0A57  
                                       i1l2985 0A5E                                         i1l2897 075B  
                                       i1l2889 0738                                         i1l2969 0B36  
                                       u221_21 0A1C                                         u205_21 0BAA  
                                       u213_21 0F4C                                         i1l3881 0031  
                                       i1l3873 0016                                         i1l2987 0A60  
                                       i1l2979 0A58                                         i1l2899 077B  
                                       i1l2995 0C86                                         i1l3891 0059  
                                       i1l3883 003D                                         i1l3875 001B  
                                       i1l3867 0006                                         i1l3893 005E  
                                       i1l3885 0042                                         i1l3877 0020  
                                       i1l3869 000A                                         i1l2999 0C8A  
                                       i1l3895 0067                                         i1l3887 004B  
                                       i1l3879 002C                                         u222_20 0A2C  
                                       u206_20 0BC2                                         u214_20 0F54  
                                       u222_21 0A2B                                         u206_21 0BC1  
                                       u214_21 0F53                                         i1l3897 006C  
                                       i1l3889 0050                                         i1l3899 0075  
                                       u207_20 0B36                                         u207_21 0B35  
                                       u215_25 0F56                                         u208_20 0A57  
                                       u240_20 0D0B                                         u216_20 0F64  
                                       u208_21 0A56                                         u240_21 0D0A  
                                       u216_21 0F63                                         u241_20 0D16  
                                       u217_20 0F6B                                         u241_21 0D15  
                                       u217_21 0F6A                                         u242_20 0D23  
                                       u250_20 0B74                                         u242_21 0D22  
                                       u250_21 0B73                                         u242_25 0D1F  
                                       u218_25 0F6D                                         u219_20 0F7A  
                                       u251_20 0CC7                                         _FVRCON 0117  
                                       u219_21 0F79                                         u251_21 0CC6  
                                       u227_25 0DE4                                         u252_20 0CD8  
                                       u252_21 0CD7                                         u228_25 0E06  
                                       u229_20 0E33                                         u253_20 0CEE  
                                       u229_21 0E32                                         u253_21 0CED  
                                       u229_25 0E2F                                         u246_20 0A68  
                                       u254_20 0B00                                         u350_20 0042  
                                       u342_20 000A                                         u246_21 0A67  
                                       u254_21 0AFF                                         u350_21 0041  
                                       u342_21 0009                                         u190_25 0AE7  
                                       u239_20 0D07                                         u191_20 0746  
                                       u247_20 0A70                                         u351_20 004B  
                                       u343_20 000E                                         u239_21 0D06  
                                       u191_21 0745                                         u247_21 0A6F  
                                       u351_21 004A                                         u343_21 000D  
                                       u191_25 0742                                         u192_20 0761  
                                       u256_20 0A3D                                         u352_20 0050  
                                       u344_20 0016                                         u192_21 075F  
                                       u256_21 0A3C                                         u352_21 004F  
                                       u344_21 0015                                         u192_22 0762  
                                       u193_20 0774                                         u249_20 0B62  
                                       u353_20 0059                                         u345_20 001B  
                                       u193_21 0772                                         u249_21 0B61  
                                       u353_21 0058                                         u345_21 001A  
                                       u193_22 0775                                         u193_25 076F  
                                       u194_20 077B                                         u354_20 005E  
                                       u346_20 0020                                         u194_21 077A  
                                       u354_21 005D                                         u346_21 001F  
                                       u195_20 0789                                         u355_20 0067  
                                       u347_20 002C                                         u195_21 0787  
                                       u355_21 0066                                         u347_21 002B  
                                       u195_22 078A                                         u196_20 079D  
                                       u356_20 006C                                         u348_20 0031  
                                       u196_21 079B                                         u356_21 006B  
                                       u348_21 0030                                         u196_22 079E  
                                       u196_25 0798                                         u197_20 07A4  
                                       u357_20 0075                                         u349_20 003D  
                                       u197_21 07A3                                         u357_21 0074  
                                       u349_21 003C                                         u198_20 07AA  
                                       u358_20 007A                                         u198_21 07A9  
                                       u358_21 0079                                         u199_20 07CE  
                                       u199_21 07CD                                         u384_27 0754  
                                       u385_27 07B5                                         _OSCCON 0099  
                                       u386_27 07D9                                         _SPBRGH 019C  
                                       _SPBRGL 019B                                         _WDTCON 0097  
                             __end_of___xxtofl 0738                              __end_of_SPI1_Open 0DDB  
         __end_of_TMR1_DefaultInterruptHandler 0933          __size_of_TMR1_DefaultInterruptHandler 0001  
                 _TMR1_DefaultInterruptHandler 0932                                   _CCPTMRS0bits 029E  
                  __size_of_PWM3_LoadDutyValue 001C                                      ??___fldiv 0057  
                                    ??___flmul 003D                               __end_of_controle 0EA5  
                                    ??___fltol 00E6                            _EUSART_Transmit_ISR 0B5B  
                                       _matrix 0120                        __end_of_TMR4_Initialize 0AAC  
                                       _rxByte 00C1                                         _txByte 00B0  
                             __end_of_recepcao 0A52                                  _CCP4_CallBack 0140  
                                       _pulsos 00CD                              __end_ofi1___fltol 0F8B  
         __end_of_TMR4_DefaultInterruptHandler 0934          __size_of_TMR4_DefaultInterruptHandler 0001  
                 _TMR4_DefaultInterruptHandler 0933                             __size_of__Umul8_16 0024  
                              ?_WDT_Initialize 0070                                i1___fltol@sign1 0079  
                     ADC_GetConversion@channel 0026                                      ?_CMP1_ISR 0070  
                                    ?_CMP2_ISR 0070       TMR4_SetInterruptHandler@InterruptHandler 0023  
     TMR1_SetInterruptHandler@InterruptHandler 0023     IOCBF3_SetInterruptHandler@InterruptHandler 0023  
   IOCBF0_SetInterruptHandler@InterruptHandler 0023                               ?_PIN_MANAGER_IOC 0070  
                      __end_of_TMR1_WriteTimer 0A63                                   ??_IOCBF0_ISR 0074  
                         __size_of_initMAX7219 0072                           ?_EUSART_Transmit_ISR 0070  
                                 ??_IOCBF3_ISR 0076                               ?_TMR1_Initialize 0070  
                             ?_PWM3_Initialize 0070                                   ___xxtofl@arg 0031  
                                 ___xxtofl@exp 0030                              _SYSTEM_Initialize 0BF6  
                                 ___xxtofl@val 0027                        __end_of__initialization 009F  
                             ?_CCP4_Initialize 0070                                _CMP1_Initialize 09FE  
                           ?_SYSTEM_Initialize 0070                                     ___fltol@f1 00E2  
         __end_of_EUSART_SetTxInterruptHandler 09C6          __size_of_EUSART_SetTxInterruptHandler 0009  
                 _EUSART_SetTxInterruptHandler 09BD                       __end_of_CCP4_SetCallBack 0999  
                               __pcstackCOMMON 0070                                   __pidataBANK1 0002  
                          ??_SYSTEM_Initialize 0026                                      ?_TMR1_ISR 0070  
                ?_TMR1_DefaultInterruptHandler 0070                                      ?_TMR4_ISR 0070  
                            ??_SPI1_Initialize 0023         __end_of_IOCBF0_DefaultInterruptHandler 0931  
      __size_of_IOCBF0_DefaultInterruptHandler 0001                 _IOCBF0_DefaultInterruptHandler 0930  
                             ?_TMR2_Initialize 0070                        __size_ofi1_deslocamento 00AB  
                                   __end_of_S1 0A86                                     __end_of_S2 0990  
                                   __end_of_S3 0987                                     __end_of_S4 0AD8  
                           __end_of_IOCBF0_ISR 0A25                             __end_of_IOCBF3_ISR 0A34  
                              _CMP2_Initialize 0A0A                             _spi1_configuration 07FF  
                               _OPTION_REGbits 0095                           _eusartRxStatusBuffer 00A0  
                ?_TMR4_DefaultInterruptHandler 0070                ??_EUSART_SetOverrunErrorHandler 0025  
       __end_of_IOCBF3_DefaultInterruptHandler 0932        __size_of_IOCBF3_DefaultInterruptHandler 0001  
               _IOCBF3_DefaultInterruptHandler 0931                                     ??_CMP1_ISR 0076  
                                   ??_CMP2_ISR 0074                      __end_of_SYSTEM_Initialize 0C24  
                        ??_EUSART_Transmit_ISR 0070                                     __pbssBANK0 0069  
                                   __pbssBANK1 00A0                                     __pbssBANK2 0120  
                         __end_of_EUSART_Write 0BC8                             __size_of_txMAX7219 0030  
                  __size_of_EUSART_Receive_ISR 003D                                 _SPI1_WriteByte 095B  
                        _TMR4_InterruptHandler 00D5                              __end_of__Umul8_16 0BA0  
                             ??_FVR_Initialize 0023                                     __pmaintext 04AE  
                i1PWM3_LoadDutyValue@dutyValue 0070                  ?_EUSART_SetTxInterruptHandler 0023  
             _EUSART_TxDefaultInterruptHandler 00DB                                     ??_TMR1_ISR 0072  
                                   ??_TMR4_ISR 007E                                     __pintentry 0004  
                                      _DACCON0 0118                                        _DACCON1 0119  
                                      _CM1CON0 0111                                        _CM1CON1 0112  
                                      _CM2CON0 0113                                        _CM2CON1 0114  
                                      _CCP3CON 0313                                        _CCP4CON 031A  
                                      _BAUDCON 019F                               ?_TMR4_Initialize 0070  
                                      _APFCON0 011D                                        _APFCON1 011E  
                 ??_EUSART_DefaultErrorHandler 0071                                   ?i1_txMAX7219 0071  
                      __size_of_ADC_Initialize 0008                          __size_of_deslocamento 00B5  
                                _eusartRxCount 00C3                                      ?___xxtofl 0027  
                __size_of_EUSART_RxDataHandler 001C                                        _OSCTUNE 0098  
                                      _SSP1ADD 0212                                        _SSP1BUF 0211  
                      __end_of_CMP1_Initialize 0A0A                       ??_EUSART_SetErrorHandler 0025  
                             ?_TMR1_WriteTimer 0070                                      ?_controle 0070  
                       __end_of_SPI1_WriteByte 0961                   __end_ofi1_PWM3_LoadDutyValue 0AEF  
                                    ?_recepcao 0070                           _ADC_InterruptHandler 00BE  
          __size_of_EUSART_DefaultErrorHandler 0004                                   _deslocamento 05D6  
                      __end_of_CMP2_Initialize 0A16                                        ___fldiv 02FA  
                                      ___flmul 00A3                                        ___fltol 0F8B  
                                      __ptext1 0EA5                                        __ptext2 0C24  
                                      __ptext3 095B                                        __ptext4 0E37  
                                      __ptext5 05D6                                        __ptext6 07E3  
                                      __ptext7 068B                                        __ptext8 0F8B  
                                      __ptext9 00A3                      __size_ofi1_SPI1_WriteByte 0005  
               ??_TMR1_DefaultInterruptHandler 0070                              __end_of_txMAX7219 0C54  
                                    _T1CONbits 0018                                   __size_of_Enc 0044  
                        _OSCILLATOR_Initialize 0967                                      _T2CONbits 001C  
                                   ??___xxtofl 002B                                      _CMOUTbits 0115  
                __size_of_CCP4_DefaultCallBack 0001              __size_of_TMR1_SetInterruptHandler 0009  
                                    _T4CONbits 0417                       ??_PIN_MANAGER_Initialize 0025  
            __size_of_TMR4_SetInterruptHandler 0009                      ?_TMR1_SetInterruptHandler 0023  
                                    _IOCBFbits 0396                      ?_TMR4_SetInterruptHandler 0023  
                                    _IOCBNbits 0395                                      _IOCBPbits 0394  
                   __size_of_SYSTEM_Initialize 002E                                        clrloop0 0962  
                         end_of_initialization 009F                                   _colect_value 00CB  
               ??_TMR4_DefaultInterruptHandler 0070                                     ??_controle 0029  
        __end_of_EUSART_SetOverrunErrorHandler 09B4         __size_of_EUSART_SetOverrunErrorHandler 0009  
                _EUSART_SetOverrunErrorHandler 09AB                                ?_SPI1_WriteByte 0070  
                                   ??_recepcao 0070                              _EUSART_Initialize 0D3D  
                           ?_EUSART_Initialize 0070                                      _RCSTAbits 019D  
                                    _SPI1_Open 0D84                                 i1_deslocamento 0738  
                          ??_EUSART_Initialize 0025                               ??_WDT_Initialize 0023  
               ??_EUSART_SetTxInterruptHandler 0025                                      _PORTAbits 000C  
                                ___xxtofl@sign 002F                                 txMAX7219@addr0 0027  
                               txMAX7219@addr1 0025                                      _TRISBbits 008D  
                        __size_of_EUSART_Write 0028                                    ___fldiv@grs 0063  
                                    i1___fltol 0F17                                    ___fldiv@rem 005C  
                 ??_IOCBF0_SetInterruptHandler 0025                   ??_IOCBF3_SetInterruptHandler 0025  
                             ?_CMP1_Initialize 0070                __size_of_EUSART_SetErrorHandler 0009  
                            __size_of_CMP1_ISR 0006                              __size_of_CMP2_ISR 0006  
                                  ___flmul@grs 0043                      __end_of_EUSART_Initialize 0D84  
                              _SPI1_Initialize 09F3                                      _TXSTAbits 019E  
                     __size_of_CCP4_CaptureISR 0016              CCP4_DefaultCallBack@capturedValue 0074  
                   __end_of_PWM3_LoadDutyValue 07FF                              ?_CCP4_SetCallBack 0023  
                       __end_ofi1_deslocamento 07E3                               ?_CMP2_Initialize 0070  
                                   ?_SPI1_Open 0070                             ??_CCP4_SetCallBack 0025  
           __end_of_EUSART_DefaultErrorHandler 0938                     _EUSART_DefaultErrorHandler 0934  
                                 _EUSART_Write 0BA0                              __size_of_TMR1_ISR 0017  
                            __size_of_TMR4_ISR 000F                                 _ADC_Initialize 096E  
          __size_of_IOCBF0_SetInterruptHandler 0009            __size_of_IOCBF3_SetInterruptHandler 0009  
                       ?_OSCILLATOR_Initialize 0070                           i1_PWM3_LoadDutyValue 0AD8  
                      __size_of_DAC_Initialize 0006                           __size_ofi1_txMAX7219 002E  
                          start_initialization 0082                                  ??_initMAX7219 0028  
                                  __end_of_Enc 0D3D                __size_of_PIN_MANAGER_Initialize 0032  
                                   ?i1___fltol 0070   EUSART_SetRxInterruptHandler@interruptHandler 0023  
 EUSART_SetTxInterruptHandler@interruptHandler 0023                       __size_of_PIN_MANAGER_IOC 0011  
               ?_EUSART_SetOverrunErrorHandler 0023                       __size_of_PWM3_Initialize 0009  
                     __size_of_TMR1_Initialize 001B                     _EUSART_FramingErrorHandler 0146  
                              ?i1_deslocamento 0070                         _EUSART_SetErrorHandler 0999  
                     __size_of_CCP4_Initialize 0012                         __end_of_ADC_Initialize 0976  
                                    __Umul8_16 0B7C                                    __pdataBANK1 00ED  
                        ?i1_PWM3_LoadDutyValue 0070                               i1_SPI1_WriteByte 0944  
                        CCP4_CaptureISR@module 0078                                      ___fldiv@a 004F  
                                    ___fldiv@b 0053                    __end_of_EUSART_Transmit_ISR 0B7C  
                                    ___flmul@a 0039                                      ___flmul@b 0035  
                                    ___latbits 0001                                  __pcstackBANK0 0020  
                                __pcstackBANK1 00E2                                  __pcstackBANK2 014A  
                     __size_of_TMR2_Initialize 0008                              __size_of___xxtofl 00AD  
                      __end_of_SPI1_Initialize 09FE                     __end_of_EUSART_Receive_ISR 0CF9  
                   __size_of_EUSART_Initialize 0047                            __end_of_initMAX7219 0F17  
             _EUSART_RxDefaultInterruptHandler 0148                              __size_of_controle 006E  
                                    __pnvBANK1 00D5                                      __pnvBANK2 0140  
                      _IOCBF3_InterruptHandler 00DD                   __end_of_EUSART_RxDataHandler 0B3D  
                       _PIN_MANAGER_Initialize 0C54                              __size_of_recepcao 000F  
             __end_of_TMR1_SetInterruptHandler 09EA               __end_of_TMR4_SetInterruptHandler 09F3  
                                     ?___fldiv 004F                              ??_CCP4_CaptureISR 0077  
                                     ?___flmul 0035                                       ?___fltol 00E2  
                                   ?__Umul8_16 0023                                    ??_SPI1_Open 0023  
                              ?_ADC_Initialize 0070                                   _eusartRxHead 006B  
                                 _eusartTxHead 00C6                                   _eusartRxTail 00C4  
                                 _eusartTxTail 00C5                   ??_INTERRUPT_InterruptManager 007E  
                      _eusartTxBufferRemaining 00E1             __end_of_IOCBF0_SetInterruptHandler 09CF  
                   _IOCBF0_SetInterruptHandler 09C6             __end_of_IOCBF3_SetInterruptHandler 09D8  
                   _IOCBF3_SetInterruptHandler 09CF                       __size_of_TMR4_Initialize 0014  
                             ??_SPI1_WriteByte 0023                                      _txMAX7219 0C24  
                                  ??i1___fltol 0074                                       _CMP1_ISR 0949  
                                     _CMP2_ISR 094F                                    __size_of_S1 0012  
                                  __size_of_S2 0009                                    __size_of_S3 0009  
                                  __size_of_S4 0016                                 _eusartRxBuffer 0138  
                               _eusartTxBuffer 00A8                                       _LATAbits 010C  
       EUSART_SetErrorHandler@interruptHandler 0023                                       _LATBbits 010D  
                                    clear_ram0 0961                   __end_of_CCP4_DefaultCallBack 092F  
                                     _PIE1bits 0091                                       _PIE2bits 0092  
                                     _PIE3bits 0093                              _eusartRxLastError 00C2  
                     __size_of_TMR1_WriteTimer 0011            __size_of_INTERRUPT_InterruptManager 007C  
                                     _PIR1bits 0011                ??_EUSART_SetFramingErrorHandler 0025  
                                     _PIR2bits 0012                                       _PIR3bits 0013  
                         i1SPI1_WriteByte@byte 0070                                      _pos_final 00BC  
                                     _SSP1CON1 0215                                       _SSP1CON2 0216  
                                    _pos_atual 0069      __end_of_EUSART_DefaultOverrunErrorHandler 093C  
   __size_of_EUSART_DefaultOverrunErrorHandler 0004            ??_EUSART_DefaultOverrunErrorHandler 0070  
           ?_EUSART_DefaultOverrunErrorHandler 0070              _EUSART_DefaultOverrunErrorHandler 0938  
                                     _TMR1_ISR 0AEF                                       _TMR4_ISR 0A34  
                                     _SSP1STAT 0214                              ??_PIN_MANAGER_IOC 0076  
                       ??i1_PWM3_LoadDutyValue 0072                                  txMAX7219@dat0 0024  
                                txMAX7219@dat1 0026                              ??_TMR1_Initialize 0025  
                            ??_PWM3_Initialize 0023                                     _ADCON0bits 009D  
                               _DAC_Initialize 0955                        __size_of_FVR_Initialize 0004  
                            ??_CCP4_Initialize 0025                                    _initMAX7219 0EA5  
                                   ?_txMAX7219 0024                               ?_SPI1_Initialize 0070  
                            ??_TMR2_Initialize 0023                                    _enviarDados 00C0  
                                   _EECON1bits 0195                               i1txMAX7219@addr0 0074  
                             i1txMAX7219@addr1 0072                              _ADC_GetConversion 0B3D  
                      ??_OSCILLATOR_Initialize 0023                                    ??__Umul8_16 0025  
                          _EUSART_ErrorHandler 0142                             ?_ADC_GetConversion 0023  
                             __size_of___fldiv 01B4                               __size_of___flmul 0257  
                             __size_of___fltol 0075                         __end_of_DAC_Initialize 095B  
                  ?_EUSART_DefaultErrorHandler 0070                       _TMR1_SetInterruptHandler 09E1  
                     _TMR4_SetInterruptHandler 09EA                             _PWM3_LoadDutyValue 07E3  
                        _TMR1_InterruptHandler 00D7                            ??_ADC_GetConversion 0025  
                                     ___xxtofl 068B                      __size_of_CCP4_SetCallBack 0009  
                         _EUSART_RxDataHandler 0B21                                       __ptext10 0B7C  
                                     __ptext11 02FA                                       __ptext20 09D8  
                                     __ptext12 0BF6                                       __ptext21 0C54  
                                     __ptext13 0940                                     _T1GCONbits 0019  
                                     __ptext30 09A2                                       __ptext22 09CF  
                                     __ptext14 0A98                                       __ptext31 0999  
                                     __ptext23 09C6                                       __ptext15 09EA  
                                     __ptext32 0955                                       __ptext24 0967  
                                     __ptext16 0976                                       __ptext41 0CBC  
                                     __ptext33 0A0A                                       __ptext25 093C  
                                     __ptext17 0B06                                       __ptext50 0BA0  
                                     __ptext42 0A43                                       __ptext34 09FE  
                                     __ptext26 0D3D                                       __ptext18 09E1  
                                     __ptext51 0AEF                                       __ptext43 0A34  
                                     __ptext35 0A86                                       __ptext27 09BD  
                                     __ptext19 09F3                                       __ptext60 0B5B  
                                     __ptext52 0932                                       __ptext44 0933  
                                     __ptext36 0990                                       __ptext28 09B4  
                                     __ptext61 0938                                       __ptext53 0A63  
                                     __ptext45 0DDB                                       __ptext37 096E  
                                     __ptext29 09AB                                       __ptext70 0AAC  
                                     __ptext62 092F                                       __ptext54 0A25  
                                     __ptext46 0F17                                       __ptext38 0D84  
                                     __ptext71 092E                                       __ptext63 0934  
                                     __ptext55 0931                                       __ptext47 0C86  
                                     __ptext39 0B3D                                       __ptext72 0CF9  
                                     __ptext64 0B21                                       __ptext56 0987  
                                     __ptext48 0BC8                                       __ptext73 0AD8  
                                     __ptext65 094F                                       __ptext57 0A16  
                                     __ptext49 0944                                       __ptext74 0A52  
                                     __ptext66 0AC2                                       __ptext58 0930  
                          ?_PWM3_LoadDutyValue 0023                                       __ptext67 0949  
                                     __ptext59 0A74                                       __ptext68 097E  
                                     __ptext69 0738                                   _SSP1CON1bits 0215  
                                   _IOCBF0_ISR 0A16                                     _IOCBF3_ISR 0A25  
                                     _controle 0E37                              ??_TMR4_Initialize 0025  
                                __size_of_comm 005C                                  __size_of_main 0128  
                                __size_of_leds 0036                       __end_ofi1_SPI1_WriteByte 0949  
                                     _recepcao 0A43                               ??i1_deslocamento 0074  
                    __end_of_ADC_GetConversion 0B5B                       __size_of_CMP1_Initialize 000C  
                      ?_EUSART_SetErrorHandler 0023  EUSART_SetOverrunErrorHandler@interruptHandler 0023  
                         ??_PWM3_LoadDutyValue 0025                                       int$flags 007E  
                                     _position 00C7             __end_of_INTERRUPT_InterruptManager 0080  
                   _INTERRUPT_InterruptManager 0004          __end_of_EUSART_SetFramingErrorHandler 09AB  
       __size_of_EUSART_SetFramingErrorHandler 0009                  _EUSART_SetFramingErrorHandler 09A2  
                              ?_DAC_Initialize 0070                              ??_TMR1_WriteTimer 0072  
                                ??i1_txMAX7219 0074                                     _INTCONbits 000B  
                     __size_of_CMP2_Initialize 000C                           _CCP4_DefaultCallBack 092E  
                              i1txMAX7219@dat0 0071                                i1txMAX7219@dat1 0073  
                        ?_EUSART_RxDataHandler 0070                                     _FVRCONbits 0117  
                                  ??_txMAX7219 0027                        __size_of_WDT_Initialize 0004  
                                     intlevel1 0000                                _CCP4_CaptureISR 0AAC  
                      ?_PIN_MANAGER_Initialize 0070                                Enc@colect_value 0074  
               __end_of_EUSART_SetErrorHandler 09A2                               ??_ADC_Initialize 0023  
         __end_of_EUSART_SetRxInterruptHandler 09BD          __size_of_EUSART_SetRxInterruptHandler 0009  
                 _EUSART_SetRxInterruptHandler 09B4                                  ?_deslocamento 0070  
                           _EUSART_Receive_ISR 0CBC  EUSART_SetFramingErrorHandler@interruptHandler 0023  
                  PWM3_LoadDutyValue@dutyValue 0023                                  __pstringtext1 07FF  
                               _FVR_Initialize 093C                         __Umul8_16@multiplicand 0023  
                          ?_EUSART_Receive_ISR 0070                          ?_CCP4_DefaultCallBack 0074  
                  ?_IOCBF0_SetInterruptHandler 0023                    ?_IOCBF3_SetInterruptHandler 0023  
                          __end_ofi1_txMAX7219 0BF6                                    ?_IOCBF0_ISR 0070  
                           EUSART_Write@txData 0071                   __size_of_EUSART_Transmit_ISR 0021  
                                  ?_IOCBF3_ISR 0070                 __end_of_PIN_MANAGER_Initialize 0C86  
             ??_IOCBF0_DefaultInterruptHandler 0070                ?_IOCBF0_DefaultInterruptHandler 0070  
                              _PIN_MANAGER_IOC 0A63                           ??_EUSART_Receive_ISR 0071  
                         __Umul8_16@multiplier 002B                     __size_of_ADC_GetConversion 001E  
                              _TMR1_Initialize 0B06                                _PWM3_Initialize 09D8  
                   __end_of_spi1_configuration 0803                              __Umul8_16@product 0027  
                               ??_deslocamento 0027  
